issuer :/C=NL/SP=Brabant/L=Eindhoven/O=Gittens Information Systems B.V./OU=Certification Services/CN=ca.gits.nl/Email=mgittens@gits.nl
subject:/C=NL/SP=Brabant/O=Gittens Information Systems B.V./OU=Certification Services/CN=caleb.gits.nl/Email=mgittens@gits.nl
serial :01

Certificate:
    Data:
        Version: 0 (0x0)
        Serial Number: 1 (0x1)
        Signature Algorithm: md5withRSAEncryption
        Issuer: C=NL, SP=Brabant, L=Eindhoven, O=Gittens Information Systems B.V., OU=Certification Services, CN=ca.gits.nl/Email=mgittens@gits.nl
        Validity
            Not Before: Jan  5 13:21:16 1997 GMT
            Not After : Jul 24 13:21:16 1997 GMT
        Subject: C=NL, SP=Brabant, O=Gittens Information Systems B.V., OU=Certification Services, CN=caleb.gits.nl/Email=mgittens@gits.nl
        Subject Public Key Info:
            Public Key Algorithm: rsaEncryption
                Modulus:
                    00:dd:82:a0:fe:a9:8d:6a:02:7e:78:d6:33:75:9b:
                    82:01:4b:12:80:ea:6b:9b:83:9e:e3:ae:dc:f3:d0:
                    71:7c:4b:ea:03:57:b4:cc:ba:44:5b:b8:4b:49:d3:
                    f6:39:cc:3d:12:1f:da:58:26:27:bc:bc:ab:a4:6d:
                    62:d1:91:5a:47:9f:80:40:c1:b9:fa:e3:1e:ef:52:
                    78:46:26:43:65:1d:f2:6b:bf:ff:c0:81:66:14:cd:
                    81:32:91:f1:f8:51:7d:0e:17:1f:27:fc:c7:51:fd:
                    1c:73:41:e5:66:43:3c:67:a3:09:b9:5e:36:50:50:
                    b1:e8:42:bd:5c:c6:2b:ec:a9:2c:fe:6a:fe:40:26:
                    64:9e:b9:bf:2d:1d:fb:d0:48:5b:82:2a:8e:ab:a4:
                    d5:7b:5f:26:84:8a:9a:69:5e:c1:71:e2:a9:59:4c:
                    2a:76:f7:fd:f4:cf:3f:d3:ce:30:72:62:65:1c:e9:
                    e9:ee:d2:fc:44:00:1e:e0:80:57:e9:41:b3:f0:44:
                    e5:0f:77:3b:1a:1f:57:5e:94:1d:c3:a5:fa:af:41:
                    8c:4c:30:6b:2b:00:84:52:0c:64:0c:a8:5b:17:16:
                    d1:1e:f8:ea:72:01:47:9a:b9:21:95:f9:71:ed:7c:
                    d2:93:54:0c:c5:9c:e8:e5:40:28:c5:a0:ca:b1:a9:
                    20:f9
                Exponent: 65537 (0x10001)
    Signature Algorithm: md5withRSAEncryption
        93:08:f9:e0:d4:c5:ca:95:de:4e:38:3b:28:87:e9:d3:b6:ce:
        4f:69:2e:c9:09:57:2f:fa:e2:50:9f:39:ec:f3:84:e8:3a:8f:
        9b:c3:06:62:90:49:93:6d:23:7a:2b:3d:7b:f9:46:32:18:d3:
        87:44:49:f7:29:2f:f3:58:97:70:c3:45:5b:90:52:1c:df:fb:
        a8:a3:a1:29:53:a3:4c:ed:d2:51:d0:44:98:a4:14:6f:76:9d:
        0d:03:76:e5:d3:13:21:ce:a3:4d:2a:77:fe:ad:b3:47:6d:42:
        b9:4a:0e:ff:61:f4:ec:62:b2:3b:00:9c:ac:16:a2:ec:19:c8:
        c7:3d:d7:7d:97:cd:4d:1a:d2:00:07:4e:40:3d:b9:ba:1e:e2:
        fe:81:28:57:b9:ad:2b:74:59:b0:9f:8b:a5:98:d3:75:06:67:
        4a:04:11:b2:ea:1a:8c:e0:d4:be:c8:0c:46:76:7f:5f:5a:7b:
        72:09:dd:b6:d3:6b:97:70:e8:7e:17:74:1c:f7:3a:5f:e3:fa:
        c2:f7:95:bd:74:5e:44:4b:9b:bd:27:de:02:7f:87:1f:68:68:
        60:b9:f4:1d:2b:7b:ce:ef:b1:7f:3a:be:b9:66:60:54:6f:0c:
        a0:dd:8c:03:a7:f1:9f:f8:0e:8d:bb:c6:ba:77:61:f7:8e:be:
        28:ba:d8:4f

-----BEGIN CERTIFICATE-----
MIIDzzCCArcCAQEwDQYJKoZIhvcNAQEEBQAwgbUxCzAJBgNVBAYTAk5MMRAwDgYD
VQQIEwdCcmFiYW50MRIwEAYDVQQHEwlFaW5kaG92ZW4xKTAnBgNVBAoTIEdpdHRl
bnMgSW5mb3JtYXRpb24gU3lzdGVtcyBCLlYuMR8wHQYDVQQLExZDZXJ0aWZpY2F0
aW9uIFNlcnZpY2VzMRMwEQYDVQQDEwpjYS5naXRzLm5sMR8wHQYJKoZIhvcNAQkB
FhBtZ2l0dGVuc0BnaXRzLm5sMB4XDTk3MDEwNTEzMjExNloXDTk3MDcyNDEzMjEx
NlowgaQxCzAJBgNVBAYTAk5MMRAwDgYDVQQIEwdCcmFiYW50MSkwJwYDVQQKEyBH
aXR0ZW5zIEluZm9ybWF0aW9uIFN5c3RlbXMgQi5WLjEfMB0GA1UECxMWQ2VydGlm
aWNhdGlvbiBTZXJ2aWNlczEWMBQGA1UEAxMNY2FsZWIuZ2l0cy5ubDEfMB0GCSqG
SIb3DQEJARYQbWdpdHRlbnNAZ2l0cy5ubDCCASIwDQYJKoZIhvcNAQEBBQADggEP
ADCCAQoCggEBAN2CoP6pjWoCfnjWM3WbggFLEoDqa5uDnuOu3PPQcXxL6gNXtMy6
RFu4S0nT9jnMPRIf2lgmJ7y8q6RtYtGRWkefgEDBufrjHu9SeEYmQ2Ud8mu//8CB
ZhTNgTKR8fhRfQ4XHyf8x1H9HHNB5WZDPGejCbleNlBQsehCvVzGK+ypLP5q/kAm
ZJ65vy0d+9BIW4Iqjquk1XtfJoSKmmlewXHiqVlMKnb3/fTPP9POMHJiZRzp6e7S
/EQAHuCAV+lBs/BE5Q93OxofV16UHcOl+q9BjEwwaysAhFIMZAyoWxcW0R746nIB
R5q5IZX5ce180pNUDMWc6OVAKMWgyrGpIPkCAwEAATANBgkqhkiG9w0BAQQFAAOC
AQEAkwj54NTFypXeTjg7KIfp07bOT2kuyQlXL/riUJ857POE6DqPm8MGYpBJk20j
eis9e/lGMhjTh0RJ9ykv81iXcMNFW5BSHN/7qKOhKVOjTO3SUdBEmKQUb3adDQN2
5dMTIc6jTSp3/q2zR21CuUoO/2H07GKyOwCcrBai7BnIxz3XfZfNTRrSAAdOQD25
uh7i/oEoV7mtK3RZsJ+LpZjTdQZnSgQRsuoajODUvsgMRnZ/X1p7cgndttNrl3Do
fhd0HPc6X+P6wveVvXReREubvSfeAn+HH2hoYLn0HSt7zu+xfzq+uWZgVG8MoN2M
A6fxn/gOjbvGundh946+KLrYTw==
-----END CERTIFICATE-----

