Certificate:
    Data:
        Version: 3 (0x2)
        Serial Number: 2 (0x2)
        Signature Algorithm: md5WithRSAEncryption
        Issuer: C=NZ, L=Wellington, O=Really Irresponsible Authorisation Authority (RIAA), OU=Cert-stamping, CN=Jackov al-Trades/Email=none@fake.domain
        Validity
            Not Before: Jan 16 05:19:30 2002 GMT
            Not After : Jan 14 05:19:30 2012 GMT
        Subject: C=NZ, L=Auckland, O=Mordor, OU=SSL grunt things, CN=tunala-client/Email=client@fake.domain
        Subject Public Key Info:
            Public Key Algorithm: rsaEncryption
            RSA Public Key: (1024 bit)
                Modulus (1024 bit):
                    00:b0:d3:56:5c:c8:7f:fb:f4:95:9d:04:84:4f:82:
                    b7:a2:75:5c:81:48:8c:56:5d:52:ee:38:e1:5c:c8:
                    9a:70:8e:72:f2:00:1c:17:ef:df:b7:06:59:82:04:
                    f1:f6:49:11:12:a6:4d:cb:1e:ed:ac:59:1c:4a:d0:
                    3d:de:e6:f2:8d:cd:39:c2:0f:e0:46:2f:db:cb:9f:
                    47:f7:56:e7:f8:16:5f:68:71:fb:3a:e3:ab:d2:e5:
                    05:b7:da:65:61:fe:6d:30:e4:12:a8:b5:c1:71:24:
                    6b:aa:80:05:41:17:a0:8b:6e:8b:e6:04:cf:85:7b:
                    2a:ac:a1:79:7d:f4:96:6e:77
                Exponent: 65537 (0x10001)
        X509v3 extensions:
            X509v3 Basic Constraints: 
                CA:FALSE
            Netscape Comment: 
                OpenSSL Generated Certificate
            X509v3 Subject Key Identifier: 
                F8:43:CB:4F:4D:4F:BC:6E:52:1A:FD:F9:7B:E1:12:3F:A7:A3:BA:93
            X509v3 Authority Key Identifier: 
                keyid:49:FB:45:72:12:C4:CC:E1:45:A1:D3:08:9E:95:C4:2C:6D:55:3F:17
                DirName:/C=NZ/L=Wellington/O=Really Irresponsible Authorisation Authority (RIAA)/OU=Cert-stamping/CN=Jackov al-Trades/Email=none@fake.domain
                serial:00

    Signature Algorithm: md5WithRSAEncryption
        8f:5f:0e:43:da:9d:61:43:7e:03:38:9a:e6:50:9d:42:e8:95:
        34:49:75:ec:04:8d:5c:85:99:94:70:a0:e7:1f:1e:a0:8b:0f:
        d6:e2:cb:f7:35:d9:96:72:bd:a6:e9:8d:4e:b1:e2:ac:97:7f:
        2f:70:01:9d:aa:04:bc:d4:01:2b:63:77:a5:de:63:3c:a8:f5:
        f2:72:af:ec:11:12:c0:d4:70:cf:71:a6:fb:e9:1d:b3:27:07:
        aa:f2:b1:f3:87:d6:ab:8b:ce:c2:08:1b:3c:f9:ba:ff:77:71:
        86:09:ef:9e:4e:04:06:63:44:e9:93:20:90:c7:2d:50:c6:50:
        f8:66
-----BEGIN CERTIFICATE-----
MIID9TCCA16gAwIBAgIBAjANBgkqhkiG9w0BAQQFADCBtDELMAkGA1UEBhMCTlox
EzARBgNVBAcTCldlbGxpbmd0b24xPDA6BgNVBAoTM1JlYWxseSBJcnJlc3BvbnNp
YmxlIEF1dGhvcmlzYXRpb24gQXV0aG9yaXR5IChSSUFBKTEWMBQGA1UECxMNQ2Vy
dC1zdGFtcGluZzEZMBcGA1UEAxMQSmFja292IGFsLVRyYWRlczEfMB0GCSqGSIb3
DQEJARYQbm9uZUBmYWtlLmRvbWFpbjAeFw0wMjAxMTYwNTE5MzBaFw0xMjAxMTQw
NTE5MzBaMIGHMQswCQYDVQQGEwJOWjERMA8GA1UEBxMIQXVja2xhbmQxDzANBgNV
BAoTBk1vcmRvcjEZMBcGA1UECxMQU1NMIGdydW50IHRoaW5nczEWMBQGA1UEAxMN
dHVuYWxhLWNsaWVudDEhMB8GCSqGSIb3DQEJARYSY2xpZW50QGZha2UuZG9tYWlu
MIGfMA0GCSqGSIb3DQEBAQUAA4GNADCBiQKBgQCw01ZcyH/79JWdBIRPgreidVyB
SIxWXVLuOOFcyJpwjnLyABwX79+3BlmCBPH2SRESpk3LHu2sWRxK0D3e5vKNzTnC
D+BGL9vLn0f3Vuf4Fl9ocfs646vS5QW32mVh/m0w5BKotcFxJGuqgAVBF6CLbovm
BM+FeyqsoXl99JZudwIDAQABo4IBQDCCATwwCQYDVR0TBAIwADAsBglghkgBhvhC
AQ0EHxYdT3BlblNTTCBHZW5lcmF0ZWQgQ2VydGlmaWNhdGUwHQYDVR0OBBYEFPhD
y09NT7xuUhr9+XvhEj+no7qTMIHhBgNVHSMEgdkwgdaAFEn7RXISxMzhRaHTCJ6V
xCxtVT8XoYG6pIG3MIG0MQswCQYDVQQGEwJOWjETMBEGA1UEBxMKV2VsbGluZ3Rv
bjE8MDoGA1UEChMzUmVhbGx5IElycmVzcG9uc2libGUgQXV0aG9yaXNhdGlvbiBB
dXRob3JpdHkgKFJJQUEpMRYwFAYDVQQLEw1DZXJ0LXN0YW1waW5nMRkwFwYDVQQD
ExBKYWNrb3YgYWwtVHJhZGVzMR8wHQYJKoZIhvcNAQkBFhBub25lQGZha2UuZG9t
YWluggEAMA0GCSqGSIb3DQEBBAUAA4GBAI9fDkPanWFDfgM4muZQnULolTRJdewE
jVyFmZRwoOcfHqCLD9biy/c12ZZyvabpjU6x4qyXfy9wAZ2qBLzUAStjd6XeYzyo
9fJyr+wREsDUcM9xpvvpHbMnB6rysfOH1quLzsIIGzz5uv93cYYJ755OBAZjROmT
IJDHLVDGUPhm
-----END CERTIFICATE-----
-----BEGIN RSA PRIVATE KEY-----
MIICXgIBAAKBgQCw01ZcyH/79JWdBIRPgreidVyBSIxWXVLuOOFcyJpwjnLyABwX
79+3BlmCBPH2SRESpk3LHu2sWRxK0D3e5vKNzTnCD+BGL9vLn0f3Vuf4Fl9ocfs6
46vS5QW32mVh/m0w5BKotcFxJGuqgAVBF6CLbovmBM+FeyqsoXl99JZudwIDAQAB
AoGAU4chbqbPvkclPYzaq2yGLlneHrwUft+KwzlfS6L/QVgo+CQRIUWQmjaHpaGM
YtjVFcg1S1QK1bUqZjTEZT0XKhfbYmqW8yYTfbcDEbnY7esoYlvIlW8qRlPRlTBE
utKrtZafmVhLgoNawYGD0aLZofPqpYjbGUlrC7nrem2vNJECQQDVLD3Qb+OlEMET
73ApnJhYsK3e+G2LTrtjrS8y5zS4+Xv61XUqvdV7ogzRl0tpvSAmMOItVyoYadkB
S3xSIWX9AkEA1Fm1FhkQSZwGG5rf4c6gMN71jJ6JE3/kocdVa0sUjRevIupo4XQ2
Vkykxi84MRP8cfHqyjewq7Ozv3op2MGWgwJBAKemsb66IJjzAkaBav7u70nhOf0/
+Dc1Zl7QF2y7NVW8sGrnccx5m+ot2lMD4AV6/kvK6jaqdKrapBZGnbGiHqkCQQDI
T1r33mqz1R8Z2S2Jtzz6/McKf930a/dC+GLGVEutkILf39lRmytKmv/wB0jtWtoO
rlJ5sLDSNzC+1cE1u997AkEAu3IrtGmLKiuS6kDj6W47m+iiTIsuSJtTJb1SbUaK
fIoBNFxbvJYW6rUU9+PxpMRaEhzh5s24/jBOE+mlb17mRQ==
-----END RSA PRIVATE KEY-----
