Certificate:
    Data:
        Version: 3 (0x2)
        Serial Number: 1 (0x1)
        Signature Algorithm: md5WithRSAEncryption
        Issuer: C=NZ, L=Wellington, O=Really Irresponsible Authorisation Authority (RIAA), OU=Cert-stamping, CN=Jackov al-Trades/Email=none@fake.domain
        Validity
            Not Before: Jan 16 05:14:06 2002 GMT
            Not After : Jan 14 05:14:06 2012 GMT
        Subject: C=NZ, L=Wellington, O=Middle Earth, OU=SSL dev things, CN=tunala-server/Email=server@fake.domain
        Subject Public Key Info:
            Public Key Algorithm: rsaEncryption
            RSA Public Key: (1024 bit)
                Modulus (1024 bit):
                    00:a9:3e:62:87:97:13:6b:de:8f:bc:1d:0a:3f:65:
                    0c:f9:76:a3:53:ce:97:30:27:0d:c6:df:72:1f:8d:
                    5a:ce:58:23:6a:65:e5:e3:72:1a:8d:7f:fe:90:01:
                    ea:42:f1:9f:6e:7b:0a:bd:eb:52:15:7b:f4:3d:9c:
                    4e:db:74:29:2b:d1:81:9d:b9:9e:18:2b:87:e1:da:
                    50:20:3c:59:6c:c9:83:3e:2c:11:0b:78:1e:03:f4:
                    56:3a:db:95:6a:75:33:85:a9:7b:cc:3c:4a:67:96:
                    f2:24:b2:a0:cb:2e:cc:52:18:16:6f:44:d9:29:64:
                    07:2e:fb:56:cc:7c:dc:a2:d7
                Exponent: 65537 (0x10001)
        X509v3 extensions:
            X509v3 Basic Constraints: 
                CA:FALSE
            Netscape Comment: 
                OpenSSL Generated Certificate
            X509v3 Subject Key Identifier: 
                70:AC:7A:B5:6E:97:C2:82:AF:11:9E:32:CB:8D:48:49:93:B7:DC:22
            X509v3 Authority Key Identifier: 
                keyid:49:FB:45:72:12:C4:CC:E1:45:A1:D3:08:9E:95:C4:2C:6D:55:3F:17
                DirName:/C=NZ/L=Wellington/O=Really Irresponsible Authorisation Authority (RIAA)/OU=Cert-stamping/CN=Jackov al-Trades/Email=none@fake.domain
                serial:00

    Signature Algorithm: md5WithRSAEncryption
        2e:cb:a3:cd:6d:a8:9d:d1:dc:e5:f0:e0:27:7e:4b:5a:90:a8:
        85:43:f0:05:f7:04:43:d7:5f:d1:a5:8f:5c:58:eb:fc:da:c6:
        7c:e0:0b:2b:98:72:95:f6:79:48:96:7a:fa:0c:6b:09:ec:c6:
        8c:91:74:45:9f:8f:0f:16:78:e3:66:14:fa:1e:f4:f0:23:ec:
        cd:a9:52:77:20:4d:c5:05:2c:52:b6:7b:f3:42:33:fd:90:1f:
        3e:88:6f:9b:23:61:c8:80:3b:e6:57:84:2e:f7:26:c7:35:ed:
        00:8b:08:30:9b:aa:21:83:b6:6d:b8:7c:8a:9b:2a:ef:79:3d:
        96:31
-----BEGIN CERTIFICATE-----
MIID+zCCA2SgAwIBAgIBATANBgkqhkiG9w0BAQQFADCBtDELMAkGA1UEBhMCTlox
EzARBgNVBAcTCldlbGxpbmd0b24xPDA6BgNVBAoTM1JlYWxseSBJcnJlc3BvbnNp
YmxlIEF1dGhvcmlzYXRpb24gQXV0aG9yaXR5IChSSUFBKTEWMBQGA1UECxMNQ2Vy
dC1zdGFtcGluZzEZMBcGA1UEAxMQSmFja292IGFsLVRyYWRlczEfMB0GCSqGSIb3
DQEJARYQbm9uZUBmYWtlLmRvbWFpbjAeFw0wMjAxMTYwNTE0MDZaFw0xMjAxMTQw
NTE0MDZaMIGNMQswCQYDVQQGEwJOWjETMBEGA1UEBxMKV2VsbGluZ3RvbjEVMBMG
A1UEChMMTWlkZGxlIEVhcnRoMRcwFQYDVQQLEw5TU0wgZGV2IHRoaW5nczEWMBQG
A1UEAxMNdHVuYWxhLXNlcnZlcjEhMB8GCSqGSIb3DQEJARYSc2VydmVyQGZha2Uu
ZG9tYWluMIGfMA0GCSqGSIb3DQEBAQUAA4GNADCBiQKBgQCpPmKHlxNr3o+8HQo/
ZQz5dqNTzpcwJw3G33IfjVrOWCNqZeXjchqNf/6QAepC8Z9uewq961IVe/Q9nE7b
dCkr0YGduZ4YK4fh2lAgPFlsyYM+LBELeB4D9FY625VqdTOFqXvMPEpnlvIksqDL
LsxSGBZvRNkpZAcu+1bMfNyi1wIDAQABo4IBQDCCATwwCQYDVR0TBAIwADAsBglg
hkgBhvhCAQ0EHxYdT3BlblNTTCBHZW5lcmF0ZWQgQ2VydGlmaWNhdGUwHQYDVR0O
BBYEFHCserVul8KCrxGeMsuNSEmTt9wiMIHhBgNVHSMEgdkwgdaAFEn7RXISxMzh
RaHTCJ6VxCxtVT8XoYG6pIG3MIG0MQswCQYDVQQGEwJOWjETMBEGA1UEBxMKV2Vs
bGluZ3RvbjE8MDoGA1UEChMzUmVhbGx5IElycmVzcG9uc2libGUgQXV0aG9yaXNh
dGlvbiBBdXRob3JpdHkgKFJJQUEpMRYwFAYDVQQLEw1DZXJ0LXN0YW1waW5nMRkw
FwYDVQQDExBKYWNrb3YgYWwtVHJhZGVzMR8wHQYJKoZIhvcNAQkBFhBub25lQGZh
a2UuZG9tYWluggEAMA0GCSqGSIb3DQEBBAUAA4GBAC7Lo81tqJ3R3OXw4Cd+S1qQ
qIVD8AX3BEPXX9Glj1xY6/zaxnzgCyuYcpX2eUiWevoMawnsxoyRdEWfjw8WeONm
FPoe9PAj7M2pUncgTcUFLFK2e/NCM/2QHz6Ib5sjYciAO+ZXhC73Jsc17QCLCDCb
qiGDtm24fIqbKu95PZYx
-----END CERTIFICATE-----
-----BEGIN RSA PRIVATE KEY-----
MIICXAIBAAKBgQCpPmKHlxNr3o+8HQo/ZQz5dqNTzpcwJw3G33IfjVrOWCNqZeXj
chqNf/6QAepC8Z9uewq961IVe/Q9nE7bdCkr0YGduZ4YK4fh2lAgPFlsyYM+LBEL
eB4D9FY625VqdTOFqXvMPEpnlvIksqDLLsxSGBZvRNkpZAcu+1bMfNyi1wIDAQAB
AoGANCwqHZhiAU/TyW6+WPqivEhpYw19p/dyFMuPF9DwnEmpaUROUQY8z0AUznn4
qHhp6Jn/nrprTHowucl0ucweYIYVxZoUiUDFpxdFUbzMdFvo6HcyV1Pe4Rt81HaY
KYWrTZ6PaPtN65hLms8NhPEdGcGAFlY1owYv4QNGq2bU1JECQQDd32LM0NSfyGmK
4ziajqGcvzK9NO2XyV/nJsGlJZNgMh2zm1t7yR28l/6Q2uyU49cCN+2aYULZCAfs
taNvxBspAkEAw0alNub+xj2AVQvaxOB1sGfKzsJjHCzKIxUXn/tJi3j0+2asmkBZ
Umx1MWr9jKQBnCMciCRUbnMEZiElOxCN/wJAfAeQl6Z19gx206lJzzzEo3dOye54
k02DSxijT8q9pBzf9bN3ZK987BybtiZr8p+bZiYVsSOF1wViSLURdD1QYQJAIaMU
qH1n24wShBPTrmAfxbBLTgxL+Dl65Eoo1KT7iSvfv0JzbuqwuDL4iPeuD0DdCiE+
M/FWHeRwGIuTFzaFzwJBANKwx0jZS/h093w9g0Clw6UzeA1P5VcAt9y+qMC9hO3c
4KXwIxQAt9yRaFLpiIR9do5bjjKNnMguf3aO/XRSDQM=
-----END RSA PRIVATE KEY-----
