Certificate:
    Data:
        Version: 3 (0x2)
        Serial Number: 6197312946105598768 (0x5601474a2a8dc330)
        Signature Algorithm: ED25519
        Issuer: CN = IETF Test Demo
        Validity
            Not Before: Aug  1 12:19:24 2016 GMT
            Not After : Nov 11 16:34:03 2121 GMT
        Subject: CN = IETF Test Demo
        Subject Public Key Info:
            Public Key Algorithm: X25519
                X25519 Public-Key:
                pub:
                    85:20:f0:09:89:30:a7:54:74:8b:7d:dc:b4:3e:f7:
                    5a:0d:bf:3a:0d:26:38:1a:f4:eb:a4:a9:8e:aa:9b:
                    4e:6a
        X509v3 extensions:
            X509v3 Basic Constraints: critical
                CA:FALSE
            X509v3 Key Usage: 
                Key Agreement
            X509v3 Subject Key Identifier: 
                9B:1F:5E:ED:ED:04:33:85:E4:F7:BC:62:3C:59:75:B9:0B:C8:BB:3B
    Signature Algorithm: ED25519
         72:b4:22:9c:d5:7b:85:10:ff:7c:28:59:e5:bb:1e:e8:b6:5f:
         74:39:94:dd:2f:8a:3d:6c:f3:23:28:d1:5e:3c:d1:56:e7:0a:
         ea:99:ff:62:5c:48:0f:1c:24:24:35:98:1a:bb:ae:96:b9:93:
         b3:cb:8e:45:e3:c0:ef:2e:5c:07
-----BEGIN CERTIFICATE-----
MIIBLjCB4aADAgECAghWAUdKKo3DMDAFBgMrZXAwGTEXMBUGA1UEAwwOSUVURiBU
ZXN0IERlbW8wIBcNMTYwODAxMTIxOTI0WhgPMjEyMTExMTExNjM0MDNaMBkxFzAV
BgNVBAMMDklFVEYgVGVzdCBEZW1vMCowBQYDK2VuAyEAhSDwCYkwp1R0i33ctD73
Wg2/Og0mOBr066SpjqqbTmqjRTBDMA8GA1UdEwEB/wQFMAMBAQAwDgYDVR0PAQEA
BAQDAgMIMCAGA1UdDgEBAAQWBBSbH17t7QQzheT3vGI8WXW5C8i7OzAFBgMrZXAD
QQBytCKc1XuFEP98KFnlux7otl90OZTdL4o9bPMjKNFePNFW5wrqmf9iXEgPHCQk
NZgau66WuZOzy45F48DvLlwH
-----END CERTIFICATE-----
