Certificate:
    Data:
        Version: 3 (0x2)
        Serial Number:
            88:43:29:cb:c2:eb:15:9a
        Signature Algorithm: sha256WithRSAEncryption
        Issuer: C = AU, ST = Some-State, O = Internet Widgits Pty Ltd, CN = rootCA
        Validity
            Not Before: Jul  2 13:15:11 2015 GMT
            Not After : Jul  2 17:50:05 2122 GMT
        Subject: C = AU, ST = Some-State, O = Internet Widgits Pty Ltd, CN = rootCA
        Subject Public Key Info:
            Public Key Algorithm: rsaEncryption
                RSA Public-Key: (2048 bit)
                Modulus:
                    00:c0:f1:6b:77:88:ac:35:df:fb:73:53:2f:92:80:
                    2f:74:16:32:4d:f5:10:20:6f:6c:3a:8e:d1:dc:6b:
                    e1:2e:3e:c3:04:0f:bf:9b:c4:c9:12:d1:e4:0b:45:
                    97:e5:06:cd:66:3a:e1:e0:e2:2b:df:a2:c4:ec:7b:
                    d3:3d:3c:8a:ff:5e:74:a0:ab:a7:03:6a:16:5b:5e:
                    92:c4:7e:5b:79:8a:69:d4:bc:83:5e:ae:42:92:74:
                    a5:2b:e7:00:c1:a9:dc:d5:b1:53:07:0f:73:f7:8e:
                    ad:14:3e:25:9e:e5:1e:e6:cc:91:cd:95:0c:80:44:
                    20:c3:fd:17:cf:91:3d:63:10:1c:14:5b:fb:c3:a8:
                    c1:88:b2:77:ff:9c:db:fc:6a:44:44:44:f7:85:ec:
                    08:2c:d4:df:81:a3:79:c9:fe:1e:9b:93:16:53:b7:
                    97:ab:be:4f:1a:a5:e2:fa:46:05:e4:0d:9c:2a:a4:
                    cc:b9:1e:21:a0:6c:c4:ab:59:b0:40:39:bb:f9:88:
                    ad:fd:df:8d:b4:0b:af:7e:41:e0:21:3c:c8:33:45:
                    49:84:2f:93:06:ee:fd:4f:ed:4f:f3:bc:9b:de:fc:
                    25:5e:55:d5:75:d4:c5:7b:3a:40:35:06:9f:c4:84:
                    b4:6c:93:0c:af:37:5a:af:b6:41:4d:26:23:1c:b8:
                    02:b3
                Exponent: 65537 (0x10001)
        X509v3 extensions:
            X509v3 Basic Constraints: 
                CA:TRUE
            X509v3 Subject Key Identifier: 
                85:56:89:35:E2:9F:00:1A:E1:86:03:0B:4B:AF:76:12:6B:33:6D:FD
            X509v3 Authority Key Identifier: 
                keyid:85:56:89:35:E2:9F:00:1A:E1:86:03:0B:4B:AF:76:12:6B:33:6D:FD

    Signature Algorithm: sha256WithRSAEncryption
         b9:5c:c3:39:31:e9:c1:63:f9:f1:29:2c:c6:84:80:ed:33:e5:
         72:3c:2c:e8:93:1f:07:03:65:cd:bb:04:ed:10:29:00:5f:ea:
         91:08:19:df:10:88:e9:00:5c:2e:eb:b5:af:98:70:c8:c4:8b:
         53:c4:26:c5:a1:d8:46:b9:9f:7d:48:e0:26:74:2c:61:b8:c1:
         89:06:b6:e5:b5:ba:6b:75:2b:16:ad:ca:88:26:25:73:9b:15:
         22:59:6a:94:dc:61:34:88:28:58:9f:de:fd:71:1e:37:af:90:
         74:7b:cf:bb:93:1c:73:24:15:26:7a:33:8c:5d:5b:81:97:14:
         62:01:7e:17:76:fb:aa:7a:4d:ed:81:2b:bd:d9:f3:12:69:86:
         01:b3:91:0a:8d:6b:bd:71:41:a9:93:63:c2:a1:ab:0d:48:05:
         99:7d:9e:a2:a4:ac:9f:73:0d:5b:5c:05:3a:52:64:fe:17:79:
         2a:27:51:d7:5b:af:dc:10:d5:23:6b:2c:62:51:00:c9:67:17:
         2d:29:a3:21:88:fd:14:48:0d:99:8c:d8:f8:c8:c7:ec:d2:83:
         3d:ba:d4:94:7b:df:39:61:4b:e3:7c:b9:ea:77:09:01:bc:ec:
         db:1c:fa:42:1b:6d:1d:b1:51:5f:e4:87:dd:41:24:00:a2:52:
         e0:1a:c0:1c
-----BEGIN CERTIFICATE-----
MIIDgTCCAmmgAwIBAgIJAIhDKcvC6xWaMA0GCSqGSIb3DQEBCwUAMFYxCzAJBgNV
BAYTAkFVMRMwEQYDVQQIDApTb21lLVN0YXRlMSEwHwYDVQQKDBhJbnRlcm5ldCBX
aWRnaXRzIFB0eSBMdGQxDzANBgNVBAMMBnJvb3RDQTAgFw0xNTA3MDIxMzE1MTFa
GA8yMTIyMDcwMjE3NTAwNVowVjELMAkGA1UEBhMCQVUxEzARBgNVBAgMClNvbWUt
U3RhdGUxITAfBgNVBAoMGEludGVybmV0IFdpZGdpdHMgUHR5IEx0ZDEPMA0GA1UE
AwwGcm9vdENBMIIBIjANBgkqhkiG9w0BAQEFAAOCAQ8AMIIBCgKCAQEAwPFrd4is
Nd/7c1MvkoAvdBYyTfUQIG9sOo7R3GvhLj7DBA+/m8TJEtHkC0WX5QbNZjrh4OIr
36LE7HvTPTyK/150oKunA2oWW16SxH5beYpp1LyDXq5CknSlK+cAwanc1bFTBw9z
946tFD4lnuUe5syRzZUMgEQgw/0Xz5E9YxAcFFv7w6jBiLJ3/5zb/GpERET3hewI
LNTfgaN5yf4em5MWU7eXq75PGqXi+kYF5A2cKqTMuR4hoGzEq1mwQDm7+Yit/d+N
tAuvfkHgITzIM0VJhC+TBu79T+1P87yb3vwlXlXVddTFezpANQafxIS0bJMMrzda
r7ZBTSYjHLgCswIDAQABo1AwTjAMBgNVHRMEBTADAQH/MB0GA1UdDgQWBBSFVok1
4p8AGuGGAwtLr3YSazNt/TAfBgNVHSMEGDAWgBSFVok14p8AGuGGAwtLr3YSazNt
/TANBgkqhkiG9w0BAQsFAAOCAQEAuVzDOTHpwWP58SksxoSA7TPlcjws6JMfBwNl
zbsE7RApAF/qkQgZ3xCI6QBcLuu1r5hwyMSLU8QmxaHYRrmffUjgJnQsYbjBiQa2
5bW6a3UrFq3KiCYlc5sVIllqlNxhNIgoWJ/e/XEeN6+QdHvPu5MccyQVJnozjF1b
gZcUYgF+F3b7qnpN7YErvdnzEmmGAbORCo1rvXFBqZNjwqGrDUgFmX2eoqSsn3MN
W1wFOlJk/hd5KidR11uv3BDVI2ssYlEAyWcXLSmjIYj9FEgNmYzY+MjH7NKDPbrU
lHvfOWFL43y56ncJAbzs2xz6QhttHbFRX+SH3UEkAKJS4BrAHA==
-----END CERTIFICATE-----
