Certificate:
    Data:
        Version: 3 (0x2)
        Serial Number:
            84:f1:08:3d:1c:e3:2d:95
        Signature Algorithm: ED25519
        Issuer: CN = IETF Test Demo
        Validity
            Not Before: Apr 19 21:36:39 2017 GMT
            Not After : Nov 11 15:37:05 2122 GMT
        Subject: CN = IETF Test Demo
        Subject Public Key Info:
            Public Key Algorithm: ED25519
                ED25519 Public-Key:
                pub:
                    19:bf:44:09:69:84:cd:fe:85:41:ba:c1:67:dc:3b:
                    96:c8:50:86:aa:30:b6:b6:cb:0c:5c:38:ad:70:31:
                    66:e1
        X509v3 extensions:
            X509v3 Subject Key Identifier: 
                A2:8C:C1:F8:6E:59:60:D3:E0:3A:E7:5C:96:2C:97:A8:D4:48:29:3C
            X509v3 Authority Key Identifier: 
                keyid:A2:8C:C1:F8:6E:59:60:D3:E0:3A:E7:5C:96:2C:97:A8:D4:48:29:3C

            X509v3 Basic Constraints: 
                CA:TRUE
    Signature Algorithm: ED25519
         08:f9:fc:49:37:0c:03:64:ed:90:70:89:eb:f1:69:ca:75:3b:
         71:15:8f:eb:80:45:00:db:88:9b:66:46:9c:a4:e1:50:c5:59:
         43:98:66:37:6d:b7:59:51:5d:b4:9d:1d:89:25:b4:f6:87:43:
         b7:d3:3b:85:b9:8e:e1:a8:46:04
-----BEGIN CERTIFICATE-----
MIIBOjCB7aADAgECAgkAhPEIPRzjLZUwBQYDK2VwMBkxFzAVBgNVBAMMDklFVEYg
VGVzdCBEZW1vMCAXDTE3MDQxOTIxMzYzOVoYDzIxMjIxMTExMTUzNzA1WjAZMRcw
FQYDVQQDDA5JRVRGIFRlc3QgRGVtbzAqMAUGAytlcAMhABm/RAlphM3+hUG6wWfc
O5bIUIaqMLa2ywxcOK1wMWbho1AwTjAdBgNVHQ4EFgQUoozB+G5ZYNPgOudcliyX
qNRIKTwwHwYDVR0jBBgwFoAUoozB+G5ZYNPgOudcliyXqNRIKTwwDAYDVR0TBAUw
AwEB/zAFBgMrZXADQQAI+fxJNwwDZO2QcInr8WnKdTtxFY/rgEUA24ibZkacpOFQ
xVlDmGY3bbdZUV20nR2JJbT2h0O30zuFuY7hqEYE
-----END CERTIFICATE-----
