issuer :/C=AU/SP=Queensland/L=Brisbane/O=Cryptsoft Pty Ltd/OU=DEMONSTRATION AND TESTING/CN=DEMO ZERO VALUE CA
subject:/C=AU/SP=Queensland/L=Brisbane/O=Cryptsoft Pty Ltd/OU=SMIME 003/CN=Information/Email=info@cryptsoft.com
serial :047D

Certificate:
    Data:
        Version: 3 (0x2)
        Serial Number: 1149 (0x47d)
        Signature Algorithm: md5withRSAEncryption
        Issuer: C=AU, SP=Queensland, L=Brisbane, O=Cryptsoft Pty Ltd, OU=DEMONSTRATION AND TESTING, CN=DEMO ZERO VALUE CA
        Validity
            Not Before: May 13 05:40:58 1998 GMT
            Not After : May 12 05:40:58 2000 GMT
        Subject: C=AU, SP=Queensland, L=Brisbane, O=Cryptsoft Pty Ltd, OU=SMIME 003, CN=Information/Email=info@cryptsoft.com
        Subject Public Key Info:
            Public Key Algorithm: rsaEncryption
                Modulus:
                    00:ad:e7:23:89:ee:0d:87:b7:9c:32:44:4b:95:81:
                    73:dd:22:80:4b:2d:c5:60:b8:fe:1e:18:63:ef:dc:
                    89:89:22:df:95:3c:7a:db:3d:9a:06:a8:08:d6:29:
                    fd:ef:41:09:91:ed:bc:ad:98:f9:f6:28:90:62:6f:
                    e7:e7:0c:4d:0b
                Exponent: 65537 (0x10001)
        X509v3 extensions:
            Netscape Comment: 
                Generated with SSLeay
    Signature Algorithm: md5withRSAEncryption
        52:15:ea:88:f4:f0:f9:0b:ef:ce:d5:f8:83:40:61:16:5e:55:
        f9:ce:2d:d1:8b:31:5c:03:c6:2d:10:7c:61:d5:5c:0a:42:97:
        d1:fd:65:b6:b6:84:a5:39:ec:46:ec:fc:e0:0d:d9:22:da:1b:
        50:74:ad:92:cb:4e:90:e5:fa:7d

-----BEGIN CERTIFICATE-----
MIICTDCCAfagAwIBAgICBH0wDQYJKoZIhvcNAQEEBQAwgZIxCzAJBgNVBAYTAkFV
MRMwEQYDVQQIEwpRdWVlbnNsYW5kMREwDwYDVQQHEwhCcmlzYmFuZTEaMBgGA1UE
ChMRQ3J5cHRzb2Z0IFB0eSBMdGQxIjAgBgNVBAsTGURFTU9OU1RSQVRJT04gQU5E
IFRFU1RJTkcxGzAZBgNVBAMTEkRFTU8gWkVSTyBWQUxVRSBDQTAeFw05ODA1MTMw
NTQwNThaFw0wMDA1MTIwNTQwNThaMIGeMQswCQYDVQQGEwJBVTETMBEGA1UECBMK
UXVlZW5zbGFuZDERMA8GA1UEBxMIQnJpc2JhbmUxGjAYBgNVBAoTEUNyeXB0c29m
dCBQdHkgTHRkMRIwEAYDVQQLEwlTTUlNRSAwMDMxFDASBgNVBAMTC0luZm9ybWF0
aW9uMSEwHwYJKoZIhvcNAQkBFhJpbmZvQGNyeXB0c29mdC5jb20wXDANBgkqhkiG
9w0BAQEFAANLADBIAkEArecjie4Nh7ecMkRLlYFz3SKASy3FYLj+Hhhj79yJiSLf
lTx62z2aBqgI1in970EJke28rZj59iiQYm/n5wxNCwIDAQABoygwJjAkBglghkgB
hvhCAQ0EFxYVR2VuZXJhdGVkIHdpdGggU1NMZWF5MA0GCSqGSIb3DQEBBAUAA0EA
UhXqiPTw+QvvztX4g0BhFl5V+c4t0YsxXAPGLRB8YdVcCkKX0f1ltraEpTnsRuz8
4A3ZItobUHStkstOkOX6fQ==
-----END CERTIFICATE-----

-----BEGIN RSA PRIVATE KEY-----
MIIBOgIBAAJBAK3nI4nuDYe3nDJES5WBc90igEstxWC4/h4YY+/ciYki35U8ets9
mgaoCNYp/e9BCZHtvK2Y+fYokGJv5+cMTQsCAwEAAQJBAIHpvXvqEcOEoDRRHuIG
fkcB4jPHcr9KE9TpxabH6xs9beN6OJnkePXAHwaz5MnUgSnbpOKq+cw8miKjXwe/
zVECIQDVLwncT2lRmXarEYHzb+q/0uaSvKhWKKt3kJasLNTrAwIhANDUc/ghut29
p3jJYjurzUKuG774/5eLjPLsxPPIZzNZAiA/10hSq41UnGqHLEUIS9m2/EeEZe7b
bm567dfRU9OnVQIgDo8ROrZXSchEGbaog5J5r/Fle83uO8l93R3GqVxKXZkCIFfk
IPD5PIYQAyyod3hyKKza7ZP4CGY4oOfZetbkSGGG
-----END RSA PRIVATE KEY-----
