EXPORTS
    ?$TSS0@?1??CrcAndCopy@CrcMemcpy@crc_internal@absl@@SA?AVcrc32c_t@3@PEIAXPEIBX_KV43@_N@Z@4HA
    ??$?0AEAVCord@absl@@@?$__optional_destruct_base@VCord@absl@@$0A@@__Cr@std@@QEAA@Uin_place_t@12@AEAVCord@absl@@@Z
    ??$?0V?$allocator@D@__Cr@std@@@AlphaNum@absl@@QEAA@AEBV?$basic_string@DU?$char_traits@D@__Cr@std@@V?$allocator@D@23@@__Cr@std@@@Z
    ??$?0V?$basic_string@DU?$char_traits@D@__Cr@std@@V?$allocator@D@23@@__Cr@std@@$0A@@Cord@absl@@QEAA@$$QEAV?$basic_string@DU?$char_traits@D@__Cr@std@@V?$allocator@D@23@@__Cr@std@@@Z
    ??$?6C$0A@@LogMessage@log_internal@absl@@QEAAAEAV012@AEBC@Z
    ??$?6D$0A@@LogMessage@log_internal@absl@@QEAAAEAV012@AEBD@Z
    ??$?6E$0A@@LogMessage@log_internal@absl@@QEAAAEAV012@AEBE@Z
    ??$?6F$0A@@LogMessage@log_internal@absl@@QEAAAEAV012@AEBF@Z
    ??$?6G$0A@@LogMessage@log_internal@absl@@QEAAAEAV012@AEBG@Z
    ??$?6H$0A@@LogMessage@log_internal@absl@@QEAAAEAV012@AEBH@Z
    ??$?6I$0A@@LogMessage@log_internal@absl@@QEAAAEAV012@AEBI@Z
    ??$?6J$0A@@LogMessage@log_internal@absl@@QEAAAEAV012@AEBJ@Z
    ??$?6K$0A@@LogMessage@log_internal@absl@@QEAAAEAV012@AEBK@Z
    ??$?6M$0A@@LogMessage@log_internal@absl@@QEAAAEAV012@AEBM@Z
    ??$?6N$0A@@LogMessage@log_internal@absl@@QEAAAEAV012@AEBN@Z
    ??$?6PEAX$0A@@LogMessage@log_internal@absl@@QEAAAEAV012@AEBQEAX@Z
    ??$?6PEBX$0A@@LogMessage@log_internal@absl@@QEAAAEAV012@AEBQEBX@Z
    ??$?6_J$0A@@LogMessage@log_internal@absl@@QEAAAEAV012@AEB_J@Z
    ??$?6_K$0A@@LogMessage@log_internal@absl@@QEAAAEAV012@AEB_K@Z
    ??$?6_N$0A@@LogMessage@log_internal@absl@@QEAAAEAV012@AEB_N@Z
    ??$?MUsecond_tag@detail@cctz@time_internal@absl@@U01234@@detail@cctz@time_internal@absl@@YA_NAEBV?$civil_time@Usecond_tag@detail@cctz@time_internal@absl@@@0123@0@Z
    ??$?RPEBUPrefixCrc@CrcCordState@crc_internal@absl@@V?$__deque_iterator@UPrefixCrc@CrcCordState@crc_internal@absl@@PEAU1234@AEAU1234@PEAPEAU1234@_J$0A@@__Cr@std@@$0A@@?$__copy_loop@U_ClassicAlgPolicy@__Cr@std@@@__Cr@std@@QEBA?AU?$pair@PEBUPrefixCrc@CrcCordState@crc_internal@absl@@V?$__deque_iterator@UPrefixCrc@CrcCordState@crc_internal@absl@@PEAU1234@AEAU1234@PEAPEAU1234@_J$0A@@__Cr@std@@@12@PEBUPrefixCrc@CrcCordState@crc_internal@absl@@0V?$__deque_iterator@UPrefixCrc@CrcCordState@crc_internal@absl@@PEAU1234@AEAU1234@PEAPEAU1234@_J$0A@@12@@Z
    ??$?RW4LogSeverity@absl@@AEBQEBDHAEAPEBD@?$AtomicHook@P6AXW4LogSeverity@absl@@PEBDHAEBV?$basic_string@DU?$char_traits@D@__Cr@std@@V?$allocator@D@23@@__Cr@std@@@Z@base_internal@absl@@QEBAX$$QEAW4LogSeverity@2@AEBQEBD$$QEAHAEAPEBD@Z
    ??$?RW4LogSeverity@absl@@AEBQEBDHAEAY0CC@$$CBD@?$AtomicHook@P6AXW4LogSeverity@absl@@PEBDHAEBV?$basic_string@DU?$char_traits@D@__Cr@std@@V?$allocator@D@23@@__Cr@std@@@Z@base_internal@absl@@QEBAX$$QEAW4LogSeverity@2@AEBQEBD$$QEAHAEAY0CC@$$CBD@Z
    ??$?RW4LogSeverity@absl@@AEBQEBDHAEAY0CG@$$CBD@?$AtomicHook@P6AXW4LogSeverity@absl@@PEBDHAEBV?$basic_string@DU?$char_traits@D@__Cr@std@@V?$allocator@D@23@@__Cr@std@@@Z@base_internal@absl@@QEBAX$$QEAW4LogSeverity@2@AEBQEBD$$QEAHAEAY0CG@$$CBD@Z
    ??$AbslHashValue@VMixingHashState@hash_internal@absl@@@hash_internal@absl@@YA?AVMixingHashState@01@V201@V?$basic_string_view@DU?$char_traits@D@__Cr@std@@@__Cr@std@@@Z
    ??$AbslStringify@VStringifySink@strings_internal@absl@@@absl@@YAXAEAVStringifySink@strings_internal@0@UHex@0@@Z
    ??$AddCordRep@$00@CordRepBtree@cord_internal@absl@@CAPEAV012@PEAV012@PEAUCordRep@12@@Z
    ??$AddCordRep@$0A@@CordRepBtree@cord_internal@absl@@CAPEAV012@PEAV012@PEAUCordRep@12@@Z
    ??$AddData@$00@CordRepBtree@cord_internal@absl@@AEAA?AV?$basic_string_view@DU?$char_traits@D@__Cr@std@@@__Cr@std@@V345@_K@Z
    ??$AddData@$00@CordRepBtree@cord_internal@absl@@CAPEAV012@PEAV012@V?$basic_string_view@DU?$char_traits@D@__Cr@std@@@__Cr@std@@_K@Z
    ??$AddData@$0A@@CordRepBtree@cord_internal@absl@@AEAA?AV?$basic_string_view@DU?$char_traits@D@__Cr@std@@@__Cr@std@@V345@_K@Z
    ??$AddData@$0A@@CordRepBtree@cord_internal@absl@@CAPEAV012@PEAV012@V?$basic_string_view@DU?$char_traits@D@__Cr@std@@@__Cr@std@@_K@Z
    ??$Append@V?$basic_string@DU?$char_traits@D@__Cr@std@@V?$allocator@D@23@@__Cr@std@@$0A@@Cord@absl@@QEAAX$$QEAV?$basic_string@DU?$char_traits@D@__Cr@std@@V?$allocator@D@23@@__Cr@std@@@Z
    ??$AppendImpl@AEBVCord@absl@@@Cord@absl@@AEAAXAEBV01@@Z
    ??$AppendImpl@VCord@absl@@@Cord@absl@@AEAAX$$QEAV01@@Z
    ??$AppendIntegerToString@H@strings_internal@absl@@YAXAEAV?$basic_string@DU?$char_traits@D@__Cr@std@@V?$allocator@D@23@@__Cr@std@@H@Z
    ??$AppendIntegerToString@I@strings_internal@absl@@YAXAEAV?$basic_string@DU?$char_traits@D@__Cr@std@@V?$allocator@D@23@@__Cr@std@@I@Z
    ??$AppendIntegerToString@J@strings_internal@absl@@YAXAEAV?$basic_string@DU?$char_traits@D@__Cr@std@@V?$allocator@D@23@@__Cr@std@@J@Z
    ??$AppendIntegerToString@K@strings_internal@absl@@YAXAEAV?$basic_string@DU?$char_traits@D@__Cr@std@@V?$allocator@D@23@@__Cr@std@@K@Z
    ??$AppendIntegerToString@_J@strings_internal@absl@@YAXAEAV?$basic_string@DU?$char_traits@D@__Cr@std@@V?$allocator@D@23@@__Cr@std@@_J@Z
    ??$AppendIntegerToString@_K@strings_internal@absl@@YAXAEAV?$basic_string@DU?$char_traits@D@__Cr@std@@V?$allocator@D@23@@__Cr@std@@_K@Z
    ??$Base64EscapeInternal@V?$basic_string@DU?$char_traits@D@__Cr@std@@V?$allocator@D@23@@__Cr@std@@@strings_internal@absl@@YAXPEBE_KPEAV?$basic_string@DU?$char_traits@D@__Cr@std@@V?$allocator@D@23@@__Cr@std@@_NPEBD@Z
    ??$CallOnceImpl@A6AXXZ$$V@base_internal@absl@@YAXPEAU?$atomic@I@__Cr@std@@W4SchedulingMode@01@A6AXXZ@Z
    ??$CastAndCallFunction@$$CBU?$atomic@_N@__Cr@std@@@Condition@absl@@CA_NPEBV01@@Z
    ??$Compare@$0FE@$0FE@@strings_internal@absl@@YAHAEBV?$BigUnsigned@$0FE@@01@0@Z
    ??$ConstructElements@V?$allocator@PEAVLogSink@absl@@@__Cr@std@@V?$IteratorValueAdapter@V?$allocator@PEAVLogSink@absl@@@__Cr@std@@V?$move_iterator@PEAPEAVLogSink@absl@@@23@@inlined_vector_internal@absl@@@inlined_vector_internal@absl@@YAXAEAV?$allocator@PEAVLogSink@absl@@@__Cr@std@@PEAPEAVLogSink@1@AEAV?$IteratorValueAdapter@V?$allocator@PEAVLogSink@absl@@@__Cr@std@@V?$move_iterator@PEAPEAVLogSink@absl@@@23@@01@_K@Z
    ??$ConsumeConversion@$00@str_format_internal@absl@@YAPEBDPEBDQEBDPEAUUnboundConversion@01@PEAH@Z
    ??$ConsumeConversion@$0A@@str_format_internal@absl@@YAPEBDPEBDQEBDPEAUUnboundConversion@01@PEAH@Z
    ??$ConvertIntArg@C@str_format_internal@absl@@YA_NCVFormatConversionSpecImpl@01@PEAVFormatSinkImpl@01@@Z
    ??$ConvertIntArg@D@str_format_internal@absl@@YA_NDVFormatConversionSpecImpl@01@PEAVFormatSinkImpl@01@@Z
    ??$ConvertIntArg@E@str_format_internal@absl@@YA_NEVFormatConversionSpecImpl@01@PEAVFormatSinkImpl@01@@Z
    ??$ConvertIntArg@F@str_format_internal@absl@@YA_NFVFormatConversionSpecImpl@01@PEAVFormatSinkImpl@01@@Z
    ??$ConvertIntArg@G@str_format_internal@absl@@YA_NGVFormatConversionSpecImpl@01@PEAVFormatSinkImpl@01@@Z
    ??$ConvertIntArg@H@str_format_internal@absl@@YA_NHVFormatConversionSpecImpl@01@PEAVFormatSinkImpl@01@@Z
    ??$ConvertIntArg@I@str_format_internal@absl@@YA_NIVFormatConversionSpecImpl@01@PEAVFormatSinkImpl@01@@Z
    ??$ConvertIntArg@J@str_format_internal@absl@@YA_NJVFormatConversionSpecImpl@01@PEAVFormatSinkImpl@01@@Z
    ??$ConvertIntArg@K@str_format_internal@absl@@YA_NKVFormatConversionSpecImpl@01@PEAVFormatSinkImpl@01@@Z
    ??$ConvertIntArg@Vint128@absl@@@str_format_internal@absl@@YA_NVint128@1@VFormatConversionSpecImpl@01@PEAVFormatSinkImpl@01@@Z
    ??$ConvertIntArg@Vuint128@absl@@@str_format_internal@absl@@YA_NVuint128@1@VFormatConversionSpecImpl@01@PEAVFormatSinkImpl@01@@Z
    ??$ConvertIntArg@_J@str_format_internal@absl@@YA_N_JVFormatConversionSpecImpl@01@PEAVFormatSinkImpl@01@@Z
    ??$ConvertIntArg@_K@str_format_internal@absl@@YA_N_KVFormatConversionSpecImpl@01@PEAVFormatSinkImpl@01@@Z
    ??$ConvertIntArg@_W@str_format_internal@absl@@YA_N_WVFormatConversionSpecImpl@01@PEAVFormatSinkImpl@01@@Z
    ??$CopyToEncodedBuffer@$00@LogMessage@log_internal@absl@@AEAAXD_K@Z
    ??$CopyToEncodedBuffer@$00@LogMessage@log_internal@absl@@AEAAXV?$basic_string_view@DU?$char_traits@D@__Cr@std@@@__Cr@std@@@Z
    ??$CopyToEncodedBuffer@$0A@@LogMessage@log_internal@absl@@AEAAXD_K@Z
    ??$CopyToEncodedBuffer@$0A@@LogMessage@log_internal@absl@@AEAAXV?$basic_string_view@DU?$char_traits@D@__Cr@std@@@__Cr@std@@@Z
    ??$Dispatch@C@FormatArgImpl@str_format_internal@absl@@CA_NTData@012@VFormatConversionSpecImpl@12@PEAX@Z
    ??$Dispatch@D@FormatArgImpl@str_format_internal@absl@@CA_NTData@012@VFormatConversionSpecImpl@12@PEAX@Z
    ??$Dispatch@E@FormatArgImpl@str_format_internal@absl@@CA_NTData@012@VFormatConversionSpecImpl@12@PEAX@Z
    ??$Dispatch@F@FormatArgImpl@str_format_internal@absl@@CA_NTData@012@VFormatConversionSpecImpl@12@PEAX@Z
    ??$Dispatch@G@FormatArgImpl@str_format_internal@absl@@CA_NTData@012@VFormatConversionSpecImpl@12@PEAX@Z
    ??$Dispatch@H@FormatArgImpl@str_format_internal@absl@@CA_NTData@012@VFormatConversionSpecImpl@12@PEAX@Z
    ??$Dispatch@I@FormatArgImpl@str_format_internal@absl@@CA_NTData@012@VFormatConversionSpecImpl@12@PEAX@Z
    ??$Dispatch@J@FormatArgImpl@str_format_internal@absl@@CA_NTData@012@VFormatConversionSpecImpl@12@PEAX@Z
    ??$Dispatch@K@FormatArgImpl@str_format_internal@absl@@CA_NTData@012@VFormatConversionSpecImpl@12@PEAX@Z
    ??$Dispatch@M@FormatArgImpl@str_format_internal@absl@@CA_NTData@012@VFormatConversionSpecImpl@12@PEAX@Z
    ??$Dispatch@N@FormatArgImpl@str_format_internal@absl@@CA_NTData@012@VFormatConversionSpecImpl@12@PEAX@Z
    ??$Dispatch@O@FormatArgImpl@str_format_internal@absl@@CA_NTData@012@VFormatConversionSpecImpl@12@PEAX@Z
    ??$Dispatch@PEBD@FormatArgImpl@str_format_internal@absl@@CA_NTData@012@VFormatConversionSpecImpl@12@PEAX@Z
    ??$Dispatch@PEB_W@FormatArgImpl@str_format_internal@absl@@CA_NTData@012@VFormatConversionSpecImpl@12@PEAX@Z
    ??$Dispatch@UVoidPtr@str_format_internal@absl@@@FormatArgImpl@str_format_internal@absl@@CA_NTData@012@VFormatConversionSpecImpl@12@PEAX@Z
    ??$Dispatch@V?$basic_string@DU?$char_traits@D@__Cr@std@@V?$allocator@D@23@@__Cr@std@@@FormatArgImpl@str_format_internal@absl@@CA_NTData@012@VFormatConversionSpecImpl@12@PEAX@Z
    ??$Dispatch@V?$basic_string@_WU?$char_traits@_W@__Cr@std@@V?$allocator@_W@23@@__Cr@std@@@FormatArgImpl@str_format_internal@absl@@CA_NTData@012@VFormatConversionSpecImpl@12@PEAX@Z
    ??$Dispatch@V?$basic_string_view@DU?$char_traits@D@__Cr@std@@@__Cr@std@@@FormatArgImpl@str_format_internal@absl@@CA_NTData@012@VFormatConversionSpecImpl@12@PEAX@Z
    ??$Dispatch@V?$basic_string_view@_WU?$char_traits@_W@__Cr@std@@@__Cr@std@@@FormatArgImpl@str_format_internal@absl@@CA_NTData@012@VFormatConversionSpecImpl@12@PEAX@Z
    ??$Dispatch@Vint128@absl@@@FormatArgImpl@str_format_internal@absl@@CA_NTData@012@VFormatConversionSpecImpl@12@PEAX@Z
    ??$Dispatch@Vuint128@absl@@@FormatArgImpl@str_format_internal@absl@@CA_NTData@012@VFormatConversionSpecImpl@12@PEAX@Z
    ??$Dispatch@_J@FormatArgImpl@str_format_internal@absl@@CA_NTData@012@VFormatConversionSpecImpl@12@PEAX@Z
    ??$Dispatch@_K@FormatArgImpl@str_format_internal@absl@@CA_NTData@012@VFormatConversionSpecImpl@12@PEAX@Z
    ??$Dispatch@_N@FormatArgImpl@str_format_internal@absl@@CA_NTData@012@VFormatConversionSpecImpl@12@PEAX@Z
    ??$DivMod@$09@?$BigUnsigned@$03@strings_internal@absl@@AEAAIXZ
    ??$DivMod@$09@?$BigUnsigned@$0FE@@strings_internal@absl@@AEAAIXZ
    ??$EmplaceBack@AEBQEAVLogSink@absl@@@?$Storage@PEAVLogSink@absl@@$0BA@V?$allocator@PEAVLogSink@absl@@@__Cr@std@@@inlined_vector_internal@absl@@QEAAAEAPEAVLogSink@2@AEBQEAV32@@Z
    ??$EmplaceBack@UPayload@status_internal@absl@@@?$Storage@UPayload@status_internal@absl@@$00V?$allocator@UPayload@status_internal@absl@@@__Cr@std@@@inlined_vector_internal@absl@@QEAAAEAUPayload@status_internal@2@$$QEAU342@@Z
    ??$EmplaceBackSlow@AEBQEAVLogSink@absl@@@?$Storage@PEAVLogSink@absl@@$0BA@V?$allocator@PEAVLogSink@absl@@@__Cr@std@@@inlined_vector_internal@absl@@AEAAAEAPEAVLogSink@2@AEBQEAV32@@Z
    ??$EmplaceBackSlow@UPayload@status_internal@absl@@@?$Storage@UPayload@status_internal@absl@@$00V?$allocator@UPayload@status_internal@absl@@@__Cr@std@@@inlined_vector_internal@absl@@AEAAAEAUPayload@status_internal@2@$$QEAU342@@Z
    ??$ExtractStringification@UHex@absl@@@strings_internal@absl@@YA?AV?$basic_string_view@DU?$char_traits@D@__Cr@std@@@__Cr@std@@AEAVStringifySink@01@AEBUHex@1@@Z
    ??$FindSubstitutions@V?$initializer_list@U?$pair@V?$basic_string_view@DU?$char_traits@D@__Cr@std@@@__Cr@std@@V123@@__Cr@std@@@std@@@strings_internal@absl@@YA?AV?$vector@UViableSubstitution@strings_internal@absl@@V?$allocator@UViableSubstitution@strings_internal@absl@@@__Cr@std@@@__Cr@std@@V?$basic_string_view@DU?$char_traits@D@__Cr@std@@@34@AEBV?$initializer_list@U?$pair@V?$basic_string_view@DU?$char_traits@D@__Cr@std@@@__Cr@std@@V123@@__Cr@std@@@4@@Z
    ??$FloatToString@M@strings_internal@absl@@YA?AV?$basic_string@DU?$char_traits@D@__Cr@std@@V?$allocator@D@23@@__Cr@std@@M@Z
    ??$FloatToString@N@strings_internal@absl@@YA?AV?$basic_string@DU?$char_traits@D@__Cr@std@@V?$allocator@D@23@@__Cr@std@@N@Z
    ??$Flush@V?$basic_ostream@DU?$char_traits@D@__Cr@std@@@__Cr@std@@@FormatRawSinkImpl@str_format_internal@absl@@CAXPEAXV?$basic_string_view@DU?$char_traits@D@__Cr@std@@@__Cr@std@@@Z
    ??$Flush@V?$basic_string@DU?$char_traits@D@__Cr@std@@V?$allocator@D@23@@__Cr@std@@@FormatRawSinkImpl@str_format_internal@absl@@CAXPEAXV?$basic_string_view@DU?$char_traits@D@__Cr@std@@@__Cr@std@@@Z
    ??$Flush@VBufferRawSink@str_format_internal@absl@@@FormatRawSinkImpl@str_format_internal@absl@@CAXPEAXV?$basic_string_view@DU?$char_traits@D@__Cr@std@@@__Cr@std@@@Z
    ??$Flush@VFILERawSink@str_format_internal@absl@@@FormatRawSinkImpl@str_format_internal@absl@@CAXPEAXV?$basic_string_view@DU?$char_traits@D@__Cr@std@@@__Cr@std@@@Z
    ??$FormatConvertImpl@_N$0A@@str_format_internal@absl@@YA?AU?$ArgConvertResult@$0JPPPL@@01@_NVFormatConversionSpecImpl@01@PEAVFormatSinkImpl@01@@Z
    ??$GenericCompare@HV?$basic_string_view@DU?$char_traits@D@__Cr@std@@@__Cr@std@@@absl@@YAHAEBVCord@0@AEBV?$basic_string_view@DU?$char_traits@D@__Cr@std@@@__Cr@std@@_K@Z
    ??$GenericCompare@HVCord@absl@@@absl@@YAHAEBVCord@0@0_K@Z
    ??$GenericCompare@_NV?$basic_string_view@DU?$char_traits@D@__Cr@std@@@__Cr@std@@@absl@@YA_NAEBVCord@0@AEBV?$basic_string_view@DU?$char_traits@D@__Cr@std@@@__Cr@std@@_K@Z
    ??$GenericCompare@_NVCord@absl@@@absl@@YA_NAEBVCord@0@0_K@Z
    ??$Initialize@V?$IteratorValueAdapter@V?$allocator@VFormatArgImpl@str_format_internal@absl@@@__Cr@std@@PEBVFormatArgImpl@str_format_internal@absl@@@inlined_vector_internal@absl@@@?$Storage@VFormatArgImpl@str_format_internal@absl@@$03V?$allocator@VFormatArgImpl@str_format_internal@absl@@@__Cr@std@@@inlined_vector_internal@absl@@QEAAXV?$IteratorValueAdapter@V?$allocator@VFormatArgImpl@str_format_internal@absl@@@__Cr@std@@PEBVFormatArgImpl@str_format_internal@absl@@@12@_K@Z
    ??$IntegerToString@H@strings_internal@absl@@YA?AV?$basic_string@DU?$char_traits@D@__Cr@std@@V?$allocator@D@23@@__Cr@std@@H@Z
    ??$IntegerToString@I@strings_internal@absl@@YA?AV?$basic_string@DU?$char_traits@D@__Cr@std@@V?$allocator@D@23@@__Cr@std@@I@Z
    ??$IntegerToString@J@strings_internal@absl@@YA?AV?$basic_string@DU?$char_traits@D@__Cr@std@@V?$allocator@D@23@@__Cr@std@@J@Z
    ??$IntegerToString@K@strings_internal@absl@@YA?AV?$basic_string@DU?$char_traits@D@__Cr@std@@V?$allocator@D@23@@__Cr@std@@K@Z
    ??$IntegerToString@_J@strings_internal@absl@@YA?AV?$basic_string@DU?$char_traits@D@__Cr@std@@V?$allocator@D@23@@__Cr@std@@_J@Z
    ??$IntegerToString@_K@strings_internal@absl@@YA?AV?$basic_string@DU?$char_traits@D@__Cr@std@@V?$allocator@D@23@@__Cr@std@@_K@Z
    ??$MakeCheckOpString@AEBV?$basic_string@DU?$char_traits@D@__Cr@std@@V?$allocator@D@23@@__Cr@std@@AEBV123@@log_internal@absl@@YAPEAV?$basic_string@DU?$char_traits@D@__Cr@std@@V?$allocator@D@23@@__Cr@std@@AEBV234@0PEBD@Z
    ??$MakeCheckOpString@AEBV?$basic_string_view@DU?$char_traits@D@__Cr@std@@@__Cr@std@@AEBV123@@log_internal@absl@@YAPEAV?$basic_string@DU?$char_traits@D@__Cr@std@@V?$allocator@D@23@@__Cr@std@@AEBV?$basic_string_view@DU?$char_traits@D@__Cr@std@@@34@0PEBD@Z
    ??$MakeCheckOpString@DD@log_internal@absl@@YAPEAV?$basic_string@DU?$char_traits@D@__Cr@std@@V?$allocator@D@23@@__Cr@std@@DDPEBD@Z
    ??$MakeCheckOpString@EE@log_internal@absl@@YAPEAV?$basic_string@DU?$char_traits@D@__Cr@std@@V?$allocator@D@23@@__Cr@std@@EEPEBD@Z
    ??$MakeCheckOpString@MM@log_internal@absl@@YAPEAV?$basic_string@DU?$char_traits@D@__Cr@std@@V?$allocator@D@23@@__Cr@std@@MMPEBD@Z
    ??$MakeCheckOpString@NN@log_internal@absl@@YAPEAV?$basic_string@DU?$char_traits@D@__Cr@std@@V?$allocator@D@23@@__Cr@std@@NNPEBD@Z
    ??$MakeCheckOpString@PEBCPEBC@log_internal@absl@@YAPEAV?$basic_string@DU?$char_traits@D@__Cr@std@@V?$allocator@D@23@@__Cr@std@@PEBC0PEBD@Z
    ??$MakeCheckOpString@PEBDPEBD@log_internal@absl@@YAPEAV?$basic_string@DU?$char_traits@D@__Cr@std@@V?$allocator@D@23@@__Cr@std@@PEBD00@Z
    ??$MakeCheckOpString@PEBEPEBE@log_internal@absl@@YAPEAV?$basic_string@DU?$char_traits@D@__Cr@std@@V?$allocator@D@23@@__Cr@std@@PEBE0PEBD@Z
    ??$MakeCheckOpString@PEBXPEBX@log_internal@absl@@YAPEAV?$basic_string@DU?$char_traits@D@__Cr@std@@V?$allocator@D@23@@__Cr@std@@PEBX0PEBD@Z
    ??$MakeCheckOpString@_J_J@log_internal@absl@@YAPEAV?$basic_string@DU?$char_traits@D@__Cr@std@@V?$allocator@D@23@@__Cr@std@@_J0PEBD@Z
    ??$MakeCheckOpString@_K_K@log_internal@absl@@YAPEAV?$basic_string@DU?$char_traits@D@__Cr@std@@V?$allocator@D@23@@__Cr@std@@_K0PEBD@Z
    ??$MakeCheckOpString@_N_N@log_internal@absl@@YAPEAV?$basic_string@DU?$char_traits@D@__Cr@std@@V?$allocator@D@23@@__Cr@std@@_N0PEBD@Z
    ??$Merge@$00@CordRepBtree@cord_internal@absl@@CAPEAV012@PEAV012@0@Z
    ??$Merge@$0A@@CordRepBtree@cord_internal@absl@@CAPEAV012@PEAV012@0@Z
    ??$NewImpl@$0BAAA@$$V@CordRepFlat@cord_internal@absl@@SAPEAU012@_K@Z
    ??$NewImpl@$0EAAAA@$$V@CordRepFlat@cord_internal@absl@@SAPEAU012@_K@Z
    ??$NewLeaf@$00@CordRepBtree@cord_internal@absl@@CAPEAV012@V?$basic_string_view@DU?$char_traits@D@__Cr@std@@@__Cr@std@@_K@Z
    ??$NewLeaf@$0A@@CordRepBtree@cord_internal@absl@@CAPEAV012@V?$basic_string_view@DU?$char_traits@D@__Cr@std@@@__Cr@std@@_K@Z
    ??$ParseFloat@$09@strings_internal@absl@@YA?AUParsedFloat@01@PEBD0W4chars_format@1@@Z
    ??$ParseFloat@$0BA@@strings_internal@absl@@YA?AUParsedFloat@01@PEBD0W4chars_format@1@@Z
    ??$ParseFormatString@UParsedFormatConsumer@ParsedFormatBase@str_format_internal@absl@@@str_format_internal@absl@@YA_NV?$basic_string_view@DU?$char_traits@D@__Cr@std@@@__Cr@std@@UParsedFormatConsumer@ParsedFormatBase@01@@Z
    ??$PopDead@_J_K@?$SampleRecorder@UHashtablezInfo@container_internal@absl@@@profiling_internal@absl@@AEAAPEAUHashtablezInfo@container_internal@2@_J_K@Z
    ??$Prepend@V?$basic_string@DU?$char_traits@D@__Cr@std@@V?$allocator@D@23@@__Cr@std@@$0A@@Cord@absl@@QEAAX$$QEAV?$basic_string@DU?$char_traits@D@__Cr@std@@V?$allocator@D@23@@__Cr@std@@@Z
    ??$Register@AEB_JAEA_K@?$SampleRecorder@UHashtablezInfo@container_internal@absl@@@profiling_internal@absl@@QEAAPEAUHashtablezInfo@container_internal@2@AEB_JAEA_K@Z
    ??$SNPrintF@DHHH@absl@@YAHPEAD_KAEBV?$FormatSpecTemplate@$0BPPPL@$0JPPPL@$0JPPPL@$0JPPPL@@str_format_internal@0@AEBDAEBH44@Z
    ??$STLStringResizeUninitializedAmortized@V?$basic_string@DU?$char_traits@D@__Cr@std@@V?$allocator@D@23@@__Cr@std@@@strings_internal@absl@@YAXPEAV?$basic_string@DU?$char_traits@D@__Cr@std@@V?$allocator@D@23@@__Cr@std@@_K@Z
    ??$SetEdge@$00@CordRepBtree@cord_internal@absl@@QEAA?AUOpResult@012@_NPEAUCordRep@12@_K@Z
    ??$SetEdge@$0A@@CordRepBtree@cord_internal@absl@@QEAA?AUOpResult@012@_NPEAUCordRep@12@_K@Z
    ??$StrFormat@DHHHHH_JIV?$basic_string_view@DU?$char_traits@D@__Cr@std@@@__Cr@std@@HPEBDV123@@absl@@YA?AV?$basic_string@DU?$char_traits@D@__Cr@std@@V?$allocator@D@23@@__Cr@std@@AEBV?$FormatSpecTemplate@$0BPPPL@$0JPPPL@$0JPPPL@$0JPPPL@$0JPPPL@$0JPPPL@$0JPPPL@$0JPPPL@$0IAAAE@$0JPPPL@$0EAAAE@$0IAAAE@@str_format_internal@0@AEBDAEBH2222AEB_JAEBIAEBV?$basic_string_view@DU?$char_traits@D@__Cr@std@@@23@2AEBQEBD5@Z
    ??$StrReplaceAll@V?$initializer_list@U?$pair@V?$basic_string_view@DU?$char_traits@D@__Cr@std@@@__Cr@std@@V123@@__Cr@std@@@std@@@absl@@YA?AV?$basic_string@DU?$char_traits@D@__Cr@std@@V?$allocator@D@23@@__Cr@std@@V?$basic_string_view@DU?$char_traits@D@__Cr@std@@@23@AEBV?$initializer_list@U?$pair@V?$basic_string_view@DU?$char_traits@D@__Cr@std@@@__Cr@std@@V123@@__Cr@std@@@3@@Z
    ??$StrReplaceAll@V?$initializer_list@U?$pair@V?$basic_string_view@DU?$char_traits@D@__Cr@std@@@__Cr@std@@V123@@__Cr@std@@@std@@@absl@@YAHAEBV?$initializer_list@U?$pair@V?$basic_string_view@DU?$char_traits@D@__Cr@std@@@__Cr@std@@V123@@__Cr@std@@@std@@PEAV?$basic_string@DU?$char_traits@D@__Cr@std@@V?$allocator@D@23@@__Cr@2@@Z
    ??$__allocate_at_least@V?$allocator@PEAPEBVImpl@time_zone@cctz@time_internal@absl@@@__Cr@std@@@__Cr@std@@YA?AU?$__allocation_result@PEAPEAPEBVImpl@time_zone@cctz@time_internal@absl@@@01@AEAV?$allocator@PEAPEBVImpl@time_zone@cctz@time_internal@absl@@@01@_K@Z
    ??$__allocate_at_least@V?$allocator@PEAUPrefixCrc@CrcCordState@crc_internal@absl@@@__Cr@std@@@__Cr@std@@YA?AU?$__allocation_result@PEAPEAUPrefixCrc@CrcCordState@crc_internal@absl@@@01@AEAV?$allocator@PEAUPrefixCrc@CrcCordState@crc_internal@absl@@@01@_K@Z
    ??$__allocate_at_least@V?$allocator@PEAVCordzHandle@cord_internal@absl@@@__Cr@std@@@__Cr@std@@YA?AU?$__allocation_result@PEAPEAVCordzHandle@cord_internal@absl@@@01@AEAV?$allocator@PEAVCordzHandle@cord_internal@absl@@@01@_K@Z
    ??$__allocate_at_least@V?$allocator@PEAVLogSink@absl@@@__Cr@std@@@__Cr@std@@YA?AU?$__allocation_result@PEAPEAVLogSink@absl@@@01@AEAV?$allocator@PEAVLogSink@absl@@@01@_K@Z
    ??$__allocate_at_least@V?$allocator@PEBVCordzHandle@cord_internal@absl@@@__Cr@std@@@__Cr@std@@YA?AU?$__allocation_result@PEAPEBVCordzHandle@cord_internal@absl@@@01@AEAV?$allocator@PEBVCordzHandle@cord_internal@absl@@@01@_K@Z
    ??$__allocate_at_least@V?$allocator@UConversionItem@ParsedFormatBase@str_format_internal@absl@@@__Cr@std@@@__Cr@std@@YA?AU?$__allocation_result@PEAUConversionItem@ParsedFormatBase@str_format_internal@absl@@@01@AEAV?$allocator@UConversionItem@ParsedFormatBase@str_format_internal@absl@@@01@_K@Z
    ??$__allocate_at_least@V?$allocator@UTransition@cctz@time_internal@absl@@@__Cr@std@@@__Cr@std@@YA?AU?$__allocation_result@PEAUTransition@cctz@time_internal@absl@@@01@AEAV?$allocator@UTransition@cctz@time_internal@absl@@@01@_K@Z
    ??$__allocate_at_least@V?$allocator@UTransitionType@cctz@time_internal@absl@@@__Cr@std@@@__Cr@std@@YA?AU?$__allocation_result@PEAUTransitionType@cctz@time_internal@absl@@@01@AEAV?$allocator@UTransitionType@cctz@time_internal@absl@@@01@_K@Z
    ??$__allocate_at_least@V?$allocator@UViableSubstitution@strings_internal@absl@@@__Cr@std@@@__Cr@std@@YA?AU?$__allocation_result@PEAUViableSubstitution@strings_internal@absl@@@01@AEAV?$allocator@UViableSubstitution@strings_internal@absl@@@01@_K@Z
    ??$__append_with_size@V?$__deque_iterator@UPrefixCrc@CrcCordState@crc_internal@absl@@PEBU1234@AEBU1234@PEBQEBU1234@_J$0A@@__Cr@std@@@?$deque@UPrefixCrc@CrcCordState@crc_internal@absl@@V?$allocator@UPrefixCrc@CrcCordState@crc_internal@absl@@@__Cr@std@@@__Cr@std@@AEAAXV?$__deque_iterator@UPrefixCrc@CrcCordState@crc_internal@absl@@PEBU1234@AEBU1234@PEBQEBU1234@_J$0A@@12@_K@Z
    ??$__assign_with_size_random_access@V?$__deque_iterator@UPrefixCrc@CrcCordState@crc_internal@absl@@PEBU1234@AEBU1234@PEBQEBU1234@_J$0A@@__Cr@std@@@?$deque@UPrefixCrc@CrcCordState@crc_internal@absl@@V?$allocator@UPrefixCrc@CrcCordState@crc_internal@absl@@@__Cr@std@@@__Cr@std@@AEAAXV?$__deque_iterator@UPrefixCrc@CrcCordState@crc_internal@absl@@PEBU1234@AEBU1234@PEBQEBU1234@_J$0A@@12@_J@Z
    ??$__construct_at_end_with_size@V?$move_iterator@PEAPEAPEBVImpl@time_zone@cctz@time_internal@absl@@@__Cr@std@@@?$__split_buffer@PEAPEBVImpl@time_zone@cctz@time_internal@absl@@AEAV?$allocator@PEAPEBVImpl@time_zone@cctz@time_internal@absl@@@__Cr@std@@@__Cr@std@@QEAAXV?$move_iterator@PEAPEAPEBVImpl@time_zone@cctz@time_internal@absl@@@12@_K@Z
    ??$__construct_at_end_with_size@V?$move_iterator@PEAPEAUPrefixCrc@CrcCordState@crc_internal@absl@@@__Cr@std@@@?$__split_buffer@PEAUPrefixCrc@CrcCordState@crc_internal@absl@@AEAV?$allocator@PEAUPrefixCrc@CrcCordState@crc_internal@absl@@@__Cr@std@@@__Cr@std@@QEAAXV?$move_iterator@PEAPEAUPrefixCrc@CrcCordState@crc_internal@absl@@@12@_K@Z
    ??$__construct_at_end_with_size@V?$move_iterator@PEAUTransition@cctz@time_internal@absl@@@__Cr@std@@@?$__split_buffer@UTransition@cctz@time_internal@absl@@AEAV?$allocator@UTransition@cctz@time_internal@absl@@@__Cr@std@@@__Cr@std@@QEAAXV?$move_iterator@PEAUTransition@cctz@time_internal@absl@@@12@_K@Z
    ??$__construct_at_end_with_size@V?$move_iterator@PEAUTransitionType@cctz@time_internal@absl@@@__Cr@std@@@?$__split_buffer@UTransitionType@cctz@time_internal@absl@@AEAV?$allocator@UTransitionType@cctz@time_internal@absl@@@__Cr@std@@@__Cr@std@@QEAAXV?$move_iterator@PEAUTransitionType@cctz@time_internal@absl@@@12@_K@Z
    ??$__construct_node_hash@AEBQEBUCordRep@cord_internal@absl@@$$V@?$__hash_table@PEBUCordRep@cord_internal@absl@@U?$hash@PEBUCordRep@cord_internal@absl@@@__Cr@std@@U?$equal_to@PEBUCordRep@cord_internal@absl@@@56@V?$allocator@PEBUCordRep@cord_internal@absl@@@56@@__Cr@std@@AEAA?AV?$unique_ptr@U?$__hash_node@PEBUCordRep@cord_internal@absl@@PEAX@__Cr@std@@V?$__hash_node_destructor@V?$allocator@U?$__hash_node@PEBUCordRep@cord_internal@absl@@PEAX@__Cr@std@@@__Cr@std@@@23@@12@_KAEBQEBUCordRep@cord_internal@absl@@@Z
    ??$__construct_node_hash@AEBUpiecewise_construct_t@__Cr@std@@V?$tuple@AEBV?$basic_string@DU?$char_traits@D@__Cr@std@@V?$allocator@D@23@@__Cr@std@@@23@V?$tuple@$$V@23@@?$__hash_table@U?$__hash_value_type@V?$basic_string@DU?$char_traits@D@__Cr@std@@V?$allocator@D@23@@__Cr@std@@PEBVImpl@time_zone@cctz@time_internal@absl@@@__Cr@std@@V?$__unordered_map_hasher@V?$basic_string@DU?$char_traits@D@__Cr@std@@V?$allocator@D@23@@__Cr@std@@U?$__hash_value_type@V?$basic_string@DU?$char_traits@D@__Cr@std@@V?$allocator@D@23@@__Cr@std@@PEBVImpl@time_zone@cctz@time_internal@absl@@@23@U?$hash@V?$basic_string@DU?$char_traits@D@__Cr@std@@V?$allocator@D@23@@__Cr@std@@@23@U?$equal_to@V?$basic_string@DU?$char_traits@D@__Cr@std@@V?$allocator@D@23@@__Cr@std@@@23@$00@23@V?$__unordered_map_equal@V?$basic_string@DU?$char_traits@D@__Cr@std@@V?$allocator@D@23@@__Cr@std@@U?$__hash_value_type@V?$basic_string@DU?$char_traits@D@__Cr@std@@V?$allocator@D@23@@__Cr@std@@PEBVImpl@time_zone@cctz@time_internal@absl@@@23@U?$equal_to@V?$basic_string@DU?$char_traits@D@__Cr@std@@V?$allocator@D@23@@__Cr@std@@@23@U?$hash@V?$basic_string@DU?$char_traits@D@__Cr@std@@V?$allocator@D@23@@__Cr@std@@@23@$00@23@V?$allocator@U?$__hash_value_type@V?$basic_string@DU?$char_traits@D@__Cr@std@@V?$allocator@D@23@@__Cr@std@@PEBVImpl@time_zone@cctz@time_internal@absl@@@__Cr@std@@@23@@__Cr@std@@AEAA?AV?$unique_ptr@U?$__hash_node@U?$__hash_value_type@V?$basic_string@DU?$char_traits@D@__Cr@std@@V?$allocator@D@23@@__Cr@std@@PEBVImpl@time_zone@cctz@time_internal@absl@@@__Cr@std@@PEAX@__Cr@std@@V?$__hash_node_destructor@V?$allocator@U?$__hash_node@U?$__hash_value_type@V?$basic_string@DU?$char_traits@D@__Cr@std@@V?$allocator@D@23@@__Cr@std@@PEBVImpl@time_zone@cctz@time_internal@absl@@@__Cr@std@@PEAX@__Cr@std@@@__Cr@std@@@23@@12@_KAEBUpiecewise_construct_t@12@$$QEAV?$tuple@AEBV?$basic_string@DU?$char_traits@D@__Cr@std@@V?$allocator@D@23@@__Cr@std@@@12@$$QEAV?$tuple@$$V@12@@Z
    ??$__destroy_at@U?$pair@$$CBV?$basic_string@DU?$char_traits@D@__Cr@std@@V?$allocator@D@23@@__Cr@std@@PEBVImpl@time_zone@cctz@time_internal@absl@@@__Cr@std@@$0A@@__Cr@std@@YAXPEAU?$pair@$$CBV?$basic_string@DU?$char_traits@D@__Cr@std@@V?$allocator@D@23@@__Cr@std@@PEBVImpl@time_zone@cctz@time_internal@absl@@@01@@Z
    ??$__destroy_at@UPayload@status_internal@absl@@$0A@@__Cr@std@@YAXPEAUPayload@status_internal@absl@@@Z
    ??$__do_rehash@$00@?$__hash_table@PEBUCordRep@cord_internal@absl@@U?$hash@PEBUCordRep@cord_internal@absl@@@__Cr@std@@U?$equal_to@PEBUCordRep@cord_internal@absl@@@56@V?$allocator@PEBUCordRep@cord_internal@absl@@@56@@__Cr@std@@AEAAX_K@Z
    ??$__do_rehash@$00@?$__hash_table@U?$__hash_value_type@V?$basic_string@DU?$char_traits@D@__Cr@std@@V?$allocator@D@23@@__Cr@std@@PEBVImpl@time_zone@cctz@time_internal@absl@@@__Cr@std@@V?$__unordered_map_hasher@V?$basic_string@DU?$char_traits@D@__Cr@std@@V?$allocator@D@23@@__Cr@std@@U?$__hash_value_type@V?$basic_string@DU?$char_traits@D@__Cr@std@@V?$allocator@D@23@@__Cr@std@@PEBVImpl@time_zone@cctz@time_internal@absl@@@23@U?$hash@V?$basic_string@DU?$char_traits@D@__Cr@std@@V?$allocator@D@23@@__Cr@std@@@23@U?$equal_to@V?$basic_string@DU?$char_traits@D@__Cr@std@@V?$allocator@D@23@@__Cr@std@@@23@$00@23@V?$__unordered_map_equal@V?$basic_string@DU?$char_traits@D@__Cr@std@@V?$allocator@D@23@@__Cr@std@@U?$__hash_value_type@V?$basic_string@DU?$char_traits@D@__Cr@std@@V?$allocator@D@23@@__Cr@std@@PEBVImpl@time_zone@cctz@time_internal@absl@@@23@U?$equal_to@V?$basic_string@DU?$char_traits@D@__Cr@std@@V?$allocator@D@23@@__Cr@std@@@23@U?$hash@V?$basic_string@DU?$char_traits@D@__Cr@std@@V?$allocator@D@23@@__Cr@std@@@23@$00@23@V?$allocator@U?$__hash_value_type@V?$basic_string@DU?$char_traits@D@__Cr@std@@V?$allocator@D@23@@__Cr@std@@PEBVImpl@time_zone@cctz@time_internal@absl@@@__Cr@std@@@23@@__Cr@std@@AEAAX_K@Z
    ??$__emplace_unique_key_args@PEBUCordRep@cord_internal@absl@@AEBQEBU123@@?$__hash_table@PEBUCordRep@cord_internal@absl@@U?$hash@PEBUCordRep@cord_internal@absl@@@__Cr@std@@U?$equal_to@PEBUCordRep@cord_internal@absl@@@56@V?$allocator@PEBUCordRep@cord_internal@absl@@@56@@__Cr@std@@QEAA?AU?$pair@V?$__hash_iterator@PEAU?$__hash_node@PEBUCordRep@cord_internal@absl@@PEAX@__Cr@std@@@__Cr@std@@_N@12@AEBQEBUCordRep@cord_internal@absl@@0@Z
    ??$__emplace_unique_key_args@V?$basic_string@DU?$char_traits@D@__Cr@std@@V?$allocator@D@23@@__Cr@std@@AEBUpiecewise_construct_t@23@V?$tuple@AEBV?$basic_string@DU?$char_traits@D@__Cr@std@@V?$allocator@D@23@@__Cr@std@@@23@V?$tuple@$$V@23@@?$__hash_table@U?$__hash_value_type@V?$basic_string@DU?$char_traits@D@__Cr@std@@V?$allocator@D@23@@__Cr@std@@PEBVImpl@time_zone@cctz@time_internal@absl@@@__Cr@std@@V?$__unordered_map_hasher@V?$basic_string@DU?$char_traits@D@__Cr@std@@V?$allocator@D@23@@__Cr@std@@U?$__hash_value_type@V?$basic_string@DU?$char_traits@D@__Cr@std@@V?$allocator@D@23@@__Cr@std@@PEBVImpl@time_zone@cctz@time_internal@absl@@@23@U?$hash@V?$basic_string@DU?$char_traits@D@__Cr@std@@V?$allocator@D@23@@__Cr@std@@@23@U?$equal_to@V?$basic_string@DU?$char_traits@D@__Cr@std@@V?$allocator@D@23@@__Cr@std@@@23@$00@23@V?$__unordered_map_equal@V?$basic_string@DU?$char_traits@D@__Cr@std@@V?$allocator@D@23@@__Cr@std@@U?$__hash_value_type@V?$basic_string@DU?$char_traits@D@__Cr@std@@V?$allocator@D@23@@__Cr@std@@PEBVImpl@time_zone@cctz@time_internal@absl@@@23@U?$equal_to@V?$basic_string@DU?$char_traits@D@__Cr@std@@V?$allocator@D@23@@__Cr@std@@@23@U?$hash@V?$basic_string@DU?$char_traits@D@__Cr@std@@V?$allocator@D@23@@__Cr@std@@@23@$00@23@V?$allocator@U?$__hash_value_type@V?$basic_string@DU?$char_traits@D@__Cr@std@@V?$allocator@D@23@@__Cr@std@@PEBVImpl@time_zone@cctz@time_internal@absl@@@__Cr@std@@@23@@__Cr@std@@QEAA?AU?$pair@V?$__hash_iterator@PEAU?$__hash_node@U?$__hash_value_type@V?$basic_string@DU?$char_traits@D@__Cr@std@@V?$allocator@D@23@@__Cr@std@@PEBVImpl@time_zone@cctz@time_internal@absl@@@__Cr@std@@PEAX@__Cr@std@@@__Cr@std@@_N@12@AEBV?$basic_string@DU?$char_traits@D@__Cr@std@@V?$allocator@D@23@@12@AEBUpiecewise_construct_t@12@$$QEAV?$tuple@AEBV?$basic_string@DU?$char_traits@D@__Cr@std@@V?$allocator@D@23@@__Cr@std@@@12@$$QEAV?$tuple@$$V@12@@Z
    ??$__for_each_segment@V?$__deque_iterator@UPrefixCrc@CrcCordState@crc_internal@absl@@PEBU1234@AEBU1234@PEBQEBU1234@_J$0A@@__Cr@std@@U?$_CopySegment@V?$__deque_iterator@UPrefixCrc@CrcCordState@crc_internal@absl@@PEBU1234@AEBU1234@PEBQEBU1234@_J$0A@@__Cr@std@@V?$__deque_iterator@UPrefixCrc@CrcCordState@crc_internal@absl@@PEAU1234@AEAU1234@PEAPEAU1234@_J$0A@@23@@?$__copy_loop@U_ClassicAlgPolicy@__Cr@std@@@23@@__Cr@std@@YAXV?$__deque_iterator@UPrefixCrc@CrcCordState@crc_internal@absl@@PEBU1234@AEBU1234@PEBQEBU1234@_J$0A@@01@0U?$_CopySegment@V?$__deque_iterator@UPrefixCrc@CrcCordState@crc_internal@absl@@PEBU1234@AEBU1234@PEBQEBU1234@_J$0A@@__Cr@std@@V?$__deque_iterator@UPrefixCrc@CrcCordState@crc_internal@absl@@PEAU1234@AEAU1234@PEAPEAU1234@_J$0A@@23@@?$__copy_loop@U_ClassicAlgPolicy@__Cr@std@@@01@@Z
    ??$__push_back_slow_path@AEBQEAVCordzHandle@cord_internal@absl@@@?$vector@PEAVCordzHandle@cord_internal@absl@@V?$allocator@PEAVCordzHandle@cord_internal@absl@@@__Cr@std@@@__Cr@std@@AEAAPEAPEAVCordzHandle@cord_internal@absl@@AEBQEAV345@@Z
    ??$__push_back_slow_path@AEBQEAVLogSink@absl@@@?$vector@PEAVLogSink@absl@@V?$allocator@PEAVLogSink@absl@@@__Cr@std@@@__Cr@std@@AEAAPEAPEAVLogSink@absl@@AEBQEAV34@@Z
    ??$__push_back_slow_path@AEBQEBVCordzHandle@cord_internal@absl@@@?$vector@PEBVCordzHandle@cord_internal@absl@@V?$allocator@PEBVCordzHandle@cord_internal@absl@@@__Cr@std@@@__Cr@std@@AEAAPEAPEBVCordzHandle@cord_internal@absl@@AEBQEBV345@@Z
    ??$__push_back_slow_path@AEBUTransition@cctz@time_internal@absl@@@?$vector@UTransition@cctz@time_internal@absl@@V?$allocator@UTransition@cctz@time_internal@absl@@@__Cr@std@@@__Cr@std@@AEAAPEAUTransition@cctz@time_internal@absl@@AEBU3456@@Z
    ??$__rehash@$00@?$__hash_table@PEBUCordRep@cord_internal@absl@@U?$hash@PEBUCordRep@cord_internal@absl@@@__Cr@std@@U?$equal_to@PEBUCordRep@cord_internal@absl@@@56@V?$allocator@PEBUCordRep@cord_internal@absl@@@56@@__Cr@std@@AEAAX_K@Z
    ??$__rehash@$00@?$__hash_table@U?$__hash_value_type@V?$basic_string@DU?$char_traits@D@__Cr@std@@V?$allocator@D@23@@__Cr@std@@PEBVImpl@time_zone@cctz@time_internal@absl@@@__Cr@std@@V?$__unordered_map_hasher@V?$basic_string@DU?$char_traits@D@__Cr@std@@V?$allocator@D@23@@__Cr@std@@U?$__hash_value_type@V?$basic_string@DU?$char_traits@D@__Cr@std@@V?$allocator@D@23@@__Cr@std@@PEBVImpl@time_zone@cctz@time_internal@absl@@@23@U?$hash@V?$basic_string@DU?$char_traits@D@__Cr@std@@V?$allocator@D@23@@__Cr@std@@@23@U?$equal_to@V?$basic_string@DU?$char_traits@D@__Cr@std@@V?$allocator@D@23@@__Cr@std@@@23@$00@23@V?$__unordered_map_equal@V?$basic_string@DU?$char_traits@D@__Cr@std@@V?$allocator@D@23@@__Cr@std@@U?$__hash_value_type@V?$basic_string@DU?$char_traits@D@__Cr@std@@V?$allocator@D@23@@__Cr@std@@PEBVImpl@time_zone@cctz@time_internal@absl@@@23@U?$equal_to@V?$basic_string@DU?$char_traits@D@__Cr@std@@V?$allocator@D@23@@__Cr@std@@@23@U?$hash@V?$basic_string@DU?$char_traits@D@__Cr@std@@V?$allocator@D@23@@__Cr@std@@@23@$00@23@V?$allocator@U?$__hash_value_type@V?$basic_string@DU?$char_traits@D@__Cr@std@@V?$allocator@D@23@@__Cr@std@@PEBVImpl@time_zone@cctz@time_internal@absl@@@__Cr@std@@@23@@__Cr@std@@AEAAX_K@Z
    ??$__upper_bound@U_ClassicAlgPolicy@__Cr@std@@UByCivilTime@Transition@cctz@time_internal@absl@@PEBU5678@PEBU5678@U5678@U__identity@23@@__Cr@std@@YAPEBUTransition@cctz@time_internal@absl@@PEBU2345@0AEBU2345@$$QEAUByCivilTime@2345@$$QEAU__identity@01@@Z
    ??$assign@V?$__deque_iterator@UPrefixCrc@CrcCordState@crc_internal@absl@@PEBU1234@AEBU1234@PEBQEBU1234@_J$0A@@__Cr@std@@$0A@@?$deque@UPrefixCrc@CrcCordState@crc_internal@absl@@V?$allocator@UPrefixCrc@CrcCordState@crc_internal@absl@@@__Cr@std@@@__Cr@std@@QEAAXV?$__deque_iterator@UPrefixCrc@CrcCordState@crc_internal@absl@@PEBU1234@AEBU1234@PEBQEBU1234@_J$0A@@12@0@Z
    ??$combine@V?$basic_string_view@DU?$char_traits@D@__Cr@std@@@__Cr@std@@H@?$HashStateBase@VMixingHashState@hash_internal@absl@@@hash_internal@absl@@SA?AVMixingHashState@12@V312@AEBV?$basic_string_view@DU?$char_traits@D@__Cr@std@@@__Cr@std@@AEBH@Z
    ??$construct_at@U?$pair@$$CBV?$basic_string@DU?$char_traits@D@__Cr@std@@V?$allocator@D@23@@__Cr@std@@PEBVImpl@time_zone@cctz@time_internal@absl@@@__Cr@std@@AEBUpiecewise_construct_t@23@V?$tuple@AEBV?$basic_string@DU?$char_traits@D@__Cr@std@@V?$allocator@D@23@@__Cr@std@@@23@V?$tuple@$$V@23@PEAU123@@__Cr@std@@YAPEAU?$pair@$$CBV?$basic_string@DU?$char_traits@D@__Cr@std@@V?$allocator@D@23@@__Cr@std@@PEBVImpl@time_zone@cctz@time_internal@absl@@@01@PEAU201@AEBUpiecewise_construct_t@01@$$QEAV?$tuple@AEBV?$basic_string@DU?$char_traits@D@__Cr@std@@V?$allocator@D@23@@__Cr@std@@@01@$$QEAV?$tuple@$$V@01@@Z
    ??$construct_at@UPayload@status_internal@absl@@AEBU123@PEAU123@@__Cr@std@@YAPEAUPayload@status_internal@absl@@PEAU234@AEBU234@@Z
    ??$construct_at@UTransition@cctz@time_internal@absl@@$$VPEAU1234@@__Cr@std@@YAPEAUTransition@cctz@time_internal@absl@@PEAU2345@@Z
    ??$construct_at@UTransitionType@cctz@time_internal@absl@@$$VPEAU1234@@__Cr@std@@YAPEAUTransitionType@cctz@time_internal@absl@@PEAU2345@@Z
    ??$construct_at@UViableSubstitution@strings_internal@absl@@AEAV?$basic_string_view@DU?$char_traits@D@__Cr@std@@@__Cr@std@@AEBV456@AEA_KPEAU123@@__Cr@std@@YAPEAUViableSubstitution@strings_internal@absl@@PEAU234@AEAV?$basic_string_view@DU?$char_traits@D@__Cr@std@@@01@AEBV501@AEA_K@Z
    ??$emplace@$$V@?$vector@UTransition@cctz@time_internal@absl@@V?$allocator@UTransition@cctz@time_internal@absl@@@__Cr@std@@@__Cr@std@@QEAA?AV?$__wrap_iter@PEAUTransition@cctz@time_internal@absl@@@12@V?$__wrap_iter@PEBUTransition@cctz@time_internal@absl@@@12@@Z
    ??$emplace@$$V@?$vector@UTransitionType@cctz@time_internal@absl@@V?$allocator@UTransitionType@cctz@time_internal@absl@@@__Cr@std@@@__Cr@std@@QEAA?AV?$__wrap_iter@PEAUTransitionType@cctz@time_internal@absl@@@12@V?$__wrap_iter@PEBUTransitionType@cctz@time_internal@absl@@@12@@Z
    ??$emplace_back@$$V@?$__split_buffer@UTransition@cctz@time_internal@absl@@AEAV?$allocator@UTransition@cctz@time_internal@absl@@@__Cr@std@@@__Cr@std@@QEAAXXZ
    ??$emplace_back@$$V@?$__split_buffer@UTransitionType@cctz@time_internal@absl@@AEAV?$allocator@UTransitionType@cctz@time_internal@absl@@@__Cr@std@@@__Cr@std@@QEAAXXZ
    ??$emplace_back@AEAV?$basic_string_view@DU?$char_traits@D@__Cr@std@@@__Cr@std@@AEBV123@AEA_K@?$vector@UViableSubstitution@strings_internal@absl@@V?$allocator@UViableSubstitution@strings_internal@absl@@@__Cr@std@@@__Cr@std@@QEAAAEAUViableSubstitution@strings_internal@absl@@AEAV?$basic_string_view@DU?$char_traits@D@__Cr@std@@@12@AEBV612@AEA_K@Z
    ??$emplace_back@HVcrc32c_t@absl@@@?$deque@UPrefixCrc@CrcCordState@crc_internal@absl@@V?$allocator@UPrefixCrc@CrcCordState@crc_internal@absl@@@__Cr@std@@@__Cr@std@@QEAAAEAUPrefixCrc@CrcCordState@crc_internal@absl@@$$QEAH$$QEAVcrc32c_t@6@@Z
    ??$find@V?$basic_string@DU?$char_traits@D@__Cr@std@@V?$allocator@D@23@@__Cr@std@@@?$__hash_table@U?$__hash_value_type@V?$basic_string@DU?$char_traits@D@__Cr@std@@V?$allocator@D@23@@__Cr@std@@PEBVImpl@time_zone@cctz@time_internal@absl@@@__Cr@std@@V?$__unordered_map_hasher@V?$basic_string@DU?$char_traits@D@__Cr@std@@V?$allocator@D@23@@__Cr@std@@U?$__hash_value_type@V?$basic_string@DU?$char_traits@D@__Cr@std@@V?$allocator@D@23@@__Cr@std@@PEBVImpl@time_zone@cctz@time_internal@absl@@@23@U?$hash@V?$basic_string@DU?$char_traits@D@__Cr@std@@V?$allocator@D@23@@__Cr@std@@@23@U?$equal_to@V?$basic_string@DU?$char_traits@D@__Cr@std@@V?$allocator@D@23@@__Cr@std@@@23@$00@23@V?$__unordered_map_equal@V?$basic_string@DU?$char_traits@D@__Cr@std@@V?$allocator@D@23@@__Cr@std@@U?$__hash_value_type@V?$basic_string@DU?$char_traits@D@__Cr@std@@V?$allocator@D@23@@__Cr@std@@PEBVImpl@time_zone@cctz@time_internal@absl@@@23@U?$equal_to@V?$basic_string@DU?$char_traits@D@__Cr@std@@V?$allocator@D@23@@__Cr@std@@@23@U?$hash@V?$basic_string@DU?$char_traits@D@__Cr@std@@V?$allocator@D@23@@__Cr@std@@@23@$00@23@V?$allocator@U?$__hash_value_type@V?$basic_string@DU?$char_traits@D@__Cr@std@@V?$allocator@D@23@@__Cr@std@@PEBVImpl@time_zone@cctz@time_internal@absl@@@__Cr@std@@@23@@__Cr@std@@QEAA?AV?$__hash_iterator@PEAU?$__hash_node@U?$__hash_value_type@V?$basic_string@DU?$char_traits@D@__Cr@std@@V?$allocator@D@23@@__Cr@std@@PEBVImpl@time_zone@cctz@time_internal@absl@@@__Cr@std@@PEAX@__Cr@std@@@12@AEBV?$basic_string@DU?$char_traits@D@__Cr@std@@V?$allocator@D@23@@12@@Z
    ??$find_first_non_full@X@container_internal@absl@@YA?AUFindInfo@01@AEBVCommonFields@01@_K@Z
    ??$hash@V?$tuple@AEB_K@__Cr@std@@$0A@@MixingHashState@hash_internal@absl@@SA_KAEBV?$tuple@AEB_K@__Cr@std@@@Z
    ??0?$BigUnsigned@$03@strings_internal@absl@@QEAA@V?$basic_string_view@DU?$char_traits@D@__Cr@std@@@__Cr@std@@@Z
    ??0?$BigUnsigned@$03@strings_internal@absl@@QEAA@XZ
    ??0?$BigUnsigned@$03@strings_internal@absl@@QEAA@_K@Z
    ??0?$BigUnsigned@$0FE@@strings_internal@absl@@QEAA@V?$basic_string_view@DU?$char_traits@D@__Cr@std@@@__Cr@std@@@Z
    ??0?$BigUnsigned@$0FE@@strings_internal@absl@@QEAA@XZ
    ??0?$BigUnsigned@$0FE@@strings_internal@absl@@QEAA@_K@Z
    ??0?$RandenPool@E@random_internal@absl@@QEAA@XZ
    ??0?$RandenPool@G@random_internal@absl@@QEAA@XZ
    ??0?$RandenPool@I@random_internal@absl@@QEAA@XZ
    ??0?$RandenPool@_K@random_internal@absl@@QEAA@XZ
    ??0?$SampleRecorder@UHashtablezInfo@container_internal@absl@@@profiling_internal@absl@@QEAA@XZ
    ??0AlphaNum@absl@@QEAA@H@Z
    ??0AlphaNum@absl@@QEAA@PEBD@Z
    ??0AlphaNum@absl@@QEAA@_K@Z
    ??0Arena@LowLevelAlloc@base_internal@absl@@QEAA@I@Z
    ??0Arg@substitute_internal@absl@@QEAA@PEBX@Z
    ??0Arg@substitute_internal@absl@@QEAA@UDec@2@@Z
    ??0Arg@substitute_internal@absl@@QEAA@UHex@2@@Z
    ??0BadStatusOrAccess@absl@@QEAA@$$QEAV01@@Z
    ??0BadStatusOrAccess@absl@@QEAA@AEBV01@@Z
    ??0BadStatusOrAccess@absl@@QEAA@VStatus@1@@Z
    ??0BlockingCounter@absl@@QEAA@H@Z
    ??0ByAnyChar@absl@@QEAA@V?$basic_string_view@DU?$char_traits@D@__Cr@std@@@__Cr@std@@@Z
    ??0ByLength@absl@@QEAA@_J@Z
    ??0ByString@absl@@QEAA@V?$basic_string_view@DU?$char_traits@D@__Cr@std@@@__Cr@std@@@Z
    ??0CRC@crc_internal@absl@@IEAA@XZ
    ??0CharIterator@Cord@absl@@AEAA@PEBV12@@Z
    ??0CheckOpMessageBuilder@log_internal@absl@@QEAA@PEBD@Z
    ??0Condition@absl@@QEAA@P6A_NPEAX@Z0@Z
    ??0Condition@absl@@QEAA@PEB_N@Z
    ??0Cord@absl@@AEAA@V?$basic_string_view@DU?$char_traits@D@__Cr@std@@@__Cr@std@@W4MethodIdentifier@CordzUpdateTracker@cord_internal@1@@Z
    ??0Cord@absl@@QEAA@AEBV01@@Z
    ??0CordzHandle@cord_internal@absl@@IEAA@_N@Z
    ??0CordzInfo@cord_internal@absl@@AEAA@PEAUCordRep@12@PEBV012@W4MethodIdentifier@CordzUpdateTracker@12@@Z
    ??0CrcCordState@crc_internal@absl@@QEAA@$$QEAV012@@Z
    ??0CrcCordState@crc_internal@absl@@QEAA@AEBV012@@Z
    ??0CrcCordState@crc_internal@absl@@QEAA@XZ
    ??0GraphCycles@synchronization_internal@absl@@QEAA@XZ
    ??0HashtablezInfo@container_internal@absl@@QEAA@XZ
    ??0Impl@time_zone@cctz@time_internal@absl@@AEAA@AEBV?$basic_string@DU?$char_traits@D@__Cr@std@@V?$allocator@D@23@@__Cr@std@@@Z
    ??0Impl@time_zone@cctz@time_internal@absl@@AEAA@XZ
    ??0KernelTimeout@synchronization_internal@absl@@QEAA@VDuration@2@@Z
    ??0KernelTimeout@synchronization_internal@absl@@QEAA@VTime@2@@Z
    ??0LogMessage@log_internal@absl@@QEAA@PEBDHUErrorTag@012@@Z
    ??0LogMessage@log_internal@absl@@QEAA@PEBDHUInfoTag@012@@Z
    ??0LogMessage@log_internal@absl@@QEAA@PEBDHUWarningTag@012@@Z
    ??0LogMessage@log_internal@absl@@QEAA@PEBDHW4LogSeverity@2@@Z
    ??0LogMessageData@LogMessage@log_internal@absl@@QEAA@PEBDHW4LogSeverity@3@VTime@3@@Z
    ??0LogMessageFatal@log_internal@absl@@QEAA@PEBDH@Z
    ??0LogMessageFatal@log_internal@absl@@QEAA@PEBDHV?$basic_string_view@DU?$char_traits@D@__Cr@std@@@__Cr@std@@@Z
    ??0LogMessageQuietlyFatal@log_internal@absl@@QEAA@PEBDH@Z
    ??0LogMessageQuietlyFatal@log_internal@absl@@QEAA@PEBDHV?$basic_string_view@DU?$char_traits@D@__Cr@std@@@__Cr@std@@@Z
    ??0OstreamView@LogMessage@log_internal@absl@@QEAA@AEAULogMessageData@123@@Z
    ??0ParsedFormatBase@str_format_internal@absl@@QEAA@V?$basic_string_view@DU?$char_traits@D@__Cr@std@@@__Cr@std@@_NV?$initializer_list@W4FormatConversionCharSet@absl@@@5@@Z
    ??0Randen@random_internal@absl@@QEAA@XZ
    ??0Rep@GraphCycles@synchronization_internal@absl@@QEAA@XZ
    ??0ScopedMinLogLevel@log_internal@absl@@QEAA@W4LogSeverityAtLeast@2@@Z
    ??0ScopedStderrThreshold@absl@@QEAA@W4LogSeverityAtLeast@1@@Z
    ??0SpinLock@base_internal@absl@@QEAA@W4SchedulingMode@12@@Z
    ??0Status@absl@@QEAA@W4StatusCode@1@V?$basic_string_view@DU?$char_traits@D@__Cr@std@@@__Cr@std@@@Z
    ??0StdcppWaiter@synchronization_internal@absl@@QEAA@XZ
    ??0TimeZoneLibC@cctz@time_internal@absl@@AEAA@AEBV?$basic_string@DU?$char_traits@D@__Cr@std@@V?$allocator@D@23@@__Cr@std@@@Z
    ??0Win32Waiter@synchronization_internal@absl@@QEAA@XZ
    ??0int128@absl@@QEAA@M@Z
    ??0int128@absl@@QEAA@N@Z
    ??0int128@absl@@QEAA@O@Z
    ??0uint128@absl@@QEAA@M@Z
    ??0uint128@absl@@QEAA@N@Z
    ??0uint128@absl@@QEAA@O@Z
    ??1?$FixedArray@D$0?0V?$allocator@D@__Cr@std@@@absl@@QEAA@XZ
    ??1?$__hash_table@PEBUCordRep@cord_internal@absl@@U?$hash@PEBUCordRep@cord_internal@absl@@@__Cr@std@@U?$equal_to@PEBUCordRep@cord_internal@absl@@@56@V?$allocator@PEBUCordRep@cord_internal@absl@@@56@@__Cr@std@@QEAA@XZ
    ??1?$__split_buffer@PEAPEBVImpl@time_zone@cctz@time_internal@absl@@AEAV?$allocator@PEAPEBVImpl@time_zone@cctz@time_internal@absl@@@__Cr@std@@@__Cr@std@@QEAA@XZ
    ??1?$__split_buffer@PEAUPrefixCrc@CrcCordState@crc_internal@absl@@AEAV?$allocator@PEAUPrefixCrc@CrcCordState@crc_internal@absl@@@__Cr@std@@@__Cr@std@@QEAA@XZ
    ??1?$__split_buffer@PEAUPrefixCrc@CrcCordState@crc_internal@absl@@V?$allocator@PEAUPrefixCrc@CrcCordState@crc_internal@absl@@@__Cr@std@@@__Cr@std@@QEAA@XZ
    ??1?$__split_buffer@PEAVCordzHandle@cord_internal@absl@@AEAV?$allocator@PEAVCordzHandle@cord_internal@absl@@@__Cr@std@@@__Cr@std@@QEAA@XZ
    ??1?$__split_buffer@PEAVLogSink@absl@@AEAV?$allocator@PEAVLogSink@absl@@@__Cr@std@@@__Cr@std@@QEAA@XZ
    ??1?$__split_buffer@PEBVCordzHandle@cord_internal@absl@@AEAV?$allocator@PEBVCordzHandle@cord_internal@absl@@@__Cr@std@@@__Cr@std@@QEAA@XZ
    ??1?$__split_buffer@UConversionItem@ParsedFormatBase@str_format_internal@absl@@AEAV?$allocator@UConversionItem@ParsedFormatBase@str_format_internal@absl@@@__Cr@std@@@__Cr@std@@QEAA@XZ
    ??1?$__split_buffer@UTransition@cctz@time_internal@absl@@AEAV?$allocator@UTransition@cctz@time_internal@absl@@@__Cr@std@@@__Cr@std@@QEAA@XZ
    ??1?$__split_buffer@UTransitionType@cctz@time_internal@absl@@AEAV?$allocator@UTransitionType@cctz@time_internal@absl@@@__Cr@std@@@__Cr@std@@QEAA@XZ
    ??1?$__split_buffer@UViableSubstitution@strings_internal@absl@@AEAV?$allocator@UViableSubstitution@strings_internal@absl@@@__Cr@std@@@__Cr@std@@QEAA@XZ
    ??1?$deque@UPrefixCrc@CrcCordState@crc_internal@absl@@V?$allocator@UPrefixCrc@CrcCordState@crc_internal@absl@@@__Cr@std@@@__Cr@std@@QEAA@XZ
    ??1BadStatusOrAccess@absl@@UEAA@XZ
    ??1CRC@crc_internal@absl@@UEAA@XZ
    ??1CheckOpMessageBuilder@log_internal@absl@@QEAA@XZ
    ??1CordzHandle@cord_internal@absl@@MEAA@XZ
    ??1CordzInfo@cord_internal@absl@@EEAA@XZ
    ??1CrcCordState@crc_internal@absl@@QEAA@XZ
    ??1GraphCycles@synchronization_internal@absl@@QEAA@XZ
    ??1HashtablezInfo@container_internal@absl@@QEAA@XZ
    ??1LogMessage@log_internal@absl@@QEAA@XZ
    ??1LogMessageFatal@log_internal@absl@@QEAA@XZ
    ??1LogMessageQuietlyFatal@log_internal@absl@@QEAA@XZ
    ??1Mutex@absl@@QEAA@XZ
    ??1Notification@absl@@QEAA@XZ
    ??1OstreamView@LogMessage@log_internal@absl@@UEAA@XZ
    ??1ScopedMinLogLevel@log_internal@absl@@QEAA@XZ
    ??1ScopedStderrThreshold@absl@@QEAA@XZ
    ??1SeedGenException@absl@@UEAA@XZ
    ??1TimeZoneIf@cctz@time_internal@absl@@UEAA@XZ
    ??1ZoneInfoSource@cctz@time_internal@absl@@UEAA@XZ
    ??1bad_variant_access@absl@@UEAA@XZ
    ??4?$deque@UPrefixCrc@CrcCordState@crc_internal@absl@@V?$allocator@UPrefixCrc@CrcCordState@crc_internal@absl@@@__Cr@std@@@__Cr@std@@QEAAAEAV012@AEBV012@@Z
    ??4BadStatusOrAccess@absl@@QEAAAEAV01@$$QEAV01@@Z
    ??4BadStatusOrAccess@absl@@QEAAAEAV01@AEBV01@@Z
    ??4Cord@absl@@QEAAAEAV01@V?$basic_string_view@DU?$char_traits@D@__Cr@std@@@__Cr@std@@@Z
    ??4CrcCordState@crc_internal@absl@@QEAAAEAV012@$$QEAV012@@Z
    ??4CrcCordState@crc_internal@absl@@QEAAAEAV012@AEBV012@@Z
    ??6LogMessage@log_internal@absl@@QEAAAEAV012@AEBV?$basic_string@DU?$char_traits@D@__Cr@std@@V?$allocator@D@23@@__Cr@std@@@Z
    ??6LogMessage@log_internal@absl@@QEAAAEAV012@P6AAEAV?$basic_ostream@DU?$char_traits@D@__Cr@std@@@__Cr@std@@AEAV345@@Z@Z
    ??6LogMessage@log_internal@absl@@QEAAAEAV012@P6AAEAVios_base@__Cr@std@@AEAV345@@Z@Z
    ??6LogMessage@log_internal@absl@@QEAAAEAV012@V?$basic_string_view@DU?$char_traits@D@__Cr@std@@@__Cr@std@@@Z
    ??6absl@@YAAEAV?$basic_ostream@DU?$char_traits@D@__Cr@std@@@__Cr@std@@AEAV123@AEBVCord@0@@Z
    ??6absl@@YAAEAV?$basic_ostream@DU?$char_traits@D@__Cr@std@@@__Cr@std@@AEAV123@AEBVStatus@0@@Z
    ??6absl@@YAAEAV?$basic_ostream@DU?$char_traits@D@__Cr@std@@@__Cr@std@@AEAV123@Vint128@0@@Z
    ??6absl@@YAAEAV?$basic_ostream@DU?$char_traits@D@__Cr@std@@@__Cr@std@@AEAV123@Vuint128@0@@Z
    ??6absl@@YAAEAV?$basic_ostream@DU?$char_traits@D@__Cr@std@@@__Cr@std@@AEAV123@W4LogSeverity@0@@Z
    ??6absl@@YAAEAV?$basic_ostream@DU?$char_traits@D@__Cr@std@@@__Cr@std@@AEAV123@W4LogSeverityAtLeast@0@@Z
    ??6absl@@YAAEAV?$basic_ostream@DU?$char_traits@D@__Cr@std@@@__Cr@std@@AEAV123@W4LogSeverityAtMost@0@@Z
    ??6absl@@YAAEAV?$basic_ostream@DU?$char_traits@D@__Cr@std@@@__Cr@std@@AEAV123@W4StatusCode@0@@Z
    ??6detail@cctz@time_internal@absl@@YAAEAV?$basic_ostream@DU?$char_traits@D@__Cr@std@@@__Cr@std@@AEAV456@AEBV?$civil_time@Uday_tag@detail@cctz@time_internal@absl@@@0123@@Z
    ??6detail@cctz@time_internal@absl@@YAAEAV?$basic_ostream@DU?$char_traits@D@__Cr@std@@@__Cr@std@@AEAV456@AEBV?$civil_time@Uhour_tag@detail@cctz@time_internal@absl@@@0123@@Z
    ??6detail@cctz@time_internal@absl@@YAAEAV?$basic_ostream@DU?$char_traits@D@__Cr@std@@@__Cr@std@@AEAV456@AEBV?$civil_time@Uminute_tag@detail@cctz@time_internal@absl@@@0123@@Z
    ??6detail@cctz@time_internal@absl@@YAAEAV?$basic_ostream@DU?$char_traits@D@__Cr@std@@@__Cr@std@@AEAV456@AEBV?$civil_time@Umonth_tag@detail@cctz@time_internal@absl@@@0123@@Z
    ??6detail@cctz@time_internal@absl@@YAAEAV?$basic_ostream@DU?$char_traits@D@__Cr@std@@@__Cr@std@@AEAV456@AEBV?$civil_time@Usecond_tag@detail@cctz@time_internal@absl@@@0123@@Z
    ??6detail@cctz@time_internal@absl@@YAAEAV?$basic_ostream@DU?$char_traits@D@__Cr@std@@@__Cr@std@@AEAV456@AEBV?$civil_time@Uyear_tag@detail@cctz@time_internal@absl@@@0123@@Z
    ??6detail@cctz@time_internal@absl@@YAAEAV?$basic_ostream@DU?$char_traits@D@__Cr@std@@@__Cr@std@@AEAV456@W4weekday@0123@@Z
    ??6time_internal@absl@@YAAEAV?$basic_ostream@DU?$char_traits@D@__Cr@std@@@__Cr@std@@AEAV234@V?$civil_time@Uday_tag@time_internal@absl@@@detail@cctz@01@@Z
    ??6time_internal@absl@@YAAEAV?$basic_ostream@DU?$char_traits@D@__Cr@std@@@__Cr@std@@AEAV234@V?$civil_time@Uhour_tag@time_internal@absl@@@detail@cctz@01@@Z
    ??6time_internal@absl@@YAAEAV?$basic_ostream@DU?$char_traits@D@__Cr@std@@@__Cr@std@@AEAV234@V?$civil_time@Uminute_tag@time_internal@absl@@@detail@cctz@01@@Z
    ??6time_internal@absl@@YAAEAV?$basic_ostream@DU?$char_traits@D@__Cr@std@@@__Cr@std@@AEAV234@V?$civil_time@Umonth_tag@time_internal@absl@@@detail@cctz@01@@Z
    ??6time_internal@absl@@YAAEAV?$basic_ostream@DU?$char_traits@D@__Cr@std@@@__Cr@std@@AEAV234@V?$civil_time@Usecond_tag@time_internal@absl@@@detail@cctz@01@@Z
    ??6time_internal@absl@@YAAEAV?$basic_ostream@DU?$char_traits@D@__Cr@std@@@__Cr@std@@AEAV234@V?$civil_time@Uyear_tag@time_internal@absl@@@detail@cctz@01@@Z
    ??8StatusRep@status_internal@absl@@QEBA_NAEBV012@@Z
    ??A?$vector@UTransition@cctz@time_internal@absl@@V?$allocator@UTransition@cctz@time_internal@absl@@@__Cr@std@@@__Cr@std@@QEAAAEAUTransition@cctz@time_internal@absl@@_K@Z
    ??A?$vector@UTransitionType@cctz@time_internal@absl@@V?$allocator@UTransitionType@cctz@time_internal@absl@@@__Cr@std@@@__Cr@std@@QEAAAEAUTransitionType@cctz@time_internal@absl@@_K@Z
    ??ACord@absl@@QEBAD_K@Z
    ??BCord@absl@@QEBA?AV?$basic_string@DU?$char_traits@D@__Cr@std@@V?$allocator@D@23@@__Cr@std@@XZ
    ??Bint128@absl@@QEBANXZ
    ??E?$SplitIterator@V?$Splitter@VByChar@absl@@UAllowEmpty@2@V?$basic_string_view@DU?$char_traits@D@__Cr@std@@@__Cr@std@@@strings_internal@absl@@@strings_internal@absl@@QEAAAEAV012@XZ
    ??EChunkIterator@Cord@absl@@QEAAAEAV012@XZ
    ??Gdetail@cctz@time_internal@absl@@YA?AV?$civil_time@Uday_tag@detail@cctz@time_internal@absl@@@0123@V40123@_J@Z
    ??Gdetail@cctz@time_internal@absl@@YA?AV?$civil_time@Usecond_tag@detail@cctz@time_internal@absl@@@0123@V40123@_J@Z
    ??Hdetail@cctz@time_internal@absl@@YA?AV?$civil_time@Uday_tag@detail@cctz@time_internal@absl@@@0123@V40123@_J@Z
    ??Kabsl@@YA?AVint128@0@V10@0@Z
    ??Kabsl@@YA?AVuint128@0@V10@0@Z
    ??Labsl@@YA?AVint128@0@V10@0@Z
    ??Labsl@@YA?AVuint128@0@V10@0@Z
    ??R?$RandenPool@E@random_internal@absl@@QEAAEXZ
    ??R?$RandenPool@G@random_internal@absl@@QEAAGXZ
    ??R?$RandenPool@I@random_internal@absl@@QEAAIXZ
    ??R?$RandenPool@_K@random_internal@absl@@QEAA_KXZ
    ??R?$default_delete@$$CBVImpl@time_zone@cctz@time_internal@absl@@@__Cr@std@@QEBAXPEBVImpl@time_zone@cctz@time_internal@absl@@@Z
    ??R?$default_delete@ULogMessageData@LogMessage@log_internal@absl@@@__Cr@std@@QEBAXPEAULogMessageData@LogMessage@log_internal@absl@@@Z
    ??R__destroy_vector@?$vector@PEAVCordzHandle@cord_internal@absl@@V?$allocator@PEAVCordzHandle@cord_internal@absl@@@__Cr@std@@@__Cr@std@@QEAAXXZ
    ??R__destroy_vector@?$vector@UTransition@cctz@time_internal@absl@@V?$allocator@UTransition@cctz@time_internal@absl@@@__Cr@std@@@__Cr@std@@QEAAXXZ
    ??R__destroy_vector@?$vector@UTransitionType@cctz@time_internal@absl@@V?$allocator@UTransitionType@cctz@time_internal@absl@@@__Cr@std@@@__Cr@std@@QEAAXXZ
    ??R__destroy_vector@?$vector@UViableSubstitution@strings_internal@absl@@V?$allocator@UViableSubstitution@strings_internal@absl@@@__Cr@std@@@__Cr@std@@QEAAXXZ
    ??XDuration@absl@@QEAAAEAV01@N@Z
    ??XDuration@absl@@QEAAAEAV01@_J@Z
    ??YDuration@absl@@QEAAAEAV01@V01@@Z
    ??ZDuration@absl@@QEAAAEAV01@V01@@Z
    ??_0Duration@absl@@QEAAAEAV01@N@Z
    ??_0Duration@absl@@QEAAAEAV01@_J@Z
    ??_1Duration@absl@@QEAAAEAV01@V01@@Z
    ?AbortedError@absl@@YA?AVStatus@1@V?$basic_string_view@DU?$char_traits@D@__Cr@std@@@__Cr@std@@@Z
    ?AbslParseFlag@absl@@YA_NV?$basic_string_view@DU?$char_traits@D@__Cr@std@@@__Cr@std@@PEAVDuration@1@PEAV?$basic_string@DU?$char_traits@D@__Cr@std@@V?$allocator@D@23@@34@@Z
    ?AbslParseFlag@absl@@YA_NV?$basic_string_view@DU?$char_traits@D@__Cr@std@@@__Cr@std@@PEAVTime@1@PEAV?$basic_string@DU?$char_traits@D@__Cr@std@@V?$allocator@D@23@@34@@Z
    ?AbslParseFlag@time_internal@absl@@YA_NV?$basic_string_view@DU?$char_traits@D@__Cr@std@@@__Cr@std@@PEAV?$civil_time@Uday_tag@time_internal@absl@@@detail@cctz@12@PEAV?$basic_string@DU?$char_traits@D@__Cr@std@@V?$allocator@D@23@@45@@Z
    ?AbslParseFlag@time_internal@absl@@YA_NV?$basic_string_view@DU?$char_traits@D@__Cr@std@@@__Cr@std@@PEAV?$civil_time@Uhour_tag@time_internal@absl@@@detail@cctz@12@PEAV?$basic_string@DU?$char_traits@D@__Cr@std@@V?$allocator@D@23@@45@@Z
    ?AbslParseFlag@time_internal@absl@@YA_NV?$basic_string_view@DU?$char_traits@D@__Cr@std@@@__Cr@std@@PEAV?$civil_time@Uminute_tag@time_internal@absl@@@detail@cctz@12@PEAV?$basic_string@DU?$char_traits@D@__Cr@std@@V?$allocator@D@23@@45@@Z
    ?AbslParseFlag@time_internal@absl@@YA_NV?$basic_string_view@DU?$char_traits@D@__Cr@std@@@__Cr@std@@PEAV?$civil_time@Umonth_tag@time_internal@absl@@@detail@cctz@12@PEAV?$basic_string@DU?$char_traits@D@__Cr@std@@V?$allocator@D@23@@45@@Z
    ?AbslParseFlag@time_internal@absl@@YA_NV?$basic_string_view@DU?$char_traits@D@__Cr@std@@@__Cr@std@@PEAV?$civil_time@Usecond_tag@time_internal@absl@@@detail@cctz@12@PEAV?$basic_string@DU?$char_traits@D@__Cr@std@@V?$allocator@D@23@@45@@Z
    ?AbslParseFlag@time_internal@absl@@YA_NV?$basic_string_view@DU?$char_traits@D@__Cr@std@@@__Cr@std@@PEAV?$civil_time@Uyear_tag@time_internal@absl@@@detail@cctz@12@PEAV?$basic_string@DU?$char_traits@D@__Cr@std@@V?$allocator@D@23@@45@@Z
    ?AbslUnparseFlag@absl@@YA?AV?$basic_string@DU?$char_traits@D@__Cr@std@@V?$allocator@D@23@@__Cr@std@@VDuration@1@@Z
    ?AbslUnparseFlag@absl@@YA?AV?$basic_string@DU?$char_traits@D@__Cr@std@@V?$allocator@D@23@@__Cr@std@@VTime@1@@Z
    ?AbslUnparseFlag@time_internal@absl@@YA?AV?$basic_string@DU?$char_traits@D@__Cr@std@@V?$allocator@D@23@@__Cr@std@@V?$civil_time@Uday_tag@time_internal@absl@@@detail@cctz@12@@Z
    ?AbslUnparseFlag@time_internal@absl@@YA?AV?$basic_string@DU?$char_traits@D@__Cr@std@@V?$allocator@D@23@@__Cr@std@@V?$civil_time@Uhour_tag@time_internal@absl@@@detail@cctz@12@@Z
    ?AbslUnparseFlag@time_internal@absl@@YA?AV?$basic_string@DU?$char_traits@D@__Cr@std@@V?$allocator@D@23@@__Cr@std@@V?$civil_time@Uminute_tag@time_internal@absl@@@detail@cctz@12@@Z
    ?AbslUnparseFlag@time_internal@absl@@YA?AV?$basic_string@DU?$char_traits@D@__Cr@std@@V?$allocator@D@23@@__Cr@std@@V?$civil_time@Umonth_tag@time_internal@absl@@@detail@cctz@12@@Z
    ?AbslUnparseFlag@time_internal@absl@@YA?AV?$basic_string@DU?$char_traits@D@__Cr@std@@V?$allocator@D@23@@__Cr@std@@V?$civil_time@Usecond_tag@time_internal@absl@@@detail@cctz@12@@Z
    ?AbslUnparseFlag@time_internal@absl@@YA?AV?$basic_string@DU?$char_traits@D@__Cr@std@@V?$allocator@D@23@@__Cr@std@@V?$civil_time@Uyear_tag@time_internal@absl@@@detail@cctz@12@@Z
    ?Absorb@RandenHwAes@random_internal@absl@@SAXPEBXPEAX@Z
    ?Absorb@RandenSlow@random_internal@absl@@SAXPEBXPEAX@Z
    ?AddLogSink@log_internal@absl@@YAXPEAVLogSink@2@@Z
    ?AddWithCarry@?$BigUnsigned@$03@strings_internal@absl@@AEAAXHI@Z
    ?AddWithCarry@?$BigUnsigned@$03@strings_internal@absl@@AEAAXH_K@Z
    ?AddWithCarry@?$BigUnsigned@$0FE@@strings_internal@absl@@AEAAXHI@Z
    ?AddWithCarry@?$BigUnsigned@$0FE@@strings_internal@absl@@AEAAXH_K@Z
    ?AddressIsReadable@debugging_internal@absl@@YA_NPEBX@Z
    ?AdvanceAndReadBytes@ChunkIterator@Cord@absl@@AEAA?AV23@_K@Z
    ?AdvanceBytesBtree@ChunkIterator@Cord@absl@@AEAAX_K@Z
    ?AllocWithArena@LowLevelAlloc@base_internal@absl@@SAPEAX_KPEAUArena@123@@Z
    ?Allocate@?$MallocAdapter@V?$allocator@PEAVLogSink@absl@@@__Cr@std@@$0A@@inlined_vector_internal@absl@@SA?AU?$Allocation@V?$allocator@PEAVLogSink@absl@@@__Cr@std@@@23@AEAV?$allocator@PEAVLogSink@absl@@@__Cr@std@@_K@Z
    ?Allocate@?$MallocAdapter@V?$allocator@UPayload@status_internal@absl@@@__Cr@std@@$0A@@inlined_vector_internal@absl@@SA?AU?$Allocation@V?$allocator@UPayload@status_internal@absl@@@__Cr@std@@@23@AEAV?$allocator@UPayload@status_internal@absl@@@__Cr@std@@_K@Z
    ?Allocate@?$MallocAdapter@V?$allocator@VFormatArgImpl@str_format_internal@absl@@@__Cr@std@@$0A@@inlined_vector_internal@absl@@SA?AU?$Allocation@V?$allocator@VFormatArgImpl@str_format_internal@absl@@@__Cr@std@@@23@AEAV?$allocator@VFormatArgImpl@str_format_internal@absl@@@__Cr@std@@_K@Z
    ?AlreadyExistsError@absl@@YA?AVStatus@1@V?$basic_string_view@DU?$char_traits@D@__Cr@std@@@__Cr@std@@@Z
    ?AlwaysTrue@Condition@absl@@CA_NPEBV12@@Z
    ?Append@?$AppendUninitializedTraits@V?$basic_string@DU?$char_traits@D@__Cr@std@@V?$allocator@D@23@@__Cr@std@@X@strings_internal@absl@@SAXPEAV?$basic_string@DU?$char_traits@D@__Cr@std@@V?$allocator@D@23@@__Cr@std@@_K@Z
    ?Append@Cord@absl@@QEAAX$$QEAV12@@Z
    ?Append@Cord@absl@@QEAAXAEBV12@@Z
    ?Append@CordRepBtree@cord_internal@absl@@SAPEAV123@PEAV123@V?$basic_string_view@DU?$char_traits@D@__Cr@std@@@__Cr@std@@_K@Z
    ?Append@FormatSinkImpl@str_format_internal@absl@@QEAAXV?$basic_string_view@DU?$char_traits@D@__Cr@std@@@__Cr@std@@@Z
    ?Append@FormatSinkImpl@str_format_internal@absl@@QEAAX_KD@Z
    ?Append@ParsedFormatConsumer@ParsedFormatBase@str_format_internal@absl@@QEAA_NV?$basic_string_view@DU?$char_traits@D@__Cr@std@@@__Cr@std@@@Z
    ?Append@StringifySink@strings_internal@absl@@QEAAXV?$basic_string_view@DU?$char_traits@D@__Cr@std@@@__Cr@std@@@Z
    ?Append@StringifySink@strings_internal@absl@@QEAAX_KD@Z
    ?AppendArray@InlineRep@Cord@absl@@QEAAXV?$basic_string_view@DU?$char_traits@D@__Cr@std@@@__Cr@std@@W4MethodIdentifier@CordzUpdateTracker@cord_internal@3@@Z
    ?AppendPack@str_format_internal@absl@@YAAEAV?$basic_string@DU?$char_traits@D@__Cr@std@@V?$allocator@D@23@@__Cr@std@@PEAV345@VUntypedFormatSpecImpl@12@V?$Span@$$CBVFormatArgImpl@str_format_internal@absl@@@2@@Z
    ?AppendPieces@strings_internal@absl@@YAXPEAV?$basic_string@DU?$char_traits@D@__Cr@std@@V?$allocator@D@23@@__Cr@std@@V?$initializer_list@V?$basic_string_view@DU?$char_traits@D@__Cr@std@@@__Cr@std@@@5@@Z
    ?AppendPrecise@Cord@absl@@AEAAXV?$basic_string_view@DU?$char_traits@D@__Cr@std@@@__Cr@std@@W4MethodIdentifier@CordzUpdateTracker@cord_internal@2@@Z
    ?AppendSlow@CordRepBtree@cord_internal@absl@@CAPEAV123@PEAV123@PEAUCordRep@23@@Z
    ?AppendTree@InlineRep@Cord@absl@@QEAAXPEAUCordRep@cord_internal@3@W4MethodIdentifier@CordzUpdateTracker@53@@Z
    ?AppendTreeToInlined@InlineRep@Cord@absl@@QEAAXPEAUCordRep@cord_internal@3@W4MethodIdentifier@CordzUpdateTracker@53@@Z
    ?AppendTreeToTree@InlineRep@Cord@absl@@QEAAXPEAUCordRep@cord_internal@3@W4MethodIdentifier@CordzUpdateTracker@53@@Z
    ?ApplySubstitutions@strings_internal@absl@@YAHV?$basic_string_view@DU?$char_traits@D@__Cr@std@@@__Cr@std@@PEAV?$vector@UViableSubstitution@strings_internal@absl@@V?$allocator@UViableSubstitution@strings_internal@absl@@@__Cr@std@@@45@PEAV?$basic_string@DU?$char_traits@D@__Cr@std@@V?$allocator@D@23@@45@@Z
    ?AsciiStrToLower@absl@@YAXPEAV?$basic_string@DU?$char_traits@D@__Cr@std@@V?$allocator@D@23@@__Cr@std@@@Z
    ?AsciiStrToUpper@absl@@YAXPEAV?$basic_string@DU?$char_traits@D@__Cr@std@@V?$allocator@D@23@@__Cr@std@@@Z
    ?AssertHeld@Mutex@absl@@QEBAXXZ
    ?AssertNotHeld@Mutex@absl@@QEBAXXZ
    ?AssertReaderHeld@Mutex@absl@@QEBAXXZ
    ?AssignLargeString@Cord@absl@@AEAAAEAV12@$$QEAV?$basic_string@DU?$char_traits@D@__Cr@std@@V?$allocator@D@23@@__Cr@std@@@Z
    ?AssignNext@?$IteratorValueAdapter@V?$allocator@UPayload@status_internal@absl@@@__Cr@std@@V?$move_iterator@PEAUPayload@status_internal@absl@@@23@@inlined_vector_internal@absl@@QEAAXPEAUPayload@status_internal@3@@Z
    ?AssignSlow@InlineRep@Cord@absl@@AEAAXAEBV123@@Z
    ?AsyncSignalSafeWriteError@raw_log_internal@absl@@YAXPEBD_K@Z
    ?At@TimeZone@absl@@QEBA?AUCivilInfo@12@VTime@2@@Z
    ?At@TimeZone@absl@@QEBA?AUTimeInfo@12@V?$civil_time@Usecond_tag@time_internal@absl@@@detail@cctz@time_internal@2@@Z
    ?AtLocation@LogMessage@log_internal@absl@@QEAAAEAV123@V?$basic_string_view@DU?$char_traits@D@__Cr@std@@@__Cr@std@@H@Z
    ?AwaitCommon@Mutex@absl@@AEAA_NAEBVCondition@2@VKernelTimeout@synchronization_internal@2@@Z
    ?Base64Escape@absl@@YA?AV?$basic_string@DU?$char_traits@D@__Cr@std@@V?$allocator@D@23@@__Cr@std@@V?$basic_string_view@DU?$char_traits@D@__Cr@std@@@34@@Z
    ?Base64Escape@absl@@YAXV?$basic_string_view@DU?$char_traits@D@__Cr@std@@@__Cr@std@@PEAV?$basic_string@DU?$char_traits@D@__Cr@std@@V?$allocator@D@23@@34@@Z
    ?Base64EscapeInternal@strings_internal@absl@@YA_KPEBE_KPEAD1PEBD_N@Z
    ?Base64Unescape@absl@@YA_NV?$basic_string_view@DU?$char_traits@D@__Cr@std@@@__Cr@std@@PEAV?$basic_string@DU?$char_traits@D@__Cr@std@@V?$allocator@D@23@@34@@Z
    ?BindWithPack@str_format_internal@absl@@YA_NPEBUUnboundConversion@12@V?$Span@$$CBVFormatArgImpl@str_format_internal@absl@@@2@PEAVBoundConversion@12@@Z
    ?Block@Barrier@absl@@QEAA_NXZ
    ?Block@Mutex@absl@@AEAAXPEAUPerThreadSynch@base_internal@2@@Z
    ?BreakTime@TimeZoneInfo@cctz@time_internal@absl@@UEBA?AUabsolute_lookup@time_zone@234@AEBV?$time_point@Vsystem_clock@chrono@__Cr@std@@V?$duration@_JV?$ratio@$00$00@__Cr@std@@@234@@chrono@__Cr@std@@@Z
    ?BreakTime@TimeZoneLibC@cctz@time_internal@absl@@UEBA?AUabsolute_lookup@time_zone@234@AEBV?$time_point@Vsystem_clock@chrono@__Cr@std@@V?$duration@_JV?$ratio@$00$00@__Cr@std@@@234@@chrono@__Cr@std@@@Z
    ?BytesToHexString@absl@@YA?AV?$basic_string@DU?$char_traits@D@__Cr@std@@V?$allocator@D@23@@__Cr@std@@V?$basic_string_view@DU?$char_traits@D@__Cr@std@@@34@@Z
    ?CEscape@absl@@YA?AV?$basic_string@DU?$char_traits@D@__Cr@std@@V?$allocator@D@23@@__Cr@std@@V?$basic_string_view@DU?$char_traits@D@__Cr@std@@@34@@Z
    ?CHexEscape@absl@@YA?AV?$basic_string@DU?$char_traits@D@__Cr@std@@V?$allocator@D@23@@__Cr@std@@V?$basic_string_view@DU?$char_traits@D@__Cr@std@@@34@@Z
    ?CPUSupportsRandenHwAes@random_internal@absl@@YA_NXZ
    ?CUnescape@absl@@YA_NV?$basic_string_view@DU?$char_traits@D@__Cr@std@@@__Cr@std@@PEAV?$basic_string@DU?$char_traits@D@__Cr@std@@V?$allocator@D@23@@34@1@Z
    ?CalculateBase64EscapedLenInternal@strings_internal@absl@@YA_K_K_N@Z
    ?CallVoidPtrFunction@Condition@absl@@CA_NPEBV12@@Z
    ?CancelledError@absl@@YA?AVStatus@1@V?$basic_string_view@DU?$char_traits@D@__Cr@std@@@__Cr@std@@@Z
    ?CappedDamerauLevenshteinDistance@strings_internal@absl@@YAEV?$basic_string_view@DU?$char_traits@D@__Cr@std@@@__Cr@std@@0E@Z
    ?CatPieces@strings_internal@absl@@YA?AV?$basic_string@DU?$char_traits@D@__Cr@std@@V?$allocator@D@23@@__Cr@std@@V?$initializer_list@V?$basic_string_view@DU?$char_traits@D@__Cr@std@@@__Cr@std@@@5@@Z
    ?Ceil@absl@@YA?AVDuration@1@V21@0@Z
    ?CheckInvariants@GraphCycles@synchronization_internal@absl@@QEBA_NXZ
    ?CheckstrcasecmpfalseImpl@log_internal@absl@@YAPEAV?$basic_string@DU?$char_traits@D@__Cr@std@@V?$allocator@D@23@@__Cr@std@@PEBD00@Z
    ?CheckstrcasecmptrueImpl@log_internal@absl@@YAPEAV?$basic_string@DU?$char_traits@D@__Cr@std@@V?$allocator@D@23@@__Cr@std@@PEBD00@Z
    ?CheckstrcmpfalseImpl@log_internal@absl@@YAPEAV?$basic_string@DU?$char_traits@D@__Cr@std@@V?$allocator@D@23@@__Cr@std@@PEBD00@Z
    ?CheckstrcmptrueImpl@log_internal@absl@@YAPEAV?$basic_string@DU?$char_traits@D@__Cr@std@@V?$allocator@D@23@@__Cr@std@@PEBD00@Z
    ?Checksum@CrcCordState@crc_internal@absl@@QEBA?AVcrc32c_t@3@XZ
    ?CityHash32@hash_internal@absl@@YAIPEBD_K@Z
    ?CityHash64@hash_internal@absl@@YA_KPEBD_K@Z
    ?CityHash64WithSeed@hash_internal@absl@@YA_KPEBD_K1@Z
    ?CityHash64WithSeeds@hash_internal@absl@@YA_KPEBD_K11@Z
    ?Clear@Cord@absl@@QEAAXXZ
    ?ClearBackingArray@container_internal@absl@@YAXAEAVCommonFields@12@AEBUPolicyFunctions@12@_N@Z
    ?ClearCurrentThreadIdentity@base_internal@absl@@YAXXZ
    ?ClearLogBacktraceLocation@absl@@YAXXZ
    ?ClearTimeZoneMapTestOnly@Impl@time_zone@cctz@time_internal@absl@@SAXXZ
    ?CloneAndUnref@StatusRep@status_internal@absl@@QEBAPEAV123@XZ
    ?CombineContiguousImpl@MixingHashState@hash_internal@absl@@CA_K_KPEBE0U?$integral_constant@H$03@__Cr@std@@@Z
    ?CombineContiguousImpl@MixingHashState@hash_internal@absl@@CA_K_KPEBE0U?$integral_constant@H$07@__Cr@std@@@Z
    ?CombineLargeContiguousImpl32@MixingHashState@hash_internal@absl@@CA_K_KPEBE0@Z
    ?CombineLargeContiguousImpl64@MixingHashState@hash_internal@absl@@CA_K_KPEBE0@Z
    ?Compare@Cord@absl@@QEBAHV?$basic_string_view@DU?$char_traits@D@__Cr@std@@@__Cr@std@@@Z
    ?CompareImpl@Cord@absl@@AEBAHAEBV12@@Z
    ?CompareSlowPath@Cord@absl@@AEBAHAEBV12@_K1@Z
    ?CompareSlowPath@Cord@absl@@AEBAHV?$basic_string_view@DU?$char_traits@D@__Cr@std@@@__Cr@std@@_K1@Z
    ?Compute@CrcNonTemporalMemcpyAVXEngine@crc_internal@absl@@UEBA?AVcrc32c_t@3@PEIAXPEIBX_KV43@@Z
    ?Compute@CrcNonTemporalMemcpyEngine@crc_internal@absl@@UEBA?AVcrc32c_t@3@PEIAXPEIBX_KV43@@Z
    ?Compute@FallbackCrcMemcpyEngine@crc_internal@absl@@UEBA?AVcrc32c_t@3@PEIAXPEIBX_KV43@@Z
    ?ComputeCrc32c@absl@@YA?AVcrc32c_t@1@V?$basic_string_view@DU?$char_traits@D@__Cr@std@@@__Cr@std@@@Z
    ?ConcatCrc32c@absl@@YA?AVcrc32c_t@1@V21@0_K@Z
    ?Consume@cord_internal@absl@@YAXPEAUCordRep@12@V?$FunctionRef@$$A6AXPEAUCordRep@cord_internal@absl@@_K1@Z@2@@Z
    ?ConsumeBeginTo@CordRepBtree@cord_internal@absl@@CAPEAV123@PEAV123@_K1@Z
    ?ConsumeUnboundConversion@str_format_internal@absl@@YAPEBDPEBD0PEAUUnboundConversion@12@PEAH@Z
    ?ConsumeUnboundConversionNoInline@str_format_internal@absl@@YAPEBDPEBD0PEAUUnboundConversion@12@PEAH@Z
    ?Contains@Cord@absl@@QEBA_NAEBV12@@Z
    ?Contains@Cord@absl@@QEBA_NV?$basic_string_view@DU?$char_traits@D@__Cr@std@@@__Cr@std@@@Z
    ?ConvertBoolArg@str_format_internal@absl@@YA_N_NPEAVFormatSinkImpl@12@@Z
    ?ConvertDateTime@absl@@YA?AUTimeConversion@1@_JHHHHHVTimeZone@1@@Z
    ?ConvertDeletedToEmptyAndFullToDeleted@container_internal@absl@@YAXPEAW4ctrl_t@12@_K@Z
    ?ConvertFloatImpl@str_format_internal@absl@@YA_NMAEBVFormatConversionSpecImpl@12@PEAVFormatSinkImpl@12@@Z
    ?ConvertFloatImpl@str_format_internal@absl@@YA_NNAEBVFormatConversionSpecImpl@12@PEAVFormatSinkImpl@12@@Z
    ?ConvertFloatImpl@str_format_internal@absl@@YA_NOAEBVFormatConversionSpecImpl@12@PEAVFormatSinkImpl@12@@Z
    ?CopyCordToString@absl@@YAXAEBVCord@1@PEAV?$basic_string@DU?$char_traits@D@__Cr@std@@V?$allocator@D@23@@__Cr@std@@@Z
    ?CopyPrefix@CordRepBtree@cord_internal@absl@@AEAA?AUCopyResult@123@_K_N@Z
    ?CopySuffix@CordRepBtree@cord_internal@absl@@AEAA?AUCopyResult@123@_K@Z
    ?CopyTo@InlineRep@Cord@absl@@QEBAXPEAV?$basic_string@DU?$char_traits@D@__Cr@std@@V?$allocator@D@23@@__Cr@std@@@Z
    ?CopyToArraySlowPath@Cord@absl@@AEBAXPEAD@Z
    ?Crash@Helper@internal_statusor@absl@@SAXAEBVStatus@3@@Z
    ?Crc32c@CRC@crc_internal@absl@@SAPEAV123@XZ
    ?CrcAndCopy@CrcMemcpy@crc_internal@absl@@SA?AVcrc32c_t@3@PEIAXPEIBX_KV43@_N@Z
    ?CreateSlow@CordRepBtree@cord_internal@absl@@CAPEAV123@PEAUCordRep@23@@Z
    ?CreateThreadIdentity@synchronization_internal@absl@@YAPEAUThreadIdentity@base_internal@2@XZ
    ?CurrentThreadIdentityIfPresent@base_internal@absl@@YAPEAUThreadIdentity@12@XZ
    ?DataLossError@absl@@YA?AVStatus@1@V?$basic_string_view@DU?$char_traits@D@__Cr@std@@@__Cr@std@@@Z
    ?DeadlineExceededError@absl@@YA?AVStatus@1@V?$basic_string_view@DU?$char_traits@D@__Cr@std@@@__Cr@std@@@Z
    ?DecodeFrom@ProtoField@log_internal@absl@@QEAA_NPEAV?$Span@$$CBD@3@@Z
    ?DecodeWaitCycles@SpinLock@base_internal@absl@@KA_JI@Z
    ?DecrementCount@BlockingCounter@absl@@QEAA_NXZ
    ?DecrementSynchSem@Mutex@absl@@CA_NPEAV12@PEAUPerThreadSynch@base_internal@2@VKernelTimeout@synchronization_internal@2@@Z
    ?DefaultArena@LowLevelAlloc@base_internal@absl@@SAPEAUArena@123@XZ
    ?DefaultStackUnwinder@absl@@YAHPEAPEAXPEAHHHPEBX1@Z
    ?Delete@CordzHandle@cord_internal@absl@@SAXPEAV123@@Z
    ?DeleteArena@LowLevelAlloc@base_internal@absl@@SA_NPEAUArena@123@@Z
    ?Demangle@debugging_internal@absl@@YA_NPEBDPEAD_K@Z
    ?DemangleString@debugging_internal@absl@@YA?AV?$basic_string@DU?$char_traits@D@__Cr@std@@V?$allocator@D@23@@__Cr@std@@PEBD@Z
    ?Description@TimeZoneInfo@cctz@time_internal@absl@@UEBA?AV?$basic_string@DU?$char_traits@D@__Cr@std@@V?$allocator@D@23@@__Cr@std@@XZ
    ?Description@TimeZoneLibC@cctz@time_internal@absl@@UEBA?AV?$basic_string@DU?$char_traits@D@__Cr@std@@V?$allocator@D@23@@__Cr@std@@XZ
    ?Destroy@CordRep@cord_internal@absl@@SAXPEAU123@@Z
    ?Destroy@CordRepBtree@cord_internal@absl@@SAXPEAV123@@Z
    ?Destroy@CordRepCrc@cord_internal@absl@@SAXPEAU123@@Z
    ?DestroyContents@?$Storage@UPayload@status_internal@absl@@$00V?$allocator@UPayload@status_internal@absl@@@__Cr@std@@@inlined_vector_internal@absl@@AEAAXXZ
    ?DestroyCordSlow@Cord@absl@@AEAAXXZ
    ?DiagnosticsGetDeleteQueue@CordzHandle@cord_internal@absl@@SA?AV?$vector@PEBVCordzHandle@cord_internal@absl@@V?$allocator@PEBVCordzHandle@cord_internal@absl@@@__Cr@std@@@__Cr@std@@XZ
    ?DiagnosticsGetSafeToInspectDeletedHandles@CordzHandle@cord_internal@absl@@QEAA?AV?$vector@PEBVCordzHandle@cord_internal@absl@@V?$allocator@PEBVCordzHandle@cord_internal@absl@@@__Cr@std@@@__Cr@std@@XZ
    ?DiagnosticsHandleIsSafeToInspect@CordzHandle@cord_internal@absl@@QEBA_NPEBV123@@Z
    ?Die@LogMessage@log_internal@absl@@AEAAXXZ
    ?DieBecauseNull@log_internal@absl@@YAXPEBDH0@Z
    ?Digits10@?$BigUnsigned@$03@strings_internal@absl@@SAHXZ
    ?Digits10@?$BigUnsigned@$0FE@@strings_internal@absl@@SAHXZ
    ?DropDeletesWithoutResize@container_internal@absl@@YAXAEAVCommonFields@12@AEBUPolicyFunctions@12@PEAX@Z
    ?Dtor@Mutex@absl@@AEAAXXZ
    ?DummyFunction@?$AtomicHook@P6A?AV?$optional@V?$basic_string@DU?$char_traits@D@__Cr@std@@V?$allocator@D@23@@__Cr@std@@@__Cr@std@@V?$basic_string_view@DU?$char_traits@D@__Cr@std@@@23@AEBVCord@absl@@@Z@base_internal@absl@@CA?AV?$optional@V?$basic_string@DU?$char_traits@D@__Cr@std@@V?$allocator@D@23@@__Cr@std@@@__Cr@std@@V?$basic_string_view@DU?$char_traits@D@__Cr@std@@@56@AEBVCord@3@@Z
    ?DummyFunction@?$AtomicHook@P6AXPEBDH000@Z@base_internal@absl@@CAXPEBDH000@Z
    ?DummyFunction@?$AtomicHook@P6AXPEBDPEBX@Z@base_internal@absl@@CAXPEBDPEBX@Z
    ?DummyFunction@?$AtomicHook@P6AXPEBDPEBX_J@Z@base_internal@absl@@CAXPEBDPEBX_J@Z
    ?DummyFunction@?$AtomicHook@P6AXPEBX_J@Z@base_internal@absl@@CAXPEBX_J@Z
    ?DummyFunction@?$AtomicHook@P6AXXZ@base_internal@absl@@CAXXZ
    ?DummyFunction@?$AtomicHook@P6AX_J@Z@base_internal@absl@@CAX_J@Z
    ?Dump@CordRepBtree@cord_internal@absl@@SAXPEBUCordRep@23@AEAV?$basic_ostream@DU?$char_traits@D@__Cr@std@@@__Cr@std@@@Z
    ?Dump@CordRepBtree@cord_internal@absl@@SAXPEBUCordRep@23@V?$basic_string_view@DU?$char_traits@D@__Cr@std@@@__Cr@std@@AEAV?$basic_ostream@DU?$char_traits@D@__Cr@std@@@67@@Z
    ?Dump@CordRepBtree@cord_internal@absl@@SAXPEBUCordRep@23@V?$basic_string_view@DU?$char_traits@D@__Cr@std@@@__Cr@std@@_NAEAV?$basic_ostream@DU?$char_traits@D@__Cr@std@@@67@@Z
    ?DumpPCAndFrameSizesAndStackTrace@debugging_internal@absl@@YAXQEAXQEBQEAXQEAHHH_NP6AXPEBDPEAX@Z5@Z
    ?DumpStackTrace@debugging_internal@absl@@YAXHH_NP6AXPEBDPEAX@Z2@Z
    ?DurationFromTimespec@absl@@YA?AVDuration@1@Utimespec@@@Z
    ?DurationFromTimeval@absl@@YA?AVDuration@1@Utimeval@@@Z
    ?EmptyGeneration@container_internal@absl@@YAPEAEXZ
    ?EmptyString@Status@absl@@CAPEBV?$basic_string@DU?$char_traits@D@__Cr@std@@V?$allocator@D@23@@__Cr@std@@XZ
    ?EnableDebugLog@CondVar@absl@@QEAAXPEBD@Z
    ?EnableDebugLog@Mutex@absl@@QEAAXPEBD@Z
    ?EnableInvariantDebugging@Mutex@absl@@QEAAXP6AXPEAX@Z0@Z
    ?EnableLogPrefix@absl@@YAX_N@Z
    ?EnableMutexInvariantDebugging@absl@@YAX_N@Z
    ?EnableSymbolizeLogStackTrace@log_internal@absl@@YAX_N@Z
    ?Encode32Bit@log_internal@absl@@YA_N_KIPEAV?$Span@D@2@@Z
    ?Encode64Bit@log_internal@absl@@YA_N_K0PEAV?$Span@D@2@@Z
    ?EncodeBytes@log_internal@absl@@YA_N_KV?$Span@$$CBD@2@PEAV?$Span@D@2@@Z
    ?EncodeBytesTruncate@log_internal@absl@@YA_N_KV?$Span@$$CBD@2@PEAV?$Span@D@2@@Z
    ?EncodeMessageLength@log_internal@absl@@YAXV?$Span@D@2@PEBV32@@Z
    ?EncodeMessageStart@log_internal@absl@@YA?AV?$Span@D@2@_K0PEAV32@@Z
    ?EncodeUTF8Char@strings_internal@absl@@YA_KPEAD_U@Z
    ?EncodeVarint@log_internal@absl@@YA_N_K0PEAV?$Span@D@2@@Z
    ?EncodeWaitCycles@SpinLock@base_internal@absl@@KAI_J0@Z
    ?EndsWith@Cord@absl@@QEBA_NAEBV12@@Z
    ?EndsWith@Cord@absl@@QEBA_NV?$basic_string_view@DU?$char_traits@D@__Cr@std@@@__Cr@std@@@Z
    ?EndsWithIgnoreCase@absl@@YA_NV?$basic_string_view@DU?$char_traits@D@__Cr@std@@@__Cr@std@@0@Z
    ?EqualsIgnoreCase@absl@@YA_NV?$basic_string_view@DU?$char_traits@D@__Cr@std@@@__Cr@std@@0@Z
    ?EqualsImpl@Cord@absl@@AEBA_NAEBV12@_K@Z
    ?EqualsImpl@Cord@absl@@AEBA_NV?$basic_string_view@DU?$char_traits@D@__Cr@std@@@__Cr@std@@_K@Z
    ?EquivTransitions@TimeZoneInfo@cctz@time_internal@absl@@AEBA_NEE@Z
    ?Erase@?$Storage@UPayload@status_internal@absl@@$00V?$allocator@UPayload@status_internal@absl@@@__Cr@std@@@inlined_vector_internal@absl@@QEAAPEAUPayload@status_internal@3@PEBU453@0@Z
    ?EraseMetaOnly@container_internal@absl@@YAXAEAVCommonFields@12@_K1@Z
    ?ErasePayload@StatusRep@status_internal@absl@@QEAA?AUEraseResult@123@V?$basic_string_view@DU?$char_traits@D@__Cr@std@@@__Cr@std@@@Z
    ?ErrnoToStatus@absl@@YA?AVStatus@1@HV?$basic_string_view@DU?$char_traits@D@__Cr@std@@@__Cr@std@@@Z
    ?ErrnoToStatusCode@absl@@YA?AW4StatusCode@1@H@Z
    ?Eval@Condition@absl@@QEBA_NXZ
    ?ExitOnDFatal@log_internal@absl@@YA_NXZ
    ?ExpectedChecksum@Cord@absl@@QEBA?AV?$optional@I@__Cr@std@@XZ
    ?Extend@CRC32@crc_internal@absl@@UEBAXPEAIPEBX_K@Z
    ?ExtendByZeroes@CRC32@crc_internal@absl@@UEBAXPEAI_K@Z
    ?ExtendByZeroesImpl@CRC32@crc_internal@absl@@CAXPEAI_KQEBI2@Z
    ?ExtendCrc32cByZeroes@absl@@YA?AVcrc32c_t@1@V21@_K@Z
    ?ExtendCrc32cInternal@crc_internal@absl@@YA?AVcrc32c_t@2@V32@V?$basic_string_view@DU?$char_traits@D@__Cr@std@@@__Cr@std@@@Z
    ?ExtendTransitions@TimeZoneInfo@cctz@time_internal@absl@@AEAA_NXZ
    ?ExtractAppendBuffer@CordRepBtree@cord_internal@absl@@SA?AUExtractResult@CordRep@23@PEAV123@_K@Z
    ?ExtractFront@CordRepBtree@cord_internal@absl@@CAPEAUCordRep@23@PEAV123@@Z
    ?FDivDuration@absl@@YANVDuration@1@0@Z
    ?FNMatch@log_internal@absl@@YA_NV?$basic_string_view@DU?$char_traits@D@__Cr@std@@@__Cr@std@@0@Z
    ?FailQuietly@LogMessage@log_internal@absl@@KAXXZ
    ?FailWithoutStackTrace@LogMessage@log_internal@absl@@KAXXZ
    ?FailedPreconditionError@absl@@YA?AVStatus@1@V?$basic_string_view@DU?$char_traits@D@__Cr@std@@@__Cr@std@@@Z
    ?FailureSignalToString@debugging_internal@absl@@YAPEBDH@Z
    ?FastIntToBuffer@numbers_internal@absl@@YAPEADHPEAD@Z
    ?FastIntToBuffer@numbers_internal@absl@@YAPEADIPEAD@Z
    ?FastIntToBuffer@numbers_internal@absl@@YAPEAD_JPEAD@Z
    ?FastIntToBuffer@numbers_internal@absl@@YAPEAD_KPEAD@Z
    ?FastIntToBufferBackward@numbers_internal@absl@@YAPEADHPEADI@Z
    ?FastIntToBufferBackward@numbers_internal@absl@@YAPEADIPEADI@Z
    ?FastIntToBufferBackward@numbers_internal@absl@@YAPEAD_JPEADI@Z
    ?FastIntToBufferBackward@numbers_internal@absl@@YAPEAD_KPEADI@Z
    ?Fer@Mutex@absl@@AEAAXPEAUPerThreadSynch@base_internal@2@@Z
    ?Fill@?$RandenPool@E@random_internal@absl@@SAXV?$Span@E@3@@Z
    ?Fill@?$RandenPool@G@random_internal@absl@@SAXV?$Span@G@3@@Z
    ?Fill@?$RandenPool@I@random_internal@absl@@SAXV?$Span@I@3@@Z
    ?Fill@?$RandenPool@_K@random_internal@absl@@SAXV?$Span@_K@3@@Z
    ?FillParentStack@CordzInfo@cord_internal@absl@@CA_KPEBV123@PEAPEAX@Z
    ?FillWordTable@CRCImpl@crc_internal@absl@@SAXIIHPEAY0BAA@I@Z
    ?FillZeroesTable@CRCImpl@crc_internal@absl@@SAHIPEAY0BAA@I@Z
    ?FinalizeEncodingAndFormat@LogMessageData@LogMessage@log_internal@absl@@QEAAXXZ
    ?Find@ByAnyChar@absl@@QEBA?AV?$basic_string_view@DU?$char_traits@D@__Cr@std@@@__Cr@std@@V345@_K@Z
    ?Find@ByAsciiWhitespace@absl@@QEBA?AV?$basic_string_view@DU?$char_traits@D@__Cr@std@@@__Cr@std@@V345@_K@Z
    ?Find@ByChar@absl@@QEBA?AV?$basic_string_view@DU?$char_traits@D@__Cr@std@@@__Cr@std@@V345@_K@Z
    ?Find@ByLength@absl@@QEBA?AV?$basic_string_view@DU?$char_traits@D@__Cr@std@@@__Cr@std@@V345@_K@Z
    ?Find@ByString@absl@@QEBA?AV?$basic_string_view@DU?$char_traits@D@__Cr@std@@@__Cr@std@@V345@_K@Z
    ?Find@Cord@absl@@QEBA?AVCharIterator@12@AEBV12@@Z
    ?Find@Cord@absl@@QEBA?AVCharIterator@12@V?$basic_string_view@DU?$char_traits@D@__Cr@std@@@__Cr@std@@@Z
    ?FindFlatStartPiece@InlineRep@Cord@absl@@QEBA?AV?$basic_string_view@DU?$char_traits@D@__Cr@std@@@__Cr@std@@XZ
    ?FindImpl@Cord@absl@@AEBA?AVCharIterator@12@V312@V?$basic_string_view@DU?$char_traits@D@__Cr@std@@@__Cr@std@@@Z
    ?FindLongestCommonPrefix@absl@@YA?AV?$basic_string_view@DU?$char_traits@D@__Cr@std@@@__Cr@std@@V234@0@Z
    ?FindLongestCommonSuffix@absl@@YA?AV?$basic_string_view@DU?$char_traits@D@__Cr@std@@@__Cr@std@@V234@0@Z
    ?FindPath@GraphCycles@synchronization_internal@absl@@QEBAHUGraphId@23@0HQEAU423@@Z
    ?FiveToTheNth@?$BigUnsigned@$03@strings_internal@absl@@SA?AV123@H@Z
    ?FiveToTheNth@?$BigUnsigned@$0FE@@strings_internal@absl@@SA?AV123@H@Z
    ?FixedOffsetFromName@cctz@time_internal@absl@@YA_NAEBV?$basic_string@DU?$char_traits@D@__Cr@std@@V?$allocator@D@23@@__Cr@std@@PEAV?$duration@_JV?$ratio@$00$00@__Cr@std@@@chrono@56@@Z
    ?FixedOffsetToAbbr@cctz@time_internal@absl@@YA?AV?$basic_string@DU?$char_traits@D@__Cr@std@@V?$allocator@D@23@@__Cr@std@@AEBV?$duration@_JV?$ratio@$00$00@__Cr@std@@@chrono@56@@Z
    ?FixedOffsetToName@cctz@time_internal@absl@@YA?AV?$basic_string@DU?$char_traits@D@__Cr@std@@V?$allocator@D@23@@__Cr@std@@AEBV?$duration@_JV?$ratio@$00$00@__Cr@std@@@chrono@56@@Z
    ?FlagsToString@str_format_internal@absl@@YA?AV?$basic_string@DU?$char_traits@D@__Cr@std@@V?$allocator@D@23@@__Cr@std@@W4Flags@12@@Z
    ?FlatOverhead@CordTestAccess@strings_internal@absl@@SA_KXZ
    ?FlatTagToLength@CordTestAccess@strings_internal@absl@@SA_KE@Z
    ?FlattenSlowPath@Cord@absl@@AEAA?AV?$basic_string_view@DU?$char_traits@D@__Cr@std@@@__Cr@std@@XZ
    ?Floor@absl@@YA?AVDuration@1@V21@0@Z
    ?Flush@FormatSinkImpl@str_format_internal@absl@@QEAAXXZ
    ?Flush@LogMessage@log_internal@absl@@IEAAXXZ
    ?Flush@LogSink@absl@@UEAAXXZ
    ?FlushLogSinks@log_internal@absl@@YAXXZ
    ?ForEachChunkAux@Cord@absl@@CAXPEAUCordRep@cord_internal@2@V?$FunctionRef@$$A6AXV?$basic_string_view@DU?$char_traits@D@__Cr@std@@@__Cr@std@@@Z@2@@Z
    ?ForEachPayload@StatusRep@status_internal@absl@@QEBAXV?$FunctionRef@$$A6AXV?$basic_string_view@DU?$char_traits@D@__Cr@std@@@__Cr@std@@AEBVCord@absl@@@Z@3@@Z
    ?ForVar2@CheckOpMessageBuilder@log_internal@absl@@QEAAAEAV?$basic_ostream@DU?$char_traits@D@__Cr@std@@@__Cr@std@@XZ
    ?ForgetDeadlockInfo@Mutex@absl@@QEAAXXZ
    ?FormatCivilTime@absl@@YA?AV?$basic_string@DU?$char_traits@D@__Cr@std@@V?$allocator@D@23@@__Cr@std@@V?$civil_time@Uday_tag@time_internal@absl@@@detail@cctz@time_internal@1@@Z
    ?FormatCivilTime@absl@@YA?AV?$basic_string@DU?$char_traits@D@__Cr@std@@V?$allocator@D@23@@__Cr@std@@V?$civil_time@Uhour_tag@time_internal@absl@@@detail@cctz@time_internal@1@@Z
    ?FormatCivilTime@absl@@YA?AV?$basic_string@DU?$char_traits@D@__Cr@std@@V?$allocator@D@23@@__Cr@std@@V?$civil_time@Uminute_tag@time_internal@absl@@@detail@cctz@time_internal@1@@Z
    ?FormatCivilTime@absl@@YA?AV?$basic_string@DU?$char_traits@D@__Cr@std@@V?$allocator@D@23@@__Cr@std@@V?$civil_time@Umonth_tag@time_internal@absl@@@detail@cctz@time_internal@1@@Z
    ?FormatCivilTime@absl@@YA?AV?$basic_string@DU?$char_traits@D@__Cr@std@@V?$allocator@D@23@@__Cr@std@@V?$civil_time@Usecond_tag@time_internal@absl@@@detail@cctz@time_internal@1@@Z
    ?FormatCivilTime@absl@@YA?AV?$basic_string@DU?$char_traits@D@__Cr@std@@V?$allocator@D@23@@__Cr@std@@V?$civil_time@Uyear_tag@time_internal@absl@@@detail@cctz@time_internal@1@@Z
    ?FormatConversionCharToConvInt@str_format_internal@absl@@YA_KD@Z
    ?FormatConvertImpl@str_format_internal@absl@@YA?AU?$ArgConvertResult@$0BPPPL@@12@DVFormatConversionSpecImpl@12@PEAVFormatSinkImpl@12@@Z
    ?FormatConvertImpl@str_format_internal@absl@@YA?AU?$ArgConvertResult@$0BPPPL@@12@_WVFormatConversionSpecImpl@12@PEAVFormatSinkImpl@12@@Z
    ?FormatConvertImpl@str_format_internal@absl@@YA?AU?$ArgConvertResult@$0EAAAA@@12@UVoidPtr@12@VFormatConversionSpecImpl@12@PEAVFormatSinkImpl@12@@Z
    ?FormatConvertImpl@str_format_internal@absl@@YA?AU?$ArgConvertResult@$0EAAAE@@12@$$TVFormatConversionSpecImpl@12@PEAVFormatSinkImpl@12@@Z
    ?FormatConvertImpl@str_format_internal@absl@@YA?AU?$ArgConvertResult@$0EAAAE@@12@PEBDVFormatConversionSpecImpl@12@PEAVFormatSinkImpl@12@@Z
    ?FormatConvertImpl@str_format_internal@absl@@YA?AU?$ArgConvertResult@$0EAAAE@@12@PEB_WVFormatConversionSpecImpl@12@PEAVFormatSinkImpl@12@@Z
    ?FormatConvertImpl@str_format_internal@absl@@YA?AU?$ArgConvertResult@$0IAAAE@@12@AEBV?$basic_string@DU?$char_traits@D@__Cr@std@@V?$allocator@D@23@@__Cr@std@@VFormatConversionSpecImpl@12@PEAVFormatSinkImpl@12@@Z
    ?FormatConvertImpl@str_format_internal@absl@@YA?AU?$ArgConvertResult@$0IAAAE@@12@AEBV?$basic_string@_WU?$char_traits@_W@__Cr@std@@V?$allocator@_W@23@@__Cr@std@@VFormatConversionSpecImpl@12@PEAVFormatSinkImpl@12@@Z
    ?FormatConvertImpl@str_format_internal@absl@@YA?AU?$ArgConvertResult@$0IAAAE@@12@V?$basic_string_view@DU?$char_traits@D@__Cr@std@@@__Cr@std@@VFormatConversionSpecImpl@12@PEAVFormatSinkImpl@12@@Z
    ?FormatConvertImpl@str_format_internal@absl@@YA?AU?$ArgConvertResult@$0IAAAE@@12@V?$basic_string_view@_WU?$char_traits@_W@__Cr@std@@@__Cr@std@@VFormatConversionSpecImpl@12@PEAVFormatSinkImpl@12@@Z
    ?FormatConvertImpl@str_format_internal@absl@@YA?AU?$ArgConvertResult@$0JPOAA@@12@MVFormatConversionSpecImpl@12@PEAVFormatSinkImpl@12@@Z
    ?FormatConvertImpl@str_format_internal@absl@@YA?AU?$ArgConvertResult@$0JPOAA@@12@NVFormatConversionSpecImpl@12@PEAVFormatSinkImpl@12@@Z
    ?FormatConvertImpl@str_format_internal@absl@@YA?AU?$ArgConvertResult@$0JPOAA@@12@OVFormatConversionSpecImpl@12@PEAVFormatSinkImpl@12@@Z
    ?FormatConvertImpl@str_format_internal@absl@@YA?AU?$ArgConvertResult@$0JPPPL@@12@CVFormatConversionSpecImpl@12@PEAVFormatSinkImpl@12@@Z
    ?FormatConvertImpl@str_format_internal@absl@@YA?AU?$ArgConvertResult@$0JPPPL@@12@EVFormatConversionSpecImpl@12@PEAVFormatSinkImpl@12@@Z
    ?FormatConvertImpl@str_format_internal@absl@@YA?AU?$ArgConvertResult@$0JPPPL@@12@FVFormatConversionSpecImpl@12@PEAVFormatSinkImpl@12@@Z
    ?FormatConvertImpl@str_format_internal@absl@@YA?AU?$ArgConvertResult@$0JPPPL@@12@GVFormatConversionSpecImpl@12@PEAVFormatSinkImpl@12@@Z
    ?FormatConvertImpl@str_format_internal@absl@@YA?AU?$ArgConvertResult@$0JPPPL@@12@HVFormatConversionSpecImpl@12@PEAVFormatSinkImpl@12@@Z
    ?FormatConvertImpl@str_format_internal@absl@@YA?AU?$ArgConvertResult@$0JPPPL@@12@IVFormatConversionSpecImpl@12@PEAVFormatSinkImpl@12@@Z
    ?FormatConvertImpl@str_format_internal@absl@@YA?AU?$ArgConvertResult@$0JPPPL@@12@JVFormatConversionSpecImpl@12@PEAVFormatSinkImpl@12@@Z
    ?FormatConvertImpl@str_format_internal@absl@@YA?AU?$ArgConvertResult@$0JPPPL@@12@KVFormatConversionSpecImpl@12@PEAVFormatSinkImpl@12@@Z
    ?FormatConvertImpl@str_format_internal@absl@@YA?AU?$ArgConvertResult@$0JPPPL@@12@Vint128@2@VFormatConversionSpecImpl@12@PEAVFormatSinkImpl@12@@Z
    ?FormatConvertImpl@str_format_internal@absl@@YA?AU?$ArgConvertResult@$0JPPPL@@12@Vuint128@2@VFormatConversionSpecImpl@12@PEAVFormatSinkImpl@12@@Z
    ?FormatConvertImpl@str_format_internal@absl@@YA?AU?$ArgConvertResult@$0JPPPL@@12@_JVFormatConversionSpecImpl@12@PEAVFormatSinkImpl@12@@Z
    ?FormatConvertImpl@str_format_internal@absl@@YA?AU?$ArgConvertResult@$0JPPPL@@12@_KVFormatConversionSpecImpl@12@PEAVFormatSinkImpl@12@@Z
    ?FormatDuration@absl@@YA?AV?$basic_string@DU?$char_traits@D@__Cr@std@@V?$allocator@D@23@@__Cr@std@@VDuration@1@@Z
    ?FormatLogMessage@log_internal@absl@@YA?AV?$basic_string@DU?$char_traits@D@__Cr@std@@V?$allocator@D@23@@__Cr@std@@W4LogSeverity@2@V?$civil_time@Usecond_tag@time_internal@absl@@@detail@cctz@time_internal@2@VDuration@2@IV?$basic_string_view@DU?$char_traits@D@__Cr@std@@@45@HW4PrefixFormat@12@3@Z
    ?FormatLogPrefix@log_internal@absl@@YA_KW4LogSeverity@2@VTime@2@IV?$basic_string_view@DU?$char_traits@D@__Cr@std@@@__Cr@std@@HW4PrefixFormat@12@AEAV?$Span@D@2@@Z
    ?FormatPack@str_format_internal@absl@@YA?AV?$basic_string@DU?$char_traits@D@__Cr@std@@V?$allocator@D@23@@__Cr@std@@VUntypedFormatSpecImpl@12@V?$Span@$$CBVFormatArgImpl@str_format_internal@absl@@@2@@Z
    ?FormatTime@absl@@YA?AV?$basic_string@DU?$char_traits@D@__Cr@std@@V?$allocator@D@23@@__Cr@std@@V?$basic_string_view@DU?$char_traits@D@__Cr@std@@@34@VTime@1@VTimeZone@1@@Z
    ?FormatTime@absl@@YA?AV?$basic_string@DU?$char_traits@D@__Cr@std@@V?$allocator@D@23@@__Cr@std@@VTime@1@@Z
    ?FormatTime@absl@@YA?AV?$basic_string@DU?$char_traits@D@__Cr@std@@V?$allocator@D@23@@__Cr@std@@VTime@1@VTimeZone@1@@Z
    ?FormatUntyped@str_format_internal@absl@@YA_NVFormatRawSinkImpl@12@VUntypedFormatSpecImpl@12@V?$Span@$$CBVFormatArgImpl@str_format_internal@absl@@@2@@Z
    ?FprintF@str_format_internal@absl@@YAHPEAU_iobuf@@VUntypedFormatSpecImpl@12@V?$Span@$$CBVFormatArgImpl@str_format_internal@absl@@@2@@Z
    ?Frequency@UnscaledCycleClock@base_internal@absl@@CANXZ
    ?FromChrono@absl@@YA?AVTime@1@AEBV?$time_point@Vsystem_clock@chrono@__Cr@std@@V?$duration@_JV?$ratio@$00$0PECEA@@__Cr@std@@@234@@chrono@__Cr@std@@@Z
    ?FromTM@absl@@YA?AVTime@1@AEBUtm@@VTimeZone@1@@Z
    ?FromUDate@absl@@YA?AVTime@1@N@Z
    ?FromUniversal@absl@@YA?AVTime@1@_J@Z
    ?Generate@?$RandenPool@E@random_internal@absl@@KAEXZ
    ?Generate@?$RandenPool@G@random_internal@absl@@KAGXZ
    ?Generate@?$RandenPool@I@random_internal@absl@@KAIXZ
    ?Generate@?$RandenPool@_K@random_internal@absl@@KA_KXZ
    ?Generate@RandenHwAes@random_internal@absl@@SAXPEBXPEAX@Z
    ?Generate@RandenSlow@random_internal@absl@@SAXPEBXPEAX@Z
    ?GetAndroidNativeTag@log_internal@absl@@YAPEBDXZ
    ?GetAppendBuffer@CordRepBtree@cord_internal@absl@@QEAA?AV?$Span@D@3@_K@Z
    ?GetAppendBufferSlow@CordRepBtree@cord_internal@absl@@AEAA?AV?$Span@D@3@_K@Z
    ?GetAppendBufferSlowPath@Cord@absl@@AEAA?AVCordBuffer@2@_K00@Z
    ?GetArchSpecificEngines@CrcMemcpy@crc_internal@absl@@CA?AUArchSpecificEngines@123@XZ
    ?GetCachedTID@base_internal@absl@@YAIXZ
    ?GetCharacter@CordRepBtree@cord_internal@absl@@QEBAD_K@Z
    ?GetCordzStatistics@CordzInfo@cord_internal@absl@@QEBA?AUCordzStatistics@23@XZ
    ?GetCpuType@crc_internal@absl@@YA?AW4CpuType@12@XZ
    ?GetCurrentTimeNanos@absl@@YA_JXZ
    ?GetDebugStackTraceHook@debugging_internal@absl@@YAP6AXQEBQEAXHP6AXPEBDPEAX@Z2@ZXZ
    ?GetEstimatedFairShareMemoryUsage@cord_internal@absl@@YA_KPEBUCordRep@12@@Z
    ?GetEstimatedMemoryUsage@cord_internal@absl@@YA_KPEBUCordRep@12@@Z
    ?GetFlatAux@Cord@absl@@CA_NPEAUCordRep@cord_internal@2@PEAV?$basic_string_view@DU?$char_traits@D@__Cr@std@@@__Cr@std@@@Z
    ?GetHashtablezMaxSamples@container_internal@absl@@YA_KXZ
    ?GetHashtablezSampleParameter@container_internal@absl@@YAHXZ
    ?GetId@GraphCycles@synchronization_internal@absl@@QEAA?AUGraphId@23@PEAX@Z
    ?GetKeys@RandenHwAes@random_internal@absl@@SAPEBXXZ
    ?GetKeys@RandenSlow@random_internal@absl@@SAPEBXXZ
    ?GetMorePreciseMemoryUsage@cord_internal@absl@@YA_KPEBUCordRep@12@@Z
    ?GetNumDigitsOrNegativeIfNegative@numbers_internal@absl@@YAHC@Z
    ?GetNumDigitsOrNegativeIfNegative@numbers_internal@absl@@YAHE@Z
    ?GetNumDigitsOrNegativeIfNegative@numbers_internal@absl@@YAHF@Z
    ?GetNumDigitsOrNegativeIfNegative@numbers_internal@absl@@YAHG@Z
    ?GetNumDigitsOrNegativeIfNegative@numbers_internal@absl@@YAHH@Z
    ?GetNumDigitsOrNegativeIfNegative@numbers_internal@absl@@YAHI@Z
    ?GetNumDigitsOrNegativeIfNegative@numbers_internal@absl@@YAHJ@Z
    ?GetNumDigitsOrNegativeIfNegative@numbers_internal@absl@@YAHK@Z
    ?GetNumDigitsOrNegativeIfNegative@numbers_internal@absl@@YAH_J@Z
    ?GetNumDigitsOrNegativeIfNegative@numbers_internal@absl@@YAH_K@Z
    ?GetParentMethod@CordzInfo@cord_internal@absl@@CA?AW4MethodIdentifier@CordzUpdateTracker@23@PEBV123@@Z
    ?GetParentStack@CordzInfo@cord_internal@absl@@QEBA?AV?$Span@QEAX@3@XZ
    ?GetPayload@StatusRep@status_internal@absl@@QEBA?AV?$optional@VCord@absl@@@__Cr@std@@V?$basic_string_view@DU?$char_traits@D@__Cr@std@@@56@@Z
    ?GetProgramCounter@debugging_internal@absl@@YAPEAXQEAX@Z
    ?GetSaltMaterial@random_internal@absl@@YA?AV?$optional@I@__Cr@std@@XZ
    ?GetSkipCount@ExponentialBiased@profiling_internal@absl@@QEAA_J_J@Z
    ?GetStack@CordzInfo@cord_internal@absl@@QEBA?AV?$Span@QEAX@3@XZ
    ?GetStackFrames@absl@@YAHPEAPEAXPEAHHH@Z
    ?GetStackFramesWithContext@absl@@YAHPEAPEAXPEAHHHPEBX1@Z
    ?GetStackTrace@GraphCycles@synchronization_internal@absl@@QEAAHUGraphId@23@PEAPEAPEAX@Z
    ?GetStackTrace@absl@@YAHPEAPEAXHH@Z
    ?GetStackTraceWithContext@absl@@YAHPEAPEAXHHPEBXPEAH@Z
    ?GetStatusPayloadPrinter@status_internal@absl@@YAP6A?AV?$optional@V?$basic_string@DU?$char_traits@D@__Cr@std@@V?$allocator@D@23@@__Cr@std@@@__Cr@std@@V?$basic_string_view@DU?$char_traits@D@__Cr@std@@@45@AEBVCord@2@@ZXZ
    ?GetStride@ExponentialBiased@profiling_internal@absl@@QEAA_J_J@Z
    ?GetTID@base_internal@absl@@YAIXZ
    ?GetTestEngine@CrcMemcpy@crc_internal@absl@@SA?AV?$unique_ptr@VCrcMemcpyEngine@crc_internal@absl@@U?$default_delete@VCrcMemcpyEngine@crc_internal@absl@@@__Cr@std@@@__Cr@std@@HH@Z
    ?GetThreadBlockedCounter@PerThreadSem@synchronization_internal@absl@@SAPEAU?$atomic@H@__Cr@std@@XZ
    ?GetTransitionType@TimeZoneInfo@cctz@time_internal@absl@@AEAA_NH_NAEBV?$basic_string@DU?$char_traits@D@__Cr@std@@V?$allocator@D@23@@__Cr@std@@PEAE@Z
    ?GetWord@?$BigUnsigned@$03@strings_internal@absl@@QEBAIH@Z
    ?GetWord@?$BigUnsigned@$0FE@@strings_internal@absl@@QEBAIH@Z
    ?GlobalHashtablezSampler@container_internal@absl@@YAAEAV?$SampleRecorder@UHashtablezInfo@container_internal@absl@@@profiling_internal@2@XZ
    ?GrowIntoSingleGroupShuffleControlBytes@HashSetResizeHelper@container_internal@absl@@AEBAXPEAW4ctrl_t@23@_K@Z
    ?GrowIntoSingleGroupShuffleTransferableSlots@HashSetResizeHelper@container_internal@absl@@AEBAXPEAX0_K@Z
    ?GrowSizeIntoSingleGroupTransferable@HashSetResizeHelper@container_internal@absl@@AEAAXAEAVCommonFields@23@PEAX_K@Z
    ?GuaranteedEqual@Condition@absl@@SA_NPEBV12@0@Z
    ?HandleInvalidStatusCtorArg@Helper@internal_statusor@absl@@SAXPEAVStatus@3@@Z
    ?HasBeenNotifiedInternal@Notification@absl@@CA_NPEBU?$atomic@_N@__Cr@std@@@Z
    ?HasEdge@GraphCycles@synchronization_internal@absl@@QEBA_NUGraphId@23@0@Z
    ?HasNode@GraphCycles@synchronization_internal@absl@@QEAA_NUGraphId@23@@Z
    ?HasRandenHwAesImplementation@random_internal@absl@@YA_NXZ
    ?Head@CordzInfo@cord_internal@absl@@SAPEAV123@AEBVCordzSnapshot@23@@Z
    ?HexStringToBytes@absl@@YA?AV?$basic_string@DU?$char_traits@D@__Cr@std@@V?$allocator@D@23@@__Cr@std@@V?$basic_string_view@DU?$char_traits@D@__Cr@std@@@34@@Z
    ?IDivDuration@time_internal@absl@@YA_J_NVDuration@2@1PEAV32@@Z
    ?In@Time@absl@@QEBA?AUBreakdown@12@VTimeZone@2@@Z
    ?InMillisecondsFromNow@KernelTimeout@synchronization_internal@absl@@QEBAKXZ
    ?InNanosecondsFromNow@KernelTimeout@synchronization_internal@absl@@AEBA_JXZ
    ?IncrementSynchSem@Mutex@absl@@CAXPEAV12@PEAUPerThreadSynch@base_internal@2@@Z
    ?InitDiscreteDistribution@random_internal@absl@@YA?AV?$vector@U?$pair@N_K@__Cr@std@@V?$allocator@U?$pair@N_K@__Cr@std@@@23@@__Cr@std@@PEAV?$vector@NV?$allocator@N@__Cr@std@@@45@@Z
    ?InitFrom@?$Storage@UPayload@status_internal@absl@@$00V?$allocator@UPayload@status_internal@absl@@@__Cr@std@@@inlined_vector_internal@absl@@QEAAXAEBV123@@Z
    ?InitTables@CRC32@crc_internal@absl@@UEAAXXZ
    ?InitTree@ChunkIterator@Cord@absl@@AEAAXPEAUCordRep@cord_internal@3@@Z
    ?InitWhat@BadStatusOrAccess@absl@@AEBAXXZ
    ?Initialize@ExponentialBiased@profiling_internal@absl@@AEAAXXZ
    ?InitializeCordRepExternal@cord_internal@absl@@YAXV?$basic_string_view@DU?$char_traits@D@__Cr@std@@@__Cr@std@@PEAUCordRepExternal@12@@Z
    ?InitializeSymbolizer@absl@@YAXPEBD@Z
    ?InsertEdge@GraphCycles@synchronization_internal@absl@@QEAA_NUGraphId@23@0@Z
    ?InstallFailureSignalHandler@absl@@YAXAEBUFailureSignalHandlerOptions@1@@Z
    ?InternalAttemptToUseMutexInFatalSignalHandler@Mutex@absl@@SAXXZ
    ?InternalCondVarPoke@StdcppWaiter@synchronization_internal@absl@@AEAAXXZ
    ?InternalCondVarPoke@Win32Waiter@synchronization_internal@absl@@AEAAXXZ
    ?InternalError@absl@@YA?AVStatus@1@V?$basic_string_view@DU?$char_traits@D@__Cr@std@@@__Cr@std@@@Z
    ?InvalidArgumentError@absl@@YA?AVStatus@1@V?$basic_string_view@DU?$char_traits@D@__Cr@std@@@__Cr@std@@@Z
    ?IsAborted@absl@@YA_NAEBVStatus@1@@Z
    ?IsAlreadyExists@absl@@YA_NAEBVStatus@1@@Z
    ?IsCancelled@absl@@YA_NAEBVStatus@1@@Z
    ?IsCordBtreeExhaustiveValidationEnabled@cord_internal@absl@@YA_NXZ
    ?IsDataLoss@absl@@YA_NAEBVStatus@1@@Z
    ?IsDeadlineExceeded@absl@@YA_NAEBVStatus@1@@Z
    ?IsFailedPrecondition@absl@@YA_NAEBVStatus@1@@Z
    ?IsFatal@LogMessage@log_internal@absl@@AEBA_NXZ
    ?IsFlat@CordRepBtree@cord_internal@absl@@QEBA_NPEAV?$basic_string_view@DU?$char_traits@D@__Cr@std@@@__Cr@std@@@Z
    ?IsFlat@CordRepBtree@cord_internal@absl@@QEBA_N_K0PEAV?$basic_string_view@DU?$char_traits@D@__Cr@std@@@__Cr@std@@@Z
    ?IsHashtablezEnabled@container_internal@absl@@YA_NXZ
    ?IsInitialized@log_internal@absl@@YA_NXZ
    ?IsInternal@absl@@YA_NAEBVStatus@1@@Z
    ?IsInvalidArgument@absl@@YA_NAEBVStatus@1@@Z
    ?IsNotFound@absl@@YA_NAEBVStatus@1@@Z
    ?IsOutOfRange@absl@@YA_NAEBVStatus@1@@Z
    ?IsPermissionDenied@absl@@YA_NAEBVStatus@1@@Z
    ?IsReachable@GraphCycles@synchronization_internal@absl@@QEBA_NUGraphId@23@0@Z
    ?IsResourceExhausted@absl@@YA_NAEBVStatus@1@@Z
    ?IsUnauthenticated@absl@@YA_NAEBVStatus@1@@Z
    ?IsUnavailable@absl@@YA_NAEBVStatus@1@@Z
    ?IsUnimplemented@absl@@YA_NAEBVStatus@1@@Z
    ?IsUnknown@absl@@YA_NAEBVStatus@1@@Z
    ?IsValid@CordRepBtree@cord_internal@absl@@SA_NPEBV123@_N@Z
    ?KeyFunction@LogSink@absl@@EEBAXXZ
    ?LengthModToString@str_format_internal@absl@@YA?AV?$basic_string@DU?$char_traits@D@__Cr@std@@V?$allocator@D@23@@__Cr@std@@W4LengthMod@2@@Z
    ?LengthToTag@CordTestAccess@strings_internal@absl@@SAE_K@Z
    ?Load@TimeZoneInfo@cctz@time_internal@absl@@AEAA_NAEBV?$basic_string@DU?$char_traits@D@__Cr@std@@V?$allocator@D@23@@__Cr@std@@@Z
    ?Load@TimeZoneInfo@cctz@time_internal@absl@@AEAA_NPEAVZoneInfoSource@234@@Z
    ?LoadTimeZone@Impl@time_zone@cctz@time_internal@absl@@SA_NAEBV?$basic_string@DU?$char_traits@D@__Cr@std@@V?$allocator@D@23@@__Cr@std@@PEAV2345@@Z
    ?LocalTime@TimeZoneInfo@cctz@time_internal@absl@@AEBA?AUabsolute_lookup@time_zone@234@_JAEBUTransition@234@@Z
    ?LocalTime@TimeZoneInfo@cctz@time_internal@absl@@AEBA?AUabsolute_lookup@time_zone@234@_JAEBUTransitionType@234@@Z
    ?Lock@CordzInfo@cord_internal@absl@@QEAAXW4MethodIdentifier@CordzUpdateTracker@23@@Z
    ?Lock@Mutex@absl@@QEAAXXZ
    ?LockSlow@Mutex@absl@@AEAAXPEBUMuHowS@2@PEBVCondition@2@H@Z
    ?LockSlowLoop@Mutex@absl@@AEAAXPEAUSynchWaitParams@2@H@Z
    ?LockSlowWithDeadline@Mutex@absl@@AEAA_NPEBUMuHowS@2@PEBVCondition@2@VKernelTimeout@synchronization_internal@2@H@Z
    ?LockWhenCommon@Mutex@absl@@AEAA_NAEBVCondition@2@VKernelTimeout@synchronization_internal@2@_N@Z
    ?LogBacktraceIfNeeded@LogMessage@log_internal@absl@@AEAAXXZ
    ?LogFatalNodeType@cord_internal@absl@@YAXPEAUCordRep@12@@Z
    ?LogToSinks@log_internal@absl@@YAXAEBVLogEntry@2@V?$Span@PEAVLogSink@absl@@@2@_N@Z
    ?LowLevelHash@hash_internal@absl@@YA_KPEBX_K1QEB_K@Z
    ?LowLevelHashImpl@MixingHashState@hash_internal@absl@@CA_KPEBE_K@Z
    ?Make@TimeZoneIf@cctz@time_internal@absl@@SA?AV?$unique_ptr@VTimeZoneIf@cctz@time_internal@absl@@U?$default_delete@VTimeZoneIf@cctz@time_internal@absl@@@__Cr@std@@@__Cr@std@@AEBV?$basic_string@DU?$char_traits@D@__Cr@std@@V?$allocator@D@23@@67@@Z
    ?Make@TimeZoneInfo@cctz@time_internal@absl@@SA?AV?$unique_ptr@VTimeZoneInfo@cctz@time_internal@absl@@U?$default_delete@VTimeZoneInfo@cctz@time_internal@absl@@@__Cr@std@@@__Cr@std@@AEBV?$basic_string@DU?$char_traits@D@__Cr@std@@V?$allocator@D@23@@67@@Z
    ?Make@TimeZoneLibC@cctz@time_internal@absl@@SA?AV?$unique_ptr@VTimeZoneLibC@cctz@time_internal@absl@@U?$default_delete@VTimeZoneLibC@cctz@time_internal@absl@@@__Cr@std@@@__Cr@std@@AEBV?$basic_string@DU?$char_traits@D@__Cr@std@@V?$allocator@D@23@@67@@Z
    ?MakeAbsNanos@KernelTimeout@synchronization_internal@absl@@QEBA_JXZ
    ?MakeAbsTimespec@KernelTimeout@synchronization_internal@absl@@QEBA?AUtimespec@@XZ
    ?MakeCheckFailString@status_internal@absl@@YAPEAV?$basic_string@DU?$char_traits@D@__Cr@std@@V?$allocator@D@23@@__Cr@std@@PEBVStatus@2@PEBD@Z
    ?MakeCheckOpValueString@log_internal@absl@@YAXAEAV?$basic_ostream@DU?$char_traits@D@__Cr@std@@@__Cr@std@@C@Z
    ?MakeCheckOpValueString@log_internal@absl@@YAXAEAV?$basic_ostream@DU?$char_traits@D@__Cr@std@@@__Cr@std@@D@Z
    ?MakeCheckOpValueString@log_internal@absl@@YAXAEAV?$basic_ostream@DU?$char_traits@D@__Cr@std@@@__Cr@std@@E@Z
    ?MakeCheckOpValueString@log_internal@absl@@YAXAEAV?$basic_ostream@DU?$char_traits@D@__Cr@std@@@__Cr@std@@PEBX@Z
    ?MakeRelativeTimespec@KernelTimeout@synchronization_internal@absl@@QEBA?AUtimespec@@XZ
    ?MakeSeedSeq@absl@@YA?AV?$SaltedSeedSeq@Vseed_seq@__Cr@std@@@random_internal@1@XZ
    ?MakeTime@TimeZoneInfo@cctz@time_internal@absl@@UEBA?AUcivil_lookup@time_zone@234@AEBV?$civil_time@Usecond_tag@detail@cctz@time_internal@absl@@@detail@234@@Z
    ?MakeTime@TimeZoneLibC@cctz@time_internal@absl@@UEBA?AUcivil_lookup@time_zone@234@AEBV?$civil_time@Usecond_tag@detail@cctz@time_internal@absl@@@detail@234@@Z
    ?MapToLocalCode@status_internal@absl@@YA?AW4StatusCode@2@H@Z
    ?MatchesConversions@ParsedFormatBase@str_format_internal@absl@@AEBA_N_NV?$initializer_list@W4FormatConversionCharSet@absl@@@std@@@Z
    ?MaxFlatLength@CordTestAccess@strings_internal@absl@@SA_KXZ
    ?MaxFramesInLogStackTrace@log_internal@absl@@YAHXZ
    ?MaybeBecomeIdle@WaiterBase@synchronization_internal@absl@@KAXXZ
    ?MaybeGetCrcCordState@Cord@absl@@AEBAPEBVCrcCordState@crc_internal@2@XZ
    ?MaybeTrackCordImpl@CordzInfo@cord_internal@absl@@CAXAEAVInlineData@23@AEBV423@W4MethodIdentifier@CordzUpdateTracker@23@@Z
    ?MemcpyCrc32c@absl@@YA?AVcrc32c_t@1@PEAXPEBX_KV21@@Z
    ?MergeTrees@CordRepBtree@cord_internal@absl@@CAPEAV123@PEAV123@0@Z
    ?MinLogLevel@absl@@YA?AW4LogSeverityAtLeast@1@XZ
    ?MixIntoSeedMaterial@random_internal@absl@@YAXV?$Span@$$CBI@2@V?$Span@I@2@@Z
    ?MovedFromString@Status@absl@@CAPEBV?$basic_string@DU?$char_traits@D@__Cr@std@@V?$allocator@D@23@@__Cr@std@@XZ
    ?MultiplyBy@?$BigUnsigned@$03@strings_internal@absl@@AEAAXHPEBI@Z
    ?MultiplyBy@?$BigUnsigned@$03@strings_internal@absl@@QEAAXI@Z
    ?MultiplyBy@?$BigUnsigned@$03@strings_internal@absl@@QEAAX_K@Z
    ?MultiplyBy@?$BigUnsigned@$0FE@@strings_internal@absl@@AEAAXHPEBI@Z
    ?MultiplyBy@?$BigUnsigned@$0FE@@strings_internal@absl@@QEAAXI@Z
    ?MultiplyBy@?$BigUnsigned@$0FE@@strings_internal@absl@@QEAAX_K@Z
    ?MultiplyByFiveToTheNth@?$BigUnsigned@$03@strings_internal@absl@@QEAAXH@Z
    ?MultiplyByFiveToTheNth@?$BigUnsigned@$0FE@@strings_internal@absl@@QEAAXH@Z
    ?MultiplyByTenToTheNth@?$BigUnsigned@$03@strings_internal@absl@@QEAAXH@Z
    ?MultiplyByTenToTheNth@?$BigUnsigned@$0FE@@strings_internal@absl@@QEAAXH@Z
    ?MultiplyStep@?$BigUnsigned@$03@strings_internal@absl@@AEAAXHPEBIHH@Z
    ?MultiplyStep@?$BigUnsigned@$0FE@@strings_internal@absl@@AEAAXHPEBIHH@Z
    ?MutexDelay@synchronization_internal@absl@@YAHHH@Z
    ?New@CordRepCrc@cord_internal@absl@@SAPEAU123@PEAUCordRep@23@VCrcCordState@crc_internal@3@@Z
    ?NewArena@LowLevelAlloc@base_internal@absl@@SAPEAUArena@123@I@Z
    ?NewCRC32AcceleratedX86ARMCombinedAll@crc_internal@absl@@YA?AV?$vector@V?$unique_ptr@VCRCImpl@crc_internal@absl@@U?$default_delete@VCRCImpl@crc_internal@absl@@@__Cr@std@@@__Cr@std@@V?$allocator@V?$unique_ptr@VCRCImpl@crc_internal@absl@@U?$default_delete@VCRCImpl@crc_internal@absl@@@__Cr@std@@@__Cr@std@@@23@@__Cr@std@@XZ
    ?NewInternal@CRCImpl@crc_internal@absl@@SAPEAV123@XZ
    ?NewString@CheckOpMessageBuilder@log_internal@absl@@QEAAPEAV?$basic_string@DU?$char_traits@D@__Cr@std@@V?$allocator@D@23@@__Cr@std@@XZ
    ?Next@CordzInfo@cord_internal@absl@@QEBAPEAV123@AEBVCordzSnapshot@23@@Z
    ?NextTransition@TimeZone@absl@@QEBA_NVTime@2@PEAUCivilTransition@12@@Z
    ?NextTransition@TimeZoneInfo@cctz@time_internal@absl@@UEBA_NAEBV?$time_point@Vsystem_clock@chrono@__Cr@std@@V?$duration@_JV?$ratio@$00$00@__Cr@std@@@234@@chrono@__Cr@std@@PEAUcivil_transition@time_zone@234@@Z
    ?NextTransition@TimeZoneLibC@cctz@time_internal@absl@@UEBA_NAEBV?$time_point@Vsystem_clock@chrono@__Cr@std@@V?$duration@_JV?$ratio@$00$00@__Cr@std@@@234@@chrono@__Cr@std@@PEAUcivil_transition@time_zone@234@@Z
    ?NoPrefix@LogMessage@log_internal@absl@@QEAAAEAV123@XZ
    ?NominalCPUFrequency@base_internal@absl@@YANXZ
    ?Normalize@CrcCordState@crc_internal@absl@@QEAAXXZ
    ?NormalizedPrefixCrcAtNthChunk@CrcCordState@crc_internal@absl@@QEBA?AUPrefixCrc@123@_K@Z
    ?NotFoundError@absl@@YA?AVStatus@1@V?$basic_string_view@DU?$char_traits@D@__Cr@std@@@__Cr@std@@@Z
    ?Notify@Notification@absl@@QEAAXXZ
    ?Now@CycleClock@base_internal@absl@@SA_JXZ
    ?Now@UnscaledCycleClock@base_internal@absl@@CA_JXZ
    ?Now@absl@@YA?AVTime@1@XZ
    ?NumCPUs@base_internal@absl@@YAHXZ
    ?OnVLogVerbosityUpdate@log_internal@absl@@YAXV?$function@$$A6AXXZ@__Cr@std@@@Z
    ?OneTimeInitThreadIdentity@synchronization_internal@absl@@YAXPEAUThreadIdentity@base_internal@2@@Z
    ?OutOfRangeError@absl@@YA?AVStatus@1@V?$basic_string_view@DU?$char_traits@D@__Cr@std@@@__Cr@std@@@Z
    ?ParseCivilTime@absl@@YA_NV?$basic_string_view@DU?$char_traits@D@__Cr@std@@@__Cr@std@@PEAV?$civil_time@Uday_tag@time_internal@absl@@@detail@cctz@time_internal@1@@Z
    ?ParseCivilTime@absl@@YA_NV?$basic_string_view@DU?$char_traits@D@__Cr@std@@@__Cr@std@@PEAV?$civil_time@Uhour_tag@time_internal@absl@@@detail@cctz@time_internal@1@@Z
    ?ParseCivilTime@absl@@YA_NV?$basic_string_view@DU?$char_traits@D@__Cr@std@@@__Cr@std@@PEAV?$civil_time@Uminute_tag@time_internal@absl@@@detail@cctz@time_internal@1@@Z
    ?ParseCivilTime@absl@@YA_NV?$basic_string_view@DU?$char_traits@D@__Cr@std@@@__Cr@std@@PEAV?$civil_time@Umonth_tag@time_internal@absl@@@detail@cctz@time_internal@1@@Z
    ?ParseCivilTime@absl@@YA_NV?$basic_string_view@DU?$char_traits@D@__Cr@std@@@__Cr@std@@PEAV?$civil_time@Usecond_tag@time_internal@absl@@@detail@cctz@time_internal@1@@Z
    ?ParseCivilTime@absl@@YA_NV?$basic_string_view@DU?$char_traits@D@__Cr@std@@@__Cr@std@@PEAV?$civil_time@Uyear_tag@time_internal@absl@@@detail@cctz@time_internal@1@@Z
    ?ParseDuration@absl@@YA_NV?$basic_string_view@DU?$char_traits@D@__Cr@std@@@__Cr@std@@PEAVDuration@1@@Z
    ?ParseFlag@absl@@YA_NAEBV?$basic_string@DU?$char_traits@D@__Cr@std@@V?$allocator@D@23@@__Cr@std@@PEAVDuration@1@PEAV234@@Z
    ?ParseFlag@absl@@YA_NAEBV?$basic_string@DU?$char_traits@D@__Cr@std@@V?$allocator@D@23@@__Cr@std@@PEAVTime@1@PEAV234@@Z
    ?ParseLenientCivilTime@absl@@YA_NV?$basic_string_view@DU?$char_traits@D@__Cr@std@@@__Cr@std@@PEAV?$civil_time@Uday_tag@time_internal@absl@@@detail@cctz@time_internal@1@@Z
    ?ParseLenientCivilTime@absl@@YA_NV?$basic_string_view@DU?$char_traits@D@__Cr@std@@@__Cr@std@@PEAV?$civil_time@Uhour_tag@time_internal@absl@@@detail@cctz@time_internal@1@@Z
    ?ParseLenientCivilTime@absl@@YA_NV?$basic_string_view@DU?$char_traits@D@__Cr@std@@@__Cr@std@@PEAV?$civil_time@Uminute_tag@time_internal@absl@@@detail@cctz@time_internal@1@@Z
    ?ParseLenientCivilTime@absl@@YA_NV?$basic_string_view@DU?$char_traits@D@__Cr@std@@@__Cr@std@@PEAV?$civil_time@Umonth_tag@time_internal@absl@@@detail@cctz@time_internal@1@@Z
    ?ParseLenientCivilTime@absl@@YA_NV?$basic_string_view@DU?$char_traits@D@__Cr@std@@@__Cr@std@@PEAV?$civil_time@Usecond_tag@time_internal@absl@@@detail@cctz@time_internal@1@@Z
    ?ParseLenientCivilTime@absl@@YA_NV?$basic_string_view@DU?$char_traits@D@__Cr@std@@@__Cr@std@@PEAV?$civil_time@Uyear_tag@time_internal@absl@@@detail@cctz@time_internal@1@@Z
    ?ParsePosixSpec@cctz@time_internal@absl@@YA_NAEBV?$basic_string@DU?$char_traits@D@__Cr@std@@V?$allocator@D@23@@__Cr@std@@PEAUPosixTimeZone@123@@Z
    ?ParseTime@absl@@YA_NV?$basic_string_view@DU?$char_traits@D@__Cr@std@@@__Cr@std@@0PEAVTime@1@PEAV?$basic_string@DU?$char_traits@D@__Cr@std@@V?$allocator@D@23@@34@@Z
    ?ParseTime@absl@@YA_NV?$basic_string_view@DU?$char_traits@D@__Cr@std@@@__Cr@std@@0VTimeZone@1@PEAVTime@1@PEAV?$basic_string@DU?$char_traits@D@__Cr@std@@V?$allocator@D@23@@34@@Z
    ?PermissionDeniedError@absl@@YA?AVStatus@1@V?$basic_string_view@DU?$char_traits@D@__Cr@std@@@__Cr@std@@@Z
    ?Poison@CrcCordState@crc_internal@absl@@QEAAXXZ
    ?Poke@StdcppWaiter@synchronization_internal@absl@@QEAAXXZ
    ?Poke@Win32Waiter@synchronization_internal@absl@@QEAAXXZ
    ?Post@StdcppWaiter@synchronization_internal@absl@@QEAAXXZ
    ?Post@Win32Waiter@synchronization_internal@absl@@QEAAXXZ
    ?PrepareForSampling@HashtablezInfo@container_internal@absl@@QEAAX_J_K@Z
    ?PrepareToDie@LogMessage@log_internal@absl@@AEAAXXZ
    ?PrepareToModify@Status@absl@@CAPEAVStatusRep@status_internal@2@_K@Z
    ?Prepend@Cord@absl@@QEAAXAEBV12@@Z
    ?Prepend@CordRepBtree@cord_internal@absl@@SAPEAV123@PEAV123@V?$basic_string_view@DU?$char_traits@D@__Cr@std@@@__Cr@std@@_K@Z
    ?PrependArray@Cord@absl@@AEAAXV?$basic_string_view@DU?$char_traits@D@__Cr@std@@@__Cr@std@@W4MethodIdentifier@CordzUpdateTracker@cord_internal@2@@Z
    ?PrependPrecise@Cord@absl@@AEAAXV?$basic_string_view@DU?$char_traits@D@__Cr@std@@@__Cr@std@@W4MethodIdentifier@CordzUpdateTracker@cord_internal@2@@Z
    ?PrependSlow@CordRepBtree@cord_internal@absl@@CAPEAV123@PEAV123@PEAUCordRep@23@@Z
    ?PrependTree@InlineRep@Cord@absl@@QEAAXPEAUCordRep@cord_internal@3@W4MethodIdentifier@CordzUpdateTracker@53@@Z
    ?PrependTreeToInlined@InlineRep@Cord@absl@@QEAAXPEAUCordRep@cord_internal@3@W4MethodIdentifier@CordzUpdateTracker@53@@Z
    ?PrependTreeToTree@InlineRep@Cord@absl@@QEAAXPEAUCordRep@cord_internal@3@W4MethodIdentifier@CordzUpdateTracker@53@@Z
    ?PrependVModule@log_internal@absl@@YAHV?$basic_string_view@DU?$char_traits@D@__Cr@std@@@__Cr@std@@H@Z
    ?PrevTransition@TimeZone@absl@@QEBA_NVTime@2@PEAUCivilTransition@12@@Z
    ?PrevTransition@TimeZoneInfo@cctz@time_internal@absl@@UEBA_NAEBV?$time_point@Vsystem_clock@chrono@__Cr@std@@V?$duration@_JV?$ratio@$00$00@__Cr@std@@@234@@chrono@__Cr@std@@PEAUcivil_transition@time_zone@234@@Z
    ?PrevTransition@TimeZoneLibC@cctz@time_internal@absl@@UEBA_NAEBV?$time_point@Vsystem_clock@chrono@__Cr@std@@V?$duration@_JV?$ratio@$00$00@__Cr@std@@@234@@chrono@__Cr@std@@PEAUcivil_transition@time_zone@234@@Z
    ?Print@Streamable@str_format_internal@absl@@QEBAAEAV?$basic_ostream@DU?$char_traits@D@__Cr@std@@@__Cr@std@@AEAV456@@Z
    ?Ptr@GraphCycles@synchronization_internal@absl@@QEAAPEAXUGraphId@23@@Z
    ?PushDead@?$SampleRecorder@UHashtablezInfo@container_internal@absl@@@profiling_internal@absl@@AEAAXPEAUHashtablezInfo@container_internal@3@@Z
    ?PutPaddedString@FormatSinkImpl@str_format_internal@absl@@QEAA_NV?$basic_string_view@DU?$char_traits@D@__Cr@std@@@__Cr@std@@HH_N@Z
    ?PutTwoDigits@numbers_internal@absl@@YAXIPEAD@Z
    ?RawEnableLogPrefix@log_internal@absl@@YAX_N@Z
    ?RawLog@raw_log_internal@absl@@YAXW4LogSeverity@2@PEBDH1ZZ
    ?RawLoggingFullySupported@raw_log_internal@absl@@YA_NXZ
    ?RawSetMinLogLevel@log_internal@absl@@YAXW4LogSeverityAtLeast@2@@Z
    ?RawSetStderrThreshold@log_internal@absl@@YAXW4LogSeverityAtLeast@2@@Z
    ?Read@CordRepBtreeNavigator@cord_internal@absl@@QEAA?AUReadResult@123@_K0@Z
    ?Read@CordRepBtreeReader@cord_internal@absl@@QEAA?AV?$basic_string_view@DU?$char_traits@D@__Cr@std@@@__Cr@std@@_K0AEAPEAUCordRep@23@@Z
    ?ReadDigits@?$BigUnsigned@$03@strings_internal@absl@@AEAAHPEBD0H@Z
    ?ReadDigits@?$BigUnsigned@$0FE@@strings_internal@absl@@AEAAHPEBD0H@Z
    ?ReadFloatMantissa@?$BigUnsigned@$03@strings_internal@absl@@QEAAHAEBUParsedFloat@23@H@Z
    ?ReadFloatMantissa@?$BigUnsigned@$0FE@@strings_internal@absl@@QEAAHAEBUParsedFloat@23@H@Z
    ?ReadSeedMaterialFromOSEntropy@random_internal@absl@@YA_NV?$Span@I@2@@Z
    ?ReaderLock@Mutex@absl@@QEAAXXZ
    ?ReaderTryLock@Mutex@absl@@QEAA_NXZ
    ?ReaderTryLockSlow@Mutex@absl@@AEAA_NXZ
    ?ReaderUnlock@Mutex@absl@@QEAAXXZ
    ?Rebuild@CordRepBtree@cord_internal@absl@@CAXPEAPEAV123@PEAV123@_N@Z
    ?Rebuild@CordRepBtree@cord_internal@absl@@SAPEAV123@PEAV123@@Z
    ?RecordClearedReservationSlow@container_internal@absl@@YAXPEAUHashtablezInfo@12@@Z
    ?RecordEraseSlow@container_internal@absl@@YAXPEAUHashtablezInfo@12@@Z
    ?RecordInsertSlow@container_internal@absl@@YAXPEAUHashtablezInfo@12@_K1@Z
    ?RecordRehashSlow@container_internal@absl@@YAXPEAUHashtablezInfo@12@_K@Z
    ?RecordReservationSlow@container_internal@absl@@YAXPEAUHashtablezInfo@12@_K@Z
    ?RecordStorageChangedSlow@container_internal@absl@@YAXPEAUHashtablezInfo@12@_K1@Z
    ?RefSharedEmptyRep@CrcCordState@crc_internal@absl@@CAPEAURefcountedRep@123@XZ
    ?Register@CycleClockSource@base_internal@absl@@CAXP6A_JXZ@Z
    ?RegisterAbortHook@raw_log_internal@absl@@YAXP6AXPEBDH000@Z@Z
    ?RegisterAndInitialize@log_internal@absl@@YAHPEAVVLogSite@12@@Z
    ?RegisterCondVarTracer@absl@@YAXP6AXPEBDPEBX@Z@Z
    ?RegisterDebugStackTraceHook@debugging_internal@absl@@YAXP6AXQEBQEAXHP6AXPEBDPEAX@Z2@Z@Z
    ?RegisterInternalLogFunction@raw_log_internal@absl@@YAXP6AXW4LogSeverity@2@PEBDHAEBV?$basic_string@DU?$char_traits@D@__Cr@std@@V?$allocator@D@23@@__Cr@std@@@Z@Z
    ?RegisterLogFilterAndPrefixHook@raw_log_internal@absl@@YAXP6A_NW4LogSeverity@2@PEBDHPEAPEADPEAH@Z@Z
    ?RegisterMutexProfiler@absl@@YAXP6AX_J@Z@Z
    ?RegisterMutexTracer@absl@@YAXP6AXPEBDPEBX_J@Z@Z
    ?RegisterSpinLockProfiler@base_internal@absl@@YAXP6AXPEBX_J@Z@Z
    ?Release@ReleasableMutexLock@absl@@QEAAXXZ
    ?Remove@CondVar@absl@@AEAAXPEAUPerThreadSynch@base_internal@2@@Z
    ?RemoveCrc32cPrefix@absl@@YA?AVcrc32c_t@1@V21@0_K@Z
    ?RemoveCrc32cSuffix@absl@@YA?AVcrc32c_t@1@V21@0_K@Z
    ?RemoveEdge@GraphCycles@synchronization_internal@absl@@QEAAXUGraphId@23@0@Z
    ?RemoveExtraAsciiWhitespace@absl@@YAXPEAV?$basic_string@DU?$char_traits@D@__Cr@std@@V?$allocator@D@23@@__Cr@std@@@Z
    ?RemoveLogSink@log_internal@absl@@YAXPEAVLogSink@2@@Z
    ?RemoveNode@GraphCycles@synchronization_internal@absl@@QEAAXPEAX@Z
    ?RemovePrefix@Cord@absl@@QEAAX_K@Z
    ?RemoveSuffix@Cord@absl@@QEAAX_K@Z
    ?RemoveSuffix@CordRepBtree@cord_internal@absl@@SAPEAUCordRep@23@PEAV123@_K@Z
    ?ResetToBuiltinUTC@TimeZoneInfo@cctz@time_internal@absl@@AEAA_NAEBV?$duration@_JV?$ratio@$00$00@__Cr@std@@@chrono@__Cr@std@@@Z
    ?Resize@?$ResizeUninitializedTraits@V?$basic_string@DU?$char_traits@D@__Cr@std@@V?$allocator@D@23@@__Cr@std@@X@strings_internal@absl@@SAXPEAV?$basic_string@DU?$char_traits@D@__Cr@std@@V?$allocator@D@23@@__Cr@std@@_K@Z
    ?ResourceExhaustedError@absl@@YA?AVStatus@1@V?$basic_string_view@DU?$char_traits@D@__Cr@std@@@__Cr@std@@@Z
    ?Rethrow@variant_internal@absl@@YAXXZ
    ?ReverseConsume@cord_internal@absl@@YAXPEAUCordRep@12@V?$FunctionRef@$$A6AXPEAUCordRep@cord_internal@absl@@_K1@Z@2@@Z
    ?STLStringAppendUninitializedAmortized@strings_internal@absl@@YAXPEAV?$basic_string@DU?$char_traits@D@__Cr@std@@V?$allocator@D@23@@__Cr@std@@_K@Z
    ?SafeToDelete@CordzHandle@cord_internal@absl@@QEBA_NXZ
    ?SampleSlow@container_internal@absl@@YAPEAUHashtablezInfo@12@AEAUSamplingState@12@_K@Z
    ?Scramble@CRC32@crc_internal@absl@@UEBAXPEAI@Z
    ?Seek@CordRepBtreeReader@cord_internal@absl@@QEAA?AV?$basic_string_view@DU?$char_traits@D@__Cr@std@@@__Cr@std@@_K@Z
    ?SendToLog@LogMessage@log_internal@absl@@AEAAXXZ
    ?SetAndroidNativeTag@absl@@YAXPEBD@Z
    ?SetCordBtreeExhaustiveValidation@cord_internal@absl@@YAX_N@Z
    ?SetCrcCordState@Cord@absl@@AEAAXVCrcCordState@crc_internal@2@@Z
    ?SetCurrentThreadIdentity@base_internal@absl@@YAXPEAUThreadIdentity@12@P6AXPEAX@Z@Z
    ?SetExitOnDFatal@log_internal@absl@@YAX_N@Z
    ?SetExpectedChecksum@Cord@absl@@QEAAXI@Z
    ?SetFailQuietly@LogMessage@log_internal@absl@@IEAAXXZ
    ?SetHashtablezConfigListener@container_internal@absl@@YAXP6AXXZ@Z
    ?SetHashtablezEnabled@container_internal@absl@@YAX_N@Z
    ?SetHashtablezEnabledInternal@container_internal@absl@@YAX_N@Z
    ?SetHashtablezMaxSamples@container_internal@absl@@YAX_K@Z
    ?SetHashtablezMaxSamplesInternal@container_internal@absl@@YAX_K@Z
    ?SetHashtablezSampleParameter@container_internal@absl@@YAXH@Z
    ?SetHashtablezSampleParameterInternal@container_internal@absl@@YAXH@Z
    ?SetInitialized@log_internal@absl@@YAXXZ
    ?SetLogBacktraceLocation@absl@@YAXV?$basic_string_view@DU?$char_traits@D@__Cr@std@@@__Cr@std@@H@Z
    ?SetLoggingGlobalsListener@log_internal@absl@@YAXP6AXXZ@Z
    ?SetMaxFramesInLogStackTrace@log_internal@absl@@YAXH@Z
    ?SetMinLogLevel@absl@@YAXW4LogSeverityAtLeast@1@@Z
    ?SetMutexDeadlockDetectionMode@absl@@YAXW4OnDeadlockCycle@1@@Z
    ?SetPayload@StatusRep@status_internal@absl@@QEAAXV?$basic_string_view@DU?$char_traits@D@__Cr@std@@@__Cr@std@@VCord@3@@Z
    ?SetStackUnwinder@absl@@YAXP6AHPEAPEAXPEAHHHPEBX1@Z@Z
    ?SetStatusPayloadPrinter@status_internal@absl@@YAXP6A?AV?$optional@V?$basic_string@DU?$char_traits@D@__Cr@std@@V?$allocator@D@23@@__Cr@std@@@__Cr@std@@V?$basic_string_view@DU?$char_traits@D@__Cr@std@@@45@AEBVCord@2@@Z@Z
    ?SetStderrThreshold@absl@@YAXW4LogSeverityAtLeast@1@@Z
    ?SetSuppressSigabortTrace@log_internal@absl@@YA_N_N@Z
    ?SetThreadBlockedCounter@PerThreadSem@synchronization_internal@absl@@SAXPEAU?$atomic@H@__Cr@std@@@Z
    ?SetTimeZone@log_internal@absl@@YAXVTimeZone@2@@Z
    ?SetToZero@?$BigUnsigned@$03@strings_internal@absl@@QEAAXXZ
    ?SetToZero@?$BigUnsigned@$0FE@@strings_internal@absl@@QEAAXXZ
    ?SetVModuleListHeadForTestOnly@log_internal@absl@@YAPEAVVLogSite@12@PEAV312@@Z
    ?ShiftLeft@?$BigUnsigned@$03@strings_internal@absl@@QEAAXH@Z
    ?ShiftLeft@?$BigUnsigned@$0FE@@strings_internal@absl@@QEAAXH@Z
    ?ShouldInsertBackwards@container_internal@absl@@YA_N_KPEBW4ctrl_t@12@@Z
    ?ShouldLog@LogEveryNSecState@log_internal@absl@@QEAA_NN@Z
    ?ShouldLog@LogEveryNState@log_internal@absl@@QEAA_NH@Z
    ?ShouldLog@LogEveryPow2State@log_internal@absl@@QEAA_NXZ
    ?ShouldLog@LogFirstNState@log_internal@absl@@QEAA_NH@Z
    ?ShouldLogBacktraceAt@log_internal@absl@@YA_NV?$basic_string_view@DU?$char_traits@D@__Cr@std@@@__Cr@std@@H@Z
    ?ShouldPrependLogPrefix@absl@@YA_NXZ
    ?ShouldSymbolizeLogStackTrace@log_internal@absl@@YA_NXZ
    ?Signal@CondVar@absl@@QEAAXXZ
    ?SignalAll@CondVar@absl@@QEAAXXZ
    ?SimpleAtob@absl@@YA_NV?$basic_string_view@DU?$char_traits@D@__Cr@std@@@__Cr@std@@PEA_N@Z
    ?SimpleAtod@absl@@YA_NV?$basic_string_view@DU?$char_traits@D@__Cr@std@@@__Cr@std@@PEAN@Z
    ?SimpleAtof@absl@@YA_NV?$basic_string_view@DU?$char_traits@D@__Cr@std@@@__Cr@std@@PEAM@Z
    ?SingleArgStrAppend@strings_internal@absl@@YAXAEAV?$basic_string@DU?$char_traits@D@__Cr@std@@V?$allocator@D@23@@__Cr@std@@H@Z
    ?SingleArgStrAppend@strings_internal@absl@@YAXAEAV?$basic_string@DU?$char_traits@D@__Cr@std@@V?$allocator@D@23@@__Cr@std@@I@Z
    ?SingleArgStrAppend@strings_internal@absl@@YAXAEAV?$basic_string@DU?$char_traits@D@__Cr@std@@V?$allocator@D@23@@__Cr@std@@J@Z
    ?SingleArgStrAppend@strings_internal@absl@@YAXAEAV?$basic_string@DU?$char_traits@D@__Cr@std@@V?$allocator@D@23@@__Cr@std@@K@Z
    ?SingleArgStrAppend@strings_internal@absl@@YAXAEAV?$basic_string@DU?$char_traits@D@__Cr@std@@V?$allocator@D@23@@__Cr@std@@_J@Z
    ?SingleArgStrAppend@strings_internal@absl@@YAXAEAV?$basic_string@DU?$char_traits@D@__Cr@std@@V?$allocator@D@23@@__Cr@std@@_K@Z
    ?SingleArgStrCat@strings_internal@absl@@YA?AV?$basic_string@DU?$char_traits@D@__Cr@std@@V?$allocator@D@23@@__Cr@std@@H@Z
    ?SingleArgStrCat@strings_internal@absl@@YA?AV?$basic_string@DU?$char_traits@D@__Cr@std@@V?$allocator@D@23@@__Cr@std@@I@Z
    ?SingleArgStrCat@strings_internal@absl@@YA?AV?$basic_string@DU?$char_traits@D@__Cr@std@@V?$allocator@D@23@@__Cr@std@@J@Z
    ?SingleArgStrCat@strings_internal@absl@@YA?AV?$basic_string@DU?$char_traits@D@__Cr@std@@V?$allocator@D@23@@__Cr@std@@K@Z
    ?SingleArgStrCat@strings_internal@absl@@YA?AV?$basic_string@DU?$char_traits@D@__Cr@std@@V?$allocator@D@23@@__Cr@std@@M@Z
    ?SingleArgStrCat@strings_internal@absl@@YA?AV?$basic_string@DU?$char_traits@D@__Cr@std@@V?$allocator@D@23@@__Cr@std@@N@Z
    ?SingleArgStrCat@strings_internal@absl@@YA?AV?$basic_string@DU?$char_traits@D@__Cr@std@@V?$allocator@D@23@@__Cr@std@@_J@Z
    ?SingleArgStrCat@strings_internal@absl@@YA?AV?$basic_string@DU?$char_traits@D@__Cr@std@@V?$allocator@D@23@@__Cr@std@@_K@Z
    ?SixDigitsToBuffer@numbers_internal@absl@@YA_KNPEAD@Z
    ?SizeofCordRepExternal@CordTestAccess@strings_internal@absl@@SA_KXZ
    ?SizeofCordRepSubstring@CordTestAccess@strings_internal@absl@@SA_KXZ
    ?Skip@CordRepBtreeNavigator@cord_internal@absl@@QEAA?AUPosition@123@_K@Z
    ?SlowIsEnabled0@VLogSite@log_internal@absl@@AEAA_NH@Z
    ?SlowIsEnabled1@VLogSite@log_internal@absl@@AEAA_NH@Z
    ?SlowIsEnabled2@VLogSite@log_internal@absl@@AEAA_NH@Z
    ?SlowIsEnabled3@VLogSite@log_internal@absl@@AEAA_NH@Z
    ?SlowIsEnabled4@VLogSite@log_internal@absl@@AEAA_NH@Z
    ?SlowIsEnabled5@VLogSite@log_internal@absl@@AEAA_NH@Z
    ?SlowIsEnabled@VLogSite@log_internal@absl@@AEAA_NHH@Z
    ?SlowLock@SpinLock@base_internal@absl@@AEAAXXZ
    ?SlowUnlock@SpinLock@base_internal@absl@@AEAAXI@Z
    ?SnprintF@str_format_internal@absl@@YAHPEAD_KVUntypedFormatSpecImpl@12@V?$Span@$$CBVFormatArgImpl@str_format_internal@absl@@@2@@Z
    ?SpinLockSuggestedDelayNS@base_internal@absl@@YAHH@Z
    ?SpinLockWait@base_internal@absl@@YAIPEAU?$atomic@I@__Cr@std@@HQEBUSpinLockWaitTransition@12@W4SchedulingMode@12@@Z
    ?SpinLoop@SpinLock@base_internal@absl@@AEAAIXZ
    ?StackTraceWorksForTest@debugging_internal@absl@@YA_NXZ
    ?StartsWithIgnoreCase@absl@@YA_NV?$basic_string_view@DU?$char_traits@D@__Cr@std@@@__Cr@std@@0@Z
    ?StatusCodeToString@absl@@YA?AV?$basic_string@DU?$char_traits@D@__Cr@std@@V?$allocator@D@23@@__Cr@std@@W4StatusCode@1@@Z
    ?StatusMessageAsCStr@absl@@YAPEBDAEBVStatus@1@@Z
    ?StderrThreshold@absl@@YA?AW4LogSeverityAtLeast@1@XZ
    ?SteadyClockNow@KernelTimeout@synchronization_internal@absl@@CA_JXZ
    ?StrAppend@absl@@YAXPEAV?$basic_string@DU?$char_traits@D@__Cr@std@@V?$allocator@D@23@@__Cr@std@@AEBVAlphaNum@1@111@Z
    ?StrAppend@absl@@YAXPEAV?$basic_string@DU?$char_traits@D@__Cr@std@@V?$allocator@D@23@@__Cr@std@@AEBVAlphaNum@1@11@Z
    ?StrAppend@absl@@YAXPEAV?$basic_string@DU?$char_traits@D@__Cr@std@@V?$allocator@D@23@@__Cr@std@@AEBVAlphaNum@1@1@Z
    ?StrAppend@absl@@YAXPEAV?$basic_string@DU?$char_traits@D@__Cr@std@@V?$allocator@D@23@@__Cr@std@@AEBVAlphaNum@1@@Z
    ?StrCat@absl@@YA?AV?$basic_string@DU?$char_traits@D@__Cr@std@@V?$allocator@D@23@@__Cr@std@@AEBVAlphaNum@1@000@Z
    ?StrCat@absl@@YA?AV?$basic_string@DU?$char_traits@D@__Cr@std@@V?$allocator@D@23@@__Cr@std@@AEBVAlphaNum@1@00@Z
    ?StrCat@absl@@YA?AV?$basic_string@DU?$char_traits@D@__Cr@std@@V?$allocator@D@23@@__Cr@std@@AEBVAlphaNum@1@0@Z
    ?StrContainsIgnoreCase@absl@@YA_NV?$basic_string_view@DU?$char_traits@D@__Cr@std@@@__Cr@std@@0@Z
    ?StrContainsIgnoreCase@absl@@YA_NV?$basic_string_view@DU?$char_traits@D@__Cr@std@@@__Cr@std@@D@Z
    ?StrError@base_internal@absl@@YA?AV?$basic_string@DU?$char_traits@D@__Cr@std@@V?$allocator@D@23@@__Cr@std@@H@Z
    ?StrReplaceAll@absl@@YA?AV?$basic_string@DU?$char_traits@D@__Cr@std@@V?$allocator@D@23@@__Cr@std@@V?$basic_string_view@DU?$char_traits@D@__Cr@std@@@34@V?$initializer_list@U?$pair@V?$basic_string_view@DU?$char_traits@D@__Cr@std@@@__Cr@std@@V123@@__Cr@std@@@4@@Z
    ?StrReplaceAll@absl@@YAHV?$initializer_list@U?$pair@V?$basic_string_view@DU?$char_traits@D@__Cr@std@@@__Cr@std@@V123@@__Cr@std@@@std@@PEAV?$basic_string@DU?$char_traits@D@__Cr@std@@V?$allocator@D@23@@__Cr@3@@Z
    ?SubTree@CordRepBtree@cord_internal@absl@@QEAAPEAUCordRep@23@_K0@Z
    ?Subcord@Cord@absl@@QEBA?AV12@_K0@Z
    ?SubstituteAndAppendArray@substitute_internal@absl@@YAXPEAV?$basic_string@DU?$char_traits@D@__Cr@std@@V?$allocator@D@23@@__Cr@std@@V?$basic_string_view@DU?$char_traits@D@__Cr@std@@@45@PEBV645@_K@Z
    ?Summarize@str_format_internal@absl@@YA?AV?$basic_string@DU?$char_traits@D@__Cr@std@@V?$allocator@D@23@@__Cr@std@@VUntypedFormatSpecImpl@12@V?$Span@$$CBVFormatArgImpl@str_format_internal@absl@@@2@@Z
    ?SupportsArmCRC32PMULL@crc_internal@absl@@YA_NXZ
    ?SuppressSigabortTrace@log_internal@absl@@YA_NXZ
    ?Symbolize@absl@@YA_NPEBXPEADH@Z
    ?ThreadIsLoggingToLogSink@log_internal@absl@@YA_NXZ
    ?ThrowBadStatusOrAccess@internal_statusor@absl@@YAXVStatus@2@@Z
    ?ThrowBadVariantAccess@variant_internal@absl@@YAXXZ
    ?ThrowSeedGenException@random_internal@absl@@YAXXZ
    ?ThrowStdBadAlloc@base_internal@absl@@YAXXZ
    ?ThrowStdBadFunctionCall@base_internal@absl@@YAXXZ
    ?ThrowStdDomainError@base_internal@absl@@YAXAEBV?$basic_string@DU?$char_traits@D@__Cr@std@@V?$allocator@D@23@@__Cr@std@@@Z
    ?ThrowStdDomainError@base_internal@absl@@YAXPEBD@Z
    ?ThrowStdInvalidArgument@base_internal@absl@@YAXAEBV?$basic_string@DU?$char_traits@D@__Cr@std@@V?$allocator@D@23@@__Cr@std@@@Z
    ?ThrowStdInvalidArgument@base_internal@absl@@YAXPEBD@Z
    ?ThrowStdLengthError@base_internal@absl@@YAXAEBV?$basic_string@DU?$char_traits@D@__Cr@std@@V?$allocator@D@23@@__Cr@std@@@Z
    ?ThrowStdLengthError@base_internal@absl@@YAXPEBD@Z
    ?ThrowStdLogicError@base_internal@absl@@YAXAEBV?$basic_string@DU?$char_traits@D@__Cr@std@@V?$allocator@D@23@@__Cr@std@@@Z
    ?ThrowStdLogicError@base_internal@absl@@YAXPEBD@Z
    ?ThrowStdOutOfRange@base_internal@absl@@YAXAEBV?$basic_string@DU?$char_traits@D@__Cr@std@@V?$allocator@D@23@@__Cr@std@@@Z
    ?ThrowStdOutOfRange@base_internal@absl@@YAXPEBD@Z
    ?ThrowStdOverflowError@base_internal@absl@@YAXAEBV?$basic_string@DU?$char_traits@D@__Cr@std@@V?$allocator@D@23@@__Cr@std@@@Z
    ?ThrowStdOverflowError@base_internal@absl@@YAXPEBD@Z
    ?ThrowStdRangeError@base_internal@absl@@YAXAEBV?$basic_string@DU?$char_traits@D@__Cr@std@@V?$allocator@D@23@@__Cr@std@@@Z
    ?ThrowStdRangeError@base_internal@absl@@YAXPEBD@Z
    ?ThrowStdRuntimeError@base_internal@absl@@YAXAEBV?$basic_string@DU?$char_traits@D@__Cr@std@@V?$allocator@D@23@@__Cr@std@@@Z
    ?ThrowStdRuntimeError@base_internal@absl@@YAXPEBD@Z
    ?ThrowStdUnderflowError@base_internal@absl@@YAXAEBV?$basic_string@DU?$char_traits@D@__Cr@std@@V?$allocator@D@23@@__Cr@std@@@Z
    ?ThrowStdUnderflowError@base_internal@absl@@YAXPEBD@Z
    ?Tick@PerThreadSem@synchronization_internal@absl@@SAXPEAUThreadIdentity@base_internal@3@@Z
    ?TimeFromTimespec@absl@@YA?AVTime@1@Utimespec@@@Z
    ?TimeFromTimeval@absl@@YA?AVTime@1@Utimeval@@@Z
    ?TimeLocal@TimeZoneInfo@cctz@time_internal@absl@@AEBA?AUcivil_lookup@time_zone@234@AEBV?$civil_time@Usecond_tag@detail@cctz@time_internal@absl@@@detail@234@_J@Z
    ?TimeZone@log_internal@absl@@YAPEBV02@XZ
    ?ToChronoDuration@KernelTimeout@synchronization_internal@absl@@QEBA?AV?$duration@_JV?$ratio@$00$0DLJKMKAA@@__Cr@std@@@chrono@__Cr@std@@XZ
    ?ToChronoHours@absl@@YA?AV?$duration@JV?$ratio@$0OBA@$00@__Cr@std@@@chrono@__Cr@std@@VDuration@1@@Z
    ?ToChronoMicroseconds@absl@@YA?AV?$duration@_JV?$ratio@$00$0PECEA@@__Cr@std@@@chrono@__Cr@std@@VDuration@1@@Z
    ?ToChronoMilliseconds@absl@@YA?AV?$duration@_JV?$ratio@$00$0DOI@@__Cr@std@@@chrono@__Cr@std@@VDuration@1@@Z
    ?ToChronoMinutes@absl@@YA?AV?$duration@JV?$ratio@$0DM@$00@__Cr@std@@@chrono@__Cr@std@@VDuration@1@@Z
    ?ToChronoNanoseconds@absl@@YA?AV?$duration@_JV?$ratio@$00$0DLJKMKAA@@__Cr@std@@@chrono@__Cr@std@@VDuration@1@@Z
    ?ToChronoSeconds@absl@@YA?AV?$duration@_JV?$ratio@$00$00@__Cr@std@@@chrono@__Cr@std@@VDuration@1@@Z
    ?ToChronoTime@absl@@YA?AV?$time_point@Vsystem_clock@chrono@__Cr@std@@V?$duration@_JV?$ratio@$00$0PECEA@@__Cr@std@@@234@@chrono@__Cr@std@@VTime@1@@Z
    ?ToChronoTimePoint@KernelTimeout@synchronization_internal@absl@@QEBA?AV?$time_point@Vsystem_clock@chrono@__Cr@std@@V?$duration@_JV?$ratio@$00$0PECEA@@__Cr@std@@@234@@chrono@__Cr@std@@XZ
    ?ToDoubleHours@absl@@YANVDuration@1@@Z
    ?ToDoubleMicroseconds@absl@@YANVDuration@1@@Z
    ?ToDoubleMilliseconds@absl@@YANVDuration@1@@Z
    ?ToDoubleMinutes@absl@@YANVDuration@1@@Z
    ?ToDoubleNanoseconds@absl@@YANVDuration@1@@Z
    ?ToDoubleSeconds@absl@@YANVDuration@1@@Z
    ?ToInt64Hours@absl@@YA_JVDuration@1@@Z
    ?ToInt64Microseconds@absl@@YA_JVDuration@1@@Z
    ?ToInt64Milliseconds@absl@@YA_JVDuration@1@@Z
    ?ToInt64Minutes@absl@@YA_JVDuration@1@@Z
    ?ToInt64Nanoseconds@absl@@YA_JVDuration@1@@Z
    ?ToInt64Seconds@absl@@YA_JVDuration@1@@Z
    ?ToSinkAlso@LogMessage@log_internal@absl@@QEAAAEAV123@PEAVLogSink@3@@Z
    ?ToSinkOnly@LogMessage@log_internal@absl@@QEAAAEAV123@PEAVLogSink@3@@Z
    ?ToString@?$BigUnsigned@$03@strings_internal@absl@@QEBA?AV?$basic_string@DU?$char_traits@D@__Cr@std@@V?$allocator@D@23@@__Cr@std@@XZ
    ?ToString@?$BigUnsigned@$0FE@@strings_internal@absl@@QEBA?AV?$basic_string@DU?$char_traits@D@__Cr@std@@V?$allocator@D@23@@__Cr@std@@XZ
    ?ToString@Status@absl@@QEBA?AV?$basic_string@DU?$char_traits@D@__Cr@std@@V?$allocator@D@23@@__Cr@std@@W4StatusToStringMode@2@@Z
    ?ToString@StatusRep@status_internal@absl@@QEBA?AV?$basic_string@DU?$char_traits@D@__Cr@std@@V?$allocator@D@23@@__Cr@std@@W4StatusToStringMode@3@@Z
    ?ToString@int128@absl@@AEBA?AV?$basic_string@DU?$char_traits@D@__Cr@std@@V?$allocator@D@23@@__Cr@std@@XZ
    ?ToString@uint128@absl@@AEBA?AV?$basic_string@DU?$char_traits@D@__Cr@std@@V?$allocator@D@23@@__Cr@std@@XZ
    ?ToStringSlow@Status@absl@@CA?AV?$basic_string@DU?$char_traits@D@__Cr@std@@V?$allocator@D@23@@__Cr@std@@_KW4StatusToStringMode@2@@Z
    ?ToTM@absl@@YA?AUtm@@VTime@1@VTimeZone@1@@Z
    ?ToTimeT@absl@@YA_JVTime@1@@Z
    ?ToTimespec@absl@@YA?AUtimespec@@VDuration@1@@Z
    ?ToTimespec@absl@@YA?AUtimespec@@VTime@1@@Z
    ?ToTimeval@absl@@YA?AUtimeval@@VDuration@1@@Z
    ?ToTimeval@absl@@YA?AUtimeval@@VTime@1@@Z
    ?ToUDate@absl@@YANVTime@1@@Z
    ?ToUniversal@absl@@YA_JVTime@1@@Z
    ?ToUnixMicros@absl@@YA_JVTime@1@@Z
    ?ToUnixMillis@absl@@YA_JVTime@1@@Z
    ?ToUnixNanos@absl@@YA_JVTime@1@@Z
    ?ToUnixSeconds@absl@@YA_JVTime@1@@Z
    ?Track@CordzInfo@cord_internal@absl@@AEAAXXZ
    ?TrackCord@CordzInfo@cord_internal@absl@@SAXAEAVInlineData@23@AEBV423@W4MethodIdentifier@CordzUpdateTracker@23@@Z
    ?TrackCord@CordzInfo@cord_internal@absl@@SAXAEAVInlineData@23@W4MethodIdentifier@CordzUpdateTracker@23@@Z
    ?Trans@Mutex@absl@@AEAAXPEBUMuHowS@2@@Z
    ?Trunc@absl@@YA?AVDuration@1@V21@0@Z
    ?TryLock@Mutex@absl@@QEAA_NXZ
    ?TryLockSlow@Mutex@absl@@AEAA_NXZ
    ?TryNewCRC32AcceleratedX86ARMCombined@crc_internal@absl@@YAPEAVCRCImpl@12@XZ
    ?TryRemove@Mutex@absl@@AEAAXPEAUPerThreadSynch@base_internal@2@@Z
    ?UTC@Impl@time_zone@cctz@time_internal@absl@@SA?AV2345@XZ
    ?UTC@TimeZoneIf@cctz@time_internal@absl@@SA?AV?$unique_ptr@VTimeZoneIf@cctz@time_internal@absl@@U?$default_delete@VTimeZoneIf@cctz@time_internal@absl@@@__Cr@std@@@__Cr@std@@XZ
    ?UTC@TimeZoneInfo@cctz@time_internal@absl@@SA?AV?$unique_ptr@VTimeZoneInfo@cctz@time_internal@absl@@U?$default_delete@VTimeZoneInfo@cctz@time_internal@absl@@@__Cr@std@@@__Cr@std@@XZ
    ?UTCImpl@Impl@time_zone@cctz@time_internal@absl@@CAPEBV12345@XZ
    ?UnauthenticatedError@absl@@YA?AVStatus@1@V?$basic_string_view@DU?$char_traits@D@__Cr@std@@@__Cr@std@@@Z
    ?UnavailableError@absl@@YA?AVStatus@1@V?$basic_string_view@DU?$char_traits@D@__Cr@std@@@__Cr@std@@@Z
    ?UnextendByZeroes@CRC32@crc_internal@absl@@UEBAXPEAI_K@Z
    ?UnextendCrc32cByZeroes@crc_internal@absl@@YA?AVcrc32c_t@2@V32@_K@Z
    ?UnimplementedError@absl@@YA?AVStatus@1@V?$basic_string_view@DU?$char_traits@D@__Cr@std@@@__Cr@std@@@Z
    ?UnknownError@absl@@YA?AVStatus@1@V?$basic_string_view@DU?$char_traits@D@__Cr@std@@@__Cr@std@@@Z
    ?Unlock@CordzInfo@cord_internal@absl@@QEAAXXZ
    ?Unlock@Mutex@absl@@QEAAXXZ
    ?UnlockSlow@Mutex@absl@@AEAAXPEAUSynchWaitParams@2@@Z
    ?UnparseFlag@absl@@YA?AV?$basic_string@DU?$char_traits@D@__Cr@std@@V?$allocator@D@23@@__Cr@std@@VDuration@1@@Z
    ?UnparseFlag@absl@@YA?AV?$basic_string@DU?$char_traits@D@__Cr@std@@V?$allocator@D@23@@__Cr@std@@VTime@1@@Z
    ?Unref@CrcCordState@crc_internal@absl@@CAXPEAURefcountedRep@123@@Z
    ?Unref@StatusRep@status_internal@absl@@QEBAXXZ
    ?UnrefTree@InlineRep@Cord@absl@@AEAAXXZ
    ?UnsampleSlow@container_internal@absl@@YAXPEAUHashtablezInfo@12@@Z
    ?Unscramble@CRC32@crc_internal@absl@@UEBAXPEAI@Z
    ?Untrack@CordzInfo@cord_internal@absl@@QEAAXXZ
    ?UpdateGlobalVLogLevel@log_internal@absl@@YAHH@Z
    ?UpdateStackTrace@GraphCycles@synchronization_internal@absl@@QEAAXUGraphId@23@HP6AHPEAPEAXH@Z@Z
    ?UpdateVLogSites@log_internal@absl@@YAXXZ
    ?UpdateVModule@log_internal@absl@@YAXV?$basic_string_view@DU?$char_traits@D@__Cr@std@@@__Cr@std@@@Z
    ?Utf8SafeCEscape@absl@@YA?AV?$basic_string@DU?$char_traits@D@__Cr@std@@V?$allocator@D@23@@__Cr@std@@V?$basic_string_view@DU?$char_traits@D@__Cr@std@@@34@@Z
    ?Utf8SafeCHexEscape@absl@@YA?AV?$basic_string@DU?$char_traits@D@__Cr@std@@V?$allocator@D@23@@__Cr@std@@V?$basic_string_view@DU?$char_traits@D@__Cr@std@@@34@@Z
    ?VLogLevel@log_internal@absl@@YAHV?$basic_string_view@DU?$char_traits@D@__Cr@std@@@__Cr@std@@@Z
    ?Version@TimeZoneInfo@cctz@time_internal@absl@@UEBA?AV?$basic_string@DU?$char_traits@D@__Cr@std@@V?$allocator@D@23@@__Cr@std@@XZ
    ?Version@TimeZoneLibC@cctz@time_internal@absl@@UEBA?AV?$basic_string@DU?$char_traits@D@__Cr@std@@V?$allocator@D@23@@__Cr@std@@XZ
    ?Version@ZoneInfoSource@cctz@time_internal@absl@@UEBA?AV?$basic_string@DU?$char_traits@D@__Cr@std@@V?$allocator@D@23@@__Cr@std@@XZ
    ?Wait@BlockingCounter@absl@@QEAAXXZ
    ?Wait@StdcppWaiter@synchronization_internal@absl@@QEAA_NVKernelTimeout@23@@Z
    ?Wait@Win32Waiter@synchronization_internal@absl@@QEAA_NVKernelTimeout@23@@Z
    ?WaitCommon@CondVar@absl@@AEAA_NPEAVMutex@2@VKernelTimeout@synchronization_internal@2@@Z
    ?WaitForNotification@Notification@absl@@QEBAXXZ
    ?WaitForNotificationWithDeadline@Notification@absl@@QEBA_NVTime@2@@Z
    ?WaitForNotificationWithTimeout@Notification@absl@@QEBA_NVDuration@2@@Z
    ?Wakeup@Mutex@absl@@AEAAPEAUPerThreadSynch@base_internal@2@PEAU342@@Z
    ?WebSafeBase64Escape@absl@@YA?AV?$basic_string@DU?$char_traits@D@__Cr@std@@V?$allocator@D@23@@__Cr@std@@V?$basic_string_view@DU?$char_traits@D@__Cr@std@@@34@@Z
    ?WebSafeBase64Escape@absl@@YAXV?$basic_string_view@DU?$char_traits@D@__Cr@std@@@__Cr@std@@PEAV?$basic_string@DU?$char_traits@D@__Cr@std@@V?$allocator@D@23@@34@@Z
    ?WebSafeBase64Unescape@absl@@YA_NV?$basic_string_view@DU?$char_traits@D@__Cr@std@@@__Cr@std@@PEAV?$basic_string@DU?$char_traits@D@__Cr@std@@V?$allocator@D@23@@34@@Z
    ?WithMetadataFrom@LogMessage@log_internal@absl@@QEAAAEAV123@AEBVLogEntry@3@@Z
    ?WithPerror@LogMessage@log_internal@absl@@QEAAAEAV123@XZ
    ?WithThreadID@LogMessage@log_internal@absl@@QEAAAEAV123@I@Z
    ?WithTimestamp@LogMessage@log_internal@absl@@QEAAAEAV123@VTime@3@@Z
    ?WithVerbosity@LogMessage@log_internal@absl@@QEAAAEAV123@H@Z
    ?Write@BufferRawSink@str_format_internal@absl@@QEAAXV?$basic_string_view@DU?$char_traits@D@__Cr@std@@@__Cr@std@@@Z
    ?Write@FILERawSink@str_format_internal@absl@@QEAAXV?$basic_string_view@DU?$char_traits@D@__Cr@std@@@__Cr@std@@@Z
    ?WriteToStderr@log_internal@absl@@YAXV?$basic_string_view@DU?$char_traits@D@__Cr@std@@@__Cr@std@@W4LogSeverity@2@@Z
    ?__add_back_capacity@?$deque@PEBVImpl@time_zone@cctz@time_internal@absl@@V?$allocator@PEBVImpl@time_zone@cctz@time_internal@absl@@@__Cr@std@@@__Cr@std@@AEAAXXZ
    ?__add_back_capacity@?$deque@UPrefixCrc@CrcCordState@crc_internal@absl@@V?$allocator@UPrefixCrc@CrcCordState@crc_internal@absl@@@__Cr@std@@@__Cr@std@@AEAAXXZ
    ?__add_back_capacity@?$deque@UPrefixCrc@CrcCordState@crc_internal@absl@@V?$allocator@UPrefixCrc@CrcCordState@crc_internal@absl@@@__Cr@std@@@__Cr@std@@AEAAX_K@Z
    ?__append@?$vector@UTransition@cctz@time_internal@absl@@V?$allocator@UTransition@cctz@time_internal@absl@@@__Cr@std@@@__Cr@std@@AEAAX_K@Z
    ?__append@?$vector@UTransitionType@cctz@time_internal@absl@@V?$allocator@UTransitionType@cctz@time_internal@absl@@@__Cr@std@@@__Cr@std@@AEAAX_K@Z
    ?__clear@?$vector@PEAVCordzHandle@cord_internal@absl@@V?$allocator@PEAVCordzHandle@cord_internal@absl@@@__Cr@std@@@__Cr@std@@AEAAXXZ
    ?__clear@?$vector@UTransition@cctz@time_internal@absl@@V?$allocator@UTransition@cctz@time_internal@absl@@@__Cr@std@@@__Cr@std@@AEAAXXZ
    ?__clear@?$vector@UTransitionType@cctz@time_internal@absl@@V?$allocator@UTransitionType@cctz@time_internal@absl@@@__Cr@std@@@__Cr@std@@AEAAXXZ
    ?__clear@?$vector@UViableSubstitution@strings_internal@absl@@V?$allocator@UViableSubstitution@strings_internal@absl@@@__Cr@std@@@__Cr@std@@AEAAXXZ
    ?__deallocate_node@?$__hash_table@U?$__hash_value_type@V?$basic_string@DU?$char_traits@D@__Cr@std@@V?$allocator@D@23@@__Cr@std@@PEBVImpl@time_zone@cctz@time_internal@absl@@@__Cr@std@@V?$__unordered_map_hasher@V?$basic_string@DU?$char_traits@D@__Cr@std@@V?$allocator@D@23@@__Cr@std@@U?$__hash_value_type@V?$basic_string@DU?$char_traits@D@__Cr@std@@V?$allocator@D@23@@__Cr@std@@PEBVImpl@time_zone@cctz@time_internal@absl@@@23@U?$hash@V?$basic_string@DU?$char_traits@D@__Cr@std@@V?$allocator@D@23@@__Cr@std@@@23@U?$equal_to@V?$basic_string@DU?$char_traits@D@__Cr@std@@V?$allocator@D@23@@__Cr@std@@@23@$00@23@V?$__unordered_map_equal@V?$basic_string@DU?$char_traits@D@__Cr@std@@V?$allocator@D@23@@__Cr@std@@U?$__hash_value_type@V?$basic_string@DU?$char_traits@D@__Cr@std@@V?$allocator@D@23@@__Cr@std@@PEBVImpl@time_zone@cctz@time_internal@absl@@@23@U?$equal_to@V?$basic_string@DU?$char_traits@D@__Cr@std@@V?$allocator@D@23@@__Cr@std@@@23@U?$hash@V?$basic_string@DU?$char_traits@D@__Cr@std@@V?$allocator@D@23@@__Cr@std@@@23@$00@23@V?$allocator@U?$__hash_value_type@V?$basic_string@DU?$char_traits@D@__Cr@std@@V?$allocator@D@23@@__Cr@std@@PEBVImpl@time_zone@cctz@time_internal@absl@@@__Cr@std@@@23@@__Cr@std@@AEAAXPEAU?$__hash_node_base@PEAU?$__hash_node@U?$__hash_value_type@V?$basic_string@DU?$char_traits@D@__Cr@std@@V?$allocator@D@23@@__Cr@std@@PEBVImpl@time_zone@cctz@time_internal@absl@@@__Cr@std@@PEAX@__Cr@std@@@23@@Z
    ?__erase_to_end@?$deque@UPrefixCrc@CrcCordState@crc_internal@absl@@V?$allocator@UPrefixCrc@CrcCordState@crc_internal@absl@@@__Cr@std@@@__Cr@std@@AEAAXV?$__deque_iterator@UPrefixCrc@CrcCordState@crc_internal@absl@@PEBU1234@AEBU1234@PEBQEBU1234@_J$0A@@23@@Z
    ?__maybe_remove_back_spare@?$deque@UPrefixCrc@CrcCordState@crc_internal@absl@@V?$allocator@UPrefixCrc@CrcCordState@crc_internal@absl@@@__Cr@std@@@__Cr@std@@AEAA_N_N@Z
    ?__move_range@?$vector@UTransition@cctz@time_internal@absl@@V?$allocator@UTransition@cctz@time_internal@absl@@@__Cr@std@@@__Cr@std@@AEAAXPEAUTransition@cctz@time_internal@absl@@00@Z
    ?__move_range@?$vector@UTransitionType@cctz@time_internal@absl@@V?$allocator@UTransitionType@cctz@time_internal@absl@@@__Cr@std@@@__Cr@std@@AEAAXPEAUTransitionType@cctz@time_internal@absl@@00@Z
    ?__throw_length_error@?$vector@PEAVCordzHandle@cord_internal@absl@@V?$allocator@PEAVCordzHandle@cord_internal@absl@@@__Cr@std@@@__Cr@std@@AEBAXXZ
    ?__throw_length_error@?$vector@PEAVLogSink@absl@@V?$allocator@PEAVLogSink@absl@@@__Cr@std@@@__Cr@std@@AEBAXXZ
    ?__throw_length_error@?$vector@PEBVCordzHandle@cord_internal@absl@@V?$allocator@PEBVCordzHandle@cord_internal@absl@@@__Cr@std@@@__Cr@std@@AEBAXXZ
    ?__throw_length_error@?$vector@UConversionItem@ParsedFormatBase@str_format_internal@absl@@V?$allocator@UConversionItem@ParsedFormatBase@str_format_internal@absl@@@__Cr@std@@@__Cr@std@@AEBAXXZ
    ?__throw_length_error@?$vector@UTransition@cctz@time_internal@absl@@V?$allocator@UTransition@cctz@time_internal@absl@@@__Cr@std@@@__Cr@std@@AEBAXXZ
    ?__throw_length_error@?$vector@UTransitionType@cctz@time_internal@absl@@V?$allocator@UTransitionType@cctz@time_internal@absl@@@__Cr@std@@@__Cr@std@@AEBAXXZ
    ?__throw_length_error@?$vector@UViableSubstitution@strings_internal@absl@@V?$allocator@UViableSubstitution@strings_internal@absl@@@__Cr@std@@@__Cr@std@@AEBAXXZ
    ?clear@?$__hash_table@U?$__hash_value_type@V?$basic_string@DU?$char_traits@D@__Cr@std@@V?$allocator@D@23@@__Cr@std@@PEBVImpl@time_zone@cctz@time_internal@absl@@@__Cr@std@@V?$__unordered_map_hasher@V?$basic_string@DU?$char_traits@D@__Cr@std@@V?$allocator@D@23@@__Cr@std@@U?$__hash_value_type@V?$basic_string@DU?$char_traits@D@__Cr@std@@V?$allocator@D@23@@__Cr@std@@PEBVImpl@time_zone@cctz@time_internal@absl@@@23@U?$hash@V?$basic_string@DU?$char_traits@D@__Cr@std@@V?$allocator@D@23@@__Cr@std@@@23@U?$equal_to@V?$basic_string@DU?$char_traits@D@__Cr@std@@V?$allocator@D@23@@__Cr@std@@@23@$00@23@V?$__unordered_map_equal@V?$basic_string@DU?$char_traits@D@__Cr@std@@V?$allocator@D@23@@__Cr@std@@U?$__hash_value_type@V?$basic_string@DU?$char_traits@D@__Cr@std@@V?$allocator@D@23@@__Cr@std@@PEBVImpl@time_zone@cctz@time_internal@absl@@@23@U?$equal_to@V?$basic_string@DU?$char_traits@D@__Cr@std@@V?$allocator@D@23@@__Cr@std@@@23@U?$hash@V?$basic_string@DU?$char_traits@D@__Cr@std@@V?$allocator@D@23@@__Cr@std@@@23@$00@23@V?$allocator@U?$__hash_value_type@V?$basic_string@DU?$char_traits@D@__Cr@std@@V?$allocator@D@23@@__Cr@std@@PEBVImpl@time_zone@cctz@time_internal@absl@@@__Cr@std@@@23@@__Cr@std@@QEAAXXZ
    ?clear@?$__split_buffer@PEAPEBVImpl@time_zone@cctz@time_internal@absl@@AEAV?$allocator@PEAPEBVImpl@time_zone@cctz@time_internal@absl@@@__Cr@std@@@__Cr@std@@QEAAXXZ
    ?clear@?$__split_buffer@PEAUPrefixCrc@CrcCordState@crc_internal@absl@@AEAV?$allocator@PEAUPrefixCrc@CrcCordState@crc_internal@absl@@@__Cr@std@@@__Cr@std@@QEAAXXZ
    ?clear@?$__split_buffer@PEAUPrefixCrc@CrcCordState@crc_internal@absl@@V?$allocator@PEAUPrefixCrc@CrcCordState@crc_internal@absl@@@__Cr@std@@@__Cr@std@@QEAAXXZ
    ?clear@?$__split_buffer@PEAVCordzHandle@cord_internal@absl@@AEAV?$allocator@PEAVCordzHandle@cord_internal@absl@@@__Cr@std@@@__Cr@std@@QEAAXXZ
    ?clear@?$__split_buffer@PEAVLogSink@absl@@AEAV?$allocator@PEAVLogSink@absl@@@__Cr@std@@@__Cr@std@@QEAAXXZ
    ?clear@?$__split_buffer@PEBVCordzHandle@cord_internal@absl@@AEAV?$allocator@PEBVCordzHandle@cord_internal@absl@@@__Cr@std@@@__Cr@std@@QEAAXXZ
    ?clear@?$__split_buffer@UConversionItem@ParsedFormatBase@str_format_internal@absl@@AEAV?$allocator@UConversionItem@ParsedFormatBase@str_format_internal@absl@@@__Cr@std@@@__Cr@std@@QEAAXXZ
    ?clear@?$__split_buffer@UTransition@cctz@time_internal@absl@@AEAV?$allocator@UTransition@cctz@time_internal@absl@@@__Cr@std@@@__Cr@std@@QEAAXXZ
    ?clear@?$__split_buffer@UTransitionType@cctz@time_internal@absl@@AEAV?$allocator@UTransitionType@cctz@time_internal@absl@@@__Cr@std@@@__Cr@std@@QEAAXXZ
    ?clear@?$__split_buffer@UViableSubstitution@strings_internal@absl@@AEAV?$allocator@UViableSubstitution@strings_internal@absl@@@__Cr@std@@@__Cr@std@@QEAAXXZ
    ?cycle_clock_source_@CycleClock@base_internal@absl@@0U?$atomic@P6A_JXZ@__Cr@std@@A
    ?day_difference@impl@detail@cctz@time_internal@absl@@YA_J_JCC0CC@Z
    ?description@time_zone@cctz@time_internal@absl@@QEBA?AV?$basic_string@DU?$char_traits@D@__Cr@std@@V?$allocator@D@23@@__Cr@std@@XZ
    ?difference@detail@cctz@time_internal@absl@@YA_JUminute_tag@1234@Ufields@1234@1@Z
    ?effective_impl@time_zone@cctz@time_internal@absl@@AEBAAEBVImpl@1234@XZ
    ?engines@?1??CrcAndCopy@CrcMemcpy@crc_internal@absl@@SA?AVcrc32c_t@4@PEIAXPEIBX_KV54@_N@Z@4UArchSpecificEngines@234@B
    ?erase@?$InlinedVector@UPayload@status_internal@absl@@$00V?$allocator@UPayload@status_internal@absl@@@__Cr@std@@@absl@@QEAAPEAUPayload@status_internal@2@PEBU342@@Z
    ?find_first_non_full_outofline@container_internal@absl@@YA?AUFindInfo@12@AEBVCommonFields@12@_K@Z
    ?fixed_time_zone@cctz@time_internal@absl@@YA?AVtime_zone@123@AEBV?$duration@_JV?$ratio@$00$00@__Cr@std@@@chrono@__Cr@std@@@Z
    ?format@detail@cctz@time_internal@absl@@YA?AV?$basic_string@DU?$char_traits@D@__Cr@std@@V?$allocator@D@23@@__Cr@std@@AEBV567@AEBV?$time_point@Vsystem_clock@chrono@__Cr@std@@V?$duration@_JV?$ratio@$00$00@__Cr@std@@@234@@chrono@67@AEBV?$duration@_JV?$ratio@$00$0DINHOKEMGIAAA@@__Cr@std@@@967@AEBVtime_zone@234@@Z
    ?from_chars@absl@@YA?AUfrom_chars_result@1@PEBD0AEAMW4chars_format@1@@Z
    ?from_chars@absl@@YA?AUfrom_chars_result@1@PEBD0AEANW4chars_format@1@@Z
    ?get_cordz_mean_interval@cord_internal@absl@@YAHXZ
    ?get_weekday@detail@cctz@time_internal@absl@@YA?AW4weekday@1234@AEBV?$civil_time@Usecond_tag@detail@cctz@time_internal@absl@@@1234@@Z
    ?load_time_zone@cctz@time_internal@absl@@YA_NAEBV?$basic_string@DU?$char_traits@D@__Cr@std@@V?$allocator@D@23@@__Cr@std@@PEAVtime_zone@123@@Z
    ?local_time_zone@cctz@time_internal@absl@@YA?AVtime_zone@123@XZ
    ?lookup@time_zone@cctz@time_internal@absl@@QEBA?AUabsolute_lookup@1234@AEBV?$time_point@Vsystem_clock@chrono@__Cr@std@@V?$duration@_JV?$ratio@$00$00@__Cr@std@@@234@@chrono@__Cr@std@@@Z
    ?lookup@time_zone@cctz@time_internal@absl@@QEBA?AUcivil_lookup@1234@AEBV?$civil_time@Usecond_tag@detail@cctz@time_internal@absl@@@detail@234@@Z
    ?max@?$RandenPool@E@random_internal@absl@@SAEXZ
    ?max@?$RandenPool@G@random_internal@absl@@SAGXZ
    ?max@?$RandenPool@I@random_internal@absl@@SAIXZ
    ?max@?$RandenPool@_K@random_internal@absl@@SA_KXZ
    ?max@?$civil_time@Usecond_tag@detail@cctz@time_internal@absl@@@detail@cctz@time_internal@absl@@SA?AV12345@XZ
    ?memcasecmp@strings_internal@absl@@YAHPEBD0_K@Z
    ?min@?$RandenPool@E@random_internal@absl@@SAEXZ
    ?min@?$RandenPool@G@random_internal@absl@@SAGXZ
    ?min@?$RandenPool@I@random_internal@absl@@SAIXZ
    ?min@?$RandenPool@_K@random_internal@absl@@SA_KXZ
    ?mutable_rep@CrcCordState@crc_internal@absl@@QEAAPEAURep@123@XZ
    ?n_day@impl@detail@cctz@time_internal@absl@@YA?AUfields@2345@_JC00CCC@Z
    ?n_hour@impl@detail@cctz@time_internal@absl@@YA?AUfields@2345@_J0000CC@Z
    ?n_sec@impl@detail@cctz@time_internal@absl@@YA?AUfields@2345@_J00000@Z
    ?name@time_zone@cctz@time_internal@absl@@QEBA?AV?$basic_string@DU?$char_traits@D@__Cr@std@@V?$allocator@D@23@@__Cr@std@@XZ
    ?next_transition@time_zone@cctz@time_internal@absl@@QEBA_NAEBV?$time_point@Vsystem_clock@chrono@__Cr@std@@V?$duration@_JV?$ratio@$00$00@__Cr@std@@@234@@chrono@__Cr@std@@PEAUcivil_transition@1234@@Z
    ?next_weekday@detail@cctz@time_internal@absl@@YA?AV?$civil_time@Uday_tag@detail@cctz@time_internal@absl@@@1234@V51234@W4weekday@1234@@Z
    ?overflow@Streambuf@OStringStream@strings_internal@absl@@MEAAHH@Z
    ?parse@detail@cctz@time_internal@absl@@YA_NAEBV?$basic_string@DU?$char_traits@D@__Cr@std@@V?$allocator@D@23@@__Cr@std@@0AEBVtime_zone@234@PEAV?$time_point@Vsystem_clock@chrono@__Cr@std@@V?$duration@_JV?$ratio@$00$00@__Cr@std@@@234@@chrono@67@PEAV?$duration@_JV?$ratio@$00$0DINHOKEMGIAAA@@__Cr@std@@@chrono@67@PEAV567@@Z
    ?prev_transition@time_zone@cctz@time_internal@absl@@QEBA_NAEBV?$time_point@Vsystem_clock@chrono@__Cr@std@@V?$duration@_JV?$ratio@$00$00@__Cr@std@@@234@@chrono@__Cr@std@@PEAUcivil_transition@1234@@Z
    ?prev_weekday@detail@cctz@time_internal@absl@@YA?AV?$civil_time@Uday_tag@detail@cctz@time_internal@absl@@@1234@V51234@W4weekday@1234@@Z
    ?push_back@?$__split_buffer@PEAPEBVImpl@time_zone@cctz@time_internal@absl@@AEAV?$allocator@PEAPEBVImpl@time_zone@cctz@time_internal@absl@@@__Cr@std@@@__Cr@std@@QEAAX$$QEAPEAPEBVImpl@time_zone@cctz@time_internal@absl@@@Z
    ?push_back@?$__split_buffer@PEAPEBVImpl@time_zone@cctz@time_internal@absl@@V?$allocator@PEAPEBVImpl@time_zone@cctz@time_internal@absl@@@__Cr@std@@@__Cr@std@@QEAAX$$QEAPEAPEBVImpl@time_zone@cctz@time_internal@absl@@@Z
    ?push_back@?$__split_buffer@PEAPEBVImpl@time_zone@cctz@time_internal@absl@@V?$allocator@PEAPEBVImpl@time_zone@cctz@time_internal@absl@@@__Cr@std@@@__Cr@std@@QEAAXAEBQEAPEBVImpl@time_zone@cctz@time_internal@absl@@@Z
    ?push_back@?$__split_buffer@PEAUPrefixCrc@CrcCordState@crc_internal@absl@@AEAV?$allocator@PEAUPrefixCrc@CrcCordState@crc_internal@absl@@@__Cr@std@@@__Cr@std@@QEAAX$$QEAPEAUPrefixCrc@CrcCordState@crc_internal@absl@@@Z
    ?push_back@?$__split_buffer@PEAUPrefixCrc@CrcCordState@crc_internal@absl@@V?$allocator@PEAUPrefixCrc@CrcCordState@crc_internal@absl@@@__Cr@std@@@__Cr@std@@QEAAX$$QEAPEAUPrefixCrc@CrcCordState@crc_internal@absl@@@Z
    ?push_back@?$__split_buffer@PEAUPrefixCrc@CrcCordState@crc_internal@absl@@V?$allocator@PEAUPrefixCrc@CrcCordState@crc_internal@absl@@@__Cr@std@@@__Cr@std@@QEAAXAEBQEAUPrefixCrc@CrcCordState@crc_internal@absl@@@Z
    ?push_back@?$deque@PEBVImpl@time_zone@cctz@time_internal@absl@@V?$allocator@PEBVImpl@time_zone@cctz@time_internal@absl@@@__Cr@std@@@__Cr@std@@QEAAXAEBQEBVImpl@time_zone@cctz@time_internal@absl@@@Z
    ?push_back@?$deque@UPrefixCrc@CrcCordState@crc_internal@absl@@V?$allocator@UPrefixCrc@CrcCordState@crc_internal@absl@@@__Cr@std@@@__Cr@std@@QEAAX$$QEAUPrefixCrc@CrcCordState@crc_internal@absl@@@Z
    ?push_back@?$vector@UConversionItem@ParsedFormatBase@str_format_internal@absl@@V?$allocator@UConversionItem@ParsedFormatBase@str_format_internal@absl@@@__Cr@std@@@__Cr@std@@QEAAX$$QEAUConversionItem@ParsedFormatBase@str_format_internal@absl@@@Z
    ?push_front@?$__split_buffer@PEAPEBVImpl@time_zone@cctz@time_internal@absl@@AEAV?$allocator@PEAPEBVImpl@time_zone@cctz@time_internal@absl@@@__Cr@std@@@__Cr@std@@QEAAXAEBQEAPEBVImpl@time_zone@cctz@time_internal@absl@@@Z
    ?push_front@?$__split_buffer@PEAPEBVImpl@time_zone@cctz@time_internal@absl@@V?$allocator@PEAPEBVImpl@time_zone@cctz@time_internal@absl@@@__Cr@std@@@__Cr@std@@QEAAX$$QEAPEAPEBVImpl@time_zone@cctz@time_internal@absl@@@Z
    ?push_front@?$__split_buffer@PEAUPrefixCrc@CrcCordState@crc_internal@absl@@AEAV?$allocator@PEAUPrefixCrc@CrcCordState@crc_internal@absl@@@__Cr@std@@@__Cr@std@@QEAAXAEBQEAUPrefixCrc@CrcCordState@crc_internal@absl@@@Z
    ?push_front@?$__split_buffer@PEAUPrefixCrc@CrcCordState@crc_internal@absl@@V?$allocator@PEAUPrefixCrc@CrcCordState@crc_internal@absl@@@__Cr@std@@@__Cr@std@@QEAAX$$QEAPEAUPrefixCrc@CrcCordState@crc_internal@absl@@@Z
    ?reserve@?$vector@UTransition@cctz@time_internal@absl@@V?$allocator@UTransition@cctz@time_internal@absl@@@__Cr@std@@@__Cr@std@@QEAAX_K@Z
    ?reserve@?$vector@UTransitionType@cctz@time_internal@absl@@V?$allocator@UTransitionType@cctz@time_internal@absl@@@__Cr@std@@@__Cr@std@@QEAAX_K@Z
    ?reserve@?$vector@UViableSubstitution@strings_internal@absl@@V?$allocator@UViableSubstitution@strings_internal@absl@@@__Cr@std@@@__Cr@std@@QEAAX_K@Z
    ?reset@?$unique_ptr@U?$__hash_node@U?$__hash_value_type@V?$basic_string@DU?$char_traits@D@__Cr@std@@V?$allocator@D@23@@__Cr@std@@PEBVImpl@time_zone@cctz@time_internal@absl@@@__Cr@std@@PEAX@__Cr@std@@V?$__hash_node_destructor@V?$allocator@U?$__hash_node@U?$__hash_value_type@V?$basic_string@DU?$char_traits@D@__Cr@std@@V?$allocator@D@23@@__Cr@std@@PEBVImpl@time_zone@cctz@time_internal@absl@@@__Cr@std@@PEAX@__Cr@std@@@__Cr@std@@@23@@__Cr@std@@QEAAXPEAU?$__hash_node@U?$__hash_value_type@V?$basic_string@DU?$char_traits@D@__Cr@std@@V?$allocator@D@23@@__Cr@std@@PEBVImpl@time_zone@cctz@time_internal@absl@@@__Cr@std@@PEAX@23@@Z
    ?reset@?$unique_ptr@V?$InlinedVector@UPayload@status_internal@absl@@$00V?$allocator@UPayload@status_internal@absl@@@__Cr@std@@@absl@@U?$default_delete@V?$InlinedVector@UPayload@status_internal@absl@@$00V?$allocator@UPayload@status_internal@absl@@@__Cr@std@@@absl@@@__Cr@std@@@__Cr@std@@QEAAXPEAV?$InlinedVector@UPayload@status_internal@absl@@$00V?$allocator@UPayload@status_internal@absl@@@__Cr@std@@@absl@@@Z
    ?resize@?$vector@UTransition@cctz@time_internal@absl@@V?$allocator@UTransition@cctz@time_internal@absl@@@__Cr@std@@@__Cr@std@@QEAAX_K@Z
    ?resize@?$vector@UTransitionType@cctz@time_internal@absl@@V?$allocator@UTransitionType@cctz@time_internal@absl@@@__Cr@std@@@__Cr@std@@QEAAX_K@Z
    ?safe_strto128_base@numbers_internal@absl@@YA_NV?$basic_string_view@DU?$char_traits@D@__Cr@std@@@__Cr@std@@PEAVint128@2@H@Z
    ?safe_strto32_base@numbers_internal@absl@@YA_NV?$basic_string_view@DU?$char_traits@D@__Cr@std@@@__Cr@std@@PEAHH@Z
    ?safe_strto64_base@numbers_internal@absl@@YA_NV?$basic_string_view@DU?$char_traits@D@__Cr@std@@@__Cr@std@@PEA_JH@Z
    ?safe_strtou128_base@numbers_internal@absl@@YA_NV?$basic_string_view@DU?$char_traits@D@__Cr@std@@@__Cr@std@@PEAVuint128@2@H@Z
    ?safe_strtou32_base@numbers_internal@absl@@YA_NV?$basic_string_view@DU?$char_traits@D@__Cr@std@@@__Cr@std@@PEAIH@Z
    ?safe_strtou64_base@numbers_internal@absl@@YA_NV?$basic_string_view@DU?$char_traits@D@__Cr@std@@@__Cr@std@@PEA_KH@Z
    ?set_cordz_mean_interval@cord_internal@absl@@YAXH@Z
    ?set_inline_data@InlineData@cord_internal@absl@@QEAAXPEBD_K@Z
    ?shallow_subcords_enabled@cord_internal@absl@@3U?$atomic@_N@__Cr@std@@A
    ?should_rehash_for_bug_detection_on_insert@CommonFieldsGenerationInfoEnabled@container_internal@absl@@QEBA_NPEBW4ctrl_t@23@_K@Z
    ?should_rehash_for_bug_detection_on_move@CommonFieldsGenerationInfoEnabled@container_internal@absl@@QEBA_NPEBW4ctrl_t@23@_K@Z
    ?shrink_to_fit@?$vector@UTransition@cctz@time_internal@absl@@V?$allocator@UTransition@cctz@time_internal@absl@@@__Cr@std@@@__Cr@std@@QEAAXXZ
    ?size@?$BigUnsigned@$03@strings_internal@absl@@QEBAHXZ
    ?size@?$BigUnsigned@$0FE@@strings_internal@absl@@QEBAHXZ
    ?size@Cord@absl@@QEBA_KXZ
    ?status@BadStatusOrAccess@absl@@QEBAAEBVStatus@2@XZ
    ?step@detail@cctz@time_internal@absl@@YA?AUfields@1234@Usecond_tag@1234@U51234@_J@Z
    ?stream@OstreamView@LogMessage@log_internal@absl@@QEAAAEAV?$basic_ostream@DU?$char_traits@D@__Cr@std@@@__Cr@std@@XZ
    ?utc_time_zone@cctz@time_internal@absl@@YA?AVtime_zone@123@XZ
    ?version@time_zone@cctz@time_internal@absl@@QEBA?AV?$basic_string@DU?$char_traits@D@__Cr@std@@V?$allocator@D@23@@__Cr@std@@XZ
    ?what@BadStatusOrAccess@absl@@UEBAPEBDXZ
    ?what@SeedGenException@absl@@UEBAPEBDXZ
    ?what@bad_variant_access@absl@@UEBAPEBDXZ
    ?words@?$BigUnsigned@$03@strings_internal@absl@@QEBAPEBIXZ
    ?words@?$BigUnsigned@$0FE@@strings_internal@absl@@QEBAPEBIXZ
    ?xsputn@Streambuf@OStringStream@strings_internal@absl@@MEAA_JPEBD_J@Z
    ?ymd_ord@impl@detail@cctz@time_internal@absl@@YA_J_JCC@Z
    AbslInternalSpinLockDelay
    AbslInternalSpinLockWake
