EXPORTS
    ?$TSS0@?1??CrcAndCopy@CrcMemcpy@crc_internal@absl@@SA?AVcrc32c_t@4@PIAXPIBXIV54@_N@Z@4HA
    ??$?0$$CBD$0A@@VoidPtr@str_format_internal@absl@@QAE@PBD@Z
    ??$?0$$CBU?$atomic@_N@__Cr@std@@@Condition@absl@@QAE@P6A_NPBU?$atomic@_N@__Cr@std@@@Z0@Z
    ??$?0$$CBUCordRep@cord_internal@absl@@@Hex@absl@@QAE@PBUCordRep@cord_internal@1@W4PadSpec@1@@Z
    ??$?0$$CBVFormatArgImpl@str_format_internal@absl@@$$CBV012@@?$Span@$$CBVFormatArgImpl@str_format_internal@absl@@@absl@@QAE@V?$initializer_list@VFormatArgImpl@str_format_internal@absl@@@std@@@Z
    ??$?0$$CB_W$0A@@VoidPtr@str_format_internal@absl@@QAE@PB_W@Z
    ??$?0$$QAV?$basic_string@DU?$char_traits@D@__Cr@std@@V?$allocator@D@23@@__Cr@std@@$$Z$$V$$Z$0A@$$Z$S@?$pair@$$CBV?$basic_string@DU?$char_traits@D@__Cr@std@@V?$allocator@D@23@@__Cr@std@@V?$map@V?$basic_string@DU?$char_traits@D@__Cr@std@@V?$allocator@D@23@@__Cr@std@@V?$vector@PBVCommandLineFlag@absl@@V?$allocator@PBVCommandLineFlag@absl@@@__Cr@std@@@23@U?$less@V?$basic_string@DU?$char_traits@D@__Cr@std@@V?$allocator@D@23@@__Cr@std@@@23@V?$allocator@U?$pair@$$CBV?$basic_string@DU?$char_traits@D@__Cr@std@@V?$allocator@D@23@@__Cr@std@@V?$vector@PBVCommandLineFlag@absl@@V?$allocator@PBVCommandLineFlag@absl@@@__Cr@std@@@23@@__Cr@std@@@23@@23@@__Cr@std@@AAE@Upiecewise_construct_t@12@AAV?$tuple@$$QAV?$basic_string@DU?$char_traits@D@__Cr@std@@V?$allocator@D@23@@__Cr@std@@@12@AAV?$tuple@$$V@12@U?$__tuple_indices@$0A@@12@U?$__tuple_indices@$S@12@@Z
    ??$?0$$QAV?$basic_string@DU?$char_traits@D@__Cr@std@@V?$allocator@D@23@@__Cr@std@@$$Z$$V@?$pair@$$CBV?$basic_string@DU?$char_traits@D@__Cr@std@@V?$allocator@D@23@@__Cr@std@@V?$map@V?$basic_string@DU?$char_traits@D@__Cr@std@@V?$allocator@D@23@@__Cr@std@@V?$vector@PBVCommandLineFlag@absl@@V?$allocator@PBVCommandLineFlag@absl@@@__Cr@std@@@23@U?$less@V?$basic_string@DU?$char_traits@D@__Cr@std@@V?$allocator@D@23@@__Cr@std@@@23@V?$allocator@U?$pair@$$CBV?$basic_string@DU?$char_traits@D@__Cr@std@@V?$allocator@D@23@@__Cr@std@@V?$vector@PBVCommandLineFlag@absl@@V?$allocator@PBVCommandLineFlag@absl@@@__Cr@std@@@23@@__Cr@std@@@23@@23@@__Cr@std@@QAE@Upiecewise_construct_t@12@V?$tuple@$$QAV?$basic_string@DU?$char_traits@D@__Cr@std@@V?$allocator@D@23@@__Cr@std@@@12@V?$tuple@$$V@12@@Z
    ??$?0$$QAV?$basic_string_view@DU?$char_traits@D@__Cr@std@@@__Cr@std@@$$Z$$QAPAVCommandLineFlag@absl@@$$Z$0A@$$Z$0A@@?$pair@V?$basic_string_view@DU?$char_traits@D@__Cr@std@@@__Cr@std@@PAVCommandLineFlag@absl@@@__Cr@std@@AAE@Upiecewise_construct_t@12@AAV?$tuple@$$QAV?$basic_string_view@DU?$char_traits@D@__Cr@std@@@__Cr@std@@@12@AAV?$tuple@$$QAPAVCommandLineFlag@absl@@@12@U?$__tuple_indices@$0A@@12@3@Z
    ??$?0$$QAV?$basic_string_view@DU?$char_traits@D@__Cr@std@@@__Cr@std@@$$Z$$QAPAVCommandLineFlag@absl@@$$Z$0A@$$Z$0A@@?$pair@V?$tuple@$$QAV?$basic_string_view@DU?$char_traits@D@__Cr@std@@@__Cr@std@@@__Cr@std@@V?$tuple@$$QAPAVCommandLineFlag@absl@@@23@@__Cr@std@@AAE@Upiecewise_construct_t@12@AAV?$tuple@$$QAV?$basic_string_view@DU?$char_traits@D@__Cr@std@@@__Cr@std@@@12@AAV?$tuple@$$QAPAVCommandLineFlag@absl@@@12@U?$__tuple_indices@$0A@@12@3@Z
    ??$?0$$QAV?$basic_string_view@DU?$char_traits@D@__Cr@std@@@__Cr@std@@$$Z$$QAPAVCommandLineFlag@absl@@@?$pair@V?$basic_string_view@DU?$char_traits@D@__Cr@std@@@__Cr@std@@PAVCommandLineFlag@absl@@@__Cr@std@@QAE@Upiecewise_construct_t@12@V?$tuple@$$QAV?$basic_string_view@DU?$char_traits@D@__Cr@std@@@__Cr@std@@@12@V?$tuple@$$QAPAVCommandLineFlag@absl@@@12@@Z
    ??$?0$$QAV?$basic_string_view@DU?$char_traits@D@__Cr@std@@@__Cr@std@@$$Z$$QAPAVCommandLineFlag@absl@@@?$pair@V?$tuple@$$QAV?$basic_string_view@DU?$char_traits@D@__Cr@std@@@__Cr@std@@@__Cr@std@@V?$tuple@$$QAPAVCommandLineFlag@absl@@@23@@__Cr@std@@QAE@Upiecewise_construct_t@12@V?$tuple@$$QAV?$basic_string_view@DU?$char_traits@D@__Cr@std@@@__Cr@std@@@12@V?$tuple@$$QAPAVCommandLineFlag@absl@@@12@@Z
    ??$?0$$QBV?$basic_string_view@DU?$char_traits@D@__Cr@std@@@__Cr@std@@$$Z$$QAPAVCommandLineFlag@absl@@$$Z$0A@$$Z$0A@@?$pair@V?$basic_string_view@DU?$char_traits@D@__Cr@std@@@__Cr@std@@PAVCommandLineFlag@absl@@@__Cr@std@@AAE@Upiecewise_construct_t@12@AAV?$tuple@$$QBV?$basic_string_view@DU?$char_traits@D@__Cr@std@@@__Cr@std@@@12@AAV?$tuple@$$QAPAVCommandLineFlag@absl@@@12@U?$__tuple_indices@$0A@@12@3@Z
    ??$?0$$QBV?$basic_string_view@DU?$char_traits@D@__Cr@std@@@__Cr@std@@$$Z$$QAPAVCommandLineFlag@absl@@$$Z$0A@$$Z$0A@@?$pair@V?$tuple@$$QBV?$basic_string_view@DU?$char_traits@D@__Cr@std@@@__Cr@std@@@__Cr@std@@V?$tuple@$$QAPAVCommandLineFlag@absl@@@23@@__Cr@std@@AAE@Upiecewise_construct_t@12@AAV?$tuple@$$QBV?$basic_string_view@DU?$char_traits@D@__Cr@std@@@__Cr@std@@@12@AAV?$tuple@$$QAPAVCommandLineFlag@absl@@@12@U?$__tuple_indices@$0A@@12@3@Z
    ??$?0$$QBV?$basic_string_view@DU?$char_traits@D@__Cr@std@@@__Cr@std@@$$Z$$QAPAVCommandLineFlag@absl@@@?$pair@V?$basic_string_view@DU?$char_traits@D@__Cr@std@@@__Cr@std@@PAVCommandLineFlag@absl@@@__Cr@std@@QAE@Upiecewise_construct_t@12@V?$tuple@$$QBV?$basic_string_view@DU?$char_traits@D@__Cr@std@@@__Cr@std@@@12@V?$tuple@$$QAPAVCommandLineFlag@absl@@@12@@Z
    ??$?0$$QBV?$basic_string_view@DU?$char_traits@D@__Cr@std@@@__Cr@std@@$$Z$$QAPAVCommandLineFlag@absl@@@?$pair@V?$tuple@$$QBV?$basic_string_view@DU?$char_traits@D@__Cr@std@@@__Cr@std@@@__Cr@std@@V?$tuple@$$QAPAVCommandLineFlag@absl@@@23@@__Cr@std@@QAE@Upiecewise_construct_t@12@V?$tuple@$$QBV?$basic_string_view@DU?$char_traits@D@__Cr@std@@@__Cr@std@@@12@V?$tuple@$$QAPAVCommandLineFlag@absl@@@12@@Z
    ??$?0$$T@?$Storage@PAPAUCordRep@cord_internal@absl@@$00$0A@@internal_compressed_tuple@container_internal@absl@@QAE@Uin_place_t@__Cr@std@@$$QA$$T@Z
    ??$?0$$T@?$Storage@PAPAVLogSink@absl@@$00$0A@@internal_compressed_tuple@container_internal@absl@@QAE@Uin_place_t@__Cr@std@@$$QA$$T@Z
    ??$?0$$T@?$Storage@PAUPayload@status_internal@absl@@$00$0A@@internal_compressed_tuple@container_internal@absl@@QAE@Uin_place_t@__Cr@std@@$$QA$$T@Z
    ??$?0$$V$0A@@?$NoDestructor@URefcountedRep@CrcCordState@crc_internal@absl@@@absl@@QAE@XZ
    ??$?0$$V$0A@@?$NoDestructor@V?$SampleRecorder@UHashtablezInfo@container_internal@absl@@@profiling_internal@absl@@@absl@@QAE@XZ
    ??$?0$$V$0A@@?$NoDestructor@V?$basic_string@DU?$char_traits@D@__Cr@std@@V?$allocator@D@23@@__Cr@std@@@absl@@QAE@XZ
    ??$?0$$V$0A@@?$NoDestructor@VFlagRegistry@flags_internal@absl@@@absl@@QAE@XZ
    ??$?0$$V$0A@@?$NoDestructor@VMutex@absl@@@absl@@QAE@XZ
    ??$?0$$V@?$__temp_value@UTransition@cctz@time_internal@absl@@V?$allocator@UTransition@cctz@time_internal@absl@@@__Cr@std@@@__Cr@std@@QAE@AAV?$allocator@UTransition@cctz@time_internal@absl@@@12@@Z
    ??$?0$$V@?$__temp_value@UTransitionType@cctz@time_internal@absl@@V?$allocator@UTransitionType@cctz@time_internal@absl@@@__Cr@std@@@__Cr@std@@QAE@AAV?$allocator@UTransitionType@cctz@time_internal@absl@@@12@@Z
    ??$?0$$V@PlacementImpl@?$NoDestructor@URefcountedRep@CrcCordState@crc_internal@absl@@@absl@@QAE@XZ
    ??$?0$$V@PlacementImpl@?$NoDestructor@V?$SampleRecorder@UHashtablezInfo@container_internal@absl@@@profiling_internal@absl@@@absl@@QAE@XZ
    ??$?0$$V@PlacementImpl@?$NoDestructor@V?$basic_string@DU?$char_traits@D@__Cr@std@@V?$allocator@D@23@@__Cr@std@@@absl@@QAE@XZ
    ??$?0$$V@PlacementImpl@?$NoDestructor@VFlagRegistry@flags_internal@absl@@@absl@@QAE@XZ
    ??$?0$$V@PlacementImpl@?$NoDestructor@VMutex@absl@@@absl@@QAE@XZ
    ??$?0$$Y_And@__Cr@std@@$0A@@?$tuple@AAPAVCommandLineFlag@absl@@AA_N@__Cr@std@@QAE@AAPAVCommandLineFlag@absl@@AA_N@Z
    ??$?0$$Y_And@__Cr@std@@$0A@@?$tuple@ABQAVCommandLineFlag@absl@@@__Cr@std@@QAE@ABQAVCommandLineFlag@absl@@@Z
    ??$?0$00X@?$unique_ptr@$$BY0A@PAU?$__hash_node_base@PAU?$__hash_node@PBUCordRep@cord_internal@absl@@PAX@__Cr@std@@@__Cr@std@@V?$__bucket_list_deallocator@V?$allocator@PAU?$__hash_node_base@PAU?$__hash_node@PBUCordRep@cord_internal@absl@@PAX@__Cr@std@@@__Cr@std@@@__Cr@std@@@23@@__Cr@std@@QAE@XZ
    ??$?0$00X@?$unique_ptr@$$BY0A@PAU?$__hash_node_base@PAU?$__hash_node@U?$__hash_value_type@V?$basic_string@DU?$char_traits@D@__Cr@std@@V?$allocator@D@23@@__Cr@std@@PBVImpl@time_zone@cctz@time_internal@absl@@@__Cr@std@@PAX@__Cr@std@@@__Cr@std@@V?$__bucket_list_deallocator@V?$allocator@PAU?$__hash_node_base@PAU?$__hash_node@U?$__hash_value_type@V?$basic_string@DU?$char_traits@D@__Cr@std@@V?$allocator@D@23@@__Cr@std@@PBVImpl@time_zone@cctz@time_internal@absl@@@__Cr@std@@PAX@__Cr@std@@@__Cr@std@@@__Cr@std@@@23@@__Cr@std@@QAE@XZ
    ??$?0$00X@?$unique_ptr@$$CBVImpl@time_zone@cctz@time_internal@absl@@U?$default_delete@$$CBVImpl@time_zone@cctz@time_internal@absl@@@__Cr@std@@@__Cr@std@@QAE@PBVImpl@time_zone@cctz@time_internal@absl@@@Z
    ??$?0$00X@?$unique_ptr@PAPBVImpl@time_zone@cctz@time_internal@absl@@V?$__allocator_destructor@V?$allocator@PBVImpl@time_zone@cctz@time_internal@absl@@@__Cr@std@@@__Cr@std@@@__Cr@std@@QAE@PAPBVImpl@time_zone@cctz@time_internal@absl@@$$QAV?$__allocator_destructor@V?$allocator@PBVImpl@time_zone@cctz@time_internal@absl@@@__Cr@std@@@12@@Z
    ??$?0$00X@?$unique_ptr@PAUPrefixCrc@CrcCordState@crc_internal@absl@@V?$__allocator_destructor@V?$allocator@UPrefixCrc@CrcCordState@crc_internal@absl@@@__Cr@std@@@__Cr@std@@@__Cr@std@@QAE@PAUPrefixCrc@CrcCordState@crc_internal@absl@@$$QAV?$__allocator_destructor@V?$allocator@UPrefixCrc@CrcCordState@crc_internal@absl@@@__Cr@std@@@12@@Z
    ??$?0$00X@?$unique_ptr@U?$__hash_node@PBUCordRep@cord_internal@absl@@PAX@__Cr@std@@V?$__hash_node_destructor@V?$allocator@U?$__hash_node@PBUCordRep@cord_internal@absl@@PAX@__Cr@std@@@__Cr@std@@@23@@__Cr@std@@QAE@PAU?$__hash_node@PBUCordRep@cord_internal@absl@@PAX@12@$$QAV?$__hash_node_destructor@V?$allocator@U?$__hash_node@PBUCordRep@cord_internal@absl@@PAX@__Cr@std@@@__Cr@std@@@12@@Z
    ??$?0$00X@?$unique_ptr@U?$__hash_node@U?$__hash_value_type@V?$basic_string@DU?$char_traits@D@__Cr@std@@V?$allocator@D@23@@__Cr@std@@PBVImpl@time_zone@cctz@time_internal@absl@@@__Cr@std@@PAX@__Cr@std@@V?$__hash_node_destructor@V?$allocator@U?$__hash_node@U?$__hash_value_type@V?$basic_string@DU?$char_traits@D@__Cr@std@@V?$allocator@D@23@@__Cr@std@@PBVImpl@time_zone@cctz@time_internal@absl@@@__Cr@std@@PAX@__Cr@std@@@__Cr@std@@@23@@__Cr@std@@QAE@PAU?$__hash_node@U?$__hash_value_type@V?$basic_string@DU?$char_traits@D@__Cr@std@@V?$allocator@D@23@@__Cr@std@@PBVImpl@time_zone@cctz@time_internal@absl@@@__Cr@std@@PAX@12@$$QAV?$__hash_node_destructor@V?$allocator@U?$__hash_node@U?$__hash_value_type@V?$basic_string@DU?$char_traits@D@__Cr@std@@V?$allocator@D@23@@__Cr@std@@PBVImpl@time_zone@cctz@time_internal@absl@@@__Cr@std@@PAX@__Cr@std@@@__Cr@std@@@12@@Z
    ??$?0$00X@?$unique_ptr@ULogMessageData@LogMessage@log_internal@absl@@U?$default_delete@ULogMessageData@LogMessage@log_internal@absl@@@__Cr@std@@@__Cr@std@@QAE@PAULogMessageData@LogMessage@log_internal@absl@@@Z
    ??$?0$00X@?$unique_ptr@UThreadIdentity@base_internal@absl@@P6AXPAX@Z@__Cr@std@@QAE@PAUThreadIdentity@base_internal@absl@@ABQ6AXPAX@Z@Z
    ??$?0$00X@?$unique_ptr@V?$InlinedVector@UPayload@status_internal@absl@@$00V?$allocator@UPayload@status_internal@absl@@@__Cr@std@@@absl@@U?$default_delete@V?$InlinedVector@UPayload@status_internal@absl@@$00V?$allocator@UPayload@status_internal@absl@@@__Cr@std@@@absl@@@__Cr@std@@@__Cr@std@@QAE@$$T@Z
    ??$?0$00X@?$unique_ptr@V?$InlinedVector@UPayload@status_internal@absl@@$00V?$allocator@UPayload@status_internal@absl@@@__Cr@std@@@absl@@U?$default_delete@V?$InlinedVector@UPayload@status_internal@absl@@$00V?$allocator@UPayload@status_internal@absl@@@__Cr@std@@@absl@@@__Cr@std@@@__Cr@std@@QAE@PAV?$InlinedVector@UPayload@status_internal@absl@@$00V?$allocator@UPayload@status_internal@absl@@@__Cr@std@@@absl@@@Z
    ??$?0$00X@?$unique_ptr@V?$InlinedVector@UPayload@status_internal@absl@@$00V?$allocator@UPayload@status_internal@absl@@@__Cr@std@@@absl@@U?$default_delete@V?$InlinedVector@UPayload@status_internal@absl@@$00V?$allocator@UPayload@status_internal@absl@@@__Cr@std@@@absl@@@__Cr@std@@@__Cr@std@@QAE@XZ
    ??$?0$00X@?$unique_ptr@V?$__tree_node@U?$__value_type@V?$basic_string@DU?$char_traits@D@__Cr@std@@V?$allocator@D@23@@__Cr@std@@V?$map@V?$basic_string@DU?$char_traits@D@__Cr@std@@V?$allocator@D@23@@__Cr@std@@V?$vector@PBVCommandLineFlag@absl@@V?$allocator@PBVCommandLineFlag@absl@@@__Cr@std@@@23@U?$less@V?$basic_string@DU?$char_traits@D@__Cr@std@@V?$allocator@D@23@@__Cr@std@@@23@V?$allocator@U?$pair@$$CBV?$basic_string@DU?$char_traits@D@__Cr@std@@V?$allocator@D@23@@__Cr@std@@V?$vector@PBVCommandLineFlag@absl@@V?$allocator@PBVCommandLineFlag@absl@@@__Cr@std@@@23@@__Cr@std@@@23@@23@@__Cr@std@@PAX@__Cr@std@@V?$__tree_node_destructor@V?$allocator@V?$__tree_node@U?$__value_type@V?$basic_string@DU?$char_traits@D@__Cr@std@@V?$allocator@D@23@@__Cr@std@@V?$map@V?$basic_string@DU?$char_traits@D@__Cr@std@@V?$allocator@D@23@@__Cr@std@@V?$vector@PBVCommandLineFlag@absl@@V?$allocator@PBVCommandLineFlag@absl@@@__Cr@std@@@23@U?$less@V?$basic_string@DU?$char_traits@D@__Cr@std@@V?$allocator@D@23@@__Cr@std@@@23@V?$allocator@U?$pair@$$CBV?$basic_string@DU?$char_traits@D@__Cr@std@@V?$allocator@D@23@@__Cr@std@@V?$vector@PBVCommandLineFlag@absl@@V?$allocator@PBVCommandLineFlag@absl@@@__Cr@std@@@23@@__Cr@std@@@23@@23@@__Cr@std@@PAX@__Cr@std@@@__Cr@std@@@23@@__Cr@std@@QAE@PAV?$__tree_node@U?$__value_type@V?$basic_string@DU?$char_traits@D@__Cr@std@@V?$allocator@D@23@@__Cr@std@@V?$map@V?$basic_string@DU?$char_traits@D@__Cr@std@@V?$allocator@D@23@@__Cr@std@@V?$vector@PBVCommandLineFlag@absl@@V?$allocator@PBVCommandLineFlag@absl@@@__Cr@std@@@23@U?$less@V?$basic_string@DU?$char_traits@D@__Cr@std@@V?$allocator@D@23@@__Cr@std@@@23@V?$allocator@U?$pair@$$CBV?$basic_string@DU?$char_traits@D@__Cr@std@@V?$allocator@D@23@@__Cr@std@@V?$vector@PBVCommandLineFlag@absl@@V?$allocator@PBVCommandLineFlag@absl@@@__Cr@std@@@23@@__Cr@std@@@23@@23@@__Cr@std@@PAX@12@$$QAV?$__tree_node_destructor@V?$allocator@V?$__tree_node@U?$__value_type@V?$basic_string@DU?$char_traits@D@__Cr@std@@V?$allocator@D@23@@__Cr@std@@V?$map@V?$basic_string@DU?$char_traits@D@__Cr@std@@V?$allocator@D@23@@__Cr@std@@V?$vector@PBVCommandLineFlag@absl@@V?$allocator@PBVCommandLineFlag@absl@@@__Cr@std@@@23@U?$less@V?$basic_string@DU?$char_traits@D@__Cr@std@@V?$allocator@D@23@@__Cr@std@@@23@V?$allocator@U?$pair@$$CBV?$basic_string@DU?$char_traits@D@__Cr@std@@V?$allocator@D@23@@__Cr@std@@V?$vector@PBVCommandLineFlag@absl@@V?$allocator@PBVCommandLineFlag@absl@@@__Cr@std@@@23@@__Cr@std@@@23@@23@@__Cr@std@@PAX@__Cr@std@@@__Cr@std@@@12@@Z
    ??$?0$00X@?$unique_ptr@V?$__tree_node@U?$__value_type@V?$basic_string@DU?$char_traits@D@__Cr@std@@V?$allocator@D@23@@__Cr@std@@V?$vector@PBVCommandLineFlag@absl@@V?$allocator@PBVCommandLineFlag@absl@@@__Cr@std@@@23@@__Cr@std@@PAX@__Cr@std@@V?$__tree_node_destructor@V?$allocator@V?$__tree_node@U?$__value_type@V?$basic_string@DU?$char_traits@D@__Cr@std@@V?$allocator@D@23@@__Cr@std@@V?$vector@PBVCommandLineFlag@absl@@V?$allocator@PBVCommandLineFlag@absl@@@__Cr@std@@@23@@__Cr@std@@PAX@__Cr@std@@@__Cr@std@@@23@@__Cr@std@@QAE@PAV?$__tree_node@U?$__value_type@V?$basic_string@DU?$char_traits@D@__Cr@std@@V?$allocator@D@23@@__Cr@std@@V?$vector@PBVCommandLineFlag@absl@@V?$allocator@PBVCommandLineFlag@absl@@@__Cr@std@@@23@@__Cr@std@@PAX@12@$$QAV?$__tree_node_destructor@V?$allocator@V?$__tree_node@U?$__value_type@V?$basic_string@DU?$char_traits@D@__Cr@std@@V?$allocator@D@23@@__Cr@std@@V?$vector@PBVCommandLineFlag@absl@@V?$allocator@PBVCommandLineFlag@absl@@@__Cr@std@@@23@@__Cr@std@@PAX@__Cr@std@@@__Cr@std@@@12@@Z
    ??$?0$00X@?$unique_ptr@VFallbackCrcMemcpyEngine@crc_internal@absl@@U?$default_delete@VFallbackCrcMemcpyEngine@crc_internal@absl@@@__Cr@std@@@__Cr@std@@QAE@PAVFallbackCrcMemcpyEngine@crc_internal@absl@@@Z
    ??$?0$00X@?$unique_ptr@VFlagState@flags_internal@absl@@U?$default_delete@VFlagState@flags_internal@absl@@@__Cr@std@@@__Cr@std@@QAE@PAVFlagState@flags_internal@absl@@@Z
    ??$?0$00X@?$unique_ptr@VFlagStateInterface@flags_internal@absl@@U?$default_delete@VFlagStateInterface@flags_internal@absl@@@__Cr@std@@@__Cr@std@@QAE@$$T@Z
    ??$?0$00X@?$unique_ptr@VTimeZoneInfo@cctz@time_internal@absl@@U?$default_delete@VTimeZoneInfo@cctz@time_internal@absl@@@__Cr@std@@@__Cr@std@@QAE@PAVTimeZoneInfo@cctz@time_internal@absl@@@Z
    ??$?0$00X@?$unique_ptr@VTimeZoneLibC@cctz@time_internal@absl@@U?$default_delete@VTimeZoneLibC@cctz@time_internal@absl@@@__Cr@std@@@__Cr@std@@QAE@PAVTimeZoneLibC@cctz@time_internal@absl@@@Z
    ??$?0$00X@?$unique_ptr@VZoneInfoSource@cctz@time_internal@absl@@U?$default_delete@VZoneInfoSource@cctz@time_internal@absl@@@__Cr@std@@@__Cr@std@@QAE@$$T@Z
    ??$?0$00X@?$unique_ptr@VZoneInfoSource@cctz@time_internal@absl@@U?$default_delete@VZoneInfoSource@cctz@time_internal@absl@@@__Cr@std@@@__Cr@std@@QAE@PAVZoneInfoSource@cctz@time_internal@absl@@@Z
    ??$?0$00X@?$unique_ptr@XUDynValueDeleter@flags_internal@absl@@@__Cr@std@@QAE@$$T@Z
    ??$?0$00X@?$unique_ptr@XUDynValueDeleter@flags_internal@absl@@@__Cr@std@@QAE@PAX$$QAUDynValueDeleter@flags_internal@absl@@@Z
    ??$?0$0A@$$Z$$QAPAVCommandLineFlag@absl@@$$Z$S$$Z$$V$$ZPAV01@@?$__tuple_impl@U?$__tuple_indices@$0A@@__Cr@std@@$$QAPAVCommandLineFlag@absl@@@__Cr@std@@QAE@U?$__tuple_indices@$0A@@12@U?$__tuple_types@$$QAPAVCommandLineFlag@absl@@@12@U?$__tuple_indices@$S@12@U?$__tuple_types@$$V@12@$$QAPAVCommandLineFlag@absl@@@Z
    ??$?0$0A@$$ZABQAVCommandLineFlag@absl@@$$Z$S$$Z$$V$$ZABQAV01@@?$__tuple_impl@U?$__tuple_indices@$0A@@__Cr@std@@ABQAVCommandLineFlag@absl@@@__Cr@std@@QAE@U?$__tuple_indices@$0A@@12@U?$__tuple_types@ABQAVCommandLineFlag@absl@@@12@U?$__tuple_indices@$S@12@U?$__tuple_types@$$V@12@ABQAVCommandLineFlag@absl@@@Z
    ??$?0$0A@$00$$ZAAPAVCommandLineFlag@absl@@AA_N$$Z$S$$Z$$V$$ZAAPAV01@AA_N@?$__tuple_impl@U?$__tuple_indices@$0A@$00@__Cr@std@@AAPAVCommandLineFlag@absl@@AA_N@__Cr@std@@QAE@U?$__tuple_indices@$0A@$00@12@U?$__tuple_types@AAPAVCommandLineFlag@absl@@AA_N@12@U?$__tuple_indices@$S@12@U?$__tuple_types@$$V@12@AAPAVCommandLineFlag@absl@@AA_N@Z
    ??$?0$0A@$00$$ZPAVCommandLineFlag@absl@@_N$$Z$S$$Z$$V$$ZAAPAV01@AA_N@?$__tuple_impl@U?$__tuple_indices@$0A@$00@__Cr@std@@PAVCommandLineFlag@absl@@_N@__Cr@std@@QAE@U?$__tuple_indices@$0A@$00@12@U?$__tuple_types@PAVCommandLineFlag@absl@@_N@12@U?$__tuple_indices@$S@12@U?$__tuple_types@$$V@12@AAPAVCommandLineFlag@absl@@AA_N@Z
    ??$?0AAI@?$Storage@I$0A@$0A@@internal_compressed_tuple@container_internal@absl@@QAE@Uin_place_t@__Cr@std@@AAI@Z
    ??$?0AAIABV?$allocator@D@__Cr@std@@$00@?$CompressedTuple@IV?$allocator@D@__Cr@std@@@container_internal@absl@@QAE@AAIABV?$allocator@D@__Cr@std@@@Z
    ??$?0AAIABV?$allocator@D@__Cr@std@@@?$CompressedTupleImpl@V?$CompressedTuple@IV?$allocator@D@__Cr@std@@@container_internal@absl@@U?$integer_sequence@I$0A@$00@__Cr@std@@$00@internal_compressed_tuple@container_internal@absl@@QAE@Uin_place_t@__Cr@std@@AAIABV?$allocator@D@56@@Z
    ??$?0AAPAPAPBVImpl@time_zone@cctz@time_internal@absl@@AAPAPAPBV01234@$0A@@?$pair@PAPAPBVImpl@time_zone@cctz@time_internal@absl@@PAPAPBV12345@@__Cr@std@@QAE@AAPAPAPBVImpl@time_zone@cctz@time_internal@absl@@0@Z
    ??$?0AAPAPAPBVImpl@time_zone@cctz@time_internal@absl@@PAPAPBV01234@$0A@@?$pair@PAPAPBVImpl@time_zone@cctz@time_internal@absl@@PAPAPBV12345@@__Cr@std@@QAE@AAPAPAPBVImpl@time_zone@cctz@time_internal@absl@@$$QAPAPAPBV34567@@Z
    ??$?0AAPAPAUPrefixCrc@CrcCordState@crc_internal@absl@@AAPAPAU0123@$0A@@?$pair@PAPAUPrefixCrc@CrcCordState@crc_internal@absl@@PAPAU1234@@__Cr@std@@QAE@AAPAPAUPrefixCrc@CrcCordState@crc_internal@absl@@0@Z
    ??$?0AAPAPAUPrefixCrc@CrcCordState@crc_internal@absl@@PAPAU0123@$0A@@?$pair@PAPAUPrefixCrc@CrcCordState@crc_internal@absl@@PAPAU1234@@__Cr@std@@QAE@AAPAPAUPrefixCrc@CrcCordState@crc_internal@absl@@$$QAPAPAU3456@@Z
    ??$?0AAPAPAVCommandLineFlag@absl@@AA_N$0A@@?$pair@PAPAVCommandLineFlag@absl@@_N@__Cr@std@@QAE@AAPAPAVCommandLineFlag@absl@@AA_N@Z
    ??$?0AAPAPAVLogSink@absl@@PAPAV01@$0A@@?$pair@PAPAVLogSink@absl@@PAPAV12@@__Cr@std@@QAE@AAPAPAVLogSink@absl@@$$QAPAPAV34@@Z
    ??$?0AAPAPBVCommandLineFlag@absl@@AA_N$0A@@?$pair@PAPBVCommandLineFlag@absl@@_N@__Cr@std@@QAE@AAPAPBVCommandLineFlag@absl@@AA_N@Z
    ??$?0AAPAUTransition@cctz@time_internal@absl@@AAPAU0123@$0A@@?$pair@PAUTransition@cctz@time_internal@absl@@PAU1234@@__Cr@std@@QAE@AAPAUTransition@cctz@time_internal@absl@@0@Z
    ??$?0AAPAUTransition@cctz@time_internal@absl@@PAU0123@$0A@@?$pair@PAUTransition@cctz@time_internal@absl@@PAU1234@@__Cr@std@@QAE@AAPAUTransition@cctz@time_internal@absl@@$$QAPAU3456@@Z
    ??$?0AAPAUTransitionType@cctz@time_internal@absl@@AAPAU0123@$0A@@?$pair@PAUTransitionType@cctz@time_internal@absl@@PAU1234@@__Cr@std@@QAE@AAPAUTransitionType@cctz@time_internal@absl@@0@Z
    ??$?0AAPAUTransitionType@cctz@time_internal@absl@@PAU0123@$0A@@?$pair@PAUTransitionType@cctz@time_internal@absl@@PAU1234@@__Cr@std@@QAE@AAPAUTransitionType@cctz@time_internal@absl@@$$QAPAU3456@@Z
    ??$?0AAPAVCommandLineFlag@absl@@$0A@@?$__tuple_leaf@$0A@AAPAVCommandLineFlag@absl@@$0A@@__Cr@std@@QAE@AAPAVCommandLineFlag@absl@@@Z
    ??$?0AAPAVCommandLineFlag@absl@@$0A@@?$__tuple_leaf@$0A@PAVCommandLineFlag@absl@@$0A@@__Cr@std@@QAE@AAPAVCommandLineFlag@absl@@@Z
    ??$?0AAPAVCommandLineFlag@absl@@AA_N$0A@@?$tuple@PAVCommandLineFlag@absl@@_N@__Cr@std@@QAE@AAPAVCommandLineFlag@absl@@AA_N@Z
    ??$?0AAPBUPrefixCrc@CrcCordState@crc_internal@absl@@PAU0123@$0A@@?$pair@PBUPrefixCrc@CrcCordState@crc_internal@absl@@PAU1234@@__Cr@std@@QAE@AAPBUPrefixCrc@CrcCordState@crc_internal@absl@@$$QAPAU3456@@Z
    ??$?0AAUraw_view@?1???R?$ConvertToContainer@V?$vector@V?$basic_string_view@DU?$char_traits@D@__Cr@std@@@__Cr@std@@V?$allocator@V?$basic_string_view@DU?$char_traits@D@__Cr@std@@@__Cr@std@@@23@@__Cr@std@@V?$basic_string_view@DU?$char_traits@D@__Cr@std@@@23@$0A@@?$Splitter@VByChar@absl@@UAllowEmpty@2@V?$basic_string_view@DU?$char_traits@D@__Cr@std@@@__Cr@std@@@strings_internal@absl@@QBE?AV?$vector@V?$basic_string_view@DU?$char_traits@D@__Cr@std@@@__Cr@std@@V?$allocator@V?$basic_string_view@DU?$char_traits@D@__Cr@std@@@__Cr@std@@@23@@__Cr@std@@ABV234@@Z@@?$__temp_value@V?$basic_string_view@DU?$char_traits@D@__Cr@std@@@__Cr@std@@V?$allocator@V?$basic_string_view@DU?$char_traits@D@__Cr@std@@@__Cr@std@@@23@@__Cr@std@@QAE@AAV?$allocator@V?$basic_string_view@DU?$char_traits@D@__Cr@std@@@__Cr@std@@@12@AAUraw_view@?1???R?$ConvertToContainer@V?$vector@V?$basic_string_view@DU?$char_traits@D@__Cr@std@@@__Cr@std@@V?$allocator@V?$basic_string_view@DU?$char_traits@D@__Cr@std@@@__Cr@std@@@23@@__Cr@std@@V?$basic_string_view@DU?$char_traits@D@__Cr@std@@@23@$0A@@?$Splitter@VByChar@absl@@UAllowEmpty@2@V?$basic_string_view@DU?$char_traits@D@__Cr@std@@@__Cr@std@@@strings_internal@absl@@QBE?AV?$vector@V?$basic_string_view@DU?$char_traits@D@__Cr@std@@@__Cr@std@@V?$allocator@V?$basic_string_view@DU?$char_traits@D@__Cr@std@@@__Cr@std@@@23@@12@ABV678@@Z@@Z
    ??$?0AAV?$__deque_iterator@UPrefixCrc@CrcCordState@crc_internal@absl@@PBU1234@ABU1234@PBQBU1234@H$0A@@__Cr@std@@V?$__deque_iterator@UPrefixCrc@CrcCordState@crc_internal@absl@@PAU1234@AAU1234@PAPAU1234@H$0A@@12@$0A@@?$pair@V?$__deque_iterator@UPrefixCrc@CrcCordState@crc_internal@absl@@PBU1234@ABU1234@PBQBU1234@H$0A@@__Cr@std@@V?$__deque_iterator@UPrefixCrc@CrcCordState@crc_internal@absl@@PAU1234@AAU1234@PAPAU1234@H$0A@@23@@__Cr@std@@QAE@AAV?$__deque_iterator@UPrefixCrc@CrcCordState@crc_internal@absl@@PBU1234@ABU1234@PBQBU1234@H$0A@@12@$$QAV?$__deque_iterator@UPrefixCrc@CrcCordState@crc_internal@absl@@PAU1234@AAU1234@PAPAU1234@H$0A@@12@@Z
    ??$?0AAV?$allocator@PAUCordRep@cord_internal@absl@@@__Cr@std@@$$T$00@?$CompressedTuple@V?$allocator@PAUCordRep@cord_internal@absl@@@__Cr@std@@PAPAUCordRep@cord_internal@absl@@@container_internal@absl@@QAE@AAV?$allocator@PAUCordRep@cord_internal@absl@@@__Cr@std@@$$QA$$T@Z
    ??$?0AAV?$allocator@PAUCordRep@cord_internal@absl@@@__Cr@std@@$$T@?$CompressedTupleImpl@V?$CompressedTuple@V?$allocator@PAUCordRep@cord_internal@absl@@@__Cr@std@@PAPAUCordRep@cord_internal@absl@@@container_internal@absl@@U?$integer_sequence@I$0A@$00@__Cr@std@@$00@internal_compressed_tuple@container_internal@absl@@QAE@Uin_place_t@__Cr@std@@AAV?$allocator@PAUCordRep@cord_internal@absl@@@56@$$QA$$T@Z
    ??$?0AAV?$allocator@PAUCordRep@cord_internal@absl@@@__Cr@std@@@?$Storage@V?$allocator@PAUCordRep@cord_internal@absl@@@__Cr@std@@$0A@$00@internal_compressed_tuple@container_internal@absl@@QAE@Uin_place_t@__Cr@std@@AAV?$allocator@PAUCordRep@cord_internal@absl@@@56@@Z
    ??$?0AAV?$allocator@PAVLogSink@absl@@@__Cr@std@@$$T$00@?$CompressedTuple@V?$allocator@PAVLogSink@absl@@@__Cr@std@@PAPAVLogSink@absl@@@container_internal@absl@@QAE@AAV?$allocator@PAVLogSink@absl@@@__Cr@std@@$$QA$$T@Z
    ??$?0AAV?$allocator@PAVLogSink@absl@@@__Cr@std@@$$T@?$CompressedTupleImpl@V?$CompressedTuple@V?$allocator@PAVLogSink@absl@@@__Cr@std@@PAPAVLogSink@absl@@@container_internal@absl@@U?$integer_sequence@I$0A@$00@__Cr@std@@$00@internal_compressed_tuple@container_internal@absl@@QAE@Uin_place_t@__Cr@std@@AAV?$allocator@PAVLogSink@absl@@@56@$$QA$$T@Z
    ??$?0AAV?$allocator@PAVLogSink@absl@@@__Cr@std@@@?$Storage@V?$allocator@PAVLogSink@absl@@@__Cr@std@@$0A@$00@internal_compressed_tuple@container_internal@absl@@QAE@Uin_place_t@__Cr@std@@AAV?$allocator@PAVLogSink@absl@@@56@@Z
    ??$?0AAV?$allocator@UPayload@status_internal@absl@@@__Cr@std@@$$T$00@?$CompressedTuple@V?$allocator@UPayload@status_internal@absl@@@__Cr@std@@PAUPayload@status_internal@absl@@@container_internal@absl@@QAE@AAV?$allocator@UPayload@status_internal@absl@@@__Cr@std@@$$QA$$T@Z
    ??$?0AAV?$allocator@UPayload@status_internal@absl@@@__Cr@std@@$$T@?$CompressedTupleImpl@V?$CompressedTuple@V?$allocator@UPayload@status_internal@absl@@@__Cr@std@@PAUPayload@status_internal@absl@@@container_internal@absl@@U?$integer_sequence@I$0A@$00@__Cr@std@@$00@internal_compressed_tuple@container_internal@absl@@QAE@Uin_place_t@__Cr@std@@AAV?$allocator@UPayload@status_internal@absl@@@56@$$QA$$T@Z
    ??$?0AAV?$allocator@UPayload@status_internal@absl@@@__Cr@std@@@?$Storage@V?$allocator@UPayload@status_internal@absl@@@__Cr@std@@$0A@$00@internal_compressed_tuple@container_internal@absl@@QAE@Uin_place_t@__Cr@std@@AAV?$allocator@UPayload@status_internal@absl@@@56@@Z
    ??$?0AAVCord@absl@@$0A@@?$optional@VCord@absl@@@__Cr@std@@QAE@AAVCord@absl@@@Z
    ??$?0AAVCord@absl@@@?$__optional_destruct_base@VCord@absl@@$0A@@__Cr@std@@QAE@Uin_place_t@12@AAVCord@absl@@@Z
    ??$?0AAY0BM@$$CBD$0A@@?$NoDestructor@V?$basic_string@DU?$char_traits@D@__Cr@std@@V?$allocator@D@23@@__Cr@std@@@absl@@QAE@AAY0BM@$$CBD@Z
    ??$?0AAY0BM@$$CBD@PlacementImpl@?$NoDestructor@V?$basic_string@DU?$char_traits@D@__Cr@std@@V?$allocator@D@23@@__Cr@std@@@absl@@QAE@AAY0BM@$$CBD@Z
    ??$?0ABQAVCommandLineFlag@absl@@$0A@@?$__tuple_leaf@$0A@ABQAVCommandLineFlag@absl@@$0A@@__Cr@std@@QAE@ABQAVCommandLineFlag@absl@@@Z
    ??$?0ABV?$allocator@D@__Cr@std@@@?$Storage@V?$allocator@D@__Cr@std@@$00$00@internal_compressed_tuple@container_internal@absl@@QAE@Uin_place_t@__Cr@std@@ABV?$allocator@D@56@@Z
    ??$?0ABV?$allocator@UPayload@status_internal@absl@@@__Cr@std@@@?$Storage@V?$allocator@UPayload@status_internal@absl@@@__Cr@std@@$0A@$00@internal_compressed_tuple@container_internal@absl@@QAE@Uin_place_t@__Cr@std@@ABV?$allocator@UPayload@status_internal@absl@@@56@@Z
    ??$?0ABV?$allocator@UPayload@status_internal@absl@@@__Cr@std@@I$00@?$CompressedTuple@V?$allocator@UPayload@status_internal@absl@@@__Cr@std@@I@container_internal@absl@@QAE@ABV?$allocator@UPayload@status_internal@absl@@@__Cr@std@@$$QAI@Z
    ??$?0ABV?$allocator@UPayload@status_internal@absl@@@__Cr@std@@I@?$CompressedTupleImpl@V?$CompressedTuple@V?$allocator@UPayload@status_internal@absl@@@__Cr@std@@I@container_internal@absl@@U?$integer_sequence@I$0A@$00@__Cr@std@@$00@internal_compressed_tuple@container_internal@absl@@QAE@Uin_place_t@__Cr@std@@ABV?$allocator@UPayload@status_internal@absl@@@56@$$QAI@Z
    ??$?0ABV?$allocator@VFormatArgImpl@str_format_internal@absl@@@__Cr@std@@@?$Storage@V?$allocator@VFormatArgImpl@str_format_internal@absl@@@__Cr@std@@$0A@$00@internal_compressed_tuple@container_internal@absl@@QAE@Uin_place_t@__Cr@std@@ABV?$allocator@VFormatArgImpl@str_format_internal@absl@@@56@@Z
    ??$?0ABV?$allocator@VFormatArgImpl@str_format_internal@absl@@@__Cr@std@@I$00@?$CompressedTuple@V?$allocator@VFormatArgImpl@str_format_internal@absl@@@__Cr@std@@I@container_internal@absl@@QAE@ABV?$allocator@VFormatArgImpl@str_format_internal@absl@@@__Cr@std@@$$QAI@Z
    ??$?0ABV?$allocator@VFormatArgImpl@str_format_internal@absl@@@__Cr@std@@I@?$CompressedTupleImpl@V?$CompressedTuple@V?$allocator@VFormatArgImpl@str_format_internal@absl@@@__Cr@std@@I@container_internal@absl@@U?$integer_sequence@I$0A@$00@__Cr@std@@$00@internal_compressed_tuple@container_internal@absl@@QAE@Uin_place_t@__Cr@std@@ABV?$allocator@VFormatArgImpl@str_format_internal@absl@@@56@$$QAI@Z
    ??$?0ABV?$basic_string@DU?$char_traits@D@__Cr@std@@V?$allocator@D@23@@__Cr@std@@$$Z$$V$$Z$0A@$$Z$S@?$pair@$$CBV?$basic_string@DU?$char_traits@D@__Cr@std@@V?$allocator@D@23@@__Cr@std@@PBVImpl@time_zone@cctz@time_internal@absl@@@__Cr@std@@AAE@Upiecewise_construct_t@12@AAV?$tuple@ABV?$basic_string@DU?$char_traits@D@__Cr@std@@V?$allocator@D@23@@__Cr@std@@@12@AAV?$tuple@$$V@12@U?$__tuple_indices@$0A@@12@U?$__tuple_indices@$S@12@@Z
    ??$?0ABV?$basic_string@DU?$char_traits@D@__Cr@std@@V?$allocator@D@23@@__Cr@std@@$$Z$$V$$Z$0A@$$Z$S@?$pair@$$CBV?$basic_string@DU?$char_traits@D@__Cr@std@@V?$allocator@D@23@@__Cr@std@@V?$vector@PBVCommandLineFlag@absl@@V?$allocator@PBVCommandLineFlag@absl@@@__Cr@std@@@23@@__Cr@std@@AAE@Upiecewise_construct_t@12@AAV?$tuple@ABV?$basic_string@DU?$char_traits@D@__Cr@std@@V?$allocator@D@23@@__Cr@std@@@12@AAV?$tuple@$$V@12@U?$__tuple_indices@$0A@@12@U?$__tuple_indices@$S@12@@Z
    ??$?0ABV?$basic_string@DU?$char_traits@D@__Cr@std@@V?$allocator@D@23@@__Cr@std@@$$Z$$V@?$pair@$$CBV?$basic_string@DU?$char_traits@D@__Cr@std@@V?$allocator@D@23@@__Cr@std@@PBVImpl@time_zone@cctz@time_internal@absl@@@__Cr@std@@QAE@Upiecewise_construct_t@12@V?$tuple@ABV?$basic_string@DU?$char_traits@D@__Cr@std@@V?$allocator@D@23@@__Cr@std@@@12@V?$tuple@$$V@12@@Z
    ??$?0ABV?$basic_string@DU?$char_traits@D@__Cr@std@@V?$allocator@D@23@@__Cr@std@@$$Z$$V@?$pair@$$CBV?$basic_string@DU?$char_traits@D@__Cr@std@@V?$allocator@D@23@@__Cr@std@@V?$vector@PBVCommandLineFlag@absl@@V?$allocator@PBVCommandLineFlag@absl@@@__Cr@std@@@23@@__Cr@std@@QAE@Upiecewise_construct_t@12@V?$tuple@ABV?$basic_string@DU?$char_traits@D@__Cr@std@@V?$allocator@D@23@@__Cr@std@@@12@V?$tuple@$$V@12@@Z
    ??$?0ABV?$basic_string_view@DU?$char_traits@D@__Cr@std@@@__Cr@std@@$$ZABQAVCommandLineFlag@absl@@$$Z$0A@$$Z$0A@@?$pair@V?$tuple@ABV?$basic_string_view@DU?$char_traits@D@__Cr@std@@@__Cr@std@@@__Cr@std@@V?$tuple@ABQAVCommandLineFlag@absl@@@23@@__Cr@std@@AAE@Upiecewise_construct_t@12@AAV?$tuple@ABV?$basic_string_view@DU?$char_traits@D@__Cr@std@@@__Cr@std@@@12@AAV?$tuple@ABQAVCommandLineFlag@absl@@@12@U?$__tuple_indices@$0A@@12@3@Z
    ??$?0ABV?$basic_string_view@DU?$char_traits@D@__Cr@std@@@__Cr@std@@$$ZABQAVCommandLineFlag@absl@@@?$pair@V?$tuple@ABV?$basic_string_view@DU?$char_traits@D@__Cr@std@@@__Cr@std@@@__Cr@std@@V?$tuple@ABQAVCommandLineFlag@absl@@@23@@__Cr@std@@QAE@Upiecewise_construct_t@12@V?$tuple@ABV?$basic_string_view@DU?$char_traits@D@__Cr@std@@@__Cr@std@@@12@V?$tuple@ABQAVCommandLineFlag@absl@@@12@@Z
    ??$?0D@?$allocator@U?$AlignedType@$03@container_internal@absl@@@__Cr@std@@QAE@ABV?$allocator@D@12@@Z
    ??$?0D@?$allocator@U?$pair@$$CBV?$basic_string_view@DU?$char_traits@D@__Cr@std@@@__Cr@std@@PAVCommandLineFlag@absl@@@__Cr@std@@@__Cr@std@@QAE@ABV?$allocator@D@12@@Z
    ??$?0D@FormatArgImpl@str_format_internal@absl@@QAE@ABD@Z
    ??$?0H@FormatArgImpl@str_format_internal@absl@@QAE@ABH@Z
    ??$?0I@?$Storage@I$00$0A@@internal_compressed_tuple@container_internal@absl@@QAE@Uin_place_t@__Cr@std@@$$QAI@Z
    ??$?0I@FormatArgImpl@str_format_internal@absl@@QAE@ABI@Z
    ??$?0M@FormatArgImpl@str_format_internal@absl@@QAE@ABM@Z
    ??$?0N@FormatArgImpl@str_format_internal@absl@@QAE@ABN@Z
    ??$?0PAI@?$SaltedSeedSeq@Vseed_seq@__Cr@std@@@random_internal@absl@@QAE@PAI0@Z
    ??$?0PAPAPBVImpl@time_zone@cctz@time_internal@absl@@PAPAPBV01234@$0A@@?$pair@PAPAPBVImpl@time_zone@cctz@time_internal@absl@@PAPAPBV12345@@__Cr@std@@QAE@$$QAPAPAPBVImpl@time_zone@cctz@time_internal@absl@@0@Z
    ??$?0PAPAUPrefixCrc@CrcCordState@crc_internal@absl@@PAPAU0123@$0A@@?$pair@PAPAUPrefixCrc@CrcCordState@crc_internal@absl@@PAPAU1234@@__Cr@std@@QAE@$$QAPAPAUPrefixCrc@CrcCordState@crc_internal@absl@@0@Z
    ??$?0PAPAVLogSink@absl@@$0A@@?$__wrap_iter@PBQAVLogSink@absl@@@__Cr@std@@QAE@ABV?$__wrap_iter@PAPAVLogSink@absl@@@12@@Z
    ??$?0PAPAVLogSink@absl@@PAPAV01@$0A@@?$pair@PAPAVLogSink@absl@@PAPAV12@@__Cr@std@@QAE@$$QAPAPAVLogSink@absl@@0@Z
    ??$?0PAUPrefixCrc@CrcCordState@crc_internal@absl@@AAU0123@PAPAU0123@$0A@@?$__deque_iterator@UPrefixCrc@CrcCordState@crc_internal@absl@@PBU1234@ABU1234@PBQBU1234@H$0A@@__Cr@std@@QAE@ABV?$__deque_iterator@UPrefixCrc@CrcCordState@crc_internal@absl@@PAU1234@AAU1234@PAPAU1234@H$0A@@12@@Z
    ??$?0PAUTransition@cctz@time_internal@absl@@$0A@@?$__wrap_iter@PBUTransition@cctz@time_internal@absl@@@__Cr@std@@QAE@ABV?$__wrap_iter@PAUTransition@cctz@time_internal@absl@@@12@@Z
    ??$?0PAUTransition@cctz@time_internal@absl@@PAU0123@$0A@@?$pair@PAUTransition@cctz@time_internal@absl@@PAU1234@@__Cr@std@@QAE@$$QAPAUTransition@cctz@time_internal@absl@@0@Z
    ??$?0PAUTransitionType@cctz@time_internal@absl@@$0A@@?$__wrap_iter@PBUTransitionType@cctz@time_internal@absl@@@__Cr@std@@QAE@ABV?$__wrap_iter@PAUTransitionType@cctz@time_internal@absl@@@12@@Z
    ??$?0PAUTransitionType@cctz@time_internal@absl@@PAU0123@$0A@@?$pair@PAUTransitionType@cctz@time_internal@absl@@PAU1234@@__Cr@std@@QAE@$$QAPAUTransitionType@cctz@time_internal@absl@@0@Z
    ??$?0PAUraw_view@?1???R?$ConvertToContainer@V?$vector@V?$basic_string_view@DU?$char_traits@D@__Cr@std@@@__Cr@std@@V?$allocator@V?$basic_string_view@DU?$char_traits@D@__Cr@std@@@__Cr@std@@@23@@__Cr@std@@V?$basic_string_view@DU?$char_traits@D@__Cr@std@@@23@$0A@@?$Splitter@VByChar@absl@@UAllowEmpty@2@V?$basic_string_view@DU?$char_traits@D@__Cr@std@@@__Cr@std@@@strings_internal@absl@@QBE?AV?$vector@V?$basic_string_view@DU?$char_traits@D@__Cr@std@@@__Cr@std@@V?$allocator@V?$basic_string_view@DU?$char_traits@D@__Cr@std@@@__Cr@std@@@23@@__Cr@std@@ABV234@@Z@PAU0?1???R1234@QBE?AV567@0@Z@$0A@@?$pair@PAUraw_view@?1???R?$ConvertToContainer@V?$vector@V?$basic_string_view@DU?$char_traits@D@__Cr@std@@@__Cr@std@@V?$allocator@V?$basic_string_view@DU?$char_traits@D@__Cr@std@@@__Cr@std@@@23@@__Cr@std@@V?$basic_string_view@DU?$char_traits@D@__Cr@std@@@23@$0A@@?$Splitter@VByChar@absl@@UAllowEmpty@2@V?$basic_string_view@DU?$char_traits@D@__Cr@std@@@__Cr@std@@@strings_internal@absl@@QBE?AV?$vector@V?$basic_string_view@DU?$char_traits@D@__Cr@std@@@__Cr@std@@V?$allocator@V?$basic_string_view@DU?$char_traits@D@__Cr@std@@@__Cr@std@@@23@@__Cr@std@@ABV345@@Z@PAU1?1???R2345@QBE?AV678@0@Z@@__Cr@std@@QAE@$$QAPAUraw_view@?1???R?$ConvertToContainer@V?$vector@V?$basic_string_view@DU?$char_traits@D@__Cr@std@@@__Cr@std@@V?$allocator@V?$basic_string_view@DU?$char_traits@D@__Cr@std@@@__Cr@std@@@23@@__Cr@std@@V?$basic_string_view@DU?$char_traits@D@__Cr@std@@@23@$0A@@?$Splitter@VByChar@absl@@UAllowEmpty@2@V?$basic_string_view@DU?$char_traits@D@__Cr@std@@@__Cr@std@@@strings_internal@absl@@QBE?AV?$vector@V?$basic_string_view@DU?$char_traits@D@__Cr@std@@@__Cr@std@@V?$allocator@V?$basic_string_view@DU?$char_traits@D@__Cr@std@@@__Cr@std@@@23@@12@ABV567@@Z@1@Z
    ??$?0PAVCommandLineFlag@absl@@$0A@@?$__tuple_leaf@$0A@$$QAPAVCommandLineFlag@absl@@$0A@@__Cr@std@@QAE@$$QAPAVCommandLineFlag@absl@@@Z
    ??$?0PAVCommandLineFlag@absl@@$0A@@?$tuple@$$QAPAVCommandLineFlag@absl@@@__Cr@std@@QAE@$$QAPAVCommandLineFlag@absl@@@Z
    ??$?0PAX@FlagState@flags_internal@absl@@QAE@AAVFlagImpl@12@ABQAX_N2_J@Z
    ??$?0PBD@FormatArgImpl@str_format_internal@absl@@QAE@ABQBD@Z
    ??$?0PBUPrefixCrc@CrcCordState@crc_internal@absl@@PAU0123@$0A@@?$pair@PBUPrefixCrc@CrcCordState@crc_internal@absl@@PAU1234@@__Cr@std@@QAE@$$QAPBUPrefixCrc@CrcCordState@crc_internal@absl@@$$QAPAU3456@@Z
    ??$?0PBUPrefixCrc@CrcCordState@crc_internal@absl@@PBU0123@$0A@@?$pair@PBUPrefixCrc@CrcCordState@crc_internal@absl@@PBU1234@@__Cr@std@@QAE@$$QAPBUPrefixCrc@CrcCordState@crc_internal@absl@@0@Z
    ??$?0PBUPrefixCrc@CrcCordState@crc_internal@absl@@V?$__deque_iterator@UPrefixCrc@CrcCordState@crc_internal@absl@@PAU1234@AAU1234@PAPAU1234@H$0A@@__Cr@std@@$0A@@?$pair@PBUPrefixCrc@CrcCordState@crc_internal@absl@@V?$__deque_iterator@UPrefixCrc@CrcCordState@crc_internal@absl@@PAU1234@AAU1234@PAPAU1234@H$0A@@__Cr@std@@@__Cr@std@@QAE@$$QAPBUPrefixCrc@CrcCordState@crc_internal@absl@@$$QAV?$__deque_iterator@UPrefixCrc@CrcCordState@crc_internal@absl@@PAU1234@AAU1234@PAPAU1234@H$0A@@12@@Z
    ??$?0PBVFormatArgImpl@str_format_internal@absl@@$0A@@?$InlinedVector@VFormatArgImpl@str_format_internal@absl@@$03V?$allocator@VFormatArgImpl@str_format_internal@absl@@@__Cr@std@@@absl@@QAE@PBVFormatArgImpl@str_format_internal@1@0ABV?$allocator@VFormatArgImpl@str_format_internal@absl@@@__Cr@std@@@Z
    ??$?0U?$array@D$0DKJI@@__Cr@std@@XU012@H@?$Span@D@absl@@QAE@AAU?$array@D$0DKJI@@__Cr@std@@@Z
    ??$?0UHex@absl@@X@AlphaNum@absl@@QAE@ABUHex@1@$$QAVStringifySink@strings_internal@1@@Z
    ??$?0UStringEq@container_internal@absl@@@?$Storage@UStringEq@container_internal@absl@@$01$00@internal_compressed_tuple@container_internal@absl@@QAE@Uin_place_t@__Cr@std@@$$QAUStringEq@23@@Z
    ??$?0UStringHash@container_internal@absl@@@?$Storage@UStringHash@container_internal@absl@@$00$00@internal_compressed_tuple@container_internal@absl@@QAE@Uin_place_t@__Cr@std@@$$QAUStringHash@23@@Z
    ??$?0USynchEvent@absl@@@Condition@absl@@QAE@P6A_NPAUSynchEvent@1@@Z0@Z
    ??$?0Uday_tag@detail@cctz@time_internal@absl@@@?$civil_time@Umonth_tag@detail@cctz@time_internal@absl@@@detail@cctz@time_internal@absl@@QAE@ABV?$civil_time@Uday_tag@detail@cctz@time_internal@absl@@@1234@PAX@Z
    ??$?0Uday_tag@detail@cctz@time_internal@absl@@@?$civil_time@Usecond_tag@detail@cctz@time_internal@absl@@@detail@cctz@time_internal@absl@@QAE@ABV?$civil_time@Uday_tag@detail@cctz@time_internal@absl@@@1234@PAX@Z
    ??$?0Uday_tag@detail@cctz@time_internal@absl@@@?$civil_time@Uyear_tag@detail@cctz@time_internal@absl@@@detail@cctz@time_internal@absl@@QAE@ABV?$civil_time@Uday_tag@detail@cctz@time_internal@absl@@@1234@PAX@Z
    ??$?0Uday_tag@time_internal@absl@@@?$civil_time@Uhour_tag@time_internal@absl@@@detail@cctz@time_internal@absl@@QAE@ABV?$civil_time@Uday_tag@time_internal@absl@@@1234@PAX@Z
    ??$?0Uday_tag@time_internal@absl@@@?$civil_time@Uminute_tag@time_internal@absl@@@detail@cctz@time_internal@absl@@QAE@ABV?$civil_time@Uday_tag@time_internal@absl@@@1234@PAX@Z
    ??$?0Uday_tag@time_internal@absl@@@?$civil_time@Umonth_tag@time_internal@absl@@@detail@cctz@time_internal@absl@@QAE@ABV?$civil_time@Uday_tag@time_internal@absl@@@1234@PAX@Z
    ??$?0Uday_tag@time_internal@absl@@@?$civil_time@Usecond_tag@time_internal@absl@@@detail@cctz@time_internal@absl@@QAE@ABV?$civil_time@Uday_tag@time_internal@absl@@@1234@PAX@Z
    ??$?0Uday_tag@time_internal@absl@@@?$civil_time@Uyear_tag@time_internal@absl@@@detail@cctz@time_internal@absl@@QAE@ABV?$civil_time@Uday_tag@time_internal@absl@@@1234@PAX@Z
    ??$?0Uhour_tag@detail@cctz@time_internal@absl@@@?$civil_time@Uday_tag@detail@cctz@time_internal@absl@@@detail@cctz@time_internal@absl@@QAE@ABV?$civil_time@Uhour_tag@detail@cctz@time_internal@absl@@@1234@PAX@Z
    ??$?0Uhour_tag@time_internal@absl@@@?$civil_time@Uday_tag@time_internal@absl@@@detail@cctz@time_internal@absl@@QAE@ABV?$civil_time@Uhour_tag@time_internal@absl@@@1234@PAX@Z
    ??$?0Uhour_tag@time_internal@absl@@@?$civil_time@Uminute_tag@time_internal@absl@@@detail@cctz@time_internal@absl@@QAE@ABV?$civil_time@Uhour_tag@time_internal@absl@@@1234@PAX@Z
    ??$?0Uhour_tag@time_internal@absl@@@?$civil_time@Umonth_tag@time_internal@absl@@@detail@cctz@time_internal@absl@@QAE@ABV?$civil_time@Uhour_tag@time_internal@absl@@@1234@PAX@Z
    ??$?0Uhour_tag@time_internal@absl@@@?$civil_time@Usecond_tag@time_internal@absl@@@detail@cctz@time_internal@absl@@QAE@ABV?$civil_time@Uhour_tag@time_internal@absl@@@1234@PAX@Z
    ??$?0Uhour_tag@time_internal@absl@@@?$civil_time@Uyear_tag@time_internal@absl@@@detail@cctz@time_internal@absl@@QAE@ABV?$civil_time@Uhour_tag@time_internal@absl@@@1234@PAX@Z
    ??$?0Uminute_tag@detail@cctz@time_internal@absl@@@?$civil_time@Uhour_tag@detail@cctz@time_internal@absl@@@detail@cctz@time_internal@absl@@QAE@ABV?$civil_time@Uminute_tag@detail@cctz@time_internal@absl@@@1234@PAX@Z
    ??$?0Uminute_tag@time_internal@absl@@@?$civil_time@Uday_tag@time_internal@absl@@@detail@cctz@time_internal@absl@@QAE@ABV?$civil_time@Uminute_tag@time_internal@absl@@@1234@PAX@Z
    ??$?0Uminute_tag@time_internal@absl@@@?$civil_time@Uhour_tag@time_internal@absl@@@detail@cctz@time_internal@absl@@QAE@ABV?$civil_time@Uminute_tag@time_internal@absl@@@1234@PAX@Z
    ??$?0Uminute_tag@time_internal@absl@@@?$civil_time@Umonth_tag@time_internal@absl@@@detail@cctz@time_internal@absl@@QAE@ABV?$civil_time@Uminute_tag@time_internal@absl@@@1234@PAX@Z
    ??$?0Uminute_tag@time_internal@absl@@@?$civil_time@Usecond_tag@time_internal@absl@@@detail@cctz@time_internal@absl@@QAE@ABV?$civil_time@Uminute_tag@time_internal@absl@@@1234@PAX@Z
    ??$?0Uminute_tag@time_internal@absl@@@?$civil_time@Uyear_tag@time_internal@absl@@@detail@cctz@time_internal@absl@@QAE@ABV?$civil_time@Uminute_tag@time_internal@absl@@@1234@PAX@Z
    ??$?0Umonth_tag@detail@cctz@time_internal@absl@@@?$civil_time@Uyear_tag@detail@cctz@time_internal@absl@@@detail@cctz@time_internal@absl@@QAE@ABV?$civil_time@Umonth_tag@detail@cctz@time_internal@absl@@@1234@PAX@Z
    ??$?0Umonth_tag@time_internal@absl@@@?$civil_time@Uday_tag@time_internal@absl@@@detail@cctz@time_internal@absl@@QAE@ABV?$civil_time@Umonth_tag@time_internal@absl@@@1234@PAX@Z
    ??$?0Umonth_tag@time_internal@absl@@@?$civil_time@Uhour_tag@time_internal@absl@@@detail@cctz@time_internal@absl@@QAE@ABV?$civil_time@Umonth_tag@time_internal@absl@@@1234@PAX@Z
    ??$?0Umonth_tag@time_internal@absl@@@?$civil_time@Uminute_tag@time_internal@absl@@@detail@cctz@time_internal@absl@@QAE@ABV?$civil_time@Umonth_tag@time_internal@absl@@@1234@PAX@Z
    ??$?0Umonth_tag@time_internal@absl@@@?$civil_time@Usecond_tag@time_internal@absl@@@detail@cctz@time_internal@absl@@QAE@ABV?$civil_time@Umonth_tag@time_internal@absl@@@1234@PAX@Z
    ??$?0Umonth_tag@time_internal@absl@@@?$civil_time@Uyear_tag@time_internal@absl@@@detail@cctz@time_internal@absl@@QAE@ABV?$civil_time@Umonth_tag@time_internal@absl@@@1234@PAX@Z
    ??$?0Usecond_tag@detail@cctz@time_internal@absl@@@?$civil_time@Uday_tag@detail@cctz@time_internal@absl@@@detail@cctz@time_internal@absl@@QAE@ABV?$civil_time@Usecond_tag@detail@cctz@time_internal@absl@@@1234@PAX@Z
    ??$?0Usecond_tag@detail@cctz@time_internal@absl@@@?$civil_time@Uminute_tag@detail@cctz@time_internal@absl@@@detail@cctz@time_internal@absl@@QAE@ABV?$civil_time@Usecond_tag@detail@cctz@time_internal@absl@@@1234@PAX@Z
    ??$?0Usecond_tag@detail@cctz@time_internal@absl@@@?$civil_time@Usecond_tag@time_internal@absl@@@detail@cctz@time_internal@absl@@QAE@ABV?$civil_time@Usecond_tag@detail@cctz@time_internal@absl@@@1234@PAX@Z
    ??$?0Usecond_tag@time_internal@absl@@@?$civil_time@Uday_tag@time_internal@absl@@@detail@cctz@time_internal@absl@@QAE@ABV?$civil_time@Usecond_tag@time_internal@absl@@@1234@PAX@Z
    ??$?0Usecond_tag@time_internal@absl@@@?$civil_time@Uhour_tag@time_internal@absl@@@detail@cctz@time_internal@absl@@QAE@ABV?$civil_time@Usecond_tag@time_internal@absl@@@1234@PAX@Z
    ??$?0Usecond_tag@time_internal@absl@@@?$civil_time@Uminute_tag@time_internal@absl@@@detail@cctz@time_internal@absl@@QAE@ABV?$civil_time@Usecond_tag@time_internal@absl@@@1234@PAX@Z
    ??$?0Usecond_tag@time_internal@absl@@@?$civil_time@Umonth_tag@time_internal@absl@@@detail@cctz@time_internal@absl@@QAE@ABV?$civil_time@Usecond_tag@time_internal@absl@@@1234@PAX@Z
    ??$?0Usecond_tag@time_internal@absl@@@?$civil_time@Usecond_tag@detail@cctz@time_internal@absl@@@detail@cctz@time_internal@absl@@QAE@ABV?$civil_time@Usecond_tag@time_internal@absl@@@1234@PAX@Z
    ??$?0Usecond_tag@time_internal@absl@@@?$civil_time@Uyear_tag@time_internal@absl@@@detail@cctz@time_internal@absl@@QAE@ABV?$civil_time@Usecond_tag@time_internal@absl@@@1234@PAX@Z
    ??$?0Uyear_tag@detail@cctz@time_internal@absl@@@?$civil_time@Uday_tag@detail@cctz@time_internal@absl@@@detail@cctz@time_internal@absl@@QAE@ABV?$civil_time@Uyear_tag@detail@cctz@time_internal@absl@@@1234@PAX@Z
    ??$?0Uyear_tag@time_internal@absl@@@?$civil_time@Uday_tag@time_internal@absl@@@detail@cctz@time_internal@absl@@QAE@ABV?$civil_time@Uyear_tag@time_internal@absl@@@1234@PAX@Z
    ??$?0Uyear_tag@time_internal@absl@@@?$civil_time@Uhour_tag@time_internal@absl@@@detail@cctz@time_internal@absl@@QAE@ABV?$civil_time@Uyear_tag@time_internal@absl@@@1234@PAX@Z
    ??$?0Uyear_tag@time_internal@absl@@@?$civil_time@Uminute_tag@time_internal@absl@@@detail@cctz@time_internal@absl@@QAE@ABV?$civil_time@Uyear_tag@time_internal@absl@@@1234@PAX@Z
    ??$?0Uyear_tag@time_internal@absl@@@?$civil_time@Umonth_tag@time_internal@absl@@@detail@cctz@time_internal@absl@@QAE@ABV?$civil_time@Uyear_tag@time_internal@absl@@@1234@PAX@Z
    ??$?0Uyear_tag@time_internal@absl@@@?$civil_time@Usecond_tag@time_internal@absl@@@detail@cctz@time_internal@absl@@QAE@ABV?$civil_time@Uyear_tag@time_internal@absl@@@1234@PAX@Z
    ??$?0V<lambda_1>@?0??SaveFromRegistry@FlagSaverImpl@flags_internal@absl@@QAEXXZ@$0A@@?$__policy_func@$$A6AXAAVCommandLineFlag@absl@@@Z@__function@__Cr@std@@QAE@$$QAV<lambda_1>@?0??SaveFromRegistry@FlagSaverImpl@flags_internal@absl@@QAEXXZ@@Z
    ??$?0V<lambda_1>@?0??SaveFromRegistry@FlagSaverImpl@flags_internal@absl@@QAEXXZ@X@?$function@$$A6AXAAVCommandLineFlag@absl@@@Z@__Cr@std@@QAE@V<lambda_1>@?0??SaveFromRegistry@FlagSaverImpl@flags_internal@absl@@QAEXXZ@@Z
    ??$?0V?$InlinedVector@VFormatArgImpl@str_format_internal@absl@@$03V?$allocator@VFormatArgImpl@str_format_internal@absl@@@__Cr@std@@@absl@@XV01@H@?$Span@$$CBVFormatArgImpl@str_format_internal@absl@@@absl@@QAE@ABV?$InlinedVector@VFormatArgImpl@str_format_internal@absl@@$03V?$allocator@VFormatArgImpl@str_format_internal@absl@@@__Cr@std@@@1@@Z
    ??$?0V?$Span@D@absl@@XV01@$0A@@?$Span@$$CBD@absl@@QAE@ABV?$Span@D@1@@Z
    ??$?0V?$Span@D@absl@@XV01@$0A@@?$Span@D@absl@@QAE@AAV01@@Z
    ??$?0V?$Span@I@absl@@XV01@$0A@@?$Span@$$CBI@absl@@QAE@ABV?$Span@I@1@@Z
    ??$?0V?$Span@I@absl@@XV01@$0A@@?$Span@I@absl@@QAE@AAV01@@Z
    ??$?0V?$__deque_iterator@UPrefixCrc@CrcCordState@crc_internal@absl@@PBU1234@ABU1234@PBQBU1234@H$0A@@__Cr@std@@V012@$0A@@?$pair@V?$__deque_iterator@UPrefixCrc@CrcCordState@crc_internal@absl@@PBU1234@ABU1234@PBQBU1234@H$0A@@__Cr@std@@V123@@__Cr@std@@QAE@$$QAV?$__deque_iterator@UPrefixCrc@CrcCordState@crc_internal@absl@@PBU1234@ABU1234@PBQBU1234@H$0A@@12@0@Z
    ??$?0V?$__deque_iterator@UPrefixCrc@CrcCordState@crc_internal@absl@@PBU1234@ABU1234@PBQBU1234@H$0A@@__Cr@std@@V?$__deque_iterator@UPrefixCrc@CrcCordState@crc_internal@absl@@PAU1234@AAU1234@PAPAU1234@H$0A@@12@$0A@@?$pair@V?$__deque_iterator@UPrefixCrc@CrcCordState@crc_internal@absl@@PBU1234@ABU1234@PBQBU1234@H$0A@@__Cr@std@@V?$__deque_iterator@UPrefixCrc@CrcCordState@crc_internal@absl@@PAU1234@AAU1234@PAPAU1234@H$0A@@23@@__Cr@std@@QAE@$$QAV?$__deque_iterator@UPrefixCrc@CrcCordState@crc_internal@absl@@PBU1234@ABU1234@PBQBU1234@H$0A@@12@$$QAV?$__deque_iterator@UPrefixCrc@CrcCordState@crc_internal@absl@@PAU1234@AAU1234@PAPAU1234@H$0A@@12@@Z
    ??$?0V?$__hash_iterator@PAU?$__hash_node@PBUCordRep@cord_internal@absl@@PAX@__Cr@std@@@__Cr@std@@AA_N$0A@@?$pair@V?$__hash_iterator@PAU?$__hash_node@PBUCordRep@cord_internal@absl@@PAX@__Cr@std@@@__Cr@std@@_N@__Cr@std@@QAE@$$QAV?$__hash_iterator@PAU?$__hash_node@PBUCordRep@cord_internal@absl@@PAX@__Cr@std@@@12@AA_N@Z
    ??$?0V?$__hash_iterator@PAU?$__hash_node@PBUCordRep@cord_internal@absl@@PAX@__Cr@std@@@__Cr@std@@_N$0A@@?$pair@V?$__hash_const_iterator@PAU?$__hash_node@PBUCordRep@cord_internal@absl@@PAX@__Cr@std@@@__Cr@std@@_N@__Cr@std@@QAE@$$QAU?$pair@V?$__hash_iterator@PAU?$__hash_node@PBUCordRep@cord_internal@absl@@PAX@__Cr@std@@@__Cr@std@@_N@12@@Z
    ??$?0V?$__hash_iterator@PAU?$__hash_node@U?$__hash_value_type@V?$basic_string@DU?$char_traits@D@__Cr@std@@V?$allocator@D@23@@__Cr@std@@PBVImpl@time_zone@cctz@time_internal@absl@@@__Cr@std@@PAX@__Cr@std@@@__Cr@std@@AA_N$0A@@?$pair@V?$__hash_iterator@PAU?$__hash_node@U?$__hash_value_type@V?$basic_string@DU?$char_traits@D@__Cr@std@@V?$allocator@D@23@@__Cr@std@@PBVImpl@time_zone@cctz@time_internal@absl@@@__Cr@std@@PAX@__Cr@std@@@__Cr@std@@_N@__Cr@std@@QAE@$$QAV?$__hash_iterator@PAU?$__hash_node@U?$__hash_value_type@V?$basic_string@DU?$char_traits@D@__Cr@std@@V?$allocator@D@23@@__Cr@std@@PBVImpl@time_zone@cctz@time_internal@absl@@@__Cr@std@@PAX@__Cr@std@@@12@AA_N@Z
    ??$?0V?$__tree_iterator@U?$__value_type@V?$basic_string@DU?$char_traits@D@__Cr@std@@V?$allocator@D@23@@__Cr@std@@V?$map@V?$basic_string@DU?$char_traits@D@__Cr@std@@V?$allocator@D@23@@__Cr@std@@V?$vector@PBVCommandLineFlag@absl@@V?$allocator@PBVCommandLineFlag@absl@@@__Cr@std@@@23@U?$less@V?$basic_string@DU?$char_traits@D@__Cr@std@@V?$allocator@D@23@@__Cr@std@@@23@V?$allocator@U?$pair@$$CBV?$basic_string@DU?$char_traits@D@__Cr@std@@V?$allocator@D@23@@__Cr@std@@V?$vector@PBVCommandLineFlag@absl@@V?$allocator@PBVCommandLineFlag@absl@@@__Cr@std@@@23@@__Cr@std@@@23@@23@@__Cr@std@@PAV?$__tree_node@U?$__value_type@V?$basic_string@DU?$char_traits@D@__Cr@std@@V?$allocator@D@23@@__Cr@std@@V?$map@V?$basic_string@DU?$char_traits@D@__Cr@std@@V?$allocator@D@23@@__Cr@std@@V?$vector@PBVCommandLineFlag@absl@@V?$allocator@PBVCommandLineFlag@absl@@@__Cr@std@@@23@U?$less@V?$basic_string@DU?$char_traits@D@__Cr@std@@V?$allocator@D@23@@__Cr@std@@@23@V?$allocator@U?$pair@$$CBV?$basic_string@DU?$char_traits@D@__Cr@std@@V?$allocator@D@23@@__Cr@std@@V?$vector@PBVCommandLineFlag@absl@@V?$allocator@PBVCommandLineFlag@absl@@@__Cr@std@@@23@@__Cr@std@@@23@@23@@__Cr@std@@PAX@23@H@__Cr@std@@AA_N$0A@@?$pair@V?$__tree_iterator@U?$__value_type@V?$basic_string@DU?$char_traits@D@__Cr@std@@V?$allocator@D@23@@__Cr@std@@V?$map@V?$basic_string@DU?$char_traits@D@__Cr@std@@V?$allocator@D@23@@__Cr@std@@V?$vector@PBVCommandLineFlag@absl@@V?$allocator@PBVCommandLineFlag@absl@@@__Cr@std@@@23@U?$less@V?$basic_string@DU?$char_traits@D@__Cr@std@@V?$allocator@D@23@@__Cr@std@@@23@V?$allocator@U?$pair@$$CBV?$basic_string@DU?$char_traits@D@__Cr@std@@V?$allocator@D@23@@__Cr@std@@V?$vector@PBVCommandLineFlag@absl@@V?$allocator@PBVCommandLineFlag@absl@@@__Cr@std@@@23@@__Cr@std@@@23@@23@@__Cr@std@@PAV?$__tree_node@U?$__value_type@V?$basic_string@DU?$char_traits@D@__Cr@std@@V?$allocator@D@23@@__Cr@std@@V?$map@V?$basic_string@DU?$char_traits@D@__Cr@std@@V?$allocator@D@23@@__Cr@std@@V?$vector@PBVCommandLineFlag@absl@@V?$allocator@PBVCommandLineFlag@absl@@@__Cr@std@@@23@U?$less@V?$basic_string@DU?$char_traits@D@__Cr@std@@V?$allocator@D@23@@__Cr@std@@@23@V?$allocator@U?$pair@$$CBV?$basic_string@DU?$char_traits@D@__Cr@std@@V?$allocator@D@23@@__Cr@std@@V?$vector@PBVCommandLineFlag@absl@@V?$allocator@PBVCommandLineFlag@absl@@@__Cr@std@@@23@@__Cr@std@@@23@@23@@__Cr@std@@PAX@23@H@__Cr@std@@_N@__Cr@std@@QAE@$$QAV?$__tree_iterator@U?$__value_type@V?$basic_string@DU?$char_traits@D@__Cr@std@@V?$allocator@D@23@@__Cr@std@@V?$map@V?$basic_string@DU?$char_traits@D@__Cr@std@@V?$allocator@D@23@@__Cr@std@@V?$vector@PBVCommandLineFlag@absl@@V?$allocator@PBVCommandLineFlag@absl@@@__Cr@std@@@23@U?$less@V?$basic_string@DU?$char_traits@D@__Cr@std@@V?$allocator@D@23@@__Cr@std@@@23@V?$allocator@U?$pair@$$CBV?$basic_string@DU?$char_traits@D@__Cr@std@@V?$allocator@D@23@@__Cr@std@@V?$vector@PBVCommandLineFlag@absl@@V?$allocator@PBVCommandLineFlag@absl@@@__Cr@std@@@23@@__Cr@std@@@23@@23@@__Cr@std@@PAV?$__tree_node@U?$__value_type@V?$basic_string@DU?$char_traits@D@__Cr@std@@V?$allocator@D@23@@__Cr@std@@V?$map@V?$basic_string@DU?$char_traits@D@__Cr@std@@V?$allocator@D@23@@__Cr@std@@V?$vector@PBVCommandLineFlag@absl@@V?$allocator@PBVCommandLineFlag@absl@@@__Cr@std@@@23@U?$less@V?$basic_string@DU?$char_traits@D@__Cr@std@@V?$allocator@D@23@@__Cr@std@@@23@V?$allocator@U?$pair@$$CBV?$basic_string@DU?$char_traits@D@__Cr@std@@V?$allocator@D@23@@__Cr@std@@V?$vector@PBVCommandLineFlag@absl@@V?$allocator@PBVCommandLineFlag@absl@@@__Cr@std@@@23@@__Cr@std@@@23@@23@@__Cr@std@@PAX@23@H@12@AA_N@Z
    ??$?0V?$__tree_iterator@U?$__value_type@V?$basic_string@DU?$char_traits@D@__Cr@std@@V?$allocator@D@23@@__Cr@std@@V?$vector@PBVCommandLineFlag@absl@@V?$allocator@PBVCommandLineFlag@absl@@@__Cr@std@@@23@@__Cr@std@@PAV?$__tree_node@U?$__value_type@V?$basic_string@DU?$char_traits@D@__Cr@std@@V?$allocator@D@23@@__Cr@std@@V?$vector@PBVCommandLineFlag@absl@@V?$allocator@PBVCommandLineFlag@absl@@@__Cr@std@@@23@@__Cr@std@@PAX@23@H@__Cr@std@@AA_N$0A@@?$pair@V?$__tree_iterator@U?$__value_type@V?$basic_string@DU?$char_traits@D@__Cr@std@@V?$allocator@D@23@@__Cr@std@@V?$vector@PBVCommandLineFlag@absl@@V?$allocator@PBVCommandLineFlag@absl@@@__Cr@std@@@23@@__Cr@std@@PAV?$__tree_node@U?$__value_type@V?$basic_string@DU?$char_traits@D@__Cr@std@@V?$allocator@D@23@@__Cr@std@@V?$vector@PBVCommandLineFlag@absl@@V?$allocator@PBVCommandLineFlag@absl@@@__Cr@std@@@23@@__Cr@std@@PAX@23@H@__Cr@std@@_N@__Cr@std@@QAE@$$QAV?$__tree_iterator@U?$__value_type@V?$basic_string@DU?$char_traits@D@__Cr@std@@V?$allocator@D@23@@__Cr@std@@V?$vector@PBVCommandLineFlag@absl@@V?$allocator@PBVCommandLineFlag@absl@@@__Cr@std@@@23@@__Cr@std@@PAV?$__tree_node@U?$__value_type@V?$basic_string@DU?$char_traits@D@__Cr@std@@V?$allocator@D@23@@__Cr@std@@V?$vector@PBVCommandLineFlag@absl@@V?$allocator@PBVCommandLineFlag@absl@@@__Cr@std@@@23@@__Cr@std@@PAX@23@H@12@AA_N@Z
    ??$?0V?$allocator@D@__Cr@std@@@?$Storage@V?$allocator@D@__Cr@std@@$02$00@internal_compressed_tuple@container_internal@absl@@QAE@Uin_place_t@__Cr@std@@$$QAV?$allocator@D@56@@Z
    ??$?0V?$allocator@D@__Cr@std@@@AlphaNum@absl@@QAE@ABV?$basic_string@DU?$char_traits@D@__Cr@std@@V?$allocator@D@23@@__Cr@std@@@Z
    ??$?0V?$allocator@PAUCordRep@cord_internal@absl@@@__Cr@std@@@?$Storage@V?$allocator@PAUCordRep@cord_internal@absl@@@__Cr@std@@$0A@$00@internal_compressed_tuple@container_internal@absl@@QAE@Uin_place_t@__Cr@std@@$$QAV?$allocator@PAUCordRep@cord_internal@absl@@@56@@Z
    ??$?0V?$allocator@PAUCordRep@cord_internal@absl@@@__Cr@std@@I$00@?$CompressedTuple@V?$allocator@PAUCordRep@cord_internal@absl@@@__Cr@std@@I@container_internal@absl@@QAE@$$QAV?$allocator@PAUCordRep@cord_internal@absl@@@__Cr@std@@$$QAI@Z
    ??$?0V?$allocator@PAUCordRep@cord_internal@absl@@@__Cr@std@@I@?$CompressedTupleImpl@V?$CompressedTuple@V?$allocator@PAUCordRep@cord_internal@absl@@@__Cr@std@@I@container_internal@absl@@U?$integer_sequence@I$0A@$00@__Cr@std@@$00@internal_compressed_tuple@container_internal@absl@@QAE@Uin_place_t@__Cr@std@@$$QAV?$allocator@PAUCordRep@cord_internal@absl@@@56@$$QAI@Z
    ??$?0V?$allocator@PAVLogSink@absl@@@__Cr@std@@@?$Storage@V?$allocator@PAVLogSink@absl@@@__Cr@std@@$0A@$00@internal_compressed_tuple@container_internal@absl@@QAE@Uin_place_t@__Cr@std@@$$QAV?$allocator@PAVLogSink@absl@@@56@@Z
    ??$?0V?$allocator@PAVLogSink@absl@@@__Cr@std@@I$00@?$CompressedTuple@V?$allocator@PAVLogSink@absl@@@__Cr@std@@I@container_internal@absl@@QAE@$$QAV?$allocator@PAVLogSink@absl@@@__Cr@std@@$$QAI@Z
    ??$?0V?$allocator@PAVLogSink@absl@@@__Cr@std@@I@?$CompressedTupleImpl@V?$CompressedTuple@V?$allocator@PAVLogSink@absl@@@__Cr@std@@I@container_internal@absl@@U?$integer_sequence@I$0A@$00@__Cr@std@@$00@internal_compressed_tuple@container_internal@absl@@QAE@Uin_place_t@__Cr@std@@$$QAV?$allocator@PAVLogSink@absl@@@56@$$QAI@Z
    ??$?0V?$allocator@UPayload@status_internal@absl@@@__Cr@std@@@?$Storage@V?$allocator@UPayload@status_internal@absl@@@__Cr@std@@$0A@$00@internal_compressed_tuple@container_internal@absl@@QAE@Uin_place_t@__Cr@std@@$$QAV?$allocator@UPayload@status_internal@absl@@@56@@Z
    ??$?0V?$allocator@UPayload@status_internal@absl@@@__Cr@std@@I$00@?$CompressedTuple@V?$allocator@UPayload@status_internal@absl@@@__Cr@std@@I@container_internal@absl@@QAE@$$QAV?$allocator@UPayload@status_internal@absl@@@__Cr@std@@$$QAI@Z
    ??$?0V?$allocator@UPayload@status_internal@absl@@@__Cr@std@@I@?$CompressedTupleImpl@V?$CompressedTuple@V?$allocator@UPayload@status_internal@absl@@@__Cr@std@@I@container_internal@absl@@U?$integer_sequence@I$0A@$00@__Cr@std@@$00@internal_compressed_tuple@container_internal@absl@@QAE@Uin_place_t@__Cr@std@@$$QAV?$allocator@UPayload@status_internal@absl@@@56@$$QAI@Z
    ??$?0V?$basic_ostream@DU?$char_traits@D@__Cr@std@@@__Cr@std@@$0A@@FormatRawSinkImpl@str_format_internal@absl@@QAE@PAV?$basic_ostream@DU?$char_traits@D@__Cr@std@@@__Cr@std@@@Z
    ??$?0V?$basic_string@DU?$char_traits@D@__Cr@std@@V?$allocator@D@23@@__Cr@std@@$0A@@Cord@absl@@QAE@$$QAV?$basic_string@DU?$char_traits@D@__Cr@std@@V?$allocator@D@23@@__Cr@std@@@Z
    ??$?0V?$basic_string@DU?$char_traits@D@__Cr@std@@V?$allocator@D@23@@__Cr@std@@$0A@@FormatRawSinkImpl@str_format_internal@absl@@QAE@PAV?$basic_string@DU?$char_traits@D@__Cr@std@@V?$allocator@D@23@@__Cr@std@@@Z
    ??$?0V?$basic_string_view@DU?$char_traits@D@__Cr@std@@@__Cr@std@@@FormatArgImpl@str_format_internal@absl@@QAE@ABV?$basic_string_view@DU?$char_traits@D@__Cr@std@@@__Cr@std@@@Z
    ??$?0V?$basic_string_view@DU?$char_traits@D@__Cr@std@@@__Cr@std@@PAVCommandLineFlag@absl@@$0A@@?$pair@$$CBV?$basic_string_view@DU?$char_traits@D@__Cr@std@@@__Cr@std@@PAVCommandLineFlag@absl@@@__Cr@std@@QAE@$$QAV?$basic_string_view@DU?$char_traits@D@__Cr@std@@@12@$$QAPAVCommandLineFlag@absl@@@Z
    ??$?0V?$basic_string_view@DU?$char_traits@D@__Cr@std@@@__Cr@std@@PAVCommandLineFlag@absl@@$0A@@?$pair@V?$basic_string_view@DU?$char_traits@D@__Cr@std@@@__Cr@std@@PAVCommandLineFlag@absl@@@__Cr@std@@QAE@$$QAV?$basic_string_view@DU?$char_traits@D@__Cr@std@@@12@$$QAPAVCommandLineFlag@absl@@@Z
    ??$?0V?$basic_string_view@DU?$char_traits@D@__Cr@std@@@__Cr@std@@XV012@$0A@@?$Span@$$CBD@absl@@QAE@ABV?$basic_string_view@DU?$char_traits@D@__Cr@std@@@__Cr@std@@@Z
    ??$?0VBufferRawSink@str_format_internal@absl@@$0A@@FormatRawSinkImpl@str_format_internal@absl@@QAE@PAVBufferRawSink@12@@Z
    ??$?0VCommonFields@container_internal@absl@@@?$Storage@VCommonFields@container_internal@absl@@$0A@$0A@@internal_compressed_tuple@container_internal@absl@@QAE@Uin_place_t@__Cr@std@@$$QAVCommonFields@23@@Z
    ??$?0VCommonFields@container_internal@absl@@UStringHash@12@UStringEq@12@V?$allocator@D@__Cr@std@@$00@?$CompressedTuple@VCommonFields@container_internal@absl@@UStringHash@23@UStringEq@23@V?$allocator@D@__Cr@std@@@container_internal@absl@@QAE@$$QAVCommonFields@12@$$QAUStringHash@12@$$QAUStringEq@12@$$QAV?$allocator@D@__Cr@std@@@Z
    ??$?0VCommonFields@container_internal@absl@@UStringHash@12@UStringEq@12@V?$allocator@D@__Cr@std@@@?$CompressedTupleImpl@V?$CompressedTuple@VCommonFields@container_internal@absl@@UStringHash@23@UStringEq@23@V?$allocator@D@__Cr@std@@@container_internal@absl@@U?$integer_sequence@I$0A@$00$01$02@__Cr@std@@$00@internal_compressed_tuple@container_internal@absl@@QAE@Uin_place_t@__Cr@std@@$$QAVCommonFields@23@$$QAUStringHash@23@$$QAUStringEq@23@$$QAV?$allocator@D@56@@Z
    ??$?0VFILERawSink@str_format_internal@absl@@$0A@@FormatRawSinkImpl@str_format_internal@absl@@QAE@PAVFILERawSink@12@@Z
    ??$?0VFallbackCrcMemcpyEngine@crc_internal@absl@@$0A@@?$default_delete@VCrcMemcpyEngine@crc_internal@absl@@@__Cr@std@@QAE@ABU?$default_delete@VFallbackCrcMemcpyEngine@crc_internal@absl@@@12@@Z
    ??$?0VFallbackCrcMemcpyEngine@crc_internal@absl@@U?$default_delete@VFallbackCrcMemcpyEngine@crc_internal@absl@@@__Cr@std@@XX@?$unique_ptr@VCrcMemcpyEngine@crc_internal@absl@@U?$default_delete@VCrcMemcpyEngine@crc_internal@absl@@@__Cr@std@@@__Cr@std@@QAE@$$QAV?$unique_ptr@VFallbackCrcMemcpyEngine@crc_internal@absl@@U?$default_delete@VFallbackCrcMemcpyEngine@crc_internal@absl@@@__Cr@std@@@12@@Z
    ??$?0VFlagState@flags_internal@absl@@$0A@@?$default_delete@VFlagStateInterface@flags_internal@absl@@@__Cr@std@@QAE@ABU?$default_delete@VFlagState@flags_internal@absl@@@12@@Z
    ??$?0VFlagState@flags_internal@absl@@U?$default_delete@VFlagState@flags_internal@absl@@@__Cr@std@@XX@?$unique_ptr@VFlagStateInterface@flags_internal@absl@@U?$default_delete@VFlagStateInterface@flags_internal@absl@@@__Cr@std@@@__Cr@std@@QAE@$$QAV?$unique_ptr@VFlagState@flags_internal@absl@@U?$default_delete@VFlagState@flags_internal@absl@@@__Cr@std@@@12@@Z
    ??$?0VTimeZoneInfo@cctz@time_internal@absl@@$0A@@?$default_delete@VTimeZoneIf@cctz@time_internal@absl@@@__Cr@std@@QAE@ABU?$default_delete@VTimeZoneInfo@cctz@time_internal@absl@@@12@@Z
    ??$?0VTimeZoneInfo@cctz@time_internal@absl@@U?$default_delete@VTimeZoneInfo@cctz@time_internal@absl@@@__Cr@std@@XX@?$unique_ptr@VTimeZoneIf@cctz@time_internal@absl@@U?$default_delete@VTimeZoneIf@cctz@time_internal@absl@@@__Cr@std@@@__Cr@std@@QAE@$$QAV?$unique_ptr@VTimeZoneInfo@cctz@time_internal@absl@@U?$default_delete@VTimeZoneInfo@cctz@time_internal@absl@@@__Cr@std@@@12@@Z
    ??$?0VTimeZoneLibC@cctz@time_internal@absl@@$0A@@?$default_delete@VTimeZoneIf@cctz@time_internal@absl@@@__Cr@std@@QAE@ABU?$default_delete@VTimeZoneLibC@cctz@time_internal@absl@@@12@@Z
    ??$?0VTimeZoneLibC@cctz@time_internal@absl@@U?$default_delete@VTimeZoneLibC@cctz@time_internal@absl@@@__Cr@std@@XX@?$unique_ptr@VTimeZoneIf@cctz@time_internal@absl@@U?$default_delete@VTimeZoneIf@cctz@time_internal@absl@@@__Cr@std@@@__Cr@std@@QAE@$$QAV?$unique_ptr@VTimeZoneLibC@cctz@time_internal@absl@@U?$default_delete@VTimeZoneLibC@cctz@time_internal@absl@@@__Cr@std@@@12@@Z
    ??$?0Viterator@?$raw_hash_set@U?$FlatHashMapPolicy@V?$basic_string_view@DU?$char_traits@D@__Cr@std@@@__Cr@std@@PAVCommandLineFlag@absl@@@container_internal@absl@@UStringHash@23@UStringEq@23@V?$allocator@U?$pair@$$CBV?$basic_string_view@DU?$char_traits@D@__Cr@std@@@__Cr@std@@PAVCommandLineFlag@absl@@@__Cr@std@@@__Cr@std@@@container_internal@absl@@_N$0A@@?$pair@Viterator@?$raw_hash_set@U?$FlatHashMapPolicy@V?$basic_string_view@DU?$char_traits@D@__Cr@std@@@__Cr@std@@PAVCommandLineFlag@absl@@@container_internal@absl@@UStringHash@23@UStringEq@23@V?$allocator@U?$pair@$$CBV?$basic_string_view@DU?$char_traits@D@__Cr@std@@@__Cr@std@@PAVCommandLineFlag@absl@@@__Cr@std@@@__Cr@std@@@container_internal@absl@@_N@__Cr@std@@QAE@$$QAViterator@?$raw_hash_set@U?$FlatHashMapPolicy@V?$basic_string_view@DU?$char_traits@D@__Cr@std@@@__Cr@std@@PAVCommandLineFlag@absl@@@container_internal@absl@@UStringHash@23@UStringEq@23@V?$allocator@U?$pair@$$CBV?$basic_string_view@DU?$char_traits@D@__Cr@std@@@__Cr@std@@PAVCommandLineFlag@absl@@@__Cr@std@@@__Cr@std@@@container_internal@absl@@$$QA_N@Z
    ??$?0_J@FlagState@flags_internal@absl@@QAE@AAVFlagImpl@12@AB_J_N2_J@Z
    ??$?0_J@FormatArgImpl@str_format_internal@absl@@QAE@AB_J@Z
    ??$?4PAVCommandLineFlag@absl@@_N$0A@@?$tuple@AAPAVCommandLineFlag@absl@@AA_N@__Cr@std@@QAEAAV012@$$QAV?$tuple@PAVCommandLineFlag@absl@@_N@12@@Z
    ??$?6$01@LogMessage@log_internal@absl@@QAEAAV012@AAY01$$CBD@Z
    ??$?6$02@LogMessage@log_internal@absl@@QAEAAV012@AAY02$$CBD@Z
    ??$?6$0P@@LogMessage@log_internal@absl@@QAEAAV012@AAY0P@$$CBD@Z
    ??$?6C@LogMessage@log_internal@absl@@QAEAAV012@ABC@Z
    ??$?6D@LogMessage@log_internal@absl@@QAEAAV012@ABD@Z
    ??$?6E@LogMessage@log_internal@absl@@QAEAAV012@ABE@Z
    ??$?6F@LogMessage@log_internal@absl@@QAEAAV012@ABF@Z
    ??$?6G@LogMessage@log_internal@absl@@QAEAAV012@ABG@Z
    ??$?6H@LogMessage@log_internal@absl@@QAEAAV012@ABH@Z
    ??$?6I@LogMessage@log_internal@absl@@QAEAAV012@ABI@Z
    ??$?6J@LogMessage@log_internal@absl@@QAEAAV012@ABJ@Z
    ??$?6K@LogMessage@log_internal@absl@@QAEAAV012@ABK@Z
    ??$?6M@LogMessage@log_internal@absl@@QAEAAV012@ABM@Z
    ??$?6N@LogMessage@log_internal@absl@@QAEAAV012@ABN@Z
    ??$?6PAX@LogMessage@log_internal@absl@@QAEAAV012@ABQAX@Z
    ??$?6PBD@LogMessage@log_internal@absl@@QAEAAV012@ABQBD@Z
    ??$?6PBX@LogMessage@log_internal@absl@@QAEAAV012@ABQBX@Z
    ??$?6_J@LogMessage@log_internal@absl@@QAEAAV012@AB_J@Z
    ??$?6_K@LogMessage@log_internal@absl@@QAEAAV012@AB_K@Z
    ??$?6_N@LogMessage@log_internal@absl@@QAEAAV012@AB_N@Z
    ??$?8PAPAVCommandLineFlag@absl@@@__Cr@std@@YA_NABV?$__wrap_iter@PAPAVCommandLineFlag@absl@@@01@0@Z
    ??$?8PAPAVCordzHandle@cord_internal@absl@@@__Cr@std@@YA_NABV?$__wrap_iter@PAPAVCordzHandle@cord_internal@absl@@@01@0@Z
    ??$?8PAPAVLogSink@absl@@@__Cr@std@@YA_NABV?$__wrap_iter@PAPAVLogSink@absl@@@01@0@Z
    ??$?8PAPBVCommandLineFlag@absl@@@__Cr@std@@YA_NABV?$__wrap_iter@PAPBVCommandLineFlag@absl@@@01@0@Z
    ??$?8PAUTransitionType@cctz@time_internal@absl@@@__Cr@std@@YA_NABV?$__wrap_iter@PAUTransitionType@cctz@time_internal@absl@@@01@0@Z
    ??$?8PAUUnrecognizedFlag@absl@@@__Cr@std@@YA_NABV?$__wrap_iter@PAUUnrecognizedFlag@absl@@@01@0@Z
    ??$?8PAV?$unique_ptr@VFlagStateInterface@flags_internal@absl@@U?$default_delete@VFlagStateInterface@flags_internal@absl@@@__Cr@std@@@__Cr@std@@@__Cr@std@@YA_NABV?$__wrap_iter@PAV?$unique_ptr@VFlagStateInterface@flags_internal@absl@@U?$default_delete@VFlagStateInterface@flags_internal@absl@@@__Cr@std@@@__Cr@std@@@01@0@Z
    ??$?8PBQAVLogSink@absl@@PAPAV01@@__Cr@std@@YA_NABV?$__wrap_iter@PBQAVLogSink@absl@@@01@ABV?$__wrap_iter@PAPAVLogSink@absl@@@01@@Z
    ??$?8PBUConversionItem@ParsedFormatBase@str_format_internal@absl@@@__Cr@std@@YA_NABV?$__wrap_iter@PBUConversionItem@ParsedFormatBase@str_format_internal@absl@@@01@0@Z
    ??$?8PBUUnrecognizedFlag@absl@@@__Cr@std@@YA_NABV?$__wrap_iter@PBUUnrecognizedFlag@absl@@@01@0@Z
    ??$?8UUnrecognizedFlag@absl@@U01@@__Cr@std@@YA_NABV?$allocator@UUnrecognizedFlag@absl@@@01@0@Z
    ??$?8V?$InlinedVector@UPayload@status_internal@absl@@$00V?$allocator@UPayload@status_internal@absl@@@__Cr@std@@@absl@@U?$default_delete@V?$InlinedVector@UPayload@status_internal@absl@@$00V?$allocator@UPayload@status_internal@absl@@@__Cr@std@@@absl@@@__Cr@std@@@__Cr@std@@YA_NABV?$unique_ptr@V?$InlinedVector@UPayload@status_internal@absl@@$00V?$allocator@UPayload@status_internal@absl@@@__Cr@std@@@absl@@U?$default_delete@V?$InlinedVector@UPayload@status_internal@absl@@$00V?$allocator@UPayload@status_internal@absl@@@__Cr@std@@@absl@@@__Cr@std@@@01@$$T@Z
    ??$?8VZoneInfoSource@cctz@time_internal@absl@@U?$default_delete@VZoneInfoSource@cctz@time_internal@absl@@@__Cr@std@@@__Cr@std@@YA_NABV?$unique_ptr@VZoneInfoSource@cctz@time_internal@absl@@U?$default_delete@VZoneInfoSource@cctz@time_internal@absl@@@__Cr@std@@@01@$$T@Z
    ??$?BV?$vector@V?$basic_string@DU?$char_traits@D@__Cr@std@@V?$allocator@D@23@@__Cr@std@@V?$allocator@V?$basic_string@DU?$char_traits@D@__Cr@std@@V?$allocator@D@23@@__Cr@std@@@23@@__Cr@std@@$0A@@?$Splitter@VByChar@absl@@UAllowEmpty@2@V?$basic_string_view@DU?$char_traits@D@__Cr@std@@@__Cr@std@@@strings_internal@absl@@QBE?AV?$vector@V?$basic_string@DU?$char_traits@D@__Cr@std@@V?$allocator@D@23@@__Cr@std@@V?$allocator@V?$basic_string@DU?$char_traits@D@__Cr@std@@V?$allocator@D@23@@__Cr@std@@@23@@__Cr@std@@XZ
    ??$?BV?$vector@V?$basic_string_view@DU?$char_traits@D@__Cr@std@@@__Cr@std@@V?$allocator@V?$basic_string_view@DU?$char_traits@D@__Cr@std@@@__Cr@std@@@23@@__Cr@std@@$0A@@?$Splitter@VByChar@absl@@UAllowEmpty@2@V?$basic_string_view@DU?$char_traits@D@__Cr@std@@@__Cr@std@@@strings_internal@absl@@QBE?AV?$vector@V?$basic_string_view@DU?$char_traits@D@__Cr@std@@@__Cr@std@@V?$allocator@V?$basic_string_view@DU?$char_traits@D@__Cr@std@@@__Cr@std@@@23@@__Cr@std@@XZ
    ??$?DH@absl@@YA?AVDuration@0@HV10@@Z
    ??$?DH@absl@@YA?AVDuration@0@V10@H@Z
    ??$?DN@absl@@YA?AVDuration@0@NV10@@Z
    ??$?D_J@absl@@YA?AVDuration@0@_JV10@@Z
    ??$?GPAPAPBVImpl@time_zone@cctz@time_internal@absl@@PAPAPBV01234@@__Cr@std@@YAHABV?$move_iterator@PAPAPBVImpl@time_zone@cctz@time_internal@absl@@@01@0@Z
    ??$?GPAPAUPrefixCrc@CrcCordState@crc_internal@absl@@PAPAU0123@@__Cr@std@@YAHABV?$move_iterator@PAPAUPrefixCrc@CrcCordState@crc_internal@absl@@@01@0@Z
    ??$?GPAPAVCommandLineFlag@absl@@PAPAV01@@__Cr@std@@YAHABV?$__wrap_iter@PAPAVCommandLineFlag@absl@@@01@0@Z
    ??$?GPAPBVCommandLineFlag@absl@@PAPBV01@@__Cr@std@@YAHABV?$__wrap_iter@PAPBVCommandLineFlag@absl@@@01@0@Z
    ??$?GPAUTransition@cctz@time_internal@absl@@PAU0123@@__Cr@std@@YAHABV?$move_iterator@PAUTransition@cctz@time_internal@absl@@@01@0@Z
    ??$?GPAUTransitionType@cctz@time_internal@absl@@PAU0123@@__Cr@std@@YAHABV?$move_iterator@PAUTransitionType@cctz@time_internal@absl@@@01@0@Z
    ??$?GPAUraw_view@?1???R?$ConvertToContainer@V?$vector@V?$basic_string_view@DU?$char_traits@D@__Cr@std@@@__Cr@std@@V?$allocator@V?$basic_string_view@DU?$char_traits@D@__Cr@std@@@__Cr@std@@@23@@__Cr@std@@V?$basic_string_view@DU?$char_traits@D@__Cr@std@@@23@$0A@@?$Splitter@VByChar@absl@@UAllowEmpty@2@V?$basic_string_view@DU?$char_traits@D@__Cr@std@@@__Cr@std@@@strings_internal@absl@@QBE?AV?$vector@V?$basic_string_view@DU?$char_traits@D@__Cr@std@@@__Cr@std@@V?$allocator@V?$basic_string_view@DU?$char_traits@D@__Cr@std@@@__Cr@std@@@23@@__Cr@std@@ABV234@@Z@PAU0?1???R1234@QBE?AV567@0@Z@@__Cr@std@@YAHABV?$__wrap_iter@PAUraw_view@?1???R?$ConvertToContainer@V?$vector@V?$basic_string_view@DU?$char_traits@D@__Cr@std@@@__Cr@std@@V?$allocator@V?$basic_string_view@DU?$char_traits@D@__Cr@std@@@__Cr@std@@@23@@__Cr@std@@V?$basic_string_view@DU?$char_traits@D@__Cr@std@@@23@$0A@@?$Splitter@VByChar@absl@@UAllowEmpty@2@V?$basic_string_view@DU?$char_traits@D@__Cr@std@@@__Cr@std@@@strings_internal@absl@@QBE?AV?$vector@V?$basic_string_view@DU?$char_traits@D@__Cr@std@@@__Cr@std@@V?$allocator@V?$basic_string_view@DU?$char_traits@D@__Cr@std@@@__Cr@std@@@23@@__Cr@std@@ABV345@@Z@@01@0@Z
    ??$?GPBQAVLogSink@absl@@PBQAV01@@__Cr@std@@YAHABV?$__wrap_iter@PBQAVLogSink@absl@@@01@0@Z
    ??$?GPBUTransition@cctz@time_internal@absl@@PAU0123@@__Cr@std@@YAHABV?$__wrap_iter@PBUTransition@cctz@time_internal@absl@@@01@ABV?$__wrap_iter@PAUTransition@cctz@time_internal@absl@@@01@@Z
    ??$?GPBUTransitionType@cctz@time_internal@absl@@PAU0123@@__Cr@std@@YAHABV?$__wrap_iter@PBUTransitionType@cctz@time_internal@absl@@@01@ABV?$__wrap_iter@PAUTransitionType@cctz@time_internal@absl@@@01@@Z
    ??$?K_J@absl@@YA?AVDuration@0@V10@_J@Z
    ??$?MUsecond_tag@detail@cctz@time_internal@absl@@U01234@@detail@cctz@time_internal@absl@@YA_NABV?$civil_time@Usecond_tag@detail@cctz@time_internal@absl@@@0123@0@Z
    ??$?NUsecond_tag@detail@cctz@time_internal@absl@@U01234@@detail@cctz@time_internal@absl@@YA_NABV?$civil_time@Usecond_tag@detail@cctz@time_internal@absl@@@0123@0@Z
    ??$?OUsecond_tag@detail@cctz@time_internal@absl@@U01234@@detail@cctz@time_internal@absl@@YA_NABV?$civil_time@Usecond_tag@detail@cctz@time_internal@absl@@@0123@0@Z
    ??$?PUsecond_tag@detail@cctz@time_internal@absl@@U01234@@detail@cctz@time_internal@absl@@YA_NABV?$civil_time@Usecond_tag@detail@cctz@time_internal@absl@@@0123@0@Z
    ??$?R$$CBUPrefixCrc@CrcCordState@crc_internal@absl@@U0123@$0A@@__copy_impl@__Cr@std@@QBE?AU?$pair@PBUPrefixCrc@CrcCordState@crc_internal@absl@@PAU1234@@12@PBUPrefixCrc@CrcCordState@crc_internal@absl@@0PAU4567@@Z
    ??$?RAAPAVLogSink@absl@@@__identity@__Cr@std@@QBEAAPAVLogSink@absl@@AAPAV34@@Z
    ??$?RAAPBDAAHAAY0LLI@DABQBDPAD@?$AtomicHook@P6AXPBDH000@Z@base_internal@absl@@QBEXAAPBDAAHAAY0LLI@DABQBD$$QAPAD@Z
    ??$?RAAPBVCommandLineFlag@absl@@@__identity@__Cr@std@@QBEAAPBVCommandLineFlag@absl@@AAPBV34@@Z
    ??$?RAAU?$__alt@$00V?$variant@_K_JN@__Cr@std@@@__variant_detail@__Cr@std@@@?$__value_visitor@UBufferSizeVisitor@?1??BufferSizeForStructuredProtoField@log_internal@absl@@YAIUStructuredProtoField@34@@Z@@__variant@__visitation@__variant_detail@__Cr@std@@QBE?A_TAAU?$__alt@$00V?$variant@_K_JN@__Cr@std@@@345@@Z
    ??$?RAAU?$__alt@$01V?$Span@$$CBD@absl@@@__variant_detail@__Cr@std@@@?$__value_visitor@UBufferSizeVisitor@?1??BufferSizeForStructuredProtoField@log_internal@absl@@YAIUStructuredProtoField@34@@Z@@__variant@__visitation@__variant_detail@__Cr@std@@QBE?A_TAAU?$__alt@$01V?$Span@$$CBD@absl@@@345@@Z
    ??$?RAAU?$__alt@$02V?$variant@IHM@__Cr@std@@@__variant_detail@__Cr@std@@@?$__value_visitor@UBufferSizeVisitor@?1??BufferSizeForStructuredProtoField@log_internal@absl@@YAIUStructuredProtoField@34@@Z@@__variant@__visitation@__variant_detail@__Cr@std@@QBE?A_TAAU?$__alt@$02V?$variant@IHM@__Cr@std@@@345@@Z
    ??$?RAAU?$__alt@$0A@V?$variant@_K_JIH_N@__Cr@std@@@__variant_detail@__Cr@std@@@?$__value_visitor@UBufferSizeVisitor@?1??BufferSizeForStructuredProtoField@log_internal@absl@@YAIUStructuredProtoField@34@@Z@@__variant@__visitation@__variant_detail@__Cr@std@@QBE?A_TAAU?$__alt@$0A@V?$variant@_K_JIH_N@__Cr@std@@@345@@Z
    ??$?RAAW4LogSeverity@absl@@AAPBDAAHPAPADPAH@?$AtomicHook@P6A_NW4LogSeverity@absl@@PBDHPAPADPAH@Z@base_internal@absl@@QBE_NAAW4LogSeverity@2@AAPBDAAH$$QAPAPAD$$QAPAH@Z
    ??$?RAAY04$$CBDPAVCondVar@absl@@@?$AtomicHook@P6AXPBDPBX@Z@base_internal@absl@@QBEXAAY04$$CBD$$QAPAVCondVar@2@@Z
    ??$?RAAY06$$CBDPAVCondVar@absl@@@?$AtomicHook@P6AXPBDPBX@Z@base_internal@absl@@QBEXAAY06$$CBD$$QAPAVCondVar@2@@Z
    ??$?RAAY0BB@$$CBDPAVCondVar@absl@@@?$AtomicHook@P6AXPBDPBX@Z@base_internal@absl@@QBEXAAY0BB@$$CBD$$QAPAVCondVar@2@@Z
    ??$?RAAY0N@$$CBDPAVMutex@absl@@AA_J@?$AtomicHook@P6AXPBDPBX_J@Z@base_internal@absl@@QBEXAAY0N@$$CBD$$QAPAVMutex@2@AA_J@Z
    ??$?RAAY0O@$$CBDPAVCondVar@absl@@@?$AtomicHook@P6AXPBDPBX@Z@base_internal@absl@@QBEXAAY0O@$$CBD$$QAPAVCondVar@2@@Z
    ??$?RAA_J@?$AtomicHook@P6AX_J@Z@base_internal@absl@@QBEXAA_J@Z
    ??$?RABQAPAPBVImpl@time_zone@cctz@time_internal@absl@@@__fn@__iter_move@ranges@__Cr@std@@QBE$$QAPAPBVImpl@time_zone@cctz@time_internal@absl@@ABQAPAPBV56789@@Z
    ??$?RABQAPAUCordRep@cord_internal@absl@@@__fn@__iter_move@ranges@__Cr@std@@QBE$$QAPAUCordRep@cord_internal@absl@@ABQAPAU567@@Z
    ??$?RABQAPAUPrefixCrc@CrcCordState@crc_internal@absl@@@__fn@__iter_move@ranges@__Cr@std@@QBE$$QAPAUPrefixCrc@CrcCordState@crc_internal@absl@@ABQAPAU5678@@Z
    ??$?RABQAPAVLogSink@absl@@@__fn@__iter_move@ranges@__Cr@std@@QBE$$QAPAVLogSink@absl@@ABQAPAV56@@Z
    ??$?RABQAUPayload@status_internal@absl@@@__fn@__iter_move@ranges@__Cr@std@@QBE$$QAUPayload@status_internal@absl@@ABQAU567@@Z
    ??$?RABQAUTransition@cctz@time_internal@absl@@@__fn@__iter_move@ranges@__Cr@std@@QBE$$QAUTransition@cctz@time_internal@absl@@ABQAU5678@@Z
    ??$?RABQAUTransitionType@cctz@time_internal@absl@@@__fn@__iter_move@ranges@__Cr@std@@QBE$$QAUTransitionType@cctz@time_internal@absl@@ABQAU5678@@Z
    ??$?RABUTransition@cctz@time_internal@absl@@@__identity@__Cr@std@@QBEABUTransition@cctz@time_internal@absl@@ABU3456@@Z
    ??$?RPAPBVImpl@time_zone@cctz@time_internal@absl@@PAPBV01234@$0A@@?$__move_backward_impl@U_ClassicAlgPolicy@__Cr@std@@@__Cr@std@@QBE?AU?$pair@PAPAPBVImpl@time_zone@cctz@time_internal@absl@@PAPAPBV12345@@12@PAPAPBVImpl@time_zone@cctz@time_internal@absl@@00@Z
    ??$?RPAPBVImpl@time_zone@cctz@time_internal@absl@@PAPBV01234@$0A@@?$__move_impl@U_ClassicAlgPolicy@__Cr@std@@@__Cr@std@@QBE?AU?$pair@PAPAPBVImpl@time_zone@cctz@time_internal@absl@@PAPAPBV12345@@12@PAPAPBVImpl@time_zone@cctz@time_internal@absl@@00@Z
    ??$?RPAUPrefixCrc@CrcCordState@crc_internal@absl@@PAU0123@$0A@@?$__move_backward_impl@U_ClassicAlgPolicy@__Cr@std@@@__Cr@std@@QBE?AU?$pair@PAPAUPrefixCrc@CrcCordState@crc_internal@absl@@PAPAU1234@@12@PAPAUPrefixCrc@CrcCordState@crc_internal@absl@@00@Z
    ??$?RPAUPrefixCrc@CrcCordState@crc_internal@absl@@PAU0123@$0A@@?$__move_impl@U_ClassicAlgPolicy@__Cr@std@@@__Cr@std@@QBE?AU?$pair@PAPAUPrefixCrc@CrcCordState@crc_internal@absl@@PAPAU1234@@12@PAPAUPrefixCrc@CrcCordState@crc_internal@absl@@00@Z
    ??$?RPAVLogSink@absl@@PAV01@$0A@@?$__move_impl@U_ClassicAlgPolicy@__Cr@std@@@__Cr@std@@QBE?AU?$pair@PAPAVLogSink@absl@@PAPAV12@@12@PAPAVLogSink@absl@@00@Z
    ??$?RPAVSpinLock@base_internal@absl@@AB_J@?$AtomicHook@P6AXPBX_J@Z@base_internal@absl@@QBEX$$QAPAVSpinLock@12@AB_J@Z
    ??$?RPBUPrefixCrc@CrcCordState@crc_internal@absl@@V?$__deque_iterator@UPrefixCrc@CrcCordState@crc_internal@absl@@PAU1234@AAU1234@PAPAU1234@H$0A@@__Cr@std@@$0A@@__copy_impl@__Cr@std@@QBE?AU?$pair@PBUPrefixCrc@CrcCordState@crc_internal@absl@@V?$__deque_iterator@UPrefixCrc@CrcCordState@crc_internal@absl@@PAU1234@AAU1234@PAPAU1234@H$0A@@__Cr@std@@@12@PBUPrefixCrc@CrcCordState@crc_internal@absl@@0V?$__deque_iterator@UPrefixCrc@CrcCordState@crc_internal@absl@@PAU1234@AAU1234@PAPAU1234@H$0A@@12@@Z
    ??$?RUTransition@cctz@time_internal@absl@@U0123@$0A@@?$__move_backward_impl@U_ClassicAlgPolicy@__Cr@std@@@__Cr@std@@QBE?AU?$pair@PAUTransition@cctz@time_internal@absl@@PAU1234@@12@PAUTransition@cctz@time_internal@absl@@00@Z
    ??$?RUTransition@cctz@time_internal@absl@@U0123@$0A@@?$__move_impl@U_ClassicAlgPolicy@__Cr@std@@@__Cr@std@@QBE?AU?$pair@PAUTransition@cctz@time_internal@absl@@PAU1234@@12@PAUTransition@cctz@time_internal@absl@@00@Z
    ??$?RUTransitionType@cctz@time_internal@absl@@U0123@$0A@@?$__move_backward_impl@U_ClassicAlgPolicy@__Cr@std@@@__Cr@std@@QBE?AU?$pair@PAUTransitionType@cctz@time_internal@absl@@PAU1234@@12@PAUTransitionType@cctz@time_internal@absl@@00@Z
    ??$?RUTransitionType@cctz@time_internal@absl@@U0123@$0A@@?$__move_impl@U_ClassicAlgPolicy@__Cr@std@@@__Cr@std@@QBE?AU?$pair@PAUTransitionType@cctz@time_internal@absl@@PAU1234@@12@PAUTransitionType@cctz@time_internal@absl@@00@Z
    ??$?RV?$__deque_iterator@UPrefixCrc@CrcCordState@crc_internal@absl@@PBU1234@ABU1234@PBQBU1234@H$0A@@__Cr@std@@V?$__deque_iterator@UPrefixCrc@CrcCordState@crc_internal@absl@@PAU1234@AAU1234@PAPAU1234@H$0A@@12@$0A@@__copy_impl@__Cr@std@@QBE?AU?$pair@V?$__deque_iterator@UPrefixCrc@CrcCordState@crc_internal@absl@@PBU1234@ABU1234@PBQBU1234@H$0A@@__Cr@std@@V?$__deque_iterator@UPrefixCrc@CrcCordState@crc_internal@absl@@PAU1234@AAU1234@PAPAU1234@H$0A@@23@@12@V?$__deque_iterator@UPrefixCrc@CrcCordState@crc_internal@absl@@PBU1234@ABU1234@PBQBU1234@H$0A@@12@0V?$__deque_iterator@UPrefixCrc@CrcCordState@crc_internal@absl@@PAU1234@AAU1234@PAPAU1234@H$0A@@12@@Z
    ??$?RV?$basic_string_view@DU?$char_traits@D@__Cr@std@@@__Cr@std@@ABUpiecewise_construct_t@12@V?$tuple@$$QAV?$basic_string_view@DU?$char_traits@D@__Cr@std@@@__Cr@std@@@12@V?$tuple@$$QAPAVCommandLineFlag@absl@@@12@@EmplaceDecomposable@?$raw_hash_set@U?$FlatHashMapPolicy@V?$basic_string_view@DU?$char_traits@D@__Cr@std@@@__Cr@std@@PAVCommandLineFlag@absl@@@container_internal@absl@@UStringHash@23@UStringEq@23@V?$allocator@U?$pair@$$CBV?$basic_string_view@DU?$char_traits@D@__Cr@std@@@__Cr@std@@PAVCommandLineFlag@absl@@@__Cr@std@@@__Cr@std@@@container_internal@absl@@QBE?AU?$pair@Viterator@?$raw_hash_set@U?$FlatHashMapPolicy@V?$basic_string_view@DU?$char_traits@D@__Cr@std@@@__Cr@std@@PAVCommandLineFlag@absl@@@container_internal@absl@@UStringHash@23@UStringEq@23@V?$allocator@U?$pair@$$CBV?$basic_string_view@DU?$char_traits@D@__Cr@std@@@__Cr@std@@PAVCommandLineFlag@absl@@@__Cr@std@@@__Cr@std@@@container_internal@absl@@_N@__Cr@std@@ABV?$basic_string_view@DU?$char_traits@D@__Cr@std@@@56@ABUpiecewise_construct_t@56@$$QAV?$tuple@$$QAV?$basic_string_view@DU?$char_traits@D@__Cr@std@@@__Cr@std@@@56@$$QAV?$tuple@$$QAPAVCommandLineFlag@absl@@@56@@Z
    ??$?RV?$basic_string_view@DU?$char_traits@D@__Cr@std@@@__Cr@std@@ABUpiecewise_construct_t@12@V?$tuple@$$QBV?$basic_string_view@DU?$char_traits@D@__Cr@std@@@__Cr@std@@@12@V?$tuple@$$QAPAVCommandLineFlag@absl@@@12@@EmplaceDecomposable@?$raw_hash_set@U?$FlatHashMapPolicy@V?$basic_string_view@DU?$char_traits@D@__Cr@std@@@__Cr@std@@PAVCommandLineFlag@absl@@@container_internal@absl@@UStringHash@23@UStringEq@23@V?$allocator@U?$pair@$$CBV?$basic_string_view@DU?$char_traits@D@__Cr@std@@@__Cr@std@@PAVCommandLineFlag@absl@@@__Cr@std@@@__Cr@std@@@container_internal@absl@@QBE?AU?$pair@Viterator@?$raw_hash_set@U?$FlatHashMapPolicy@V?$basic_string_view@DU?$char_traits@D@__Cr@std@@@__Cr@std@@PAVCommandLineFlag@absl@@@container_internal@absl@@UStringHash@23@UStringEq@23@V?$allocator@U?$pair@$$CBV?$basic_string_view@DU?$char_traits@D@__Cr@std@@@__Cr@std@@PAVCommandLineFlag@absl@@@__Cr@std@@@__Cr@std@@@container_internal@absl@@_N@__Cr@std@@ABV?$basic_string_view@DU?$char_traits@D@__Cr@std@@@56@ABUpiecewise_construct_t@56@$$QAV?$tuple@$$QBV?$basic_string_view@DU?$char_traits@D@__Cr@std@@@__Cr@std@@@56@$$QAV?$tuple@$$QAPAVCommandLineFlag@absl@@@56@@Z
    ??$?RV?$basic_string_view@DU?$char_traits@D@__Cr@std@@@__Cr@std@@ABUpiecewise_construct_t@12@V?$tuple@ABV?$basic_string_view@DU?$char_traits@D@__Cr@std@@@__Cr@std@@@12@V?$tuple@ABQAVCommandLineFlag@absl@@@12@@?$EqualElement@V?$basic_string_view@DU?$char_traits@D@__Cr@std@@@__Cr@std@@@?$raw_hash_set@U?$FlatHashMapPolicy@V?$basic_string_view@DU?$char_traits@D@__Cr@std@@@__Cr@std@@PAVCommandLineFlag@absl@@@container_internal@absl@@UStringHash@23@UStringEq@23@V?$allocator@U?$pair@$$CBV?$basic_string_view@DU?$char_traits@D@__Cr@std@@@__Cr@std@@PAVCommandLineFlag@absl@@@__Cr@std@@@__Cr@std@@@container_internal@absl@@QBE_NABV?$basic_string_view@DU?$char_traits@D@__Cr@std@@@__Cr@std@@ABUpiecewise_construct_t@56@$$QAV?$tuple@ABV?$basic_string_view@DU?$char_traits@D@__Cr@std@@@__Cr@std@@@56@$$QAV?$tuple@ABQAVCommandLineFlag@absl@@@56@@Z
    ??$?RV?$basic_string_view@DU?$char_traits@D@__Cr@std@@@__Cr@std@@ABUpiecewise_construct_t@12@V?$tuple@ABV?$basic_string_view@DU?$char_traits@D@__Cr@std@@@__Cr@std@@@12@V?$tuple@ABQAVCommandLineFlag@absl@@@12@@FindElement@?$raw_hash_set@U?$FlatHashMapPolicy@V?$basic_string_view@DU?$char_traits@D@__Cr@std@@@__Cr@std@@PAVCommandLineFlag@absl@@@container_internal@absl@@UStringHash@23@UStringEq@23@V?$allocator@U?$pair@$$CBV?$basic_string_view@DU?$char_traits@D@__Cr@std@@@__Cr@std@@PAVCommandLineFlag@absl@@@__Cr@std@@@__Cr@std@@@container_internal@absl@@QBE?AVconst_iterator@123@ABV?$basic_string_view@DU?$char_traits@D@__Cr@std@@@__Cr@std@@ABUpiecewise_construct_t@67@$$QAV?$tuple@ABV?$basic_string_view@DU?$char_traits@D@__Cr@std@@@__Cr@std@@@67@$$QAV?$tuple@ABQAVCommandLineFlag@absl@@@67@@Z
    ??$?RV?$basic_string_view@DU?$char_traits@D@__Cr@std@@@__Cr@std@@ABUpiecewise_construct_t@12@V?$tuple@ABV?$basic_string_view@DU?$char_traits@D@__Cr@std@@@__Cr@std@@@12@V?$tuple@ABQAVCommandLineFlag@absl@@@12@@HashElement@?$raw_hash_set@U?$FlatHashMapPolicy@V?$basic_string_view@DU?$char_traits@D@__Cr@std@@@__Cr@std@@PAVCommandLineFlag@absl@@@container_internal@absl@@UStringHash@23@UStringEq@23@V?$allocator@U?$pair@$$CBV?$basic_string_view@DU?$char_traits@D@__Cr@std@@@__Cr@std@@PAVCommandLineFlag@absl@@@__Cr@std@@@__Cr@std@@@container_internal@absl@@QBEIABV?$basic_string_view@DU?$char_traits@D@__Cr@std@@@__Cr@std@@ABUpiecewise_construct_t@56@$$QAV?$tuple@ABV?$basic_string_view@DU?$char_traits@D@__Cr@std@@@__Cr@std@@@56@$$QAV?$tuple@ABQAVCommandLineFlag@absl@@@56@@Z
    ??$?RVDuration@absl@@V01@@?$__less@XX@__Cr@std@@QBE_NABVDuration@absl@@0@Z
    ??$?RVMixingHashState@hash_internal@absl@@@CombineRaw@hash_internal@absl@@QBE?AVMixingHashState@12@V312@_K@Z
    ??$?RW4LogSeverity@absl@@ABQBDHAAPBD@?$AtomicHook@P6AXW4LogSeverity@absl@@PBDHABV?$basic_string@DU?$char_traits@D@__Cr@std@@V?$allocator@D@23@@__Cr@std@@@Z@base_internal@absl@@QBEX$$QAW4LogSeverity@2@ABQBD$$QAHAAPBD@Z
    ??$?RW4LogSeverity@absl@@ABQBDHAAV?$basic_string@DU?$char_traits@D@__Cr@std@@V?$allocator@D@23@@__Cr@std@@@?$AtomicHook@P6AXW4LogSeverity@absl@@PBDHABV?$basic_string@DU?$char_traits@D@__Cr@std@@V?$allocator@D@23@@__Cr@std@@@Z@base_internal@absl@@QBEX$$QAW4LogSeverity@2@ABQBD$$QAHAAV?$basic_string@DU?$char_traits@D@__Cr@std@@V?$allocator@D@23@@__Cr@std@@@Z
    ??$?RW4LogSeverity@absl@@ABQBDHAAY0CC@$$CBD@?$AtomicHook@P6AXW4LogSeverity@absl@@PBDHABV?$basic_string@DU?$char_traits@D@__Cr@std@@V?$allocator@D@23@@__Cr@std@@@Z@base_internal@absl@@QBEX$$QAW4LogSeverity@2@ABQBD$$QAHAAY0CC@$$CBD@Z
    ??$?RW4LogSeverity@absl@@ABQBDHAAY0CG@$$CBD@?$AtomicHook@P6AXW4LogSeverity@absl@@PBDHABV?$basic_string@DU?$char_traits@D@__Cr@std@@V?$allocator@D@23@@__Cr@std@@@Z@base_internal@absl@@QBEX$$QAW4LogSeverity@2@ABQBD$$QAHAAY0CG@$$CBD@Z
    ??$?RW4LogSeverity@absl@@ABQBDHAAY0CH@$$CBD@?$AtomicHook@P6AXW4LogSeverity@absl@@PBDHABV?$basic_string@DU?$char_traits@D@__Cr@std@@V?$allocator@D@23@@__Cr@std@@@Z@base_internal@absl@@QBEX$$QAW4LogSeverity@2@ABQBD$$QAHAAY0CH@$$CBD@Z
    ??$?RW4LogSeverity@absl@@ABQBDHAAY0CI@$$CBD@?$AtomicHook@P6AXW4LogSeverity@absl@@PBDHABV?$basic_string@DU?$char_traits@D@__Cr@std@@V?$allocator@D@23@@__Cr@std@@@Z@base_internal@absl@@QBEX$$QAW4LogSeverity@2@ABQBD$$QAHAAY0CI@$$CBD@Z
    ??$?RW4LogSeverity@absl@@ABQBDHAAY0CL@$$CBD@?$AtomicHook@P6AXW4LogSeverity@absl@@PBDHABV?$basic_string@DU?$char_traits@D@__Cr@std@@V?$allocator@D@23@@__Cr@std@@@Z@base_internal@absl@@QBEX$$QAW4LogSeverity@2@ABQBD$$QAHAAY0CL@$$CBD@Z
    ??$?RW4LogSeverity@absl@@ABQBDHV?$basic_string@DU?$char_traits@D@__Cr@std@@V?$allocator@D@23@@__Cr@std@@@?$AtomicHook@P6AXW4LogSeverity@absl@@PBDHABV?$basic_string@DU?$char_traits@D@__Cr@std@@V?$allocator@D@23@@__Cr@std@@@Z@base_internal@absl@@QBEX$$QAW4LogSeverity@2@ABQBD$$QAH$$QAV?$basic_string@DU?$char_traits@D@__Cr@std@@V?$allocator@D@23@@__Cr@std@@@Z
    ??$?VAAVLogMessage@log_internal@absl@@@Voidify@log_internal@absl@@QHBEXAAVLogMessage@12@@Z
    ??$?XH$0A@@Duration@absl@@QAEAAV01@H@Z
    ??$AbslHashValue@VMixingHashState@hash_internal@absl@@@hash_internal@absl@@YA?AVMixingHashState@01@V201@V?$basic_string_view@DU?$char_traits@D@__Cr@std@@@__Cr@std@@@Z
    ??$AbslHashValue@VMixingHashState@hash_internal@absl@@ABI@hash_internal@absl@@YA?AVMixingHashState@01@V201@ABV?$tuple@ABI@__Cr@std@@@Z
    ??$AbslHashValue@VMixingHashState@hash_internal@absl@@ABV?$basic_string_view@DU?$char_traits@D@__Cr@std@@@__Cr@std@@ABH@hash_internal@absl@@YA?AVMixingHashState@01@V201@ABV?$tuple@ABV?$basic_string_view@DU?$char_traits@D@__Cr@std@@@__Cr@std@@ABH@__Cr@std@@@Z
    ??$AbslStringify@VStringifySink@strings_internal@absl@@@absl@@YAXAAVStringifySink@strings_internal@0@UHex@0@@Z
    ??$Add@$00@CordRepBtree@cord_internal@absl@@AAEXPAUCordRep@12@@Z
    ??$Add@$00@CordRepBtree@cord_internal@absl@@AAEXV?$Span@QAUCordRep@cord_internal@absl@@@2@@Z
    ??$Add@$0A@@CordRepBtree@cord_internal@absl@@AAEXPAUCordRep@12@@Z
    ??$Add@$0A@@CordRepBtree@cord_internal@absl@@AAEXV?$Span@QAUCordRep@cord_internal@absl@@@2@@Z
    ??$AddCordRep@$00@CordRepBtree@cord_internal@absl@@CAPAV012@PAV012@PAUCordRep@12@@Z
    ??$AddCordRep@$0A@@CordRepBtree@cord_internal@absl@@CAPAV012@PAV012@PAUCordRep@12@@Z
    ??$AddData@$00@CordRepBtree@cord_internal@absl@@AAE?AV?$basic_string_view@DU?$char_traits@D@__Cr@std@@@__Cr@std@@V345@I@Z
    ??$AddData@$00@CordRepBtree@cord_internal@absl@@CAPAV012@PAV012@V?$basic_string_view@DU?$char_traits@D@__Cr@std@@@__Cr@std@@I@Z
    ??$AddData@$0A@@CordRepBtree@cord_internal@absl@@AAE?AV?$basic_string_view@DU?$char_traits@D@__Cr@std@@@__Cr@std@@V345@I@Z
    ??$AddData@$0A@@CordRepBtree@cord_internal@absl@@CAPAV012@PAV012@V?$basic_string_view@DU?$char_traits@D@__Cr@std@@@__Cr@std@@I@Z
    ??$AddEdge@$00@CordRepBtree@cord_internal@absl@@QAE?AUOpResult@012@_NPAUCordRep@12@I@Z
    ??$AddEdge@$0A@@CordRepBtree@cord_internal@absl@@QAE?AUOpResult@012@_NPAUCordRep@12@I@Z
    ??$Allocate@$03V?$allocator@D@__Cr@std@@@container_internal@absl@@YAPAXPAV?$allocator@D@__Cr@std@@I@Z
    ??$AllocateBackingArray@$03V?$allocator@D@__Cr@std@@@container_internal@absl@@YAPAXPAXI@Z
    ??$Append@V?$basic_string@DU?$char_traits@D@__Cr@std@@V?$allocator@D@23@@__Cr@std@@$0A@@Cord@absl@@QAEX$$QAV?$basic_string@DU?$char_traits@D@__Cr@std@@V?$allocator@D@23@@__Cr@std@@@Z
    ??$AppendImpl@ABVCord@absl@@@Cord@absl@@AAEXABV01@@Z
    ??$AppendImpl@VCord@absl@@@Cord@absl@@AAEX$$QAV01@@Z
    ??$ArgumentToConv@C@str_format_internal@absl@@YA?AW4FormatConversionCharSet@1@XZ
    ??$ArgumentToConv@D@str_format_internal@absl@@YA?AW4FormatConversionCharSet@1@XZ
    ??$ArgumentToConv@E@str_format_internal@absl@@YA?AW4FormatConversionCharSet@1@XZ
    ??$ArgumentToConv@F@str_format_internal@absl@@YA?AW4FormatConversionCharSet@1@XZ
    ??$ArgumentToConv@G@str_format_internal@absl@@YA?AW4FormatConversionCharSet@1@XZ
    ??$ArgumentToConv@H@str_format_internal@absl@@YA?AW4FormatConversionCharSet@1@XZ
    ??$ArgumentToConv@I@str_format_internal@absl@@YA?AW4FormatConversionCharSet@1@XZ
    ??$ArgumentToConv@J@str_format_internal@absl@@YA?AW4FormatConversionCharSet@1@XZ
    ??$ArgumentToConv@K@str_format_internal@absl@@YA?AW4FormatConversionCharSet@1@XZ
    ??$ArgumentToConv@M@str_format_internal@absl@@YA?AW4FormatConversionCharSet@1@XZ
    ??$ArgumentToConv@N@str_format_internal@absl@@YA?AW4FormatConversionCharSet@1@XZ
    ??$ArgumentToConv@O@str_format_internal@absl@@YA?AW4FormatConversionCharSet@1@XZ
    ??$ArgumentToConv@PBD@str_format_internal@absl@@YA?AW4FormatConversionCharSet@1@XZ
    ??$ArgumentToConv@PB_W@str_format_internal@absl@@YA?AW4FormatConversionCharSet@1@XZ
    ??$ArgumentToConv@UVoidPtr@str_format_internal@absl@@@str_format_internal@absl@@YA?AW4FormatConversionCharSet@1@XZ
    ??$ArgumentToConv@V?$basic_string@DU?$char_traits@D@__Cr@std@@V?$allocator@D@23@@__Cr@std@@@str_format_internal@absl@@YA?AW4FormatConversionCharSet@1@XZ
    ??$ArgumentToConv@V?$basic_string@_WU?$char_traits@_W@__Cr@std@@V?$allocator@_W@23@@__Cr@std@@@str_format_internal@absl@@YA?AW4FormatConversionCharSet@1@XZ
    ??$ArgumentToConv@V?$basic_string_view@DU?$char_traits@D@__Cr@std@@@__Cr@std@@@str_format_internal@absl@@YA?AW4FormatConversionCharSet@1@XZ
    ??$ArgumentToConv@V?$basic_string_view@_WU?$char_traits@_W@__Cr@std@@@__Cr@std@@@str_format_internal@absl@@YA?AW4FormatConversionCharSet@1@XZ
    ??$ArgumentToConv@Vint128@absl@@@str_format_internal@absl@@YA?AW4FormatConversionCharSet@1@XZ
    ??$ArgumentToConv@Vuint128@absl@@@str_format_internal@absl@@YA?AW4FormatConversionCharSet@1@XZ
    ??$ArgumentToConv@_J@str_format_internal@absl@@YA?AW4FormatConversionCharSet@1@XZ
    ??$ArgumentToConv@_K@str_format_internal@absl@@YA?AW4FormatConversionCharSet@1@XZ
    ??$ArgumentToConv@_N@str_format_internal@absl@@YA?AW4FormatConversionCharSet@1@XZ
    ??$AsciiInAZRange@$00@ascii_internal@absl@@YA_NE@Z
    ??$AsciiInAZRange@$0A@@ascii_internal@absl@@YA_NE@Z
    ??$AsciiInAZRangeNaive@$00@ascii_internal@absl@@YA_NE@Z
    ??$AsciiInAZRangeNaive@$0A@@ascii_internal@absl@@YA_NE@Z
    ??$AsciiStrCaseFold@$00@ascii_internal@absl@@YAXPADPBDI@Z
    ??$AsciiStrCaseFold@$0A@@ascii_internal@absl@@YAXPADPBDI@Z
    ??$AsciiStrCaseFoldImpl@$00$00@ascii_internal@absl@@YAXPADPBDI@Z
    ??$AsciiStrCaseFoldImpl@$00$0A@@ascii_internal@absl@@YAXPADPBDI@Z
    ??$AsciiStrCaseFoldImpl@$0A@$00@ascii_internal@absl@@YAXPADPBDI@Z
    ??$AsciiStrCaseFoldImpl@$0A@$0A@@ascii_internal@absl@@YAXPADPBDI@Z
    ??$AssertHashEqConsistent@V?$basic_string_view@DU?$char_traits@D@__Cr@std@@@__Cr@std@@@?$raw_hash_set@U?$FlatHashMapPolicy@V?$basic_string_view@DU?$char_traits@D@__Cr@std@@@__Cr@std@@PAVCommandLineFlag@absl@@@container_internal@absl@@UStringHash@23@UStringEq@23@V?$allocator@U?$pair@$$CBV?$basic_string_view@DU?$char_traits@D@__Cr@std@@@__Cr@std@@PAVCommandLineFlag@absl@@@__Cr@std@@@__Cr@std@@@container_internal@absl@@IAEXABV?$basic_string_view@DU?$char_traits@D@__Cr@std@@@__Cr@std@@@Z
    ??$AssertOnFind@V?$basic_string_view@DU?$char_traits@D@__Cr@std@@@__Cr@std@@@?$raw_hash_set@U?$FlatHashMapPolicy@V?$basic_string_view@DU?$char_traits@D@__Cr@std@@@__Cr@std@@PAVCommandLineFlag@absl@@@container_internal@absl@@UStringHash@23@UStringEq@23@V?$allocator@U?$pair@$$CBV?$basic_string_view@DU?$char_traits@D@__Cr@std@@@__Cr@std@@PAVCommandLineFlag@absl@@@__Cr@std@@@__Cr@std@@@container_internal@absl@@IAEXABV?$basic_string_view@DU?$char_traits@D@__Cr@std@@@__Cr@std@@@Z
    ??$AssignElements@V?$allocator@UPayload@status_internal@absl@@@__Cr@std@@V?$IteratorValueAdapter@V?$allocator@UPayload@status_internal@absl@@@__Cr@std@@V?$move_iterator@PAUPayload@status_internal@absl@@@23@@inlined_vector_internal@absl@@@inlined_vector_internal@absl@@YAXPAUPayload@status_internal@1@AAV?$IteratorValueAdapter@V?$allocator@UPayload@status_internal@absl@@@__Cr@std@@V?$move_iterator@PAUPayload@status_internal@absl@@@23@@01@I@Z
    ??$Base64EscapeInternal@V?$basic_string@DU?$char_traits@D@__Cr@std@@V?$allocator@D@23@@__Cr@std@@@strings_internal@absl@@YAXPBEIPAV?$basic_string@DU?$char_traits@D@__Cr@std@@V?$allocator@D@23@@__Cr@std@@_NPBD@Z
    ??$CallOnceImpl@A6AXXZ$$V@base_internal@absl@@YAXPAU?$atomic@I@__Cr@std@@W4SchedulingMode@01@A6AXXZ@Z
    ??$CallOnceImpl@P8FlagImpl@flags_internal@absl@@AEXXZPAV123@@base_internal@absl@@YAXPAU?$atomic@I@__Cr@std@@W4SchedulingMode@01@$$QAP8FlagImpl@flags_internal@1@AEXXZ$$QAPAV671@@Z
    ??$CastAndCallFunction@$$CBU?$atomic@_N@__Cr@std@@@Condition@absl@@CA_NPBV01@@Z
    ??$CastAndCallFunction@USynchEvent@absl@@@Condition@absl@@CA_NPBV01@@Z
    ??$Compare@$0FE@$0FE@@strings_internal@absl@@YAHABV?$BigUnsigned@$0FE@@01@0@Z
    ??$ConstructElements@V?$allocator@PAUCordRep@cord_internal@absl@@@__Cr@std@@V?$IteratorValueAdapter@V?$allocator@PAUCordRep@cord_internal@absl@@@__Cr@std@@V?$move_iterator@PAPAUCordRep@cord_internal@absl@@@23@@inlined_vector_internal@absl@@@inlined_vector_internal@absl@@YAXAAV?$allocator@PAUCordRep@cord_internal@absl@@@__Cr@std@@PAPAUCordRep@cord_internal@1@AAV?$IteratorValueAdapter@V?$allocator@PAUCordRep@cord_internal@absl@@@__Cr@std@@V?$move_iterator@PAPAUCordRep@cord_internal@absl@@@23@@01@I@Z
    ??$ConstructElements@V?$allocator@PAVLogSink@absl@@@__Cr@std@@V?$IteratorValueAdapter@V?$allocator@PAVLogSink@absl@@@__Cr@std@@V?$move_iterator@PAPAVLogSink@absl@@@23@@inlined_vector_internal@absl@@@inlined_vector_internal@absl@@YAXAAV?$allocator@PAVLogSink@absl@@@__Cr@std@@PAPAVLogSink@1@AAV?$IteratorValueAdapter@V?$allocator@PAVLogSink@absl@@@__Cr@std@@V?$move_iterator@PAPAVLogSink@absl@@@23@@01@I@Z
    ??$ConstructElements@V?$allocator@UPayload@status_internal@absl@@@__Cr@std@@V?$IteratorValueAdapter@V?$allocator@UPayload@status_internal@absl@@@__Cr@std@@PBUPayload@status_internal@absl@@@inlined_vector_internal@absl@@@inlined_vector_internal@absl@@YAXAAV?$allocator@UPayload@status_internal@absl@@@__Cr@std@@PAUPayload@status_internal@1@AAV?$IteratorValueAdapter@V?$allocator@UPayload@status_internal@absl@@@__Cr@std@@PBUPayload@status_internal@absl@@@01@I@Z
    ??$ConstructElements@V?$allocator@UPayload@status_internal@absl@@@__Cr@std@@V?$IteratorValueAdapter@V?$allocator@UPayload@status_internal@absl@@@__Cr@std@@V?$move_iterator@PAUPayload@status_internal@absl@@@23@@inlined_vector_internal@absl@@@inlined_vector_internal@absl@@YAXAAV?$allocator@UPayload@status_internal@absl@@@__Cr@std@@PAUPayload@status_internal@1@AAV?$IteratorValueAdapter@V?$allocator@UPayload@status_internal@absl@@@__Cr@std@@V?$move_iterator@PAUPayload@status_internal@absl@@@23@@01@I@Z
    ??$ConstructElements@V?$allocator@VFormatArgImpl@str_format_internal@absl@@@__Cr@std@@V?$IteratorValueAdapter@V?$allocator@VFormatArgImpl@str_format_internal@absl@@@__Cr@std@@PBVFormatArgImpl@str_format_internal@absl@@@inlined_vector_internal@absl@@@inlined_vector_internal@absl@@YAXAAV?$allocator@VFormatArgImpl@str_format_internal@absl@@@__Cr@std@@PAVFormatArgImpl@str_format_internal@1@AAV?$IteratorValueAdapter@V?$allocator@VFormatArgImpl@str_format_internal@absl@@@__Cr@std@@PBVFormatArgImpl@str_format_internal@absl@@@01@I@Z
    ??$ConsumeConversion@$00@str_format_internal@absl@@YAPBDPBDQBDPAUUnboundConversion@01@PAH@Z
    ??$ConsumeConversion@$0A@@str_format_internal@absl@@YAPBDPBDQBDPAUUnboundConversion@01@PAH@Z
    ??$Convert@VFormatArgImpl@str_format_internal@absl@@@FormatArgImplFriend@str_format_internal@absl@@SA_NVFormatArgImpl@12@VFormatConversionSpecImpl@12@PAVFormatSinkImpl@12@@Z
    ??$ConvertIntArg@C@str_format_internal@absl@@YA_NCVFormatConversionSpecImpl@01@PAVFormatSinkImpl@01@@Z
    ??$ConvertIntArg@D@str_format_internal@absl@@YA_NDVFormatConversionSpecImpl@01@PAVFormatSinkImpl@01@@Z
    ??$ConvertIntArg@E@str_format_internal@absl@@YA_NEVFormatConversionSpecImpl@01@PAVFormatSinkImpl@01@@Z
    ??$ConvertIntArg@F@str_format_internal@absl@@YA_NFVFormatConversionSpecImpl@01@PAVFormatSinkImpl@01@@Z
    ??$ConvertIntArg@G@str_format_internal@absl@@YA_NGVFormatConversionSpecImpl@01@PAVFormatSinkImpl@01@@Z
    ??$ConvertIntArg@H@str_format_internal@absl@@YA_NHVFormatConversionSpecImpl@01@PAVFormatSinkImpl@01@@Z
    ??$ConvertIntArg@I@str_format_internal@absl@@YA_NIVFormatConversionSpecImpl@01@PAVFormatSinkImpl@01@@Z
    ??$ConvertIntArg@J@str_format_internal@absl@@YA_NJVFormatConversionSpecImpl@01@PAVFormatSinkImpl@01@@Z
    ??$ConvertIntArg@K@str_format_internal@absl@@YA_NKVFormatConversionSpecImpl@01@PAVFormatSinkImpl@01@@Z
    ??$ConvertIntArg@Vint128@absl@@@str_format_internal@absl@@YA_NVint128@1@VFormatConversionSpecImpl@01@PAVFormatSinkImpl@01@@Z
    ??$ConvertIntArg@Vuint128@absl@@@str_format_internal@absl@@YA_NVuint128@1@VFormatConversionSpecImpl@01@PAVFormatSinkImpl@01@@Z
    ??$ConvertIntArg@_J@str_format_internal@absl@@YA_N_JVFormatConversionSpecImpl@01@PAVFormatSinkImpl@01@@Z
    ??$ConvertIntArg@_K@str_format_internal@absl@@YA_N_KVFormatConversionSpecImpl@01@PAVFormatSinkImpl@01@@Z
    ??$ConvertIntArg@_W@str_format_internal@absl@@YA_N_WVFormatConversionSpecImpl@01@PAVFormatSinkImpl@01@@Z
    ??$CopyToEncodedBuffer@$00@LogMessage@log_internal@absl@@AAEXDI@Z
    ??$CopyToEncodedBuffer@$00@LogMessage@log_internal@absl@@AAEXV?$basic_string_view@DU?$char_traits@D@__Cr@std@@@__Cr@std@@@Z
    ??$CopyToEncodedBuffer@$0A@@LogMessage@log_internal@absl@@AAEXDI@Z
    ??$CopyToEncodedBuffer@$0A@@LogMessage@log_internal@absl@@AAEXV?$basic_string_view@DU?$char_traits@D@__Cr@std@@@__Cr@std@@@Z
    ??$CopyToEncodedBufferWithStructuredProtoField@$00@LogMessage@log_internal@absl@@AAEXUStructuredProtoField@12@V?$basic_string_view@DU?$char_traits@D@__Cr@std@@@__Cr@std@@@Z
    ??$CopyToEncodedBufferWithStructuredProtoField@$0A@@LogMessage@log_internal@absl@@AAEXUStructuredProtoField@12@V?$basic_string_view@DU?$char_traits@D@__Cr@std@@@__Cr@std@@@Z
    ??$CreateDefault@$0A@@CommonFields@container_internal@absl@@SA?AV012@XZ
    ??$CreateWithCustomLimitImpl@$$V@CordBuffer@absl@@CA?AV01@II@Z
    ??$Deallocate@$03V?$allocator@D@__Cr@std@@@container_internal@absl@@YAXPAV?$allocator@D@__Cr@std@@PAXI@Z
    ??$DeallocateBackingArray@$03V?$allocator@D@__Cr@std@@@container_internal@absl@@YAXPAXIPAW4ctrl_t@01@II_N@Z
    ??$DecomposePair@U?$EqualElement@V?$basic_string_view@DU?$char_traits@D@__Cr@std@@@__Cr@std@@@?$raw_hash_set@U?$FlatHashMapPolicy@V?$basic_string_view@DU?$char_traits@D@__Cr@std@@@__Cr@std@@PAVCommandLineFlag@absl@@@container_internal@absl@@UStringHash@23@UStringEq@23@V?$allocator@U?$pair@$$CBV?$basic_string_view@DU?$char_traits@D@__Cr@std@@@__Cr@std@@PAVCommandLineFlag@absl@@@__Cr@std@@@__Cr@std@@@container_internal@absl@@AAU?$pair@$$CBV?$basic_string_view@DU?$char_traits@D@__Cr@std@@@__Cr@std@@PAVCommandLineFlag@absl@@@__Cr@std@@@container_internal@absl@@YA_N$$QAU?$EqualElement@V?$basic_string_view@DU?$char_traits@D@__Cr@std@@@__Cr@std@@@?$raw_hash_set@U?$FlatHashMapPolicy@V?$basic_string_view@DU?$char_traits@D@__Cr@std@@@__Cr@std@@PAVCommandLineFlag@absl@@@container_internal@absl@@UStringHash@23@UStringEq@23@V?$allocator@U?$pair@$$CBV?$basic_string_view@DU?$char_traits@D@__Cr@std@@@__Cr@std@@PAVCommandLineFlag@absl@@@__Cr@std@@@__Cr@std@@@01@AAU?$pair@$$CBV?$basic_string_view@DU?$char_traits@D@__Cr@std@@@__Cr@std@@PAVCommandLineFlag@absl@@@__Cr@std@@@Z
    ??$DecomposePair@UEmplaceDecomposable@?$raw_hash_set@U?$FlatHashMapPolicy@V?$basic_string_view@DU?$char_traits@D@__Cr@std@@@__Cr@std@@PAVCommandLineFlag@absl@@@container_internal@absl@@UStringHash@23@UStringEq@23@V?$allocator@U?$pair@$$CBV?$basic_string_view@DU?$char_traits@D@__Cr@std@@@__Cr@std@@PAVCommandLineFlag@absl@@@__Cr@std@@@__Cr@std@@@container_internal@absl@@U?$pair@$$CBV?$basic_string_view@DU?$char_traits@D@__Cr@std@@@__Cr@std@@PAVCommandLineFlag@absl@@@__Cr@std@@@container_internal@absl@@YA?AU?$pair@Viterator@?$raw_hash_set@U?$FlatHashMapPolicy@V?$basic_string_view@DU?$char_traits@D@__Cr@std@@@__Cr@std@@PAVCommandLineFlag@absl@@@container_internal@absl@@UStringHash@23@UStringEq@23@V?$allocator@U?$pair@$$CBV?$basic_string_view@DU?$char_traits@D@__Cr@std@@@__Cr@std@@PAVCommandLineFlag@absl@@@__Cr@std@@@__Cr@std@@@container_internal@absl@@_N@__Cr@std@@$$QAUEmplaceDecomposable@?$raw_hash_set@U?$FlatHashMapPolicy@V?$basic_string_view@DU?$char_traits@D@__Cr@std@@@__Cr@std@@PAVCommandLineFlag@absl@@@container_internal@absl@@UStringHash@23@UStringEq@23@V?$allocator@U?$pair@$$CBV?$basic_string_view@DU?$char_traits@D@__Cr@std@@@__Cr@std@@PAVCommandLineFlag@absl@@@__Cr@std@@@__Cr@std@@@01@$$QAU?$pair@$$CBV?$basic_string_view@DU?$char_traits@D@__Cr@std@@@__Cr@std@@PAVCommandLineFlag@absl@@@34@@Z
    ??$DecomposePair@UEmplaceDecomposable@?$raw_hash_set@U?$FlatHashMapPolicy@V?$basic_string_view@DU?$char_traits@D@__Cr@std@@@__Cr@std@@PAVCommandLineFlag@absl@@@container_internal@absl@@UStringHash@23@UStringEq@23@V?$allocator@U?$pair@$$CBV?$basic_string_view@DU?$char_traits@D@__Cr@std@@@__Cr@std@@PAVCommandLineFlag@absl@@@__Cr@std@@@__Cr@std@@@container_internal@absl@@U?$pair@V?$basic_string_view@DU?$char_traits@D@__Cr@std@@@__Cr@std@@PAVCommandLineFlag@absl@@@__Cr@std@@@container_internal@absl@@YA?AU?$pair@Viterator@?$raw_hash_set@U?$FlatHashMapPolicy@V?$basic_string_view@DU?$char_traits@D@__Cr@std@@@__Cr@std@@PAVCommandLineFlag@absl@@@container_internal@absl@@UStringHash@23@UStringEq@23@V?$allocator@U?$pair@$$CBV?$basic_string_view@DU?$char_traits@D@__Cr@std@@@__Cr@std@@PAVCommandLineFlag@absl@@@__Cr@std@@@__Cr@std@@@container_internal@absl@@_N@__Cr@std@@$$QAUEmplaceDecomposable@?$raw_hash_set@U?$FlatHashMapPolicy@V?$basic_string_view@DU?$char_traits@D@__Cr@std@@@__Cr@std@@PAVCommandLineFlag@absl@@@container_internal@absl@@UStringHash@23@UStringEq@23@V?$allocator@U?$pair@$$CBV?$basic_string_view@DU?$char_traits@D@__Cr@std@@@__Cr@std@@PAVCommandLineFlag@absl@@@__Cr@std@@@__Cr@std@@@01@$$QAU?$pair@V?$basic_string_view@DU?$char_traits@D@__Cr@std@@@__Cr@std@@PAVCommandLineFlag@absl@@@34@@Z
    ??$DecomposePair@UFindElement@?$raw_hash_set@U?$FlatHashMapPolicy@V?$basic_string_view@DU?$char_traits@D@__Cr@std@@@__Cr@std@@PAVCommandLineFlag@absl@@@container_internal@absl@@UStringHash@23@UStringEq@23@V?$allocator@U?$pair@$$CBV?$basic_string_view@DU?$char_traits@D@__Cr@std@@@__Cr@std@@PAVCommandLineFlag@absl@@@__Cr@std@@@__Cr@std@@@container_internal@absl@@AAU?$pair@$$CBV?$basic_string_view@DU?$char_traits@D@__Cr@std@@@__Cr@std@@PAVCommandLineFlag@absl@@@__Cr@std@@@container_internal@absl@@YA?AVconst_iterator@?$raw_hash_set@U?$FlatHashMapPolicy@V?$basic_string_view@DU?$char_traits@D@__Cr@std@@@__Cr@std@@PAVCommandLineFlag@absl@@@container_internal@absl@@UStringHash@23@UStringEq@23@V?$allocator@U?$pair@$$CBV?$basic_string_view@DU?$char_traits@D@__Cr@std@@@__Cr@std@@PAVCommandLineFlag@absl@@@__Cr@std@@@__Cr@std@@@01@$$QAUFindElement@301@AAU?$pair@$$CBV?$basic_string_view@DU?$char_traits@D@__Cr@std@@@__Cr@std@@PAVCommandLineFlag@absl@@@__Cr@std@@@Z
    ??$DecomposePair@UHashElement@?$raw_hash_set@U?$FlatHashMapPolicy@V?$basic_string_view@DU?$char_traits@D@__Cr@std@@@__Cr@std@@PAVCommandLineFlag@absl@@@container_internal@absl@@UStringHash@23@UStringEq@23@V?$allocator@U?$pair@$$CBV?$basic_string_view@DU?$char_traits@D@__Cr@std@@@__Cr@std@@PAVCommandLineFlag@absl@@@__Cr@std@@@__Cr@std@@@container_internal@absl@@AAU?$pair@$$CBV?$basic_string_view@DU?$char_traits@D@__Cr@std@@@__Cr@std@@PAVCommandLineFlag@absl@@@__Cr@std@@@container_internal@absl@@YAI$$QAUHashElement@?$raw_hash_set@U?$FlatHashMapPolicy@V?$basic_string_view@DU?$char_traits@D@__Cr@std@@@__Cr@std@@PAVCommandLineFlag@absl@@@container_internal@absl@@UStringHash@23@UStringEq@23@V?$allocator@U?$pair@$$CBV?$basic_string_view@DU?$char_traits@D@__Cr@std@@@__Cr@std@@PAVCommandLineFlag@absl@@@__Cr@std@@@__Cr@std@@@01@AAU?$pair@$$CBV?$basic_string_view@DU?$char_traits@D@__Cr@std@@@__Cr@std@@PAVCommandLineFlag@absl@@@__Cr@std@@@Z
    ??$DecomposePairImpl@U?$EqualElement@V?$basic_string_view@DU?$char_traits@D@__Cr@std@@@__Cr@std@@@?$raw_hash_set@U?$FlatHashMapPolicy@V?$basic_string_view@DU?$char_traits@D@__Cr@std@@@__Cr@std@@PAVCommandLineFlag@absl@@@container_internal@absl@@UStringHash@23@UStringEq@23@V?$allocator@U?$pair@$$CBV?$basic_string_view@DU?$char_traits@D@__Cr@std@@@__Cr@std@@PAVCommandLineFlag@absl@@@__Cr@std@@@__Cr@std@@@container_internal@absl@@ABV?$basic_string_view@DU?$char_traits@D@__Cr@std@@@__Cr@std@@V?$tuple@ABQAVCommandLineFlag@absl@@@67@@memory_internal@container_internal@absl@@YA_N$$QAU?$EqualElement@V?$basic_string_view@DU?$char_traits@D@__Cr@std@@@__Cr@std@@@?$raw_hash_set@U?$FlatHashMapPolicy@V?$basic_string_view@DU?$char_traits@D@__Cr@std@@@__Cr@std@@PAVCommandLineFlag@absl@@@container_internal@absl@@UStringHash@23@UStringEq@23@V?$allocator@U?$pair@$$CBV?$basic_string_view@DU?$char_traits@D@__Cr@std@@@__Cr@std@@PAVCommandLineFlag@absl@@@__Cr@std@@@__Cr@std@@@12@U?$pair@V?$tuple@ABV?$basic_string_view@DU?$char_traits@D@__Cr@std@@@__Cr@std@@@__Cr@std@@V?$tuple@ABQAVCommandLineFlag@absl@@@23@@__Cr@std@@@Z
    ??$DecomposePairImpl@UEmplaceDecomposable@?$raw_hash_set@U?$FlatHashMapPolicy@V?$basic_string_view@DU?$char_traits@D@__Cr@std@@@__Cr@std@@PAVCommandLineFlag@absl@@@container_internal@absl@@UStringHash@23@UStringEq@23@V?$allocator@U?$pair@$$CBV?$basic_string_view@DU?$char_traits@D@__Cr@std@@@__Cr@std@@PAVCommandLineFlag@absl@@@__Cr@std@@@__Cr@std@@@container_internal@absl@@$$QAV?$basic_string_view@DU?$char_traits@D@__Cr@std@@@__Cr@std@@V?$tuple@$$QAPAVCommandLineFlag@absl@@@67@@memory_internal@container_internal@absl@@YA?AU?$pair@Viterator@?$raw_hash_set@U?$FlatHashMapPolicy@V?$basic_string_view@DU?$char_traits@D@__Cr@std@@@__Cr@std@@PAVCommandLineFlag@absl@@@container_internal@absl@@UStringHash@23@UStringEq@23@V?$allocator@U?$pair@$$CBV?$basic_string_view@DU?$char_traits@D@__Cr@std@@@__Cr@std@@PAVCommandLineFlag@absl@@@__Cr@std@@@__Cr@std@@@container_internal@absl@@_N@__Cr@std@@$$QAUEmplaceDecomposable@?$raw_hash_set@U?$FlatHashMapPolicy@V?$basic_string_view@DU?$char_traits@D@__Cr@std@@@__Cr@std@@PAVCommandLineFlag@absl@@@container_internal@absl@@UStringHash@23@UStringEq@23@V?$allocator@U?$pair@$$CBV?$basic_string_view@DU?$char_traits@D@__Cr@std@@@__Cr@std@@PAVCommandLineFlag@absl@@@__Cr@std@@@__Cr@std@@@12@U?$pair@V?$tuple@$$QAV?$basic_string_view@DU?$char_traits@D@__Cr@std@@@__Cr@std@@@__Cr@std@@V?$tuple@$$QAPAVCommandLineFlag@absl@@@23@@45@@Z
    ??$DecomposePairImpl@UEmplaceDecomposable@?$raw_hash_set@U?$FlatHashMapPolicy@V?$basic_string_view@DU?$char_traits@D@__Cr@std@@@__Cr@std@@PAVCommandLineFlag@absl@@@container_internal@absl@@UStringHash@23@UStringEq@23@V?$allocator@U?$pair@$$CBV?$basic_string_view@DU?$char_traits@D@__Cr@std@@@__Cr@std@@PAVCommandLineFlag@absl@@@__Cr@std@@@__Cr@std@@@container_internal@absl@@$$QBV?$basic_string_view@DU?$char_traits@D@__Cr@std@@@__Cr@std@@V?$tuple@$$QAPAVCommandLineFlag@absl@@@67@@memory_internal@container_internal@absl@@YA?AU?$pair@Viterator@?$raw_hash_set@U?$FlatHashMapPolicy@V?$basic_string_view@DU?$char_traits@D@__Cr@std@@@__Cr@std@@PAVCommandLineFlag@absl@@@container_internal@absl@@UStringHash@23@UStringEq@23@V?$allocator@U?$pair@$$CBV?$basic_string_view@DU?$char_traits@D@__Cr@std@@@__Cr@std@@PAVCommandLineFlag@absl@@@__Cr@std@@@__Cr@std@@@container_internal@absl@@_N@__Cr@std@@$$QAUEmplaceDecomposable@?$raw_hash_set@U?$FlatHashMapPolicy@V?$basic_string_view@DU?$char_traits@D@__Cr@std@@@__Cr@std@@PAVCommandLineFlag@absl@@@container_internal@absl@@UStringHash@23@UStringEq@23@V?$allocator@U?$pair@$$CBV?$basic_string_view@DU?$char_traits@D@__Cr@std@@@__Cr@std@@PAVCommandLineFlag@absl@@@__Cr@std@@@__Cr@std@@@12@U?$pair@V?$tuple@$$QBV?$basic_string_view@DU?$char_traits@D@__Cr@std@@@__Cr@std@@@__Cr@std@@V?$tuple@$$QAPAVCommandLineFlag@absl@@@23@@45@@Z
    ??$DecomposePairImpl@UFindElement@?$raw_hash_set@U?$FlatHashMapPolicy@V?$basic_string_view@DU?$char_traits@D@__Cr@std@@@__Cr@std@@PAVCommandLineFlag@absl@@@container_internal@absl@@UStringHash@23@UStringEq@23@V?$allocator@U?$pair@$$CBV?$basic_string_view@DU?$char_traits@D@__Cr@std@@@__Cr@std@@PAVCommandLineFlag@absl@@@__Cr@std@@@__Cr@std@@@container_internal@absl@@ABV?$basic_string_view@DU?$char_traits@D@__Cr@std@@@__Cr@std@@V?$tuple@ABQAVCommandLineFlag@absl@@@67@@memory_internal@container_internal@absl@@YA?AVconst_iterator@?$raw_hash_set@U?$FlatHashMapPolicy@V?$basic_string_view@DU?$char_traits@D@__Cr@std@@@__Cr@std@@PAVCommandLineFlag@absl@@@container_internal@absl@@UStringHash@23@UStringEq@23@V?$allocator@U?$pair@$$CBV?$basic_string_view@DU?$char_traits@D@__Cr@std@@@__Cr@std@@PAVCommandLineFlag@absl@@@__Cr@std@@@__Cr@std@@@12@$$QAUFindElement@412@U?$pair@V?$tuple@ABV?$basic_string_view@DU?$char_traits@D@__Cr@std@@@__Cr@std@@@__Cr@std@@V?$tuple@ABQAVCommandLineFlag@absl@@@23@@__Cr@std@@@Z
    ??$DecomposePairImpl@UHashElement@?$raw_hash_set@U?$FlatHashMapPolicy@V?$basic_string_view@DU?$char_traits@D@__Cr@std@@@__Cr@std@@PAVCommandLineFlag@absl@@@container_internal@absl@@UStringHash@23@UStringEq@23@V?$allocator@U?$pair@$$CBV?$basic_string_view@DU?$char_traits@D@__Cr@std@@@__Cr@std@@PAVCommandLineFlag@absl@@@__Cr@std@@@__Cr@std@@@container_internal@absl@@ABV?$basic_string_view@DU?$char_traits@D@__Cr@std@@@__Cr@std@@V?$tuple@ABQAVCommandLineFlag@absl@@@67@@memory_internal@container_internal@absl@@YAI$$QAUHashElement@?$raw_hash_set@U?$FlatHashMapPolicy@V?$basic_string_view@DU?$char_traits@D@__Cr@std@@@__Cr@std@@PAVCommandLineFlag@absl@@@container_internal@absl@@UStringHash@23@UStringEq@23@V?$allocator@U?$pair@$$CBV?$basic_string_view@DU?$char_traits@D@__Cr@std@@@__Cr@std@@PAVCommandLineFlag@absl@@@__Cr@std@@@__Cr@std@@@12@U?$pair@V?$tuple@ABV?$basic_string_view@DU?$char_traits@D@__Cr@std@@@__Cr@std@@@__Cr@std@@V?$tuple@ABQAVCommandLineFlag@absl@@@23@@__Cr@std@@@Z
    ??$Dispatch@C@FormatArgImpl@str_format_internal@absl@@CA_NTData@012@VFormatConversionSpecImpl@12@PAX@Z
    ??$Dispatch@D@FormatArgImpl@str_format_internal@absl@@CA_NTData@012@VFormatConversionSpecImpl@12@PAX@Z
    ??$Dispatch@E@FormatArgImpl@str_format_internal@absl@@CA_NTData@012@VFormatConversionSpecImpl@12@PAX@Z
    ??$Dispatch@F@FormatArgImpl@str_format_internal@absl@@CA_NTData@012@VFormatConversionSpecImpl@12@PAX@Z
    ??$Dispatch@G@FormatArgImpl@str_format_internal@absl@@CA_NTData@012@VFormatConversionSpecImpl@12@PAX@Z
    ??$Dispatch@H@FormatArgImpl@str_format_internal@absl@@CA_NTData@012@VFormatConversionSpecImpl@12@PAX@Z
    ??$Dispatch@I@FormatArgImpl@str_format_internal@absl@@CA_NTData@012@VFormatConversionSpecImpl@12@PAX@Z
    ??$Dispatch@J@FormatArgImpl@str_format_internal@absl@@CA_NTData@012@VFormatConversionSpecImpl@12@PAX@Z
    ??$Dispatch@K@FormatArgImpl@str_format_internal@absl@@CA_NTData@012@VFormatConversionSpecImpl@12@PAX@Z
    ??$Dispatch@M@FormatArgImpl@str_format_internal@absl@@CA_NTData@012@VFormatConversionSpecImpl@12@PAX@Z
    ??$Dispatch@N@FormatArgImpl@str_format_internal@absl@@CA_NTData@012@VFormatConversionSpecImpl@12@PAX@Z
    ??$Dispatch@O@FormatArgImpl@str_format_internal@absl@@CA_NTData@012@VFormatConversionSpecImpl@12@PAX@Z
    ??$Dispatch@PBD@FormatArgImpl@str_format_internal@absl@@CA_NTData@012@VFormatConversionSpecImpl@12@PAX@Z
    ??$Dispatch@PB_W@FormatArgImpl@str_format_internal@absl@@CA_NTData@012@VFormatConversionSpecImpl@12@PAX@Z
    ??$Dispatch@UVoidPtr@str_format_internal@absl@@@FormatArgImpl@str_format_internal@absl@@CA_NTData@012@VFormatConversionSpecImpl@12@PAX@Z
    ??$Dispatch@V?$basic_string@DU?$char_traits@D@__Cr@std@@V?$allocator@D@23@@__Cr@std@@@FormatArgImpl@str_format_internal@absl@@CA_NTData@012@VFormatConversionSpecImpl@12@PAX@Z
    ??$Dispatch@V?$basic_string@_WU?$char_traits@_W@__Cr@std@@V?$allocator@_W@23@@__Cr@std@@@FormatArgImpl@str_format_internal@absl@@CA_NTData@012@VFormatConversionSpecImpl@12@PAX@Z
    ??$Dispatch@V?$basic_string_view@DU?$char_traits@D@__Cr@std@@@__Cr@std@@@FormatArgImpl@str_format_internal@absl@@CA_NTData@012@VFormatConversionSpecImpl@12@PAX@Z
    ??$Dispatch@V?$basic_string_view@_WU?$char_traits@_W@__Cr@std@@@__Cr@std@@@FormatArgImpl@str_format_internal@absl@@CA_NTData@012@VFormatConversionSpecImpl@12@PAX@Z
    ??$Dispatch@Vint128@absl@@@FormatArgImpl@str_format_internal@absl@@CA_NTData@012@VFormatConversionSpecImpl@12@PAX@Z
    ??$Dispatch@Vuint128@absl@@@FormatArgImpl@str_format_internal@absl@@CA_NTData@012@VFormatConversionSpecImpl@12@PAX@Z
    ??$Dispatch@_J@FormatArgImpl@str_format_internal@absl@@CA_NTData@012@VFormatConversionSpecImpl@12@PAX@Z
    ??$Dispatch@_K@FormatArgImpl@str_format_internal@absl@@CA_NTData@012@VFormatConversionSpecImpl@12@PAX@Z
    ??$Dispatch@_N@FormatArgImpl@str_format_internal@absl@@CA_NTData@012@VFormatConversionSpecImpl@12@PAX@Z
    ??$DivMod@$09@?$BigUnsigned@$03@strings_internal@absl@@AAEIXZ
    ??$DivMod@$09@?$BigUnsigned@$0FE@@strings_internal@absl@@AAEIXZ
    ??$EmplaceBack@ABQAUCordRep@cord_internal@absl@@@?$Storage@PAUCordRep@cord_internal@absl@@$01V?$allocator@PAUCordRep@cord_internal@absl@@@__Cr@std@@@inlined_vector_internal@absl@@QAEAAPAUCordRep@cord_internal@2@ABQAU342@@Z
    ??$EmplaceBack@ABQAVLogSink@absl@@@?$Storage@PAVLogSink@absl@@$0BA@V?$allocator@PAVLogSink@absl@@@__Cr@std@@@inlined_vector_internal@absl@@QAEAAPAVLogSink@2@ABQAV32@@Z
    ??$EmplaceBack@UPayload@status_internal@absl@@@?$Storage@UPayload@status_internal@absl@@$00V?$allocator@UPayload@status_internal@absl@@@__Cr@std@@@inlined_vector_internal@absl@@QAEAAUPayload@status_internal@2@$$QAU342@@Z
    ??$EmplaceBackSlow@ABQAUCordRep@cord_internal@absl@@@?$Storage@PAUCordRep@cord_internal@absl@@$01V?$allocator@PAUCordRep@cord_internal@absl@@@__Cr@std@@@inlined_vector_internal@absl@@AAEAAPAUCordRep@cord_internal@2@ABQAU342@@Z
    ??$EmplaceBackSlow@ABQAVLogSink@absl@@@?$Storage@PAVLogSink@absl@@$0BA@V?$allocator@PAVLogSink@absl@@@__Cr@std@@@inlined_vector_internal@absl@@AAEAAPAVLogSink@2@ABQAV32@@Z
    ??$EmplaceBackSlow@UPayload@status_internal@absl@@@?$Storage@UPayload@status_internal@absl@@$00V?$allocator@UPayload@status_internal@absl@@@__Cr@std@@@inlined_vector_internal@absl@@AAEAAUPayload@status_internal@2@$$QAU342@@Z
    ??$Extract@V?$FormatSpecTemplate@$0BPPPL@$0JPPPL@$0JPPPL@$0JPPPL@$0JPPPL@$0JPPPL@$0JPPPL@$0JPPPL@$0IAAAE@$0JPPPL@$0EAAAE@$0IAAAE@@str_format_internal@absl@@@UntypedFormatSpecImpl@str_format_internal@absl@@SAABV012@ABV?$FormatSpecTemplate@$0BPPPL@$0JPPPL@$0JPPPL@$0JPPPL@$0JPPPL@$0JPPPL@$0JPPPL@$0JPPPL@$0IAAAE@$0JPPPL@$0EAAAE@$0IAAAE@@12@@Z
    ??$Extract@V?$FormatSpecTemplate@$0BPPPL@$0JPPPL@$0JPPPL@$0JPPPL@@str_format_internal@absl@@@UntypedFormatSpecImpl@str_format_internal@absl@@SAABV012@ABV?$FormatSpecTemplate@$0BPPPL@$0JPPPL@$0JPPPL@$0JPPPL@@12@@Z
    ??$Extract@V?$FormatSpecTemplate@$0JPPPL@$0JPOAA@@str_format_internal@absl@@@UntypedFormatSpecImpl@str_format_internal@absl@@SAABV012@ABV?$FormatSpecTemplate@$0JPPPL@$0JPOAA@@12@@Z
    ??$Extract@V?$FormatSpecTemplate@$0JPPPL@@str_format_internal@absl@@@UntypedFormatSpecImpl@str_format_internal@absl@@SAABV012@ABV?$FormatSpecTemplate@$0JPPPL@@12@@Z
    ??$ExtractCharSet@$0BPPPL@@str_format_internal@absl@@YA?AW4FormatConversionCharSet@1@U?$ArgConvertResult@$0BPPPL@@01@@Z
    ??$ExtractCharSet@$0EAAAA@@str_format_internal@absl@@YA?AW4FormatConversionCharSet@1@U?$ArgConvertResult@$0EAAAA@@01@@Z
    ??$ExtractCharSet@$0EAAAE@@str_format_internal@absl@@YA?AW4FormatConversionCharSet@1@U?$ArgConvertResult@$0EAAAE@@01@@Z
    ??$ExtractCharSet@$0IAAAE@@str_format_internal@absl@@YA?AW4FormatConversionCharSet@1@U?$ArgConvertResult@$0IAAAE@@01@@Z
    ??$ExtractCharSet@$0JPOAA@@str_format_internal@absl@@YA?AW4FormatConversionCharSet@1@U?$ArgConvertResult@$0JPOAA@@01@@Z
    ??$ExtractCharSet@$0JPPPL@@str_format_internal@absl@@YA?AW4FormatConversionCharSet@1@U?$ArgConvertResult@$0JPPPL@@01@@Z
    ??$ExtractStringification@UHex@absl@@@strings_internal@absl@@YA?AV?$basic_string_view@DU?$char_traits@D@__Cr@std@@@__Cr@std@@AAVStringifySink@01@ABUHex@1@@Z
    ??$FastIntToBuffer@C@numbers_internal@absl@@YAPADCPAD@Z
    ??$FastIntToBuffer@D@numbers_internal@absl@@YAPADDPAD@Z
    ??$FastIntToBuffer@E@numbers_internal@absl@@YAPADEPAD@Z
    ??$FastIntToBuffer@F@numbers_internal@absl@@YAPADFPAD@Z
    ??$FastIntToBuffer@G@numbers_internal@absl@@YAPADGPAD@Z
    ??$FastIntToBuffer@J@numbers_internal@absl@@YAPADJPAD@Z
    ??$FastIntToBuffer@K@numbers_internal@absl@@YAPADKPAD@Z
    ??$FastIntToBuffer@_W@numbers_internal@absl@@YAPAD_WPAD@Z
    ??$FastTypeId@F@absl@@YAPBXXZ
    ??$FastTypeId@G@absl@@YAPBXXZ
    ??$FastTypeId@H@absl@@YAPBXXZ
    ??$FastTypeId@I@absl@@YAPBXXZ
    ??$FastTypeId@J@absl@@YAPBXXZ
    ??$FastTypeId@K@absl@@YAPBXXZ
    ??$FastTypeId@M@absl@@YAPBXXZ
    ??$FastTypeId@N@absl@@YAPBXXZ
    ??$FastTypeId@V?$basic_string@DU?$char_traits@D@__Cr@std@@V?$allocator@D@23@@__Cr@std@@@absl@@YAPBXXZ
    ??$FastTypeId@V?$vector@V?$basic_string@DU?$char_traits@D@__Cr@std@@V?$allocator@D@23@@__Cr@std@@V?$allocator@V?$basic_string@DU?$char_traits@D@__Cr@std@@V?$allocator@D@23@@__Cr@std@@@23@@__Cr@std@@@absl@@YAPBXXZ
    ??$FastTypeId@_J@absl@@YAPBXXZ
    ??$FastTypeId@_K@absl@@YAPBXXZ
    ??$FastTypeId@_N@absl@@YAPBXXZ
    ??$FindSubstitutions@V?$initializer_list@U?$pair@V?$basic_string_view@DU?$char_traits@D@__Cr@std@@@__Cr@std@@V123@@__Cr@std@@@std@@@strings_internal@absl@@YA?AV?$vector@UViableSubstitution@strings_internal@absl@@V?$allocator@UViableSubstitution@strings_internal@absl@@@__Cr@std@@@__Cr@std@@V?$basic_string_view@DU?$char_traits@D@__Cr@std@@@34@ABV?$initializer_list@U?$pair@V?$basic_string_view@DU?$char_traits@D@__Cr@std@@@__Cr@std@@V123@@__Cr@std@@@4@@Z
    ??$FlagOps@V?$vector@V?$basic_string@DU?$char_traits@D@__Cr@std@@V?$allocator@D@23@@__Cr@std@@V?$allocator@V?$basic_string@DU?$char_traits@D@__Cr@std@@V?$allocator@D@23@@__Cr@std@@@23@@__Cr@std@@@flags_internal@absl@@YAPAXW4FlagOp@01@PBXPAX2@Z
    ??$Flush@V?$basic_ostream@DU?$char_traits@D@__Cr@std@@@__Cr@std@@@FormatRawSinkImpl@str_format_internal@absl@@CAXPAXV?$basic_string_view@DU?$char_traits@D@__Cr@std@@@__Cr@std@@@Z
    ??$Flush@V?$basic_string@DU?$char_traits@D@__Cr@std@@V?$allocator@D@23@@__Cr@std@@@FormatRawSinkImpl@str_format_internal@absl@@CAXPAXV?$basic_string_view@DU?$char_traits@D@__Cr@std@@@__Cr@std@@@Z
    ??$Flush@VBufferRawSink@str_format_internal@absl@@@FormatRawSinkImpl@str_format_internal@absl@@CAXPAXV?$basic_string_view@DU?$char_traits@D@__Cr@std@@@__Cr@std@@@Z
    ??$Flush@VFILERawSink@str_format_internal@absl@@@FormatRawSinkImpl@str_format_internal@absl@@CAXPAXV?$basic_string_view@DU?$char_traits@D@__Cr@std@@@__Cr@std@@@Z
    ??$FormatConvertImpl@_N$0A@@str_format_internal@absl@@YA?AU?$ArgConvertResult@$0JPPPL@@01@_NVFormatConversionSpecImpl@01@PAVFormatSinkImpl@01@@Z
    ??$FromChrono@_JV?$ratio@$00$0PECEA@@__Cr@std@@@time_internal@absl@@YA?AVDuration@1@ABV?$duration@_JV?$ratio@$00$0PECEA@@__Cr@std@@@chrono@__Cr@std@@@Z
    ??$FromInt64@$00@time_internal@absl@@YA?AVDuration@1@_JV?$ratio@$00$00@__Cr@std@@@Z
    ??$FromInt64@$0DLJKMKAA@@time_internal@absl@@YA?AVDuration@1@_JV?$ratio@$00$0DLJKMKAA@@__Cr@std@@@Z
    ??$FromInt64@$0DOI@@time_internal@absl@@YA?AVDuration@1@_JV?$ratio@$00$0DOI@@__Cr@std@@@Z
    ??$FromInt64@$0PECEA@@time_internal@absl@@YA?AVDuration@1@_JV?$ratio@$00$0PECEA@@__Cr@std@@@Z
    ??$GenRuntimeTypeId@V?$vector@V?$basic_string@DU?$char_traits@D@__Cr@std@@V?$allocator@D@23@@__Cr@std@@V?$allocator@V?$basic_string@DU?$char_traits@D@__Cr@std@@V?$allocator@D@23@@__Cr@std@@@23@@__Cr@std@@@flags_internal@absl@@YAPBVtype_info@@XZ
    ??$GenericCompare@HV?$basic_string_view@DU?$char_traits@D@__Cr@std@@@__Cr@std@@@absl@@YAHABVCord@0@ABV?$basic_string_view@DU?$char_traits@D@__Cr@std@@@__Cr@std@@I@Z
    ??$GenericCompare@HVCord@absl@@@absl@@YAHABVCord@0@0I@Z
    ??$GenericCompare@_NV?$basic_string_view@DU?$char_traits@D@__Cr@std@@@__Cr@std@@@absl@@YA_NABVCord@0@ABV?$basic_string_view@DU?$char_traits@D@__Cr@std@@@__Cr@std@@I@Z
    ??$GenericCompare@_NVCord@absl@@@absl@@YA_NABVCord@0@0I@Z
    ??$GetData@$$CBV?$InlinedVector@VFormatArgImpl@str_format_internal@absl@@$03V?$allocator@VFormatArgImpl@str_format_internal@absl@@@__Cr@std@@@absl@@@span_internal@absl@@YAPBVFormatArgImpl@str_format_internal@1@ABV?$InlinedVector@VFormatArgImpl@str_format_internal@absl@@$03V?$allocator@VFormatArgImpl@str_format_internal@absl@@@__Cr@std@@@1@@Z
    ??$GetData@$$CBV?$Span@D@absl@@@span_internal@absl@@YAPADABV?$Span@D@1@@Z
    ??$GetData@$$CBV?$Span@I@absl@@@span_internal@absl@@YAPAIABV?$Span@I@1@@Z
    ??$GetData@$$CBV?$basic_string_view@DU?$char_traits@D@__Cr@std@@@__Cr@std@@@span_internal@absl@@YAPBDABV?$basic_string_view@DU?$char_traits@D@__Cr@std@@@__Cr@std@@@Z
    ??$GetData@U?$array@D$0DKJI@@__Cr@std@@@span_internal@absl@@YAPADAAU?$array@D$0DKJI@@__Cr@std@@@Z
    ??$GetData@V?$InlinedVector@PAVLogSink@absl@@$0BA@V?$allocator@PAVLogSink@absl@@@__Cr@std@@@absl@@@span_internal@absl@@YAPAPAVLogSink@1@AAV?$InlinedVector@PAVLogSink@absl@@$0BA@V?$allocator@PAVLogSink@absl@@@__Cr@std@@@1@@Z
    ??$GetData@V?$Span@D@absl@@@span_internal@absl@@YAPADAAV?$Span@D@1@@Z
    ??$GetData@V?$Span@I@absl@@@span_internal@absl@@YAPAIAAV?$Span@I@1@@Z
    ??$GetData@V?$vector@PAVLogSink@absl@@V?$allocator@PAVLogSink@absl@@@__Cr@std@@@__Cr@std@@@span_internal@absl@@YAPAPAVLogSink@1@AAV?$vector@PAVLogSink@absl@@V?$allocator@PAVLogSink@absl@@@__Cr@std@@@__Cr@std@@@Z
    ??$GetDataImpl@$$CBV?$InlinedVector@VFormatArgImpl@str_format_internal@absl@@$03V?$allocator@VFormatArgImpl@str_format_internal@absl@@@__Cr@std@@@absl@@@span_internal@absl@@YAPBVFormatArgImpl@str_format_internal@1@ABV?$InlinedVector@VFormatArgImpl@str_format_internal@absl@@$03V?$allocator@VFormatArgImpl@str_format_internal@absl@@@__Cr@std@@@1@D@Z
    ??$GetDataImpl@$$CBV?$Span@D@absl@@@span_internal@absl@@YAPADABV?$Span@D@1@D@Z
    ??$GetDataImpl@$$CBV?$Span@I@absl@@@span_internal@absl@@YAPAIABV?$Span@I@1@D@Z
    ??$GetDataImpl@$$CBV?$basic_string_view@DU?$char_traits@D@__Cr@std@@@__Cr@std@@@span_internal@absl@@YAPBDABV?$basic_string_view@DU?$char_traits@D@__Cr@std@@@__Cr@std@@D@Z
    ??$GetDataImpl@U?$array@D$0DKJI@@__Cr@std@@@span_internal@absl@@YAPADAAU?$array@D$0DKJI@@__Cr@std@@D@Z
    ??$GetDataImpl@V?$InlinedVector@PAVLogSink@absl@@$0BA@V?$allocator@PAVLogSink@absl@@@__Cr@std@@@absl@@@span_internal@absl@@YAPAPAVLogSink@1@AAV?$InlinedVector@PAVLogSink@absl@@$0BA@V?$allocator@PAVLogSink@absl@@@__Cr@std@@@1@D@Z
    ??$GetDataImpl@V?$Span@D@absl@@@span_internal@absl@@YAPADAAV?$Span@D@1@D@Z
    ??$GetDataImpl@V?$Span@I@absl@@@span_internal@absl@@YAPAIAAV?$Span@I@1@D@Z
    ??$GetDataImpl@V?$vector@PAVLogSink@absl@@V?$allocator@PAVLogSink@absl@@@__Cr@std@@@__Cr@std@@@span_internal@absl@@YAPAPAVLogSink@1@AAV?$vector@PAVLogSink@absl@@V?$allocator@PAVLogSink@absl@@@__Cr@std@@@__Cr@std@@D@Z
    ??$GetFlag@V?$vector@V?$basic_string@DU?$char_traits@D@__Cr@std@@V?$allocator@D@23@@__Cr@std@@V?$allocator@V?$basic_string@DU?$char_traits@D@__Cr@std@@V?$allocator@D@23@@__Cr@std@@@23@@__Cr@std@@@absl@@YA?AV?$vector@V?$basic_string@DU?$char_traits@D@__Cr@std@@V?$allocator@D@23@@__Cr@std@@V?$allocator@V?$basic_string@DU?$char_traits@D@__Cr@std@@V?$allocator@D@23@@__Cr@std@@@23@@__Cr@std@@ABV?$Flag@V?$vector@V?$basic_string@DU?$char_traits@D@__Cr@std@@V?$allocator@D@23@@__Cr@std@@V?$allocator@V?$basic_string@DU?$char_traits@D@__Cr@std@@V?$allocator@D@23@@__Cr@std@@@23@@__Cr@std@@@flags_internal@0@@Z
    ??$GrowSooTableToNextCapacityAndPrepareInsert@$00$00@container_internal@absl@@YAIAAVCommonFields@01@ABUPolicyFunctions@01@IW4ctrl_t@01@@Z
    ??$GrowSooTableToNextCapacityAndPrepareInsert@$03$00@container_internal@absl@@YAIAAVCommonFields@01@ABUPolicyFunctions@01@IW4ctrl_t@01@@Z
    ??$GrowSooTableToNextCapacityAndPrepareInsert@$07$00@container_internal@absl@@YAIAAVCommonFields@01@ABUPolicyFunctions@01@IW4ctrl_t@01@@Z
    ??$GrowSooTableToNextCapacityAndPrepareInsert@$0A@$0A@@container_internal@absl@@YAIAAVCommonFields@01@ABUPolicyFunctions@01@IW4ctrl_t@01@@Z
    ??$HashOf@$S$$ZI@absl@@YAIABI@Z
    ??$HashOf@$S$$ZV?$basic_string_view@DU?$char_traits@D@__Cr@std@@@__Cr@std@@H@absl@@YAIABV?$basic_string_view@DU?$char_traits@D@__Cr@std@@@__Cr@std@@ABH@Z
    ??$HidePtr@$$CBX@base_internal@absl@@YAIPBX@Z
    ??$HidePtr@U?$atomic@H@__Cr@std@@@base_internal@absl@@YAIPAU?$atomic@H@__Cr@std@@@Z
    ??$HidePtr@X@base_internal@absl@@YAIPAX@Z
    ??$Hours@H$0A@@absl@@YA?AVDuration@0@H@Z
    ??$IgnoreLeak@V?$basic_string@DU?$char_traits@D@__Cr@std@@V?$allocator@D@23@@__Cr@std@@@absl@@YAPAV?$basic_string@DU?$char_traits@D@__Cr@std@@V?$allocator@D@23@@__Cr@std@@PAV123@@Z
    ??$Init@$0A@@CordRepBtreeNavigator@cord_internal@absl@@AAEPAUCordRep@12@PAVCordRepBtree@12@@Z
    ??$Init@D@FormatArgImpl@str_format_internal@absl@@AAEXABD@Z
    ??$Init@H@FormatArgImpl@str_format_internal@absl@@AAEXABH@Z
    ??$Init@I@FormatArgImpl@str_format_internal@absl@@AAEXABI@Z
    ??$Init@M@FormatArgImpl@str_format_internal@absl@@AAEXABM@Z
    ??$Init@N@FormatArgImpl@str_format_internal@absl@@AAEXABN@Z
    ??$Init@PBD@FormatArgImpl@str_format_internal@absl@@AAEXABQBD@Z
    ??$Init@V?$basic_string_view@DU?$char_traits@D@__Cr@std@@@__Cr@std@@@FormatArgImpl@str_format_internal@absl@@AAEXABV?$basic_string_view@DU?$char_traits@D@__Cr@std@@@__Cr@std@@@Z
    ??$Init@_J@FormatArgImpl@str_format_internal@absl@@AAEXAB_J@Z
    ??$InitDefaultValue@V?$vector@V?$basic_string@DU?$char_traits@D@__Cr@std@@V?$allocator@D@23@@__Cr@std@@V?$allocator@V?$basic_string@DU?$char_traits@D@__Cr@std@@V?$allocator@D@23@@__Cr@std@@@23@@__Cr@std@@@flags_internal@absl@@YA?AV?$vector@V?$basic_string@DU?$char_traits@D@__Cr@std@@V?$allocator@D@23@@__Cr@std@@V?$allocator@V?$basic_string@DU?$char_traits@D@__Cr@std@@V?$allocator@D@23@@__Cr@std@@@23@@__Cr@std@@UEmptyBraces@01@@Z
    ??$Initialize@V?$IteratorValueAdapter@V?$allocator@VFormatArgImpl@str_format_internal@absl@@@__Cr@std@@PBVFormatArgImpl@str_format_internal@absl@@@inlined_vector_internal@absl@@@?$Storage@VFormatArgImpl@str_format_internal@absl@@$03V?$allocator@VFormatArgImpl@str_format_internal@absl@@@__Cr@std@@@inlined_vector_internal@absl@@QAEXV?$IteratorValueAdapter@V?$allocator@VFormatArgImpl@str_format_internal@absl@@@__Cr@std@@PBVFormatArgImpl@str_format_internal@absl@@@12@I@Z
    ??$IntegerToString@H@strings_internal@absl@@YA?AV?$basic_string@DU?$char_traits@D@__Cr@std@@V?$allocator@D@23@@__Cr@std@@H@Z
    ??$IntegerToString@I@strings_internal@absl@@YA?AV?$basic_string@DU?$char_traits@D@__Cr@std@@V?$allocator@D@23@@__Cr@std@@I@Z
    ??$IntegerToString@J@strings_internal@absl@@YA?AV?$basic_string@DU?$char_traits@D@__Cr@std@@V?$allocator@D@23@@__Cr@std@@J@Z
    ??$IntegerToString@K@strings_internal@absl@@YA?AV?$basic_string@DU?$char_traits@D@__Cr@std@@V?$allocator@D@23@@__Cr@std@@K@Z
    ??$IntegerToString@_J@strings_internal@absl@@YA?AV?$basic_string@DU?$char_traits@D@__Cr@std@@V?$allocator@D@23@@__Cr@std@@_J@Z
    ??$IntegerToString@_K@strings_internal@absl@@YA?AV?$basic_string@DU?$char_traits@D@__Cr@std@@V?$allocator@D@23@@__Cr@std@@_K@Z
    ??$Invoke@VMixingHashState@hash_internal@absl@@@WeaklyMixedIntegerProbe@HashSelect@hash_internal@absl@@SA?AVMixingHashState@23@V423@UWeaklyMixedInteger@23@@Z
    ??$Invoke@VMixingHashState@hash_internal@absl@@H@UniquelyRepresentedProbe@HashSelect@hash_internal@absl@@SA?AVMixingHashState@23@V423@ABH@Z
    ??$Invoke@VMixingHashState@hash_internal@absl@@I@UniquelyRepresentedProbe@HashSelect@hash_internal@absl@@SA?AVMixingHashState@23@V423@ABI@Z
    ??$Invoke@VMixingHashState@hash_internal@absl@@V?$basic_string_view@DU?$char_traits@D@__Cr@std@@@__Cr@std@@@HashValueProbe@HashSelect@hash_internal@absl@@SA?AVMixingHashState@23@V423@ABV?$basic_string_view@DU?$char_traits@D@__Cr@std@@@__Cr@std@@@Z
    ??$Invoke@VMixingHashState@hash_internal@absl@@V?$tuple@ABI@__Cr@std@@@HashValueProbe@HashSelect@hash_internal@absl@@SA?AVMixingHashState@23@V423@ABV?$tuple@ABI@__Cr@std@@@Z
    ??$Invoke@VMixingHashState@hash_internal@absl@@V?$tuple@ABV?$basic_string_view@DU?$char_traits@D@__Cr@std@@@__Cr@std@@ABH@__Cr@std@@@HashValueProbe@HashSelect@hash_internal@absl@@SA?AVMixingHashState@23@V423@ABV?$tuple@ABV?$basic_string_view@DU?$char_traits@D@__Cr@std@@@__Cr@std@@ABH@__Cr@std@@@Z
    ??$InvokeFlush@V?$basic_ostream@DU?$char_traits@D@__Cr@std@@@__Cr@std@@@str_format_internal@absl@@YAXPAV?$basic_ostream@DU?$char_traits@D@__Cr@std@@@__Cr@std@@V?$basic_string_view@DU?$char_traits@D@__Cr@std@@@34@@Z
    ??$InvokeFlush@V?$basic_string@DU?$char_traits@D@__Cr@std@@V?$allocator@D@23@@__Cr@std@@@str_format_internal@absl@@YAXPAV?$basic_string@DU?$char_traits@D@__Cr@std@@V?$allocator@D@23@@__Cr@std@@V?$basic_string_view@DU?$char_traits@D@__Cr@std@@@34@@Z
    ??$InvokeFlush@VBufferRawSink@str_format_internal@absl@@@str_format_internal@absl@@YAXPAVBufferRawSink@01@V?$basic_string_view@DU?$char_traits@D@__Cr@std@@@__Cr@std@@@Z
    ??$InvokeFlush@VFILERawSink@str_format_internal@absl@@@str_format_internal@absl@@YAXPAVFILERawSink@01@V?$basic_string_view@DU?$char_traits@D@__Cr@std@@@__Cr@std@@@Z
    ??$InvokeGet@V?$vector@V?$basic_string@DU?$char_traits@D@__Cr@std@@V?$allocator@D@23@@__Cr@std@@V?$allocator@V?$basic_string@DU?$char_traits@D@__Cr@std@@V?$allocator@D@23@@__Cr@std@@@23@@__Cr@std@@V?$Flag@V?$vector@V?$basic_string@DU?$char_traits@D@__Cr@std@@V?$allocator@D@23@@__Cr@std@@V?$allocator@V?$basic_string@DU?$char_traits@D@__Cr@std@@V?$allocator@D@23@@__Cr@std@@@23@@__Cr@std@@@flags_internal@absl@@@FlagImplPeer@flags_internal@absl@@SA?AV?$vector@V?$basic_string@DU?$char_traits@D@__Cr@std@@V?$allocator@D@23@@__Cr@std@@V?$allocator@V?$basic_string@DU?$char_traits@D@__Cr@std@@V?$allocator@D@23@@__Cr@std@@@23@@__Cr@std@@ABV?$Flag@V?$vector@V?$basic_string@DU?$char_traits@D@__Cr@std@@V?$allocator@D@23@@__Cr@std@@V?$allocator@V?$basic_string@DU?$char_traits@D@__Cr@std@@V?$allocator@D@23@@__Cr@std@@@23@@__Cr@std@@@12@@Z
    ??$InvokeParseFlag@H@flags_internal@absl@@YA_NV?$basic_string_view@DU?$char_traits@D@__Cr@std@@@__Cr@std@@PAHPAV?$basic_string@DU?$char_traits@D@__Cr@std@@V?$allocator@D@23@@34@@Z
    ??$InvokeParseFlag@M@flags_internal@absl@@YA_NV?$basic_string_view@DU?$char_traits@D@__Cr@std@@@__Cr@std@@PAMPAV?$basic_string@DU?$char_traits@D@__Cr@std@@V?$allocator@D@23@@34@@Z
    ??$InvokeParseFlag@N@flags_internal@absl@@YA_NV?$basic_string_view@DU?$char_traits@D@__Cr@std@@@__Cr@std@@PANPAV?$basic_string@DU?$char_traits@D@__Cr@std@@V?$allocator@D@23@@34@@Z
    ??$InvokeParseFlag@V?$vector@V?$basic_string@DU?$char_traits@D@__Cr@std@@V?$allocator@D@23@@__Cr@std@@V?$allocator@V?$basic_string@DU?$char_traits@D@__Cr@std@@V?$allocator@D@23@@__Cr@std@@@23@@__Cr@std@@@flags_internal@absl@@YA_NV?$basic_string_view@DU?$char_traits@D@__Cr@std@@@__Cr@std@@PAV?$vector@V?$basic_string@DU?$char_traits@D@__Cr@std@@V?$allocator@D@23@@__Cr@std@@V?$allocator@V?$basic_string@DU?$char_traits@D@__Cr@std@@V?$allocator@D@23@@__Cr@std@@@23@@34@PAV?$basic_string@DU?$char_traits@D@__Cr@std@@V?$allocator@D@23@@34@@Z
    ??$InvokeSet@V?$Flag@V?$vector@V?$basic_string@DU?$char_traits@D@__Cr@std@@V?$allocator@D@23@@__Cr@std@@V?$allocator@V?$basic_string@DU?$char_traits@D@__Cr@std@@V?$allocator@D@23@@__Cr@std@@@23@@__Cr@std@@@flags_internal@absl@@V?$vector@V?$basic_string@DU?$char_traits@D@__Cr@std@@V?$allocator@D@23@@__Cr@std@@V?$allocator@V?$basic_string@DU?$char_traits@D@__Cr@std@@V?$allocator@D@23@@__Cr@std@@@23@@__Cr@std@@@FlagImplPeer@flags_internal@absl@@SAXAAV?$Flag@V?$vector@V?$basic_string@DU?$char_traits@D@__Cr@std@@V?$allocator@D@23@@__Cr@std@@V?$allocator@V?$basic_string@DU?$char_traits@D@__Cr@std@@V?$allocator@D@23@@__Cr@std@@@23@@__Cr@std@@@12@ABV?$vector@V?$basic_string@DU?$char_traits@D@__Cr@std@@V?$allocator@D@23@@__Cr@std@@V?$allocator@V?$basic_string@DU?$char_traits@D@__Cr@std@@V?$allocator@D@23@@__Cr@std@@@23@@__Cr@std@@@Z
    ??$IsAboveValidSize@$03@container_internal@absl@@YA_NII@Z
    ??$IsDestructionTrivial@V?$allocator@U?$pair@$$CBV?$basic_string_view@DU?$char_traits@D@__Cr@std@@@__Cr@std@@PAVCommandLineFlag@absl@@@__Cr@std@@@__Cr@std@@U?$pair@$$CBV?$basic_string_view@DU?$char_traits@D@__Cr@std@@@__Cr@std@@PAVCommandLineFlag@absl@@@23@@container_internal@absl@@YA?A_PXZ
    ??$IsOfType@F@CommandLineFlag@absl@@QBE_NXZ
    ??$IsOfType@G@CommandLineFlag@absl@@QBE_NXZ
    ??$IsOfType@H@CommandLineFlag@absl@@QBE_NXZ
    ??$IsOfType@I@CommandLineFlag@absl@@QBE_NXZ
    ??$IsOfType@J@CommandLineFlag@absl@@QBE_NXZ
    ??$IsOfType@K@CommandLineFlag@absl@@QBE_NXZ
    ??$IsOfType@M@CommandLineFlag@absl@@QBE_NXZ
    ??$IsOfType@N@CommandLineFlag@absl@@QBE_NXZ
    ??$IsOfType@V?$basic_string@DU?$char_traits@D@__Cr@std@@V?$allocator@D@23@@__Cr@std@@@CommandLineFlag@absl@@QBE_NXZ
    ??$IsOfType@V?$vector@V?$basic_string@DU?$char_traits@D@__Cr@std@@V?$allocator@D@23@@__Cr@std@@V?$allocator@V?$basic_string@DU?$char_traits@D@__Cr@std@@V?$allocator@D@23@@__Cr@std@@@23@@__Cr@std@@@CommandLineFlag@absl@@QBE_NXZ
    ??$IsOfType@_J@CommandLineFlag@absl@@QBE_NXZ
    ??$IsOfType@_K@CommandLineFlag@absl@@QBE_NXZ
    ??$IsOfType@_N@CommandLineFlag@absl@@QBE_NXZ
    ??$JoinAlgorithm@V?$__wrap_iter@PBV?$basic_string@DU?$char_traits@D@__Cr@std@@V?$allocator@D@23@@__Cr@std@@@__Cr@std@@X@strings_internal@absl@@YA?AV?$basic_string@DU?$char_traits@D@__Cr@std@@V?$allocator@D@23@@__Cr@std@@V?$__wrap_iter@PBV?$basic_string@DU?$char_traits@D@__Cr@std@@V?$allocator@D@23@@__Cr@std@@@34@0V?$basic_string_view@DU?$char_traits@D@__Cr@std@@@34@UNoFormatter@01@@Z
    ??$JoinRange@V?$__wrap_iter@PBV?$basic_string@DU?$char_traits@D@__Cr@std@@V?$allocator@D@23@@__Cr@std@@@__Cr@std@@@strings_internal@absl@@YA?AV?$basic_string@DU?$char_traits@D@__Cr@std@@V?$allocator@D@23@@__Cr@std@@V?$__wrap_iter@PBV?$basic_string@DU?$char_traits@D@__Cr@std@@V?$allocator@D@23@@__Cr@std@@@34@0V?$basic_string_view@DU?$char_traits@D@__Cr@std@@@34@@Z
    ??$JoinRange@V?$vector@V?$basic_string@DU?$char_traits@D@__Cr@std@@V?$allocator@D@23@@__Cr@std@@V?$allocator@V?$basic_string@DU?$char_traits@D@__Cr@std@@V?$allocator@D@23@@__Cr@std@@@23@@__Cr@std@@@strings_internal@absl@@YA?AV?$basic_string@DU?$char_traits@D@__Cr@std@@V?$allocator@D@23@@__Cr@std@@ABV?$vector@V?$basic_string@DU?$char_traits@D@__Cr@std@@V?$allocator@D@23@@__Cr@std@@V?$allocator@V?$basic_string@DU?$char_traits@D@__Cr@std@@V?$allocator@D@23@@__Cr@std@@@23@@34@V?$basic_string_view@DU?$char_traits@D@__Cr@std@@@34@@Z
    ??$LowLevelCallOnce@A6AXXZ$$V@base_internal@absl@@YAXPAVonce_flag@1@A6AXXZ@Z
    ??$MakeCheckOpString@ABV?$basic_string@DU?$char_traits@D@__Cr@std@@V?$allocator@D@23@@__Cr@std@@ABV123@@log_internal@absl@@YAPBDABV?$basic_string@DU?$char_traits@D@__Cr@std@@V?$allocator@D@23@@__Cr@std@@0PBD@Z
    ??$MakeCheckOpString@ABV?$basic_string_view@DU?$char_traits@D@__Cr@std@@@__Cr@std@@ABV123@@log_internal@absl@@YAPBDABV?$basic_string_view@DU?$char_traits@D@__Cr@std@@@__Cr@std@@0PBD@Z
    ??$MakeCheckOpString@DD@log_internal@absl@@YAPBDDDPBD@Z
    ??$MakeCheckOpString@EE@log_internal@absl@@YAPBDEEPBD@Z
    ??$MakeCheckOpString@MM@log_internal@absl@@YAPBDMMPBD@Z
    ??$MakeCheckOpString@NN@log_internal@absl@@YAPBDNNPBD@Z
    ??$MakeCheckOpString@PBCPBC@log_internal@absl@@YAPBDPBC0PBD@Z
    ??$MakeCheckOpString@PBDPBD@log_internal@absl@@YAPBDPBD00@Z
    ??$MakeCheckOpString@PBEPBE@log_internal@absl@@YAPBDPBE0PBD@Z
    ??$MakeCheckOpString@PBXPBX@log_internal@absl@@YAPBDPBX0PBD@Z
    ??$MakeCheckOpString@_J_J@log_internal@absl@@YAPBD_J0PBD@Z
    ??$MakeCheckOpString@_K_K@log_internal@absl@@YAPBD_K0PBD@Z
    ??$MakeCheckOpString@_N_N@log_internal@absl@@YAPBD_N0PBD@Z
    ??$MakeCheckOpValueString@M@log_internal@absl@@YAXAAV?$basic_ostream@DU?$char_traits@D@__Cr@std@@@__Cr@std@@ABM@Z
    ??$MakeCheckOpValueString@N@log_internal@absl@@YAXAAV?$basic_ostream@DU?$char_traits@D@__Cr@std@@@__Cr@std@@ABN@Z
    ??$MakeCheckOpValueString@PBC@log_internal@absl@@YAXAAV?$basic_ostream@DU?$char_traits@D@__Cr@std@@@__Cr@std@@ABQBC@Z
    ??$MakeCheckOpValueString@PBD@log_internal@absl@@YAXAAV?$basic_ostream@DU?$char_traits@D@__Cr@std@@@__Cr@std@@ABQBD@Z
    ??$MakeCheckOpValueString@PBE@log_internal@absl@@YAXAAV?$basic_ostream@DU?$char_traits@D@__Cr@std@@@__Cr@std@@ABQBE@Z
    ??$MakeCheckOpValueString@V?$basic_string@DU?$char_traits@D@__Cr@std@@V?$allocator@D@23@@__Cr@std@@@log_internal@absl@@YAXAAV?$basic_ostream@DU?$char_traits@D@__Cr@std@@@__Cr@std@@ABV?$basic_string@DU?$char_traits@D@__Cr@std@@V?$allocator@D@23@@34@@Z
    ??$MakeCheckOpValueString@V?$basic_string_view@DU?$char_traits@D@__Cr@std@@@__Cr@std@@@log_internal@absl@@YAXAAV?$basic_ostream@DU?$char_traits@D@__Cr@std@@@__Cr@std@@ABV?$basic_string_view@DU?$char_traits@D@__Cr@std@@@34@@Z
    ??$MakeCheckOpValueString@_J@log_internal@absl@@YAXAAV?$basic_ostream@DU?$char_traits@D@__Cr@std@@@__Cr@std@@AB_J@Z
    ??$MakeCheckOpValueString@_K@log_internal@absl@@YAXAAV?$basic_ostream@DU?$char_traits@D@__Cr@std@@@__Cr@std@@AB_K@Z
    ??$MakeCheckOpValueString@_N@log_internal@absl@@YAXAAV?$basic_ostream@DU?$char_traits@D@__Cr@std@@@__Cr@std@@AB_N@Z
    ??$MakeConstSpan@$SQAX@absl@@YA?AV?$Span@QAX@0@PBQAXI@Z
    ??$MakeSpan@$SD@absl@@YA?AV?$Span@D@0@PADI@Z
    ??$MakeSpan@$SI$0BAA@@absl@@YA?AV?$Span@I@0@AAY0BAA@I@Z
    ??$MakeSpan@$SI$0BIA@@absl@@YA?AV?$Span@I@0@AAY0BIA@I@Z
    ??$MakeSpan@$SI$0CAA@@absl@@YA?AV?$Span@I@0@AAY0CAA@I@Z
    ??$MakeSpan@$SI$0CIA@@absl@@YA?AV?$Span@I@0@AAY0CIA@I@Z
    ??$MakeSpan@$SI$0IA@@absl@@YA?AV?$Span@I@0@AAY0IA@I@Z
    ??$MakeSpan@$SI@absl@@YA?AV?$Span@I@0@PAII@Z
    ??$MakeSpan@$SPAVLogSink@absl@@@absl@@YA?AV?$Span@PAVLogSink@absl@@@0@PAPAVLogSink@0@I@Z
    ??$MakeSpan@$SU?$array@D$0DKJI@@__Cr@std@@@absl@@YA?AV?$Span@D@0@AAU?$array@D$0DKJI@@__Cr@std@@@Z
    ??$MakeSpan@$SV?$InlinedVector@PAVLogSink@absl@@$0BA@V?$allocator@PAVLogSink@absl@@@__Cr@std@@@absl@@@absl@@YA?AV?$Span@PAVLogSink@absl@@@0@AAV?$InlinedVector@PAVLogSink@absl@@$0BA@V?$allocator@PAVLogSink@absl@@@__Cr@std@@@0@@Z
    ??$MakeSpan@$SV?$vector@PAVLogSink@absl@@V?$allocator@PAVLogSink@absl@@@__Cr@std@@@__Cr@std@@@absl@@YA?AV?$Span@PAVLogSink@absl@@@0@AAV?$vector@PAVLogSink@absl@@V?$allocator@PAVLogSink@absl@@@__Cr@std@@@__Cr@std@@@Z
    ??$MaskOfLength@I@crc_internal@absl@@YAIH@Z
    ??$MaxValidSizeFor1ByteSlot@$03@container_internal@absl@@YAIXZ
    ??$Merge@$00@CordRepBtree@cord_internal@absl@@CAPAV012@PAV012@0@Z
    ??$Merge@$0A@@CordRepBtree@cord_internal@absl@@CAPAV012@PAV012@0@Z
    ??$Microseconds@H$0A@@absl@@YA?AVDuration@0@H@Z
    ??$Microseconds@J$0A@@absl@@YA?AVDuration@0@J@Z
    ??$Milliseconds@H$0A@@absl@@YA?AVDuration@0@H@Z
    ??$Milliseconds@K$0A@@absl@@YA?AVDuration@0@K@Z
    ??$Milliseconds@N$0A@@absl@@YA?AVDuration@0@N@Z
    ??$Minutes@H$0A@@absl@@YA?AVDuration@0@H@Z
    ??$Nanoseconds@H$0A@@absl@@YA?AVDuration@0@H@Z
    ??$Nanoseconds@J$0A@@absl@@YA?AVDuration@0@J@Z
    ??$Nanoseconds@_J$0A@@absl@@YA?AVDuration@0@_J@Z
    ??$NewImpl@$0BAAA@$$V@CordRepFlat@cord_internal@absl@@SAPAU012@I@Z
    ??$NewImpl@$0EAAAA@$$V@CordRepFlat@cord_internal@absl@@SAPAU012@I@Z
    ??$NewLeaf@$00@CordRepBtree@cord_internal@absl@@CAPAV012@V?$basic_string_view@DU?$char_traits@D@__Cr@std@@@__Cr@std@@I@Z
    ??$NewLeaf@$0A@@CordRepBtree@cord_internal@absl@@CAPAV012@V?$basic_string_view@DU?$char_traits@D@__Cr@std@@@__Cr@std@@I@Z
    ??$OffsetValue@U?$atomic@_K@__Cr@std@@@FlagImpl@flags_internal@absl@@ABEPAU?$atomic@_K@__Cr@std@@XZ
    ??$OffsetValue@UFlagMaskedPointerValue@flags_internal@absl@@@FlagImpl@flags_internal@absl@@ABEPAUFlagMaskedPointerValue@12@XZ
    ??$OffsetValue@UFlagOneWordValue@flags_internal@absl@@@FlagImpl@flags_internal@absl@@ABEPAUFlagOneWordValue@12@XZ
    ??$PairArgs@$$CBV?$basic_string_view@DU?$char_traits@D@__Cr@std@@@__Cr@std@@PAVCommandLineFlag@absl@@@container_internal@absl@@YA?AU?$pair@V?$tuple@$$QBV?$basic_string_view@DU?$char_traits@D@__Cr@std@@@__Cr@std@@@__Cr@std@@V?$tuple@$$QAPAVCommandLineFlag@absl@@@23@@__Cr@std@@$$QAU?$pair@$$CBV?$basic_string_view@DU?$char_traits@D@__Cr@std@@@__Cr@std@@PAVCommandLineFlag@absl@@@34@@Z
    ??$PairArgs@$$CBV?$basic_string_view@DU?$char_traits@D@__Cr@std@@@__Cr@std@@PAVCommandLineFlag@absl@@@container_internal@absl@@YA?AU?$pair@V?$tuple@$$QBV?$basic_string_view@DU?$char_traits@D@__Cr@std@@@__Cr@std@@@__Cr@std@@V?$tuple@$$QAPAVCommandLineFlag@absl@@@23@@__Cr@std@@$$QBV?$basic_string_view@DU?$char_traits@D@__Cr@std@@@34@$$QAPAVCommandLineFlag@1@@Z
    ??$PairArgs@$$CBV?$basic_string_view@DU?$char_traits@D@__Cr@std@@@__Cr@std@@PAVCommandLineFlag@absl@@@container_internal@absl@@YA?AU?$pair@V?$tuple@ABV?$basic_string_view@DU?$char_traits@D@__Cr@std@@@__Cr@std@@@__Cr@std@@V?$tuple@ABQAVCommandLineFlag@absl@@@23@@__Cr@std@@ABU?$pair@$$CBV?$basic_string_view@DU?$char_traits@D@__Cr@std@@@__Cr@std@@PAVCommandLineFlag@absl@@@34@@Z
    ??$PairArgs@ABV?$basic_string_view@DU?$char_traits@D@__Cr@std@@@__Cr@std@@ABQAVCommandLineFlag@absl@@@container_internal@absl@@YA?AU?$pair@V?$tuple@ABV?$basic_string_view@DU?$char_traits@D@__Cr@std@@@__Cr@std@@@__Cr@std@@V?$tuple@ABQAVCommandLineFlag@absl@@@23@@__Cr@std@@ABV?$basic_string_view@DU?$char_traits@D@__Cr@std@@@34@ABQAVCommandLineFlag@1@@Z
    ??$PairArgs@V?$basic_string_view@DU?$char_traits@D@__Cr@std@@@__Cr@std@@PAVCommandLineFlag@absl@@@container_internal@absl@@YA?AU?$pair@V?$tuple@$$QAV?$basic_string_view@DU?$char_traits@D@__Cr@std@@@__Cr@std@@@__Cr@std@@V?$tuple@$$QAPAVCommandLineFlag@absl@@@23@@__Cr@std@@$$QAU?$pair@V?$basic_string_view@DU?$char_traits@D@__Cr@std@@@__Cr@std@@PAVCommandLineFlag@absl@@@34@@Z
    ??$PairArgs@V?$basic_string_view@DU?$char_traits@D@__Cr@std@@@__Cr@std@@PAVCommandLineFlag@absl@@@container_internal@absl@@YA?AU?$pair@V?$tuple@$$QAV?$basic_string_view@DU?$char_traits@D@__Cr@std@@@__Cr@std@@@__Cr@std@@V?$tuple@$$QAPAVCommandLineFlag@absl@@@23@@__Cr@std@@$$QAV?$basic_string_view@DU?$char_traits@D@__Cr@std@@@34@$$QAPAVCommandLineFlag@1@@Z
    ??$ParseFlag@H@absl@@YA_NV?$basic_string_view@DU?$char_traits@D@__Cr@std@@@__Cr@std@@PAHPAV?$basic_string@DU?$char_traits@D@__Cr@std@@V?$allocator@D@23@@23@@Z
    ??$ParseFlag@M@absl@@YA_NV?$basic_string_view@DU?$char_traits@D@__Cr@std@@@__Cr@std@@PAMPAV?$basic_string@DU?$char_traits@D@__Cr@std@@V?$allocator@D@23@@23@@Z
    ??$ParseFlag@N@absl@@YA_NV?$basic_string_view@DU?$char_traits@D@__Cr@std@@@__Cr@std@@PANPAV?$basic_string@DU?$char_traits@D@__Cr@std@@V?$allocator@D@23@@23@@Z
    ??$ParseFlag@V?$vector@V?$basic_string@DU?$char_traits@D@__Cr@std@@V?$allocator@D@23@@__Cr@std@@V?$allocator@V?$basic_string@DU?$char_traits@D@__Cr@std@@V?$allocator@D@23@@__Cr@std@@@23@@__Cr@std@@@absl@@YA_NV?$basic_string_view@DU?$char_traits@D@__Cr@std@@@__Cr@std@@PAV?$vector@V?$basic_string@DU?$char_traits@D@__Cr@std@@V?$allocator@D@23@@__Cr@std@@V?$allocator@V?$basic_string@DU?$char_traits@D@__Cr@std@@V?$allocator@D@23@@__Cr@std@@@23@@23@PAV?$basic_string@DU?$char_traits@D@__Cr@std@@V?$allocator@D@23@@23@@Z
    ??$ParseFlagImpl@H@flags_internal@absl@@YA_NV?$basic_string_view@DU?$char_traits@D@__Cr@std@@@__Cr@std@@AAH@Z
    ??$ParseFlagImpl@I@flags_internal@absl@@YA_NV?$basic_string_view@DU?$char_traits@D@__Cr@std@@@__Cr@std@@AAI@Z
    ??$ParseFlagImpl@J@flags_internal@absl@@YA_NV?$basic_string_view@DU?$char_traits@D@__Cr@std@@@__Cr@std@@AAJ@Z
    ??$ParseFlagImpl@K@flags_internal@absl@@YA_NV?$basic_string_view@DU?$char_traits@D@__Cr@std@@@__Cr@std@@AAK@Z
    ??$ParseFlagImpl@_J@flags_internal@absl@@YA_NV?$basic_string_view@DU?$char_traits@D@__Cr@std@@@__Cr@std@@AA_J@Z
    ??$ParseFlagImpl@_K@flags_internal@absl@@YA_NV?$basic_string_view@DU?$char_traits@D@__Cr@std@@@__Cr@std@@AA_K@Z
    ??$ParseFloat@$09@strings_internal@absl@@YA?AUParsedFloat@01@PBD0W4chars_format@1@@Z
    ??$ParseFloat@$0BA@@strings_internal@absl@@YA?AUParsedFloat@01@PBD0W4chars_format@1@@Z
    ??$ParseFormatString@UParsedFormatConsumer@ParsedFormatBase@str_format_internal@absl@@@str_format_internal@absl@@YA_NV?$basic_string_view@DU?$char_traits@D@__Cr@std@@@__Cr@std@@UParsedFormatConsumer@ParsedFormatBase@01@@Z
    ??$PopDead@_JIIIG@?$SampleRecorder@UHashtablezInfo@container_internal@absl@@@profiling_internal@absl@@AAEPAUHashtablezInfo@container_internal@2@_JIIIG@Z
    ??$Prepend@V?$basic_string@DU?$char_traits@D@__Cr@std@@V?$allocator@D@23@@__Cr@std@@$0A@@Cord@absl@@QAEX$$QAV?$basic_string@DU?$char_traits@D@__Cr@std@@V?$allocator@D@23@@__Cr@std@@@Z
    ??$ReadCallback@P6A_NPAUSynchEvent@absl@@@Z@Condition@absl@@ABEXPAP6A_NPAUSynchEvent@1@@Z@Z
    ??$ReadCallback@P6A_NPBU?$atomic@_N@__Cr@std@@@Z@Condition@absl@@ABEXPAP6A_NPBU?$atomic@_N@__Cr@std@@@Z@Z
    ??$Register@AB_JAAIAAIAAIAAG@?$SampleRecorder@UHashtablezInfo@container_internal@absl@@@profiling_internal@absl@@QAEPAUHashtablezInfo@container_internal@2@AB_JAAI11AAG@Z
    ??$RotateRight@I@crc_internal@absl@@YAIIHH@Z
    ??$RunWithReentrancyGuard@V<lambda_1>@?0???$construct@ABUpiecewise_construct_t@__Cr@std@@V?$tuple@$$QAV?$basic_string_view@DU?$char_traits@D@__Cr@std@@@__Cr@std@@@23@V?$tuple@$$QAPAVCommandLineFlag@absl@@@23@@?$raw_hash_set@U?$FlatHashMapPolicy@V?$basic_string_view@DU?$char_traits@D@__Cr@std@@@__Cr@std@@PAVCommandLineFlag@absl@@@container_internal@absl@@UStringHash@23@UStringEq@23@V?$allocator@U?$pair@$$CBV?$basic_string_view@DU?$char_traits@D@__Cr@std@@@__Cr@std@@PAVCommandLineFlag@absl@@@__Cr@std@@@__Cr@std@@@container_internal@absl@@AAEXPAT?$map_slot_type@V?$basic_string_view@DU?$char_traits@D@__Cr@std@@@__Cr@std@@PAVCommandLineFlag@absl@@@34@ABUpiecewise_construct_t@__Cr@std@@$$QAV?$tuple@$$QAV?$basic_string_view@DU?$char_traits@D@__Cr@std@@@__Cr@std@@@78@$$QAV?$tuple@$$QAPAVCommandLineFlag@absl@@@78@@Z@@CommonFields@container_internal@absl@@QAEXV<lambda_1>@?0???$construct@ABUpiecewise_construct_t@__Cr@std@@V?$tuple@$$QAV?$basic_string_view@DU?$char_traits@D@__Cr@std@@@__Cr@std@@@23@V?$tuple@$$QAPAVCommandLineFlag@absl@@@23@@?$raw_hash_set@U?$FlatHashMapPolicy@V?$basic_string_view@DU?$char_traits@D@__Cr@std@@@__Cr@std@@PAVCommandLineFlag@absl@@@container_internal@absl@@UStringHash@23@UStringEq@23@V?$allocator@U?$pair@$$CBV?$basic_string_view@DU?$char_traits@D@__Cr@std@@@__Cr@std@@PAVCommandLineFlag@absl@@@__Cr@std@@@__Cr@std@@@12@AAEXPAT?$map_slot_type@V?$basic_string_view@DU?$char_traits@D@__Cr@std@@@__Cr@std@@PAVCommandLineFlag@absl@@@12@ABUpiecewise_construct_t@__Cr@std@@$$QAV?$tuple@$$QAV?$basic_string_view@DU?$char_traits@D@__Cr@std@@@__Cr@std@@@78@$$QAV?$tuple@$$QAPAVCommandLineFlag@absl@@@78@@Z@@Z
    ??$RunWithReentrancyGuard@V<lambda_1>@?0???$construct@ABUpiecewise_construct_t@__Cr@std@@V?$tuple@$$QBV?$basic_string_view@DU?$char_traits@D@__Cr@std@@@__Cr@std@@@23@V?$tuple@$$QAPAVCommandLineFlag@absl@@@23@@?$raw_hash_set@U?$FlatHashMapPolicy@V?$basic_string_view@DU?$char_traits@D@__Cr@std@@@__Cr@std@@PAVCommandLineFlag@absl@@@container_internal@absl@@UStringHash@23@UStringEq@23@V?$allocator@U?$pair@$$CBV?$basic_string_view@DU?$char_traits@D@__Cr@std@@@__Cr@std@@PAVCommandLineFlag@absl@@@__Cr@std@@@__Cr@std@@@container_internal@absl@@AAEXPAT?$map_slot_type@V?$basic_string_view@DU?$char_traits@D@__Cr@std@@@__Cr@std@@PAVCommandLineFlag@absl@@@34@ABUpiecewise_construct_t@__Cr@std@@$$QAV?$tuple@$$QBV?$basic_string_view@DU?$char_traits@D@__Cr@std@@@__Cr@std@@@78@$$QAV?$tuple@$$QAPAVCommandLineFlag@absl@@@78@@Z@@CommonFields@container_internal@absl@@QAEXV<lambda_1>@?0???$construct@ABUpiecewise_construct_t@__Cr@std@@V?$tuple@$$QBV?$basic_string_view@DU?$char_traits@D@__Cr@std@@@__Cr@std@@@23@V?$tuple@$$QAPAVCommandLineFlag@absl@@@23@@?$raw_hash_set@U?$FlatHashMapPolicy@V?$basic_string_view@DU?$char_traits@D@__Cr@std@@@__Cr@std@@PAVCommandLineFlag@absl@@@container_internal@absl@@UStringHash@23@UStringEq@23@V?$allocator@U?$pair@$$CBV?$basic_string_view@DU?$char_traits@D@__Cr@std@@@__Cr@std@@PAVCommandLineFlag@absl@@@__Cr@std@@@__Cr@std@@@12@AAEXPAT?$map_slot_type@V?$basic_string_view@DU?$char_traits@D@__Cr@std@@@__Cr@std@@PAVCommandLineFlag@absl@@@12@ABUpiecewise_construct_t@__Cr@std@@$$QAV?$tuple@$$QBV?$basic_string_view@DU?$char_traits@D@__Cr@std@@@__Cr@std@@@78@$$QAV?$tuple@$$QAPAVCommandLineFlag@absl@@@78@@Z@@Z
    ??$RunWithReentrancyGuard@V<lambda_1>@?0??destroy@?$raw_hash_set@U?$FlatHashMapPolicy@V?$basic_string_view@DU?$char_traits@D@__Cr@std@@@__Cr@std@@PAVCommandLineFlag@absl@@@container_internal@absl@@UStringHash@23@UStringEq@23@V?$allocator@U?$pair@$$CBV?$basic_string_view@DU?$char_traits@D@__Cr@std@@@__Cr@std@@PAVCommandLineFlag@absl@@@__Cr@std@@@__Cr@std@@@container_internal@absl@@AAEXPAT?$map_slot_type@V?$basic_string_view@DU?$char_traits@D@__Cr@std@@@__Cr@std@@PAVCommandLineFlag@absl@@@45@@Z@@CommonFields@container_internal@absl@@QAEXV<lambda_1>@?0??destroy@?$raw_hash_set@U?$FlatHashMapPolicy@V?$basic_string_view@DU?$char_traits@D@__Cr@std@@@__Cr@std@@PAVCommandLineFlag@absl@@@container_internal@absl@@UStringHash@23@UStringEq@23@V?$allocator@U?$pair@$$CBV?$basic_string_view@DU?$char_traits@D@__Cr@std@@@__Cr@std@@PAVCommandLineFlag@absl@@@__Cr@std@@@__Cr@std@@@12@AAEXPAT?$map_slot_type@V?$basic_string_view@DU?$char_traits@D@__Cr@std@@@__Cr@std@@PAVCommandLineFlag@absl@@@12@@Z@@Z
    ??$RunWithReentrancyGuard@V<lambda_1>@?0??transfer@?$raw_hash_set@U?$FlatHashMapPolicy@V?$basic_string_view@DU?$char_traits@D@__Cr@std@@@__Cr@std@@PAVCommandLineFlag@absl@@@container_internal@absl@@UStringHash@23@UStringEq@23@V?$allocator@U?$pair@$$CBV?$basic_string_view@DU?$char_traits@D@__Cr@std@@@__Cr@std@@PAVCommandLineFlag@absl@@@__Cr@std@@@__Cr@std@@@container_internal@absl@@AAEXPAT?$map_slot_type@V?$basic_string_view@DU?$char_traits@D@__Cr@std@@@__Cr@std@@PAVCommandLineFlag@absl@@@45@0@Z@@CommonFields@container_internal@absl@@QAEXV<lambda_1>@?0??transfer@?$raw_hash_set@U?$FlatHashMapPolicy@V?$basic_string_view@DU?$char_traits@D@__Cr@std@@@__Cr@std@@PAVCommandLineFlag@absl@@@container_internal@absl@@UStringHash@23@UStringEq@23@V?$allocator@U?$pair@$$CBV?$basic_string_view@DU?$char_traits@D@__Cr@std@@@__Cr@std@@PAVCommandLineFlag@absl@@@__Cr@std@@@__Cr@std@@@12@AAEXPAT?$map_slot_type@V?$basic_string_view@DU?$char_traits@D@__Cr@std@@@__Cr@std@@PAVCommandLineFlag@absl@@@12@0@Z@@Z
    ??$SNPrintF@DHHH@absl@@YAHPADIABV?$FormatSpecTemplate@$0BPPPL@$0JPPPL@$0JPPPL@$0JPPPL@@str_format_internal@0@ABDABH33@Z
    ??$STLStringResizeUninitialized@V?$basic_string@DU?$char_traits@D@__Cr@std@@V?$allocator@D@23@@__Cr@std@@X@strings_internal@absl@@YAXPAV?$basic_string@DU?$char_traits@D@__Cr@std@@V?$allocator@D@23@@__Cr@std@@I@Z
    ??$STLStringResizeUninitializedAmortized@V?$basic_string@DU?$char_traits@D@__Cr@std@@V?$allocator@D@23@@__Cr@std@@@strings_internal@absl@@YAXPAV?$basic_string@DU?$char_traits@D@__Cr@std@@V?$allocator@D@23@@__Cr@std@@I@Z
    ??$Seconds@H$0A@@absl@@YA?AVDuration@0@H@Z
    ??$Seconds@J$0A@@absl@@YA?AVDuration@0@J@Z
    ??$Seconds@_J$0A@@absl@@YA?AVDuration@0@_J@Z
    ??$SetEdge@$00@CordRepBtree@cord_internal@absl@@QAE?AUOpResult@012@_NPAUCordRep@12@I@Z
    ??$SetEdge@$0A@@CordRepBtree@cord_internal@absl@@QAE?AUOpResult@012@_NPAUCordRep@12@I@Z
    ??$SetFlag@V?$vector@V?$basic_string@DU?$char_traits@D@__Cr@std@@V?$allocator@D@23@@__Cr@std@@V?$allocator@V?$basic_string@DU?$char_traits@D@__Cr@std@@V?$allocator@D@23@@__Cr@std@@@23@@__Cr@std@@@absl@@YAXPAV?$Flag@V?$vector@V?$basic_string@DU?$char_traits@D@__Cr@std@@V?$allocator@D@23@@__Cr@std@@V?$allocator@V?$basic_string@DU?$char_traits@D@__Cr@std@@V?$allocator@D@23@@__Cr@std@@@23@@__Cr@std@@@flags_internal@0@ABV?$vector@V?$basic_string@DU?$char_traits@D@__Cr@std@@V?$allocator@D@23@@__Cr@std@@V?$allocator@V?$basic_string@DU?$char_traits@D@__Cr@std@@V?$allocator@D@23@@__Cr@std@@@23@@__Cr@std@@@Z
    ??$SharedCompareImpl@V?$basic_string_view@DU?$char_traits@D@__Cr@std@@@__Cr@std@@@absl@@YAHABVCord@0@ABV?$basic_string_view@DU?$char_traits@D@__Cr@std@@@__Cr@std@@@Z
    ??$SharedCompareImpl@VCord@absl@@@absl@@YAHABVCord@0@0@Z
    ??$SimpleAtoi@H@absl@@YA_NV?$basic_string_view@DU?$char_traits@D@__Cr@std@@@__Cr@std@@PAH@Z
    ??$SmallMemmove@$00@cord_internal@absl@@YAXPADPBDI@Z
    ??$SmallMemmove@$0A@@cord_internal@absl@@YAXPADPBDI@Z
    ??$StoreCallback@P6A_NPAUSynchEvent@absl@@@Z@Condition@absl@@AAEXP6A_NPAUSynchEvent@1@@Z@Z
    ??$StoreCallback@P6A_NPAX@Z@Condition@absl@@AAEXP6A_NPAX@Z@Z
    ??$StoreCallback@P6A_NPBU?$atomic@_N@__Cr@std@@@Z@Condition@absl@@AAEXP6A_NPBU?$atomic@_N@__Cr@std@@@Z@Z
    ??$StrAppend@$$V@absl@@YAXPAV?$basic_string@DU?$char_traits@D@__Cr@std@@V?$allocator@D@23@@__Cr@std@@ABVAlphaNum@0@1111@Z
    ??$StrCat@$$BY01D@absl@@YA?AV?$basic_string@DU?$char_traits@D@__Cr@std@@V?$allocator@D@23@@__Cr@std@@ABVAlphaNum@0@0000AAY01$$CBD@Z
    ??$StrCat@$$V@absl@@YA?AV?$basic_string@DU?$char_traits@D@__Cr@std@@V?$allocator@D@23@@__Cr@std@@ABVAlphaNum@0@0000@Z
    ??$StrCat@F@absl@@YA?AV?$basic_string@DU?$char_traits@D@__Cr@std@@V?$allocator@D@23@@__Cr@std@@F@Z
    ??$StrCat@G@absl@@YA?AV?$basic_string@DU?$char_traits@D@__Cr@std@@V?$allocator@D@23@@__Cr@std@@G@Z
    ??$StrCat@H@absl@@YA?AV?$basic_string@DU?$char_traits@D@__Cr@std@@V?$allocator@D@23@@__Cr@std@@H@Z
    ??$StrCat@I@absl@@YA?AV?$basic_string@DU?$char_traits@D@__Cr@std@@V?$allocator@D@23@@__Cr@std@@I@Z
    ??$StrCat@J@absl@@YA?AV?$basic_string@DU?$char_traits@D@__Cr@std@@V?$allocator@D@23@@__Cr@std@@J@Z
    ??$StrCat@K@absl@@YA?AV?$basic_string@DU?$char_traits@D@__Cr@std@@V?$allocator@D@23@@__Cr@std@@K@Z
    ??$StrCat@PBD@absl@@YA?AV?$basic_string@DU?$char_traits@D@__Cr@std@@V?$allocator@D@23@@__Cr@std@@ABVAlphaNum@0@0000ABQBD@Z
    ??$StrCat@V?$basic_string@DU?$char_traits@D@__Cr@std@@V?$allocator@D@23@@__Cr@std@@$$BY02D@absl@@YA?AV?$basic_string@DU?$char_traits@D@__Cr@std@@V?$allocator@D@23@@__Cr@std@@ABVAlphaNum@0@0000ABV123@AAY02$$CBD@Z
    ??$StrCat@V?$basic_string@DU?$char_traits@D@__Cr@std@@V?$allocator@D@23@@__Cr@std@@$$BY03D@absl@@YA?AV?$basic_string@DU?$char_traits@D@__Cr@std@@V?$allocator@D@23@@__Cr@std@@ABVAlphaNum@0@0000ABV123@AAY03$$CBD@Z
    ??$StrCat@V?$basic_string@DU?$char_traits@D@__Cr@std@@V?$allocator@D@23@@__Cr@std@@$$BY0BO@DV123@@absl@@YA?AV?$basic_string@DU?$char_traits@D@__Cr@std@@V?$allocator@D@23@@__Cr@std@@ABVAlphaNum@0@0000ABV123@AAY0BO@$$CBD1@Z
    ??$StrCat@V?$basic_string@DU?$char_traits@D@__Cr@std@@V?$allocator@D@23@@__Cr@std@@$$BY0LD@D@absl@@YA?AV?$basic_string@DU?$char_traits@D@__Cr@std@@V?$allocator@D@23@@__Cr@std@@ABVAlphaNum@0@0000ABV123@AAY0LD@$$CBD@Z
    ??$StrCat@V?$basic_string_view@DU?$char_traits@D@__Cr@std@@@__Cr@std@@V?$basic_string@DU?$char_traits@D@__Cr@std@@V?$allocator@D@23@@23@@absl@@YA?AV?$basic_string@DU?$char_traits@D@__Cr@std@@V?$allocator@D@23@@__Cr@std@@ABVAlphaNum@0@0000ABV?$basic_string_view@DU?$char_traits@D@__Cr@std@@@23@ABV123@@Z
    ??$StrCat@_J@absl@@YA?AV?$basic_string@DU?$char_traits@D@__Cr@std@@V?$allocator@D@23@@__Cr@std@@_J@Z
    ??$StrCat@_K@absl@@YA?AV?$basic_string@DU?$char_traits@D@__Cr@std@@V?$allocator@D@23@@__Cr@std@@_K@Z
    ??$StrFormat@DHHHHH_JIV?$basic_string_view@DU?$char_traits@D@__Cr@std@@@__Cr@std@@HPBDV123@@absl@@YA?AV?$basic_string@DU?$char_traits@D@__Cr@std@@V?$allocator@D@23@@__Cr@std@@ABV?$FormatSpecTemplate@$0BPPPL@$0JPPPL@$0JPPPL@$0JPPPL@$0JPPPL@$0JPPPL@$0JPPPL@$0JPPPL@$0IAAAE@$0JPPPL@$0EAAAE@$0IAAAE@@str_format_internal@0@ABDABH2222AB_JABIABV?$basic_string_view@DU?$char_traits@D@__Cr@std@@@23@2ABQBD5@Z
    ??$StrFormat@HM@absl@@YA?AV?$basic_string@DU?$char_traits@D@__Cr@std@@V?$allocator@D@23@@__Cr@std@@ABV?$FormatSpecTemplate@$0JPPPL@$0JPOAA@@str_format_internal@0@ABHABM@Z
    ??$StrFormat@HN@absl@@YA?AV?$basic_string@DU?$char_traits@D@__Cr@std@@V?$allocator@D@23@@__Cr@std@@ABV?$FormatSpecTemplate@$0JPPPL@$0JPOAA@@str_format_internal@0@ABHABN@Z
    ??$StrJoin@V?$vector@V?$basic_string@DU?$char_traits@D@__Cr@std@@V?$allocator@D@23@@__Cr@std@@V?$allocator@V?$basic_string@DU?$char_traits@D@__Cr@std@@V?$allocator@D@23@@__Cr@std@@@23@@__Cr@std@@@absl@@YA?AV?$basic_string@DU?$char_traits@D@__Cr@std@@V?$allocator@D@23@@__Cr@std@@ABV?$vector@V?$basic_string@DU?$char_traits@D@__Cr@std@@V?$allocator@D@23@@__Cr@std@@V?$allocator@V?$basic_string@DU?$char_traits@D@__Cr@std@@V?$allocator@D@23@@__Cr@std@@@23@@23@V?$basic_string_view@DU?$char_traits@D@__Cr@std@@@23@@Z
    ??$StrReplaceAll@V?$initializer_list@U?$pair@V?$basic_string_view@DU?$char_traits@D@__Cr@std@@@__Cr@std@@V123@@__Cr@std@@@std@@@absl@@YA?AV?$basic_string@DU?$char_traits@D@__Cr@std@@V?$allocator@D@23@@__Cr@std@@V?$basic_string_view@DU?$char_traits@D@__Cr@std@@@23@ABV?$initializer_list@U?$pair@V?$basic_string_view@DU?$char_traits@D@__Cr@std@@@__Cr@std@@V123@@__Cr@std@@@3@@Z
    ??$StrReplaceAll@V?$initializer_list@U?$pair@V?$basic_string_view@DU?$char_traits@D@__Cr@std@@@__Cr@std@@V123@@__Cr@std@@@std@@@absl@@YAHABV?$initializer_list@U?$pair@V?$basic_string_view@DU?$char_traits@D@__Cr@std@@@__Cr@std@@V123@@__Cr@std@@@std@@PAV?$basic_string@DU?$char_traits@D@__Cr@std@@V?$allocator@D@23@@__Cr@2@@Z
    ??$StrSplit@D@absl@@YA?AV?$Splitter@VByChar@absl@@UAllowEmpty@2@V?$basic_string_view@DU?$char_traits@D@__Cr@std@@@__Cr@std@@@strings_internal@0@VConvertibleToStringView@20@D@Z
    ??$StrSplit@DUAllowEmpty@absl@@@absl@@YA?AV?$Splitter@VByChar@absl@@UAllowEmpty@2@V?$basic_string_view@DU?$char_traits@D@__Cr@std@@@__Cr@std@@@strings_internal@0@VConvertibleToStringView@20@DUAllowEmpty@0@@Z
    ??$StrSplit@VByAnyChar@absl@@@absl@@YA?AV?$Splitter@VByAnyChar@absl@@UAllowEmpty@2@V?$basic_string_view@DU?$char_traits@D@__Cr@std@@@__Cr@std@@@strings_internal@0@VConvertibleToStringView@20@VByAnyChar@0@@Z
    ??$StrSplit@VByAnyChar@absl@@USkipEmpty@2@@absl@@YA?AV?$Splitter@VByAnyChar@absl@@USkipEmpty@2@V?$basic_string_view@DU?$char_traits@D@__Cr@std@@@__Cr@std@@@strings_internal@0@VConvertibleToStringView@20@VByAnyChar@0@USkipEmpty@0@@Z
    ??$StreamFormat@I@absl@@YA?AVStreamable@str_format_internal@0@ABV?$FormatSpecTemplate@$0JPPPL@@20@ABI@Z
    ??$ToChronoDuration@V?$duration@JV?$ratio@$0DM@$00@__Cr@std@@@chrono@__Cr@std@@@time_internal@absl@@YA?AV?$duration@JV?$ratio@$0DM@$00@__Cr@std@@@chrono@__Cr@std@@VDuration@1@@Z
    ??$ToChronoDuration@V?$duration@JV?$ratio@$0OBA@$00@__Cr@std@@@chrono@__Cr@std@@@time_internal@absl@@YA?AV?$duration@JV?$ratio@$0OBA@$00@__Cr@std@@@chrono@__Cr@std@@VDuration@1@@Z
    ??$ToChronoDuration@V?$duration@_JV?$ratio@$00$00@__Cr@std@@@chrono@__Cr@std@@@time_internal@absl@@YA?AV?$duration@_JV?$ratio@$00$00@__Cr@std@@@chrono@__Cr@std@@VDuration@1@@Z
    ??$ToChronoDuration@V?$duration@_JV?$ratio@$00$0DLJKMKAA@@__Cr@std@@@chrono@__Cr@std@@@time_internal@absl@@YA?AV?$duration@_JV?$ratio@$00$0DLJKMKAA@@__Cr@std@@@chrono@__Cr@std@@VDuration@1@@Z
    ??$ToChronoDuration@V?$duration@_JV?$ratio@$00$0DOI@@__Cr@std@@@chrono@__Cr@std@@@time_internal@absl@@YA?AV?$duration@_JV?$ratio@$00$0DOI@@__Cr@std@@@chrono@__Cr@std@@VDuration@1@@Z
    ??$ToChronoDuration@V?$duration@_JV?$ratio@$00$0PECEA@@__Cr@std@@@chrono@__Cr@std@@@time_internal@absl@@YA?AV?$duration@_JV?$ratio@$00$0PECEA@@__Cr@std@@@chrono@__Cr@std@@VDuration@1@@Z
    ??$ToInt@C@FormatArgImpl@str_format_internal@absl@@CA_NTData@012@PAHU?$integral_constant@_N$00@__Cr@std@@U?$integral_constant@_N$0A@@56@@Z
    ??$ToInt@D@FormatArgImpl@str_format_internal@absl@@CA_NTData@012@PAHU?$integral_constant@_N$00@__Cr@std@@U?$integral_constant@_N$0A@@56@@Z
    ??$ToInt@E@FormatArgImpl@str_format_internal@absl@@CA_NTData@012@PAHU?$integral_constant@_N$00@__Cr@std@@U?$integral_constant@_N$0A@@56@@Z
    ??$ToInt@F@FormatArgImpl@str_format_internal@absl@@CA_NTData@012@PAHU?$integral_constant@_N$00@__Cr@std@@U?$integral_constant@_N$0A@@56@@Z
    ??$ToInt@G@FormatArgImpl@str_format_internal@absl@@CA_NTData@012@PAHU?$integral_constant@_N$00@__Cr@std@@U?$integral_constant@_N$0A@@56@@Z
    ??$ToInt@H@FormatArgImpl@str_format_internal@absl@@CA_NTData@012@PAHU?$integral_constant@_N$00@__Cr@std@@U?$integral_constant@_N$0A@@56@@Z
    ??$ToInt@I@FormatArgImpl@str_format_internal@absl@@CA_NTData@012@PAHU?$integral_constant@_N$00@__Cr@std@@U?$integral_constant@_N$0A@@56@@Z
    ??$ToInt@J@FormatArgImpl@str_format_internal@absl@@CA_NTData@012@PAHU?$integral_constant@_N$00@__Cr@std@@U?$integral_constant@_N$0A@@56@@Z
    ??$ToInt@K@FormatArgImpl@str_format_internal@absl@@CA_NTData@012@PAHU?$integral_constant@_N$00@__Cr@std@@U?$integral_constant@_N$0A@@56@@Z
    ??$ToInt@M@FormatArgImpl@str_format_internal@absl@@CA_NTData@012@PAHU?$integral_constant@_N$0A@@__Cr@std@@2@Z
    ??$ToInt@N@FormatArgImpl@str_format_internal@absl@@CA_NTData@012@PAHU?$integral_constant@_N$0A@@__Cr@std@@2@Z
    ??$ToInt@O@FormatArgImpl@str_format_internal@absl@@CA_NTData@012@PAHU?$integral_constant@_N$0A@@__Cr@std@@2@Z
    ??$ToInt@PBD@FormatArgImpl@str_format_internal@absl@@CA_NTData@012@PAHU?$integral_constant@_N$0A@@__Cr@std@@2@Z
    ??$ToInt@PB_W@FormatArgImpl@str_format_internal@absl@@CA_NTData@012@PAHU?$integral_constant@_N$0A@@__Cr@std@@2@Z
    ??$ToInt@UVoidPtr@str_format_internal@absl@@@FormatArgImpl@str_format_internal@absl@@CA_NTData@012@PAHU?$integral_constant@_N$0A@@__Cr@std@@2@Z
    ??$ToInt@V?$basic_string@DU?$char_traits@D@__Cr@std@@V?$allocator@D@23@@__Cr@std@@@FormatArgImpl@str_format_internal@absl@@CA_NTData@012@PAHU?$integral_constant@_N$0A@@__Cr@std@@2@Z
    ??$ToInt@V?$basic_string@_WU?$char_traits@_W@__Cr@std@@V?$allocator@_W@23@@__Cr@std@@@FormatArgImpl@str_format_internal@absl@@CA_NTData@012@PAHU?$integral_constant@_N$0A@@__Cr@std@@2@Z
    ??$ToInt@V?$basic_string_view@DU?$char_traits@D@__Cr@std@@@__Cr@std@@@FormatArgImpl@str_format_internal@absl@@CA_NTData@012@PAHU?$integral_constant@_N$0A@@__Cr@std@@2@Z
    ??$ToInt@V?$basic_string_view@_WU?$char_traits@_W@__Cr@std@@@__Cr@std@@@FormatArgImpl@str_format_internal@absl@@CA_NTData@012@PAHU?$integral_constant@_N$0A@@__Cr@std@@2@Z
    ??$ToInt@VFormatArgImpl@str_format_internal@absl@@@FormatArgImplFriend@str_format_internal@absl@@SA_NVFormatArgImpl@12@PAH@Z
    ??$ToInt@Vint128@absl@@@FormatArgImpl@str_format_internal@absl@@CA_NTData@012@PAHU?$integral_constant@_N$0A@@__Cr@std@@2@Z
    ??$ToInt@Vuint128@absl@@@FormatArgImpl@str_format_internal@absl@@CA_NTData@012@PAHU?$integral_constant@_N$0A@@__Cr@std@@2@Z
    ??$ToInt@_J@FormatArgImpl@str_format_internal@absl@@CA_NTData@012@PAHU?$integral_constant@_N$00@__Cr@std@@U?$integral_constant@_N$0A@@56@@Z
    ??$ToInt@_K@FormatArgImpl@str_format_internal@absl@@CA_NTData@012@PAHU?$integral_constant@_N$00@__Cr@std@@U?$integral_constant@_N$0A@@56@@Z
    ??$ToInt@_N@FormatArgImpl@str_format_internal@absl@@CA_NTData@012@PAHU?$integral_constant@_N$00@__Cr@std@@U?$integral_constant@_N$0A@@56@@Z
    ??$ToIntVal@C@FormatArgImpl@str_format_internal@absl@@CAHABC@Z
    ??$ToIntVal@D@FormatArgImpl@str_format_internal@absl@@CAHABD@Z
    ??$ToIntVal@E@FormatArgImpl@str_format_internal@absl@@CAHABE@Z
    ??$ToIntVal@F@FormatArgImpl@str_format_internal@absl@@CAHABF@Z
    ??$ToIntVal@G@FormatArgImpl@str_format_internal@absl@@CAHABG@Z
    ??$ToIntVal@H@FormatArgImpl@str_format_internal@absl@@CAHABH@Z
    ??$ToIntVal@I@FormatArgImpl@str_format_internal@absl@@CAHABI@Z
    ??$ToIntVal@J@FormatArgImpl@str_format_internal@absl@@CAHABJ@Z
    ??$ToIntVal@K@FormatArgImpl@str_format_internal@absl@@CAHABK@Z
    ??$ToIntVal@_J@FormatArgImpl@str_format_internal@absl@@CAHAB_J@Z
    ??$ToIntVal@_K@FormatArgImpl@str_format_internal@absl@@CAHAB_K@Z
    ??$ToIntVal@_N@FormatArgImpl@str_format_internal@absl@@CAHAB_N@Z
    ??$TrailingZeros@G@container_internal@absl@@YAIG@Z
    ??$TrailingZeros@I@container_internal@absl@@YAII@Z
    ??$TrailingZeros@_K@container_internal@absl@@YAI_K@Z
    ??$TransferNRelocatable@$0M@@container_internal@absl@@YAXPAX00I@Z
    ??$TryFindNewIndexWithoutProbing@X@container_internal@absl@@YAIIIIPAW4ctrl_t@01@I@Z
    ??$TypeErasedApplyToSlotFn@UStringHash@container_internal@absl@@V?$basic_string_view@DU?$char_traits@D@__Cr@std@@@__Cr@std@@@container_internal@absl@@YAIPBXPAX@Z
    ??$UnhidePtr@X@base_internal@absl@@YAPAXI@Z
    ??$Unparse@V?$vector@V?$basic_string@DU?$char_traits@D@__Cr@std@@V?$allocator@D@23@@__Cr@std@@V?$allocator@V?$basic_string@DU?$char_traits@D@__Cr@std@@V?$allocator@D@23@@__Cr@std@@@23@@__Cr@std@@@flags_internal@absl@@YA?AV?$basic_string@DU?$char_traits@D@__Cr@std@@V?$allocator@D@23@@__Cr@std@@ABV?$vector@V?$basic_string@DU?$char_traits@D@__Cr@std@@V?$allocator@D@23@@__Cr@std@@V?$allocator@V?$basic_string@DU?$char_traits@D@__Cr@std@@V?$allocator@D@23@@__Cr@std@@@23@@34@@Z
    ??$UnparseFlag@H@absl@@YA?AV?$basic_string@DU?$char_traits@D@__Cr@std@@V?$allocator@D@23@@__Cr@std@@ABH@Z
    ??$UnparseFlag@V?$vector@V?$basic_string@DU?$char_traits@D@__Cr@std@@V?$allocator@D@23@@__Cr@std@@V?$allocator@V?$basic_string@DU?$char_traits@D@__Cr@std@@V?$allocator@D@23@@__Cr@std@@@23@@__Cr@std@@@absl@@YA?AV?$basic_string@DU?$char_traits@D@__Cr@std@@V?$allocator@D@23@@__Cr@std@@ABV?$vector@V?$basic_string@DU?$char_traits@D@__Cr@std@@V?$allocator@D@23@@__Cr@std@@V?$allocator@V?$basic_string@DU?$char_traits@D@__Cr@std@@V?$allocator@D@23@@__Cr@std@@@23@@23@@Z
    ??$UnparseFloatingPointVal@M@flags_internal@absl@@YA?AV?$basic_string@DU?$char_traits@D@__Cr@std@@V?$allocator@D@23@@__Cr@std@@M@Z
    ??$UnparseFloatingPointVal@N@flags_internal@absl@@YA?AV?$basic_string@DU?$char_traits@D@__Cr@std@@V?$allocator@D@23@@__Cr@std@@N@Z
    ??$__add_alignment_assumption@PAPAVCommandLineFlag@absl@@$0A@@?$vector@PAVCommandLineFlag@absl@@V?$allocator@PAVCommandLineFlag@absl@@@__Cr@std@@@__Cr@std@@CAPAPAVCommandLineFlag@absl@@PAPAV34@@Z
    ??$__add_alignment_assumption@PAPAVCordzHandle@cord_internal@absl@@$0A@@?$vector@PAVCordzHandle@cord_internal@absl@@V?$allocator@PAVCordzHandle@cord_internal@absl@@@__Cr@std@@@__Cr@std@@CAPAPAVCordzHandle@cord_internal@absl@@PAPAV345@@Z
    ??$__add_alignment_assumption@PAPAVLogSink@absl@@$0A@@?$vector@PAVLogSink@absl@@V?$allocator@PAVLogSink@absl@@@__Cr@std@@@__Cr@std@@CAPAPAVLogSink@absl@@PAPAV34@@Z
    ??$__add_alignment_assumption@PAPBVCommandLineFlag@absl@@$0A@@?$vector@PBVCommandLineFlag@absl@@V?$allocator@PBVCommandLineFlag@absl@@@__Cr@std@@@__Cr@std@@CAPAPBVCommandLineFlag@absl@@PAPBV34@@Z
    ??$__add_alignment_assumption@PAUConversionItem@ParsedFormatBase@str_format_internal@absl@@$0A@@?$vector@UConversionItem@ParsedFormatBase@str_format_internal@absl@@V?$allocator@UConversionItem@ParsedFormatBase@str_format_internal@absl@@@__Cr@std@@@__Cr@std@@CAPAUConversionItem@ParsedFormatBase@str_format_internal@absl@@PAU3456@@Z
    ??$__add_alignment_assumption@PAUTransition@cctz@time_internal@absl@@$0A@@?$vector@UTransition@cctz@time_internal@absl@@V?$allocator@UTransition@cctz@time_internal@absl@@@__Cr@std@@@__Cr@std@@CAPAUTransition@cctz@time_internal@absl@@PAU3456@@Z
    ??$__add_alignment_assumption@PAUTransitionType@cctz@time_internal@absl@@$0A@@?$vector@UTransitionType@cctz@time_internal@absl@@V?$allocator@UTransitionType@cctz@time_internal@absl@@@__Cr@std@@@__Cr@std@@CAPAUTransitionType@cctz@time_internal@absl@@PAU3456@@Z
    ??$__add_alignment_assumption@PAUUnrecognizedFlag@absl@@$0A@@?$vector@UUnrecognizedFlag@absl@@V?$allocator@UUnrecognizedFlag@absl@@@__Cr@std@@@__Cr@std@@CAPAUUnrecognizedFlag@absl@@PAU34@@Z
    ??$__add_alignment_assumption@PAV?$unique_ptr@VFlagStateInterface@flags_internal@absl@@U?$default_delete@VFlagStateInterface@flags_internal@absl@@@__Cr@std@@@__Cr@std@@$0A@@?$vector@V?$unique_ptr@VFlagStateInterface@flags_internal@absl@@U?$default_delete@VFlagStateInterface@flags_internal@absl@@@__Cr@std@@@__Cr@std@@V?$allocator@V?$unique_ptr@VFlagStateInterface@flags_internal@absl@@U?$default_delete@VFlagStateInterface@flags_internal@absl@@@__Cr@std@@@__Cr@std@@@23@@__Cr@std@@CAPAV?$unique_ptr@VFlagStateInterface@flags_internal@absl@@U?$default_delete@VFlagStateInterface@flags_internal@absl@@@__Cr@std@@@12@PAV312@@Z
    ??$__advance@PBUTransition@cctz@time_internal@absl@@@__Cr@std@@YAXAAPBUTransition@cctz@time_internal@absl@@HUrandom_access_iterator_tag@01@@Z
    ??$__advance@V?$__wrap_iter@PAPAVCommandLineFlag@absl@@@__Cr@std@@@__Cr@std@@YAXAAV?$__wrap_iter@PAPAVCommandLineFlag@absl@@@01@HUrandom_access_iterator_tag@01@@Z
    ??$__advance@V?$__wrap_iter@PAPBVCommandLineFlag@absl@@@__Cr@std@@@__Cr@std@@YAXAAV?$__wrap_iter@PAPBVCommandLineFlag@absl@@@01@HUrandom_access_iterator_tag@01@@Z
    ??$__advance@V?$__wrap_iter@PAUraw_view@?1???R?$ConvertToContainer@V?$vector@V?$basic_string_view@DU?$char_traits@D@__Cr@std@@@__Cr@std@@V?$allocator@V?$basic_string_view@DU?$char_traits@D@__Cr@std@@@__Cr@std@@@23@@__Cr@std@@V?$basic_string_view@DU?$char_traits@D@__Cr@std@@@23@$0A@@?$Splitter@VByChar@absl@@UAllowEmpty@2@V?$basic_string_view@DU?$char_traits@D@__Cr@std@@@__Cr@std@@@strings_internal@absl@@QBE?AV?$vector@V?$basic_string_view@DU?$char_traits@D@__Cr@std@@@__Cr@std@@V?$allocator@V?$basic_string_view@DU?$char_traits@D@__Cr@std@@@__Cr@std@@@23@@__Cr@std@@ABV345@@Z@@__Cr@std@@@__Cr@std@@YAXAAV?$__wrap_iter@PAUraw_view@?1???R?$ConvertToContainer@V?$vector@V?$basic_string_view@DU?$char_traits@D@__Cr@std@@@__Cr@std@@V?$allocator@V?$basic_string_view@DU?$char_traits@D@__Cr@std@@@__Cr@std@@@23@@__Cr@std@@V?$basic_string_view@DU?$char_traits@D@__Cr@std@@@23@$0A@@?$Splitter@VByChar@absl@@UAllowEmpty@2@V?$basic_string_view@DU?$char_traits@D@__Cr@std@@@__Cr@std@@@strings_internal@absl@@QBE?AV?$vector@V?$basic_string_view@DU?$char_traits@D@__Cr@std@@@__Cr@std@@V?$allocator@V?$basic_string_view@DU?$char_traits@D@__Cr@std@@@__Cr@std@@@23@@__Cr@std@@ABV345@@Z@@01@HUrandom_access_iterator_tag@01@@Z
    ??$__allocate_at_least@V?$allocator@PAPBVImpl@time_zone@cctz@time_internal@absl@@@__Cr@std@@@__Cr@std@@YA?AU?$__allocation_result@PAPAPBVImpl@time_zone@cctz@time_internal@absl@@@01@AAV?$allocator@PAPBVImpl@time_zone@cctz@time_internal@absl@@@01@I@Z
    ??$__allocate_at_least@V?$allocator@PAUPrefixCrc@CrcCordState@crc_internal@absl@@@__Cr@std@@@__Cr@std@@YA?AU?$__allocation_result@PAPAUPrefixCrc@CrcCordState@crc_internal@absl@@@01@AAV?$allocator@PAUPrefixCrc@CrcCordState@crc_internal@absl@@@01@I@Z
    ??$__allocate_at_least@V?$allocator@PAVCommandLineFlag@absl@@@__Cr@std@@@__Cr@std@@YA?AU?$__allocation_result@PAPAVCommandLineFlag@absl@@@01@AAV?$allocator@PAVCommandLineFlag@absl@@@01@I@Z
    ??$__allocate_at_least@V?$allocator@PAVCordzHandle@cord_internal@absl@@@__Cr@std@@@__Cr@std@@YA?AU?$__allocation_result@PAPAVCordzHandle@cord_internal@absl@@@01@AAV?$allocator@PAVCordzHandle@cord_internal@absl@@@01@I@Z
    ??$__allocate_at_least@V?$allocator@PAVLogSink@absl@@@__Cr@std@@@__Cr@std@@YA?AU?$__allocation_result@PAPAVLogSink@absl@@@01@AAV?$allocator@PAVLogSink@absl@@@01@I@Z
    ??$__allocate_at_least@V?$allocator@PBVCommandLineFlag@absl@@@__Cr@std@@@__Cr@std@@YA?AU?$__allocation_result@PAPBVCommandLineFlag@absl@@@01@AAV?$allocator@PBVCommandLineFlag@absl@@@01@I@Z
    ??$__allocate_at_least@V?$allocator@PBVCordzHandle@cord_internal@absl@@@__Cr@std@@@__Cr@std@@YA?AU?$__allocation_result@PAPBVCordzHandle@cord_internal@absl@@@01@AAV?$allocator@PBVCordzHandle@cord_internal@absl@@@01@I@Z
    ??$__allocate_at_least@V?$allocator@UConversionItem@ParsedFormatBase@str_format_internal@absl@@@__Cr@std@@@__Cr@std@@YA?AU?$__allocation_result@PAUConversionItem@ParsedFormatBase@str_format_internal@absl@@@01@AAV?$allocator@UConversionItem@ParsedFormatBase@str_format_internal@absl@@@01@I@Z
    ??$__allocate_at_least@V?$allocator@UTransition@cctz@time_internal@absl@@@__Cr@std@@@__Cr@std@@YA?AU?$__allocation_result@PAUTransition@cctz@time_internal@absl@@@01@AAV?$allocator@UTransition@cctz@time_internal@absl@@@01@I@Z
    ??$__allocate_at_least@V?$allocator@UTransitionType@cctz@time_internal@absl@@@__Cr@std@@@__Cr@std@@YA?AU?$__allocation_result@PAUTransitionType@cctz@time_internal@absl@@@01@AAV?$allocator@UTransitionType@cctz@time_internal@absl@@@01@I@Z
    ??$__allocate_at_least@V?$allocator@UUnrecognizedFlag@absl@@@__Cr@std@@@__Cr@std@@YA?AU?$__allocation_result@PAUUnrecognizedFlag@absl@@@01@AAV?$allocator@UUnrecognizedFlag@absl@@@01@I@Z
    ??$__allocate_at_least@V?$allocator@UViableSubstitution@strings_internal@absl@@@__Cr@std@@@__Cr@std@@YA?AU?$__allocation_result@PAUViableSubstitution@strings_internal@absl@@@01@AAV?$allocator@UViableSubstitution@strings_internal@absl@@@01@I@Z
    ??$__allocate_at_least@V?$allocator@V?$unique_ptr@VFlagStateInterface@flags_internal@absl@@U?$default_delete@VFlagStateInterface@flags_internal@absl@@@__Cr@std@@@__Cr@std@@@__Cr@std@@@__Cr@std@@YA?AU?$__allocation_result@PAV?$unique_ptr@VFlagStateInterface@flags_internal@absl@@U?$default_delete@VFlagStateInterface@flags_internal@absl@@@__Cr@std@@@__Cr@std@@@01@AAV?$allocator@V?$unique_ptr@VFlagStateInterface@flags_internal@absl@@U?$default_delete@VFlagStateInterface@flags_internal@absl@@@__Cr@std@@@__Cr@std@@@01@I@Z
    ??$__allocator_destroy@V?$allocator@UUnrecognizedFlag@absl@@@__Cr@std@@PAUUnrecognizedFlag@absl@@PAU45@@__Cr@std@@YAXAAV?$allocator@UUnrecognizedFlag@absl@@@01@PAUUnrecognizedFlag@absl@@1@Z
    ??$__annotate_double_ended_contiguous_container@V?$allocator@UPrefixCrc@CrcCordState@crc_internal@absl@@@__Cr@std@@@__Cr@std@@YAXPBX00000@Z
    ??$__append_with_size@V?$__deque_iterator@UPrefixCrc@CrcCordState@crc_internal@absl@@PBU1234@ABU1234@PBQBU1234@H$0A@@__Cr@std@@@?$deque@UPrefixCrc@CrcCordState@crc_internal@absl@@V?$allocator@UPrefixCrc@CrcCordState@crc_internal@absl@@@__Cr@std@@@__Cr@std@@AAEXV?$__deque_iterator@UPrefixCrc@CrcCordState@crc_internal@absl@@PBU1234@ABU1234@PBQBU1234@H$0A@@12@I@Z
    ??$__as_variant@V?$variant@_K_JIH_N@__Cr@std@@V?$variant@_K_JN@23@V?$Span@$$CBD@absl@@V?$variant@IHM@23@@__Cr@std@@YAAAV?$variant@V?$variant@_K_JIH_N@__Cr@std@@V?$variant@_K_JN@23@V?$Span@$$CBD@absl@@V?$variant@IHM@23@@01@AAV201@@Z
    ??$__assign_with_size_random_access@V?$__deque_iterator@UPrefixCrc@CrcCordState@crc_internal@absl@@PBU1234@ABU1234@PBQBU1234@H$0A@@__Cr@std@@@?$deque@UPrefixCrc@CrcCordState@crc_internal@absl@@V?$allocator@UPrefixCrc@CrcCordState@crc_internal@absl@@@__Cr@std@@@__Cr@std@@AAEXV?$__deque_iterator@UPrefixCrc@CrcCordState@crc_internal@absl@@PBU1234@ABU1234@PBQBU1234@H$0A@@12@H@Z
    ??$__at@P6AI$$QAU?$__value_visitor@UBufferSizeVisitor@?1??BufferSizeForStructuredProtoField@log_internal@absl@@YAIUStructuredProtoField@34@@Z@@__variant@__visitation@__variant_detail@__Cr@std@@AAV?$__base@$0A@V?$variant@_K_JIH_N@__Cr@std@@V?$variant@_K_JN@23@V?$Span@$$CBD@absl@@V?$variant@IHM@23@@456@@Z$03$$V@__base@__visitation@__variant_detail@__Cr@std@@CA$$QA_PABU?$__farray@P6AI$$QAU?$__value_visitor@UBufferSizeVisitor@?1??BufferSizeForStructuredProtoField@log_internal@absl@@YAIUStructuredProtoField@34@@Z@@__variant@__visitation@__variant_detail@__Cr@std@@AAV?$__base@$0A@V?$variant@_K_JIH_N@__Cr@std@@V?$variant@_K_JN@23@V?$Span@$$CBD@absl@@V?$variant@IHM@23@@456@@Z$03@34@I@Z
    ??$__at@P6AI$$QAU?$__value_visitor@UBufferSizeVisitor@?1??BufferSizeForStructuredProtoField@log_internal@absl@@YAIUStructuredProtoField@34@@Z@@__variant@__visitation@__variant_detail@__Cr@std@@AAV?$__base@$0A@V?$variant@_K_JIH_N@__Cr@std@@V?$variant@_K_JN@23@V?$Span@$$CBD@absl@@V?$variant@IHM@23@@456@@Z@__base@__visitation@__variant_detail@__Cr@std@@CAABQ6AI$$QAU?$__value_visitor@UBufferSizeVisitor@?1??BufferSizeForStructuredProtoField@log_internal@absl@@YAIUStructuredProtoField@34@@Z@@__variant@1234@AAV?$__base@$0A@V?$variant@_K_JIH_N@__Cr@std@@V?$variant@_K_JN@23@V?$Span@$$CBD@absl@@V?$variant@IHM@23@@234@@ZABQ6AI01@Z@Z
    ??$__call@AAV<lambda_1>@?0??SaveFromRegistry@FlagSaverImpl@flags_internal@absl@@QAEXXZ@AAVCommandLineFlag@5@@?$__invoke_void_return_wrapper@X$00@__Cr@std@@SAXAAV<lambda_1>@?0??SaveFromRegistry@FlagSaverImpl@flags_internal@absl@@QAEXXZ@AAVCommandLineFlag@7@@Z
    ??$__call_impl@V?$__default_alloc_func@V<lambda_1>@?0??SaveFromRegistry@FlagSaverImpl@flags_internal@absl@@QAEXXZ@$$A6AXAAVCommandLineFlag@5@@Z@__function@__Cr@std@@@?$__policy_invoker@$$A6AXAAVCommandLineFlag@absl@@@Z@__function@__Cr@std@@CAXPBT__policy_storage@123@AAVCommandLineFlag@absl@@@Z
    ??$__choose_policy@V?$__default_alloc_func@V<lambda_1>@?0??SaveFromRegistry@FlagSaverImpl@flags_internal@absl@@QAEXXZ@$$A6AXAAVCommandLineFlag@5@@Z@__function@__Cr@std@@@__policy@__function@__Cr@std@@CAPBU0123@U?$integral_constant@_N$00@23@@Z
    ??$__constexpr_memmove@PAPBVImpl@time_zone@cctz@time_internal@absl@@PAPBV12345@@__Cr@std@@YAPAPAPBVImpl@time_zone@cctz@time_internal@absl@@PAPAPBV23456@0W4__element_count@01@@Z
    ??$__constexpr_memmove@PAUPrefixCrc@CrcCordState@crc_internal@absl@@PAU1234@@__Cr@std@@YAPAPAUPrefixCrc@CrcCordState@crc_internal@absl@@PAPAU2345@0W4__element_count@01@@Z
    ??$__constexpr_memmove@PAVLogSink@absl@@PAV12@@__Cr@std@@YAPAPAVLogSink@absl@@PAPAV23@0W4__element_count@01@@Z
    ??$__constexpr_memmove@UPrefixCrc@CrcCordState@crc_internal@absl@@$$CBU1234@@__Cr@std@@YAPAUPrefixCrc@CrcCordState@crc_internal@absl@@PAU2345@PBU2345@W4__element_count@01@@Z
    ??$__constexpr_memmove@UTransition@cctz@time_internal@absl@@U1234@@__Cr@std@@YAPAUTransition@cctz@time_internal@absl@@PAU2345@0W4__element_count@01@@Z
    ??$__constexpr_memmove@UTransitionType@cctz@time_internal@absl@@U1234@@__Cr@std@@YAPAUTransitionType@cctz@time_internal@absl@@PAU2345@0W4__element_count@01@@Z
    ??$__construct_at@PAPBVImpl@time_zone@cctz@time_internal@absl@@AAPAPBV12345@PAPAPBV12345@@__Cr@std@@YAPAPAPBVImpl@time_zone@cctz@time_internal@absl@@PAPAPBV23456@AAPAPBV23456@@Z
    ??$__construct_at@PAPBVImpl@time_zone@cctz@time_internal@absl@@PAPBV12345@PAPAPBV12345@@__Cr@std@@YAPAPAPBVImpl@time_zone@cctz@time_internal@absl@@PAPAPBV23456@$$QAPAPBV23456@@Z
    ??$__construct_at@PAUCordRep@cord_internal@absl@@ABQAU123@PAPAU123@@__Cr@std@@YAPAPAUCordRep@cord_internal@absl@@PAPAU234@ABQAU234@@Z
    ??$__construct_at@PAUCordRep@cord_internal@absl@@PAU123@PAPAU123@@__Cr@std@@YAPAPAUCordRep@cord_internal@absl@@PAPAU234@$$QAPAU234@@Z
    ??$__construct_at@PAUPrefixCrc@CrcCordState@crc_internal@absl@@AAPAU1234@PAPAU1234@@__Cr@std@@YAPAPAUPrefixCrc@CrcCordState@crc_internal@absl@@PAPAU2345@AAPAU2345@@Z
    ??$__construct_at@PAUPrefixCrc@CrcCordState@crc_internal@absl@@PAU1234@PAPAU1234@@__Cr@std@@YAPAPAUPrefixCrc@CrcCordState@crc_internal@absl@@PAPAU2345@$$QAPAU2345@@Z
    ??$__construct_at@PAVCommandLineFlag@absl@@ABQAV12@PAPAV12@@__Cr@std@@YAPAPAVCommandLineFlag@absl@@PAPAV23@ABQAV23@@Z
    ??$__construct_at@PAVCordzHandle@cord_internal@absl@@ABQAV123@PAPAV123@@__Cr@std@@YAPAPAVCordzHandle@cord_internal@absl@@PAPAV234@ABQAV234@@Z
    ??$__construct_at@PAVLogSink@absl@@ABQAV12@PAPAV12@@__Cr@std@@YAPAPAVLogSink@absl@@PAPAV23@ABQAV23@@Z
    ??$__construct_at@PAVLogSink@absl@@PAV12@PAPAV12@@__Cr@std@@YAPAPAVLogSink@absl@@PAPAV23@$$QAPAV23@@Z
    ??$__construct_at@PBUCordRep@cord_internal@absl@@ABQBU123@PAPBU123@@__Cr@std@@YAPAPBUCordRep@cord_internal@absl@@PAPBU234@ABQBU234@@Z
    ??$__construct_at@PBVCommandLineFlag@absl@@ABQBV12@PAPBV12@@__Cr@std@@YAPAPBVCommandLineFlag@absl@@PAPBV23@ABQBV23@@Z
    ??$__construct_at@PBVCommandLineFlag@absl@@PBV12@PAPBV12@@__Cr@std@@YAPAPBVCommandLineFlag@absl@@PAPBV23@$$QAPBV23@@Z
    ??$__construct_at@PBVCordzHandle@cord_internal@absl@@ABQBV123@PAPBV123@@__Cr@std@@YAPAPBVCordzHandle@cord_internal@absl@@PAPBV234@ABQBV234@@Z
    ??$__construct_at@PBVImpl@time_zone@cctz@time_internal@absl@@ABQBV12345@PAPBV12345@@__Cr@std@@YAPAPBVImpl@time_zone@cctz@time_internal@absl@@PAPBV23456@ABQBV23456@@Z
    ??$__construct_at@U?$__hash_node@PBUCordRep@cord_internal@absl@@PAX@__Cr@std@@$$TAAIPAU123@@__Cr@std@@YAPAU?$__hash_node@PBUCordRep@cord_internal@absl@@PAX@01@PAU201@$$QA$$TAAI@Z
    ??$__construct_at@U?$__hash_node@U?$__hash_value_type@V?$basic_string@DU?$char_traits@D@__Cr@std@@V?$allocator@D@23@@__Cr@std@@PBVImpl@time_zone@cctz@time_internal@absl@@@__Cr@std@@PAX@__Cr@std@@$$TAAIPAU123@@__Cr@std@@YAPAU?$__hash_node@U?$__hash_value_type@V?$basic_string@DU?$char_traits@D@__Cr@std@@V?$allocator@D@23@@__Cr@std@@PBVImpl@time_zone@cctz@time_internal@absl@@@__Cr@std@@PAX@01@PAU201@$$QA$$TAAI@Z
    ??$__construct_at@U?$pair@$$CBV?$basic_string@DU?$char_traits@D@__Cr@std@@V?$allocator@D@23@@__Cr@std@@PBVImpl@time_zone@cctz@time_internal@absl@@@__Cr@std@@ABUpiecewise_construct_t@23@V?$tuple@ABV?$basic_string@DU?$char_traits@D@__Cr@std@@V?$allocator@D@23@@__Cr@std@@@23@V?$tuple@$$V@23@PAU123@@__Cr@std@@YAPAU?$pair@$$CBV?$basic_string@DU?$char_traits@D@__Cr@std@@V?$allocator@D@23@@__Cr@std@@PBVImpl@time_zone@cctz@time_internal@absl@@@01@PAU201@ABUpiecewise_construct_t@01@$$QAV?$tuple@ABV?$basic_string@DU?$char_traits@D@__Cr@std@@V?$allocator@D@23@@__Cr@std@@@01@$$QAV?$tuple@$$V@01@@Z
    ??$__construct_at@U?$pair@$$CBV?$basic_string@DU?$char_traits@D@__Cr@std@@V?$allocator@D@23@@__Cr@std@@V?$map@V?$basic_string@DU?$char_traits@D@__Cr@std@@V?$allocator@D@23@@__Cr@std@@V?$vector@PBVCommandLineFlag@absl@@V?$allocator@PBVCommandLineFlag@absl@@@__Cr@std@@@23@U?$less@V?$basic_string@DU?$char_traits@D@__Cr@std@@V?$allocator@D@23@@__Cr@std@@@23@V?$allocator@U?$pair@$$CBV?$basic_string@DU?$char_traits@D@__Cr@std@@V?$allocator@D@23@@__Cr@std@@V?$vector@PBVCommandLineFlag@absl@@V?$allocator@PBVCommandLineFlag@absl@@@__Cr@std@@@23@@__Cr@std@@@23@@23@@__Cr@std@@ABUpiecewise_construct_t@23@V?$tuple@$$QAV?$basic_string@DU?$char_traits@D@__Cr@std@@V?$allocator@D@23@@__Cr@std@@@23@V?$tuple@$$V@23@PAU123@@__Cr@std@@YAPAU?$pair@$$CBV?$basic_string@DU?$char_traits@D@__Cr@std@@V?$allocator@D@23@@__Cr@std@@V?$map@V?$basic_string@DU?$char_traits@D@__Cr@std@@V?$allocator@D@23@@__Cr@std@@V?$vector@PBVCommandLineFlag@absl@@V?$allocator@PBVCommandLineFlag@absl@@@__Cr@std@@@23@U?$less@V?$basic_string@DU?$char_traits@D@__Cr@std@@V?$allocator@D@23@@__Cr@std@@@23@V?$allocator@U?$pair@$$CBV?$basic_string@DU?$char_traits@D@__Cr@std@@V?$allocator@D@23@@__Cr@std@@V?$vector@PBVCommandLineFlag@absl@@V?$allocator@PBVCommandLineFlag@absl@@@__Cr@std@@@23@@__Cr@std@@@23@@23@@01@PAU201@ABUpiecewise_construct_t@01@$$QAV?$tuple@$$QAV?$basic_string@DU?$char_traits@D@__Cr@std@@V?$allocator@D@23@@__Cr@std@@@01@$$QAV?$tuple@$$V@01@@Z
    ??$__construct_at@U?$pair@$$CBV?$basic_string@DU?$char_traits@D@__Cr@std@@V?$allocator@D@23@@__Cr@std@@V?$vector@PBVCommandLineFlag@absl@@V?$allocator@PBVCommandLineFlag@absl@@@__Cr@std@@@23@@__Cr@std@@ABUpiecewise_construct_t@23@V?$tuple@ABV?$basic_string@DU?$char_traits@D@__Cr@std@@V?$allocator@D@23@@__Cr@std@@@23@V?$tuple@$$V@23@PAU123@@__Cr@std@@YAPAU?$pair@$$CBV?$basic_string@DU?$char_traits@D@__Cr@std@@V?$allocator@D@23@@__Cr@std@@V?$vector@PBVCommandLineFlag@absl@@V?$allocator@PBVCommandLineFlag@absl@@@__Cr@std@@@23@@01@PAU201@ABUpiecewise_construct_t@01@$$QAV?$tuple@ABV?$basic_string@DU?$char_traits@D@__Cr@std@@V?$allocator@D@23@@__Cr@std@@@01@$$QAV?$tuple@$$V@01@@Z
    ??$__construct_at@U?$pair@V?$basic_string_view@DU?$char_traits@D@__Cr@std@@@__Cr@std@@PAVCommandLineFlag@absl@@@__Cr@std@@ABUpiecewise_construct_t@23@V?$tuple@$$QAV?$basic_string_view@DU?$char_traits@D@__Cr@std@@@__Cr@std@@@23@V?$tuple@$$QAPAVCommandLineFlag@absl@@@23@PAU123@@__Cr@std@@YAPAU?$pair@V?$basic_string_view@DU?$char_traits@D@__Cr@std@@@__Cr@std@@PAVCommandLineFlag@absl@@@01@PAU201@ABUpiecewise_construct_t@01@$$QAV?$tuple@$$QAV?$basic_string_view@DU?$char_traits@D@__Cr@std@@@__Cr@std@@@01@$$QAV?$tuple@$$QAPAVCommandLineFlag@absl@@@01@@Z
    ??$__construct_at@U?$pair@V?$basic_string_view@DU?$char_traits@D@__Cr@std@@@__Cr@std@@PAVCommandLineFlag@absl@@@__Cr@std@@ABUpiecewise_construct_t@23@V?$tuple@$$QBV?$basic_string_view@DU?$char_traits@D@__Cr@std@@@__Cr@std@@@23@V?$tuple@$$QAPAVCommandLineFlag@absl@@@23@PAU123@@__Cr@std@@YAPAU?$pair@V?$basic_string_view@DU?$char_traits@D@__Cr@std@@@__Cr@std@@PAVCommandLineFlag@absl@@@01@PAU201@ABUpiecewise_construct_t@01@$$QAV?$tuple@$$QBV?$basic_string_view@DU?$char_traits@D@__Cr@std@@@__Cr@std@@@01@$$QAV?$tuple@$$QAPAVCommandLineFlag@absl@@@01@@Z
    ??$__construct_at@UConversionItem@ParsedFormatBase@str_format_internal@absl@@U1234@PAU1234@@__Cr@std@@YAPAUConversionItem@ParsedFormatBase@str_format_internal@absl@@PAU2345@$$QAU2345@@Z
    ??$__construct_at@UPayload@status_internal@absl@@ABU123@PAU123@@__Cr@std@@YAPAUPayload@status_internal@absl@@PAU234@ABU234@@Z
    ??$__construct_at@UPayload@status_internal@absl@@U123@PAU123@@__Cr@std@@YAPAUPayload@status_internal@absl@@PAU234@$$QAU234@@Z
    ??$__construct_at@UPrefixCrc@CrcCordState@crc_internal@absl@@ABU1234@PAU1234@@__Cr@std@@YAPAUPrefixCrc@CrcCordState@crc_internal@absl@@PAU2345@ABU2345@@Z
    ??$__construct_at@UPrefixCrc@CrcCordState@crc_internal@absl@@HVcrc32c_t@4@PAU1234@@__Cr@std@@YAPAUPrefixCrc@CrcCordState@crc_internal@absl@@PAU2345@$$QAH$$QAVcrc32c_t@5@@Z
    ??$__construct_at@UPrefixCrc@CrcCordState@crc_internal@absl@@U1234@PAU1234@@__Cr@std@@YAPAUPrefixCrc@CrcCordState@crc_internal@absl@@PAU2345@$$QAU2345@@Z
    ??$__construct_at@UTransition@cctz@time_internal@absl@@$$VPAU1234@@__Cr@std@@YAPAUTransition@cctz@time_internal@absl@@PAU2345@@Z
    ??$__construct_at@UTransition@cctz@time_internal@absl@@ABU1234@PAU1234@@__Cr@std@@YAPAUTransition@cctz@time_internal@absl@@PAU2345@ABU2345@@Z
    ??$__construct_at@UTransition@cctz@time_internal@absl@@U1234@PAU1234@@__Cr@std@@YAPAUTransition@cctz@time_internal@absl@@PAU2345@$$QAU2345@@Z
    ??$__construct_at@UTransitionType@cctz@time_internal@absl@@$$VPAU1234@@__Cr@std@@YAPAUTransitionType@cctz@time_internal@absl@@PAU2345@@Z
    ??$__construct_at@UTransitionType@cctz@time_internal@absl@@U1234@PAU1234@@__Cr@std@@YAPAUTransitionType@cctz@time_internal@absl@@PAU2345@$$QAU2345@@Z
    ??$__construct_at@UUnrecognizedFlag@absl@@ABU12@PAU12@@__Cr@std@@YAPAUUnrecognizedFlag@absl@@PAU23@ABU23@@Z
    ??$__construct_at@UUnrecognizedFlag@absl@@U12@PAU12@@__Cr@std@@YAPAUUnrecognizedFlag@absl@@PAU23@$$QAU23@@Z
    ??$__construct_at@UUnrecognizedFlag@absl@@W4Source@12@AAV?$basic_string_view@DU?$char_traits@D@__Cr@std@@@__Cr@std@@PAU12@@__Cr@std@@YAPAUUnrecognizedFlag@absl@@PAU23@$$QAW4Source@23@AAV?$basic_string_view@DU?$char_traits@D@__Cr@std@@@01@@Z
    ??$__construct_at@UViableSubstitution@strings_internal@absl@@AAV?$basic_string_view@DU?$char_traits@D@__Cr@std@@@__Cr@std@@ABV456@AAIPAU123@@__Cr@std@@YAPAUViableSubstitution@strings_internal@absl@@PAU234@AAV?$basic_string_view@DU?$char_traits@D@__Cr@std@@@01@ABV501@AAI@Z
    ??$__construct_at@V?$basic_string_view@DU?$char_traits@D@__Cr@std@@@__Cr@std@@AAUraw_view@?1???R?$ConvertToContainer@V?$vector@V?$basic_string_view@DU?$char_traits@D@__Cr@std@@@__Cr@std@@V?$allocator@V?$basic_string_view@DU?$char_traits@D@__Cr@std@@@__Cr@std@@@23@@__Cr@std@@V?$basic_string_view@DU?$char_traits@D@__Cr@std@@@23@$0A@@?$Splitter@VByChar@absl@@UAllowEmpty@2@V?$basic_string_view@DU?$char_traits@D@__Cr@std@@@__Cr@std@@@strings_internal@absl@@QBE?AV?$vector@V?$basic_string_view@DU?$char_traits@D@__Cr@std@@@__Cr@std@@V?$allocator@V?$basic_string_view@DU?$char_traits@D@__Cr@std@@@__Cr@std@@@23@@23@ABV678@@Z@PAV123@@__Cr@std@@YAPAV?$basic_string_view@DU?$char_traits@D@__Cr@std@@@01@PAV201@AAUraw_view@?1???R?$ConvertToContainer@V?$vector@V?$basic_string_view@DU?$char_traits@D@__Cr@std@@@__Cr@std@@V?$allocator@V?$basic_string_view@DU?$char_traits@D@__Cr@std@@@__Cr@std@@@23@@__Cr@std@@V?$basic_string_view@DU?$char_traits@D@__Cr@std@@@23@$0A@@?$Splitter@VByChar@absl@@UAllowEmpty@2@V?$basic_string_view@DU?$char_traits@D@__Cr@std@@@__Cr@std@@@strings_internal@absl@@QBE?AV?$vector@V?$basic_string_view@DU?$char_traits@D@__Cr@std@@@__Cr@std@@V?$allocator@V?$basic_string_view@DU?$char_traits@D@__Cr@std@@@__Cr@std@@@23@@01@ABV567@@Z@@Z
    ??$__construct_at@V?$unique_ptr@VFlagStateInterface@flags_internal@absl@@U?$default_delete@VFlagStateInterface@flags_internal@absl@@@__Cr@std@@@__Cr@std@@V123@PAV123@@__Cr@std@@YAPAV?$unique_ptr@VFlagStateInterface@flags_internal@absl@@U?$default_delete@VFlagStateInterface@flags_internal@absl@@@__Cr@std@@@01@PAV201@$$QAV201@@Z
    ??$__construct_at@VFormatArgImpl@str_format_internal@absl@@ABV123@PAV123@@__Cr@std@@YAPAVFormatArgImpl@str_format_internal@absl@@PAV234@ABV234@@Z
    ??$__construct_at_end@V?$__wrap_iter@PAUraw_view@?1???R?$ConvertToContainer@V?$vector@V?$basic_string_view@DU?$char_traits@D@__Cr@std@@@__Cr@std@@V?$allocator@V?$basic_string_view@DU?$char_traits@D@__Cr@std@@@__Cr@std@@@23@@__Cr@std@@V?$basic_string_view@DU?$char_traits@D@__Cr@std@@@23@$0A@@?$Splitter@VByChar@absl@@UAllowEmpty@2@V?$basic_string_view@DU?$char_traits@D@__Cr@std@@@__Cr@std@@@strings_internal@absl@@QBE?AV?$vector@V?$basic_string_view@DU?$char_traits@D@__Cr@std@@@__Cr@std@@V?$allocator@V?$basic_string_view@DU?$char_traits@D@__Cr@std@@@__Cr@std@@@23@@__Cr@std@@ABV345@@Z@@__Cr@std@@V123@@?$vector@V?$basic_string_view@DU?$char_traits@D@__Cr@std@@@__Cr@std@@V?$allocator@V?$basic_string_view@DU?$char_traits@D@__Cr@std@@@__Cr@std@@@23@@__Cr@std@@AAEXV?$__wrap_iter@PAUraw_view@?1???R?$ConvertToContainer@V?$vector@V?$basic_string_view@DU?$char_traits@D@__Cr@std@@@__Cr@std@@V?$allocator@V?$basic_string_view@DU?$char_traits@D@__Cr@std@@@__Cr@std@@@23@@__Cr@std@@V?$basic_string_view@DU?$char_traits@D@__Cr@std@@@23@$0A@@?$Splitter@VByChar@absl@@UAllowEmpty@2@V?$basic_string_view@DU?$char_traits@D@__Cr@std@@@__Cr@std@@@strings_internal@absl@@QBE?AV?$vector@V?$basic_string_view@DU?$char_traits@D@__Cr@std@@@__Cr@std@@V?$allocator@V?$basic_string_view@DU?$char_traits@D@__Cr@std@@@__Cr@std@@@23@@__Cr@std@@ABV345@@Z@@12@0I@Z
    ??$__construct_at_end@V?$move_iterator@PAPAPBVImpl@time_zone@cctz@time_internal@absl@@@__Cr@std@@$0A@@?$__split_buffer@PAPBVImpl@time_zone@cctz@time_internal@absl@@AAV?$allocator@PAPBVImpl@time_zone@cctz@time_internal@absl@@@__Cr@std@@@__Cr@std@@QAEXV?$move_iterator@PAPAPBVImpl@time_zone@cctz@time_internal@absl@@@12@0@Z
    ??$__construct_at_end@V?$move_iterator@PAPAUPrefixCrc@CrcCordState@crc_internal@absl@@@__Cr@std@@$0A@@?$__split_buffer@PAUPrefixCrc@CrcCordState@crc_internal@absl@@AAV?$allocator@PAUPrefixCrc@CrcCordState@crc_internal@absl@@@__Cr@std@@@__Cr@std@@QAEXV?$move_iterator@PAPAUPrefixCrc@CrcCordState@crc_internal@absl@@@12@0@Z
    ??$__construct_at_end@V?$move_iterator@PAUTransition@cctz@time_internal@absl@@@__Cr@std@@$0A@@?$__split_buffer@UTransition@cctz@time_internal@absl@@AAV?$allocator@UTransition@cctz@time_internal@absl@@@__Cr@std@@@__Cr@std@@QAEXV?$move_iterator@PAUTransition@cctz@time_internal@absl@@@12@0@Z
    ??$__construct_at_end@V?$move_iterator@PAUTransitionType@cctz@time_internal@absl@@@__Cr@std@@$0A@@?$__split_buffer@UTransitionType@cctz@time_internal@absl@@AAV?$allocator@UTransitionType@cctz@time_internal@absl@@@__Cr@std@@@__Cr@std@@QAEXV?$move_iterator@PAUTransitionType@cctz@time_internal@absl@@@12@0@Z
    ??$__construct_at_end_with_size@V?$__wrap_iter@PAUraw_view@?1???R?$ConvertToContainer@V?$vector@V?$basic_string_view@DU?$char_traits@D@__Cr@std@@@__Cr@std@@V?$allocator@V?$basic_string_view@DU?$char_traits@D@__Cr@std@@@__Cr@std@@@23@@__Cr@std@@V?$basic_string_view@DU?$char_traits@D@__Cr@std@@@23@$0A@@?$Splitter@VByChar@absl@@UAllowEmpty@2@V?$basic_string_view@DU?$char_traits@D@__Cr@std@@@__Cr@std@@@strings_internal@absl@@QBE?AV?$vector@V?$basic_string_view@DU?$char_traits@D@__Cr@std@@@__Cr@std@@V?$allocator@V?$basic_string_view@DU?$char_traits@D@__Cr@std@@@__Cr@std@@@23@@__Cr@std@@ABV345@@Z@@__Cr@std@@@?$__split_buffer@V?$basic_string_view@DU?$char_traits@D@__Cr@std@@@__Cr@std@@AAV?$allocator@V?$basic_string_view@DU?$char_traits@D@__Cr@std@@@__Cr@std@@@23@@__Cr@std@@QAEXV?$__wrap_iter@PAUraw_view@?1???R?$ConvertToContainer@V?$vector@V?$basic_string_view@DU?$char_traits@D@__Cr@std@@@__Cr@std@@V?$allocator@V?$basic_string_view@DU?$char_traits@D@__Cr@std@@@__Cr@std@@@23@@__Cr@std@@V?$basic_string_view@DU?$char_traits@D@__Cr@std@@@23@$0A@@?$Splitter@VByChar@absl@@UAllowEmpty@2@V?$basic_string_view@DU?$char_traits@D@__Cr@std@@@__Cr@std@@@strings_internal@absl@@QBE?AV?$vector@V?$basic_string_view@DU?$char_traits@D@__Cr@std@@@__Cr@std@@V?$allocator@V?$basic_string_view@DU?$char_traits@D@__Cr@std@@@__Cr@std@@@23@@__Cr@std@@ABV345@@Z@@12@I@Z
    ??$__construct_at_end_with_size@V?$move_iterator@PAPAPBVImpl@time_zone@cctz@time_internal@absl@@@__Cr@std@@@?$__split_buffer@PAPBVImpl@time_zone@cctz@time_internal@absl@@AAV?$allocator@PAPBVImpl@time_zone@cctz@time_internal@absl@@@__Cr@std@@@__Cr@std@@QAEXV?$move_iterator@PAPAPBVImpl@time_zone@cctz@time_internal@absl@@@12@I@Z
    ??$__construct_at_end_with_size@V?$move_iterator@PAPAUPrefixCrc@CrcCordState@crc_internal@absl@@@__Cr@std@@@?$__split_buffer@PAUPrefixCrc@CrcCordState@crc_internal@absl@@AAV?$allocator@PAUPrefixCrc@CrcCordState@crc_internal@absl@@@__Cr@std@@@__Cr@std@@QAEXV?$move_iterator@PAPAUPrefixCrc@CrcCordState@crc_internal@absl@@@12@I@Z
    ??$__construct_at_end_with_size@V?$move_iterator@PAUTransition@cctz@time_internal@absl@@@__Cr@std@@@?$__split_buffer@UTransition@cctz@time_internal@absl@@AAV?$allocator@UTransition@cctz@time_internal@absl@@@__Cr@std@@@__Cr@std@@QAEXV?$move_iterator@PAUTransition@cctz@time_internal@absl@@@12@I@Z
    ??$__construct_at_end_with_size@V?$move_iterator@PAUTransitionType@cctz@time_internal@absl@@@__Cr@std@@@?$__split_buffer@UTransitionType@cctz@time_internal@absl@@AAV?$allocator@UTransitionType@cctz@time_internal@absl@@@__Cr@std@@@__Cr@std@@QAEXV?$move_iterator@PAUTransitionType@cctz@time_internal@absl@@@12@I@Z
    ??$__construct_node@ABUpiecewise_construct_t@__Cr@std@@V?$tuple@$$QAV?$basic_string@DU?$char_traits@D@__Cr@std@@V?$allocator@D@23@@__Cr@std@@@23@V?$tuple@$$V@23@@?$__tree@U?$__value_type@V?$basic_string@DU?$char_traits@D@__Cr@std@@V?$allocator@D@23@@__Cr@std@@V?$map@V?$basic_string@DU?$char_traits@D@__Cr@std@@V?$allocator@D@23@@__Cr@std@@V?$vector@PBVCommandLineFlag@absl@@V?$allocator@PBVCommandLineFlag@absl@@@__Cr@std@@@23@U?$less@V?$basic_string@DU?$char_traits@D@__Cr@std@@V?$allocator@D@23@@__Cr@std@@@23@V?$allocator@U?$pair@$$CBV?$basic_string@DU?$char_traits@D@__Cr@std@@V?$allocator@D@23@@__Cr@std@@V?$vector@PBVCommandLineFlag@absl@@V?$allocator@PBVCommandLineFlag@absl@@@__Cr@std@@@23@@__Cr@std@@@23@@23@@__Cr@std@@V?$__map_value_compare@V?$basic_string@DU?$char_traits@D@__Cr@std@@V?$allocator@D@23@@__Cr@std@@U?$__value_type@V?$basic_string@DU?$char_traits@D@__Cr@std@@V?$allocator@D@23@@__Cr@std@@V?$map@V?$basic_string@DU?$char_traits@D@__Cr@std@@V?$allocator@D@23@@__Cr@std@@V?$vector@PBVCommandLineFlag@absl@@V?$allocator@PBVCommandLineFlag@absl@@@__Cr@std@@@23@U?$less@V?$basic_string@DU?$char_traits@D@__Cr@std@@V?$allocator@D@23@@__Cr@std@@@23@V?$allocator@U?$pair@$$CBV?$basic_string@DU?$char_traits@D@__Cr@std@@V?$allocator@D@23@@__Cr@std@@V?$vector@PBVCommandLineFlag@absl@@V?$allocator@PBVCommandLineFlag@absl@@@__Cr@std@@@23@@__Cr@std@@@23@@23@@23@U?$less@V?$basic_string@DU?$char_traits@D@__Cr@std@@V?$allocator@D@23@@__Cr@std@@@23@$00@23@V?$allocator@U?$__value_type@V?$basic_string@DU?$char_traits@D@__Cr@std@@V?$allocator@D@23@@__Cr@std@@V?$map@V?$basic_string@DU?$char_traits@D@__Cr@std@@V?$allocator@D@23@@__Cr@std@@V?$vector@PBVCommandLineFlag@absl@@V?$allocator@PBVCommandLineFlag@absl@@@__Cr@std@@@23@U?$less@V?$basic_string@DU?$char_traits@D@__Cr@std@@V?$allocator@D@23@@__Cr@std@@@23@V?$allocator@U?$pair@$$CBV?$basic_string@DU?$char_traits@D@__Cr@std@@V?$allocator@D@23@@__Cr@std@@V?$vector@PBVCommandLineFlag@absl@@V?$allocator@PBVCommandLineFlag@absl@@@__Cr@std@@@23@@__Cr@std@@@23@@23@@__Cr@std@@@23@@__Cr@std@@AAE?AV?$unique_ptr@V?$__tree_node@U?$__value_type@V?$basic_string@DU?$char_traits@D@__Cr@std@@V?$allocator@D@23@@__Cr@std@@V?$map@V?$basic_string@DU?$char_traits@D@__Cr@std@@V?$allocator@D@23@@__Cr@std@@V?$vector@PBVCommandLineFlag@absl@@V?$allocator@PBVCommandLineFlag@absl@@@__Cr@std@@@23@U?$less@V?$basic_string@DU?$char_traits@D@__Cr@std@@V?$allocator@D@23@@__Cr@std@@@23@V?$allocator@U?$pair@$$CBV?$basic_string@DU?$char_traits@D@__Cr@std@@V?$allocator@D@23@@__Cr@std@@V?$vector@PBVCommandLineFlag@absl@@V?$allocator@PBVCommandLineFlag@absl@@@__Cr@std@@@23@@__Cr@std@@@23@@23@@__Cr@std@@PAX@__Cr@std@@V?$__tree_node_destructor@V?$allocator@V?$__tree_node@U?$__value_type@V?$basic_string@DU?$char_traits@D@__Cr@std@@V?$allocator@D@23@@__Cr@std@@V?$map@V?$basic_string@DU?$char_traits@D@__Cr@std@@V?$allocator@D@23@@__Cr@std@@V?$vector@PBVCommandLineFlag@absl@@V?$allocator@PBVCommandLineFlag@absl@@@__Cr@std@@@23@U?$less@V?$basic_string@DU?$char_traits@D@__Cr@std@@V?$allocator@D@23@@__Cr@std@@@23@V?$allocator@U?$pair@$$CBV?$basic_string@DU?$char_traits@D@__Cr@std@@V?$allocator@D@23@@__Cr@std@@V?$vector@PBVCommandLineFlag@absl@@V?$allocator@PBVCommandLineFlag@absl@@@__Cr@std@@@23@@__Cr@std@@@23@@23@@__Cr@std@@PAX@__Cr@std@@@__Cr@std@@@23@@12@ABUpiecewise_construct_t@12@$$QAV?$tuple@$$QAV?$basic_string@DU?$char_traits@D@__Cr@std@@V?$allocator@D@23@@__Cr@std@@@12@$$QAV?$tuple@$$V@12@@Z
    ??$__construct_node@ABUpiecewise_construct_t@__Cr@std@@V?$tuple@ABV?$basic_string@DU?$char_traits@D@__Cr@std@@V?$allocator@D@23@@__Cr@std@@@23@V?$tuple@$$V@23@@?$__tree@U?$__value_type@V?$basic_string@DU?$char_traits@D@__Cr@std@@V?$allocator@D@23@@__Cr@std@@V?$vector@PBVCommandLineFlag@absl@@V?$allocator@PBVCommandLineFlag@absl@@@__Cr@std@@@23@@__Cr@std@@V?$__map_value_compare@V?$basic_string@DU?$char_traits@D@__Cr@std@@V?$allocator@D@23@@__Cr@std@@U?$__value_type@V?$basic_string@DU?$char_traits@D@__Cr@std@@V?$allocator@D@23@@__Cr@std@@V?$vector@PBVCommandLineFlag@absl@@V?$allocator@PBVCommandLineFlag@absl@@@__Cr@std@@@23@@23@U?$less@V?$basic_string@DU?$char_traits@D@__Cr@std@@V?$allocator@D@23@@__Cr@std@@@23@$00@23@V?$allocator@U?$__value_type@V?$basic_string@DU?$char_traits@D@__Cr@std@@V?$allocator@D@23@@__Cr@std@@V?$vector@PBVCommandLineFlag@absl@@V?$allocator@PBVCommandLineFlag@absl@@@__Cr@std@@@23@@__Cr@std@@@23@@__Cr@std@@AAE?AV?$unique_ptr@V?$__tree_node@U?$__value_type@V?$basic_string@DU?$char_traits@D@__Cr@std@@V?$allocator@D@23@@__Cr@std@@V?$vector@PBVCommandLineFlag@absl@@V?$allocator@PBVCommandLineFlag@absl@@@__Cr@std@@@23@@__Cr@std@@PAX@__Cr@std@@V?$__tree_node_destructor@V?$allocator@V?$__tree_node@U?$__value_type@V?$basic_string@DU?$char_traits@D@__Cr@std@@V?$allocator@D@23@@__Cr@std@@V?$vector@PBVCommandLineFlag@absl@@V?$allocator@PBVCommandLineFlag@absl@@@__Cr@std@@@23@@__Cr@std@@PAX@__Cr@std@@@__Cr@std@@@23@@12@ABUpiecewise_construct_t@12@$$QAV?$tuple@ABV?$basic_string@DU?$char_traits@D@__Cr@std@@V?$allocator@D@23@@__Cr@std@@@12@$$QAV?$tuple@$$V@12@@Z
    ??$__construct_node_hash@ABQBUCordRep@cord_internal@absl@@$$V@?$__hash_table@PBUCordRep@cord_internal@absl@@U?$hash@PBUCordRep@cord_internal@absl@@@__Cr@std@@U?$equal_to@PBUCordRep@cord_internal@absl@@@56@V?$allocator@PBUCordRep@cord_internal@absl@@@56@@__Cr@std@@AAE?AV?$unique_ptr@U?$__hash_node@PBUCordRep@cord_internal@absl@@PAX@__Cr@std@@V?$__hash_node_destructor@V?$allocator@U?$__hash_node@PBUCordRep@cord_internal@absl@@PAX@__Cr@std@@@__Cr@std@@@23@@12@IABQBUCordRep@cord_internal@absl@@@Z
    ??$__construct_node_hash@ABUpiecewise_construct_t@__Cr@std@@V?$tuple@ABV?$basic_string@DU?$char_traits@D@__Cr@std@@V?$allocator@D@23@@__Cr@std@@@23@V?$tuple@$$V@23@@?$__hash_table@U?$__hash_value_type@V?$basic_string@DU?$char_traits@D@__Cr@std@@V?$allocator@D@23@@__Cr@std@@PBVImpl@time_zone@cctz@time_internal@absl@@@__Cr@std@@V?$__unordered_map_hasher@V?$basic_string@DU?$char_traits@D@__Cr@std@@V?$allocator@D@23@@__Cr@std@@U?$__hash_value_type@V?$basic_string@DU?$char_traits@D@__Cr@std@@V?$allocator@D@23@@__Cr@std@@PBVImpl@time_zone@cctz@time_internal@absl@@@23@U?$hash@V?$basic_string@DU?$char_traits@D@__Cr@std@@V?$allocator@D@23@@__Cr@std@@@23@U?$equal_to@V?$basic_string@DU?$char_traits@D@__Cr@std@@V?$allocator@D@23@@__Cr@std@@@23@$00@23@V?$__unordered_map_equal@V?$basic_string@DU?$char_traits@D@__Cr@std@@V?$allocator@D@23@@__Cr@std@@U?$__hash_value_type@V?$basic_string@DU?$char_traits@D@__Cr@std@@V?$allocator@D@23@@__Cr@std@@PBVImpl@time_zone@cctz@time_internal@absl@@@23@U?$equal_to@V?$basic_string@DU?$char_traits@D@__Cr@std@@V?$allocator@D@23@@__Cr@std@@@23@U?$hash@V?$basic_string@DU?$char_traits@D@__Cr@std@@V?$allocator@D@23@@__Cr@std@@@23@$00@23@V?$allocator@U?$__hash_value_type@V?$basic_string@DU?$char_traits@D@__Cr@std@@V?$allocator@D@23@@__Cr@std@@PBVImpl@time_zone@cctz@time_internal@absl@@@__Cr@std@@@23@@__Cr@std@@AAE?AV?$unique_ptr@U?$__hash_node@U?$__hash_value_type@V?$basic_string@DU?$char_traits@D@__Cr@std@@V?$allocator@D@23@@__Cr@std@@PBVImpl@time_zone@cctz@time_internal@absl@@@__Cr@std@@PAX@__Cr@std@@V?$__hash_node_destructor@V?$allocator@U?$__hash_node@U?$__hash_value_type@V?$basic_string@DU?$char_traits@D@__Cr@std@@V?$allocator@D@23@@__Cr@std@@PBVImpl@time_zone@cctz@time_internal@absl@@@__Cr@std@@PAX@__Cr@std@@@__Cr@std@@@23@@12@IABUpiecewise_construct_t@12@$$QAV?$tuple@ABV?$basic_string@DU?$char_traits@D@__Cr@std@@V?$allocator@D@23@@__Cr@std@@@12@$$QAV?$tuple@$$V@12@@Z
    ??$__copy@PBUPrefixCrc@CrcCordState@crc_internal@absl@@PBU1234@PAU1234@@__Cr@std@@YA?AU?$pair@PBUPrefixCrc@CrcCordState@crc_internal@absl@@PAU1234@@01@PBUPrefixCrc@CrcCordState@crc_internal@absl@@0PAU3456@@Z
    ??$__copy@PBUPrefixCrc@CrcCordState@crc_internal@absl@@PBU1234@V?$__deque_iterator@UPrefixCrc@CrcCordState@crc_internal@absl@@PAU1234@AAU1234@PAPAU1234@H$0A@@__Cr@std@@@__Cr@std@@YA?AU?$pair@PBUPrefixCrc@CrcCordState@crc_internal@absl@@V?$__deque_iterator@UPrefixCrc@CrcCordState@crc_internal@absl@@PAU1234@AAU1234@PAPAU1234@H$0A@@__Cr@std@@@01@PBUPrefixCrc@CrcCordState@crc_internal@absl@@0V?$__deque_iterator@UPrefixCrc@CrcCordState@crc_internal@absl@@PAU1234@AAU1234@PAPAU1234@H$0A@@01@@Z
    ??$__copy@V?$__deque_iterator@UPrefixCrc@CrcCordState@crc_internal@absl@@PBU1234@ABU1234@PBQBU1234@H$0A@@__Cr@std@@V123@V?$__deque_iterator@UPrefixCrc@CrcCordState@crc_internal@absl@@PAU1234@AAU1234@PAPAU1234@H$0A@@23@@__Cr@std@@YA?AU?$pair@V?$__deque_iterator@UPrefixCrc@CrcCordState@crc_internal@absl@@PBU1234@ABU1234@PBQBU1234@H$0A@@__Cr@std@@V?$__deque_iterator@UPrefixCrc@CrcCordState@crc_internal@absl@@PAU1234@AAU1234@PAPAU1234@H$0A@@23@@01@V?$__deque_iterator@UPrefixCrc@CrcCordState@crc_internal@absl@@PBU1234@ABU1234@PBQBU1234@H$0A@@01@0V?$__deque_iterator@UPrefixCrc@CrcCordState@crc_internal@absl@@PAU1234@AAU1234@PAPAU1234@H$0A@@01@@Z
    ??$__copy_backward_trivial_impl@PAPBVImpl@time_zone@cctz@time_internal@absl@@PAPBV12345@@__Cr@std@@YA?AU?$pair@PAPAPBVImpl@time_zone@cctz@time_internal@absl@@PAPAPBV12345@@01@PAPAPBVImpl@time_zone@cctz@time_internal@absl@@00@Z
    ??$__copy_backward_trivial_impl@PAUPrefixCrc@CrcCordState@crc_internal@absl@@PAU1234@@__Cr@std@@YA?AU?$pair@PAPAUPrefixCrc@CrcCordState@crc_internal@absl@@PAPAU1234@@01@PAPAUPrefixCrc@CrcCordState@crc_internal@absl@@00@Z
    ??$__copy_backward_trivial_impl@UTransition@cctz@time_internal@absl@@U1234@@__Cr@std@@YA?AU?$pair@PAUTransition@cctz@time_internal@absl@@PAU1234@@01@PAUTransition@cctz@time_internal@absl@@00@Z
    ??$__copy_backward_trivial_impl@UTransitionType@cctz@time_internal@absl@@U1234@@__Cr@std@@YA?AU?$pair@PAUTransitionType@cctz@time_internal@absl@@PAU1234@@01@PAUTransitionType@cctz@time_internal@absl@@00@Z
    ??$__copy_move_unwrap_iters@U?$__move_backward_impl@U_ClassicAlgPolicy@__Cr@std@@@__Cr@std@@PAPAPBVImpl@time_zone@cctz@time_internal@absl@@PAPAPBV45678@PAPAPBV45678@$0A@@__Cr@std@@YA?AU?$pair@PAPAPBVImpl@time_zone@cctz@time_internal@absl@@PAPAPBV12345@@01@PAPAPBVImpl@time_zone@cctz@time_internal@absl@@00@Z
    ??$__copy_move_unwrap_iters@U?$__move_backward_impl@U_ClassicAlgPolicy@__Cr@std@@@__Cr@std@@PAPAUPrefixCrc@CrcCordState@crc_internal@absl@@PAPAU4567@PAPAU4567@$0A@@__Cr@std@@YA?AU?$pair@PAPAUPrefixCrc@CrcCordState@crc_internal@absl@@PAPAU1234@@01@PAPAUPrefixCrc@CrcCordState@crc_internal@absl@@00@Z
    ??$__copy_move_unwrap_iters@U?$__move_backward_impl@U_ClassicAlgPolicy@__Cr@std@@@__Cr@std@@PAUTransition@cctz@time_internal@absl@@PAU4567@PAU4567@$0A@@__Cr@std@@YA?AU?$pair@PAUTransition@cctz@time_internal@absl@@PAU1234@@01@PAUTransition@cctz@time_internal@absl@@00@Z
    ??$__copy_move_unwrap_iters@U?$__move_backward_impl@U_ClassicAlgPolicy@__Cr@std@@@__Cr@std@@PAUTransitionType@cctz@time_internal@absl@@PAU4567@PAU4567@$0A@@__Cr@std@@YA?AU?$pair@PAUTransitionType@cctz@time_internal@absl@@PAU1234@@01@PAUTransitionType@cctz@time_internal@absl@@00@Z
    ??$__copy_move_unwrap_iters@U?$__move_impl@U_ClassicAlgPolicy@__Cr@std@@@__Cr@std@@PAPAPBVImpl@time_zone@cctz@time_internal@absl@@PAPAPBV45678@PAPAPBV45678@$0A@@__Cr@std@@YA?AU?$pair@PAPAPBVImpl@time_zone@cctz@time_internal@absl@@PAPAPBV12345@@01@PAPAPBVImpl@time_zone@cctz@time_internal@absl@@00@Z
    ??$__copy_move_unwrap_iters@U?$__move_impl@U_ClassicAlgPolicy@__Cr@std@@@__Cr@std@@PAPAUPrefixCrc@CrcCordState@crc_internal@absl@@PAPAU4567@PAPAU4567@$0A@@__Cr@std@@YA?AU?$pair@PAPAUPrefixCrc@CrcCordState@crc_internal@absl@@PAPAU1234@@01@PAPAUPrefixCrc@CrcCordState@crc_internal@absl@@00@Z
    ??$__copy_move_unwrap_iters@U?$__move_impl@U_ClassicAlgPolicy@__Cr@std@@@__Cr@std@@PAPAVLogSink@absl@@PAPAV45@PAPAV45@$0A@@__Cr@std@@YA?AU?$pair@PAPAVLogSink@absl@@PAPAV12@@01@PAPAVLogSink@absl@@00@Z
    ??$__copy_move_unwrap_iters@U?$__move_impl@U_ClassicAlgPolicy@__Cr@std@@@__Cr@std@@PAUTransition@cctz@time_internal@absl@@PAU4567@PAU4567@$0A@@__Cr@std@@YA?AU?$pair@PAUTransition@cctz@time_internal@absl@@PAU1234@@01@PAUTransition@cctz@time_internal@absl@@00@Z
    ??$__copy_move_unwrap_iters@U?$__move_impl@U_ClassicAlgPolicy@__Cr@std@@@__Cr@std@@PAUTransitionType@cctz@time_internal@absl@@PAU4567@PAU4567@$0A@@__Cr@std@@YA?AU?$pair@PAUTransitionType@cctz@time_internal@absl@@PAU1234@@01@PAUTransitionType@cctz@time_internal@absl@@00@Z
    ??$__copy_move_unwrap_iters@U__copy_impl@__Cr@std@@PBUPrefixCrc@CrcCordState@crc_internal@absl@@PBU4567@PAU4567@$0A@@__Cr@std@@YA?AU?$pair@PBUPrefixCrc@CrcCordState@crc_internal@absl@@PAU1234@@01@PBUPrefixCrc@CrcCordState@crc_internal@absl@@0PAU3456@@Z
    ??$__copy_move_unwrap_iters@U__copy_impl@__Cr@std@@PBUPrefixCrc@CrcCordState@crc_internal@absl@@PBU4567@V?$__deque_iterator@UPrefixCrc@CrcCordState@crc_internal@absl@@PAU1234@AAU1234@PAPAU1234@H$0A@@23@$0A@@__Cr@std@@YA?AU?$pair@PBUPrefixCrc@CrcCordState@crc_internal@absl@@V?$__deque_iterator@UPrefixCrc@CrcCordState@crc_internal@absl@@PAU1234@AAU1234@PAPAU1234@H$0A@@__Cr@std@@@01@PBUPrefixCrc@CrcCordState@crc_internal@absl@@0V?$__deque_iterator@UPrefixCrc@CrcCordState@crc_internal@absl@@PAU1234@AAU1234@PAPAU1234@H$0A@@01@@Z
    ??$__copy_move_unwrap_iters@U__copy_impl@__Cr@std@@V?$__deque_iterator@UPrefixCrc@CrcCordState@crc_internal@absl@@PBU1234@ABU1234@PBQBU1234@H$0A@@23@V423@V?$__deque_iterator@UPrefixCrc@CrcCordState@crc_internal@absl@@PAU1234@AAU1234@PAPAU1234@H$0A@@23@$0A@@__Cr@std@@YA?AU?$pair@V?$__deque_iterator@UPrefixCrc@CrcCordState@crc_internal@absl@@PBU1234@ABU1234@PBQBU1234@H$0A@@__Cr@std@@V?$__deque_iterator@UPrefixCrc@CrcCordState@crc_internal@absl@@PAU1234@AAU1234@PAPAU1234@H$0A@@23@@01@V?$__deque_iterator@UPrefixCrc@CrcCordState@crc_internal@absl@@PBU1234@ABU1234@PBQBU1234@H$0A@@01@0V?$__deque_iterator@UPrefixCrc@CrcCordState@crc_internal@absl@@PAU1234@AAU1234@PAPAU1234@H$0A@@01@@Z
    ??$__copy_trivial_impl@$$CBUPrefixCrc@CrcCordState@crc_internal@absl@@U1234@@__Cr@std@@YA?AU?$pair@PBUPrefixCrc@CrcCordState@crc_internal@absl@@PAU1234@@01@PBUPrefixCrc@CrcCordState@crc_internal@absl@@0PAU3456@@Z
    ??$__copy_trivial_impl@PAPBVImpl@time_zone@cctz@time_internal@absl@@PAPBV12345@@__Cr@std@@YA?AU?$pair@PAPAPBVImpl@time_zone@cctz@time_internal@absl@@PAPAPBV12345@@01@PAPAPBVImpl@time_zone@cctz@time_internal@absl@@00@Z
    ??$__copy_trivial_impl@PAUPrefixCrc@CrcCordState@crc_internal@absl@@PAU1234@@__Cr@std@@YA?AU?$pair@PAPAUPrefixCrc@CrcCordState@crc_internal@absl@@PAPAU1234@@01@PAPAUPrefixCrc@CrcCordState@crc_internal@absl@@00@Z
    ??$__copy_trivial_impl@PAVLogSink@absl@@PAV12@@__Cr@std@@YA?AU?$pair@PAPAVLogSink@absl@@PAPAV12@@01@PAPAVLogSink@absl@@00@Z
    ??$__copy_trivial_impl@UTransition@cctz@time_internal@absl@@U1234@@__Cr@std@@YA?AU?$pair@PAUTransition@cctz@time_internal@absl@@PAU1234@@01@PAUTransition@cctz@time_internal@absl@@00@Z
    ??$__copy_trivial_impl@UTransitionType@cctz@time_internal@absl@@U1234@@__Cr@std@@YA?AU?$pair@PAUTransitionType@cctz@time_internal@absl@@PAU1234@@01@PAUTransitionType@cctz@time_internal@absl@@00@Z
    ??$__create@V?$__default_alloc_func@V<lambda_1>@?0??SaveFromRegistry@FlagSaverImpl@flags_internal@absl@@QAEXXZ@$$A6AXAAVCommandLineFlag@5@@Z@__function@__Cr@std@@@?$__policy_invoker@$$A6AXAAVCommandLineFlag@absl@@@Z@__function@__Cr@std@@SA?AU0123@XZ
    ??$__create@V?$__default_alloc_func@V<lambda_1>@?0??SaveFromRegistry@FlagSaverImpl@flags_internal@absl@@QAEXXZ@$$A6AXAAVCommandLineFlag@5@@Z@__function@__Cr@std@@@__policy@__function@__Cr@std@@SAPBU0123@XZ
    ??$__cxx_atomic_compare_exchange_strong@PAVTimeZone@absl@@@__Cr@std@@YA_NPAU?$__cxx_atomic_base_impl@PAVTimeZone@absl@@@01@PAPAVTimeZone@absl@@PAV34@W4memory_order@01@3@Z
    ??$__cxx_atomic_compare_exchange_strong@PAVVLogSite@log_internal@absl@@@__Cr@std@@YA_NPAU?$__cxx_atomic_base_impl@PAVVLogSite@log_internal@absl@@@01@PAPAVVLogSite@log_internal@absl@@PAV345@W4memory_order@01@3@Z
    ??$__cxx_atomic_compare_exchange_weak@PAUHashtablezInfo@container_internal@absl@@@__Cr@std@@YA_NPAU?$__cxx_atomic_base_impl@PAUHashtablezInfo@container_internal@absl@@@01@PAPAUHashtablezInfo@container_internal@absl@@PAU345@W4memory_order@01@3@Z
    ??$__cxx_atomic_compare_exchange_weak@PAVVLogSite@log_internal@absl@@@__Cr@std@@YA_NPAU?$__cxx_atomic_base_impl@PAVVLogSite@log_internal@absl@@@01@PAPAVVLogSite@log_internal@absl@@PAV345@W4memory_order@01@3@Z
    ??$__cxx_atomic_exchange@PAVVLogSite@log_internal@absl@@@__Cr@std@@YAPAVVLogSite@log_internal@absl@@PAU?$__cxx_atomic_base_impl@PAVVLogSite@log_internal@absl@@@01@PAV234@W4memory_order@01@@Z
    ??$__cxx_atomic_load@P6AXABUHashtablezInfo@container_internal@absl@@@Z@__Cr@std@@YAP6AXABUHashtablezInfo@container_internal@absl@@@ZPBU?$__cxx_atomic_base_impl@P6AXABUHashtablezInfo@container_internal@absl@@@Z@01@W4memory_order@01@@Z
    ??$__cxx_atomic_load@PAUHashtablezInfo@container_internal@absl@@@__Cr@std@@YAPAUHashtablezInfo@container_internal@absl@@PBU?$__cxx_atomic_base_impl@PAUHashtablezInfo@container_internal@absl@@@01@W4memory_order@01@@Z
    ??$__cxx_atomic_load@PAVCordzHandle@cord_internal@absl@@@__Cr@std@@YAPAVCordzHandle@cord_internal@absl@@PBU?$__cxx_atomic_base_impl@PAVCordzHandle@cord_internal@absl@@@01@W4memory_order@01@@Z
    ??$__cxx_atomic_load@PAVCordzInfo@cord_internal@absl@@@__Cr@std@@YAPAVCordzInfo@cord_internal@absl@@PBU?$__cxx_atomic_base_impl@PAVCordzInfo@cord_internal@absl@@@01@W4memory_order@01@@Z
    ??$__cxx_atomic_load@PAVTimeZone@absl@@@__Cr@std@@YAPAVTimeZone@absl@@PBU?$__cxx_atomic_base_impl@PAVTimeZone@absl@@@01@W4memory_order@01@@Z
    ??$__cxx_atomic_load@PAVVLogSite@log_internal@absl@@@__Cr@std@@YAPAVVLogSite@log_internal@absl@@PBU?$__cxx_atomic_base_impl@PAVVLogSite@log_internal@absl@@@01@W4memory_order@01@@Z
    ??$__cxx_atomic_load@VMaskedPointer@flags_internal@absl@@@__Cr@std@@YA?AVMaskedPointer@flags_internal@absl@@PBU?$__cxx_atomic_base_impl@VMaskedPointer@flags_internal@absl@@@01@W4memory_order@01@@Z
    ??$__cxx_atomic_load@W4OnDeadlockCycle@absl@@@__Cr@std@@YA?AW4OnDeadlockCycle@absl@@PBU?$__cxx_atomic_base_impl@W4OnDeadlockCycle@absl@@@01@W4memory_order@01@@Z
    ??$__cxx_atomic_load@W4State@PerThreadSynch@base_internal@absl@@@__Cr@std@@YA?AW4State@PerThreadSynch@base_internal@absl@@PBU?$__cxx_atomic_base_impl@W4State@PerThreadSynch@base_internal@absl@@@01@W4memory_order@01@@Z
    ??$__cxx_atomic_store@PAVCordzHandle@cord_internal@absl@@@__Cr@std@@YAXPAU?$__cxx_atomic_base_impl@PAVCordzHandle@cord_internal@absl@@@01@PAVCordzHandle@cord_internal@absl@@W4memory_order@01@@Z
    ??$__cxx_atomic_store@PAVCordzInfo@cord_internal@absl@@@__Cr@std@@YAXPAU?$__cxx_atomic_base_impl@PAVCordzInfo@cord_internal@absl@@@01@PAVCordzInfo@cord_internal@absl@@W4memory_order@01@@Z
    ??$__cxx_atomic_store@PAVVLogSite@log_internal@absl@@@__Cr@std@@YAXPAU?$__cxx_atomic_base_impl@PAVVLogSite@log_internal@absl@@@01@PAVVLogSite@log_internal@absl@@W4memory_order@01@@Z
    ??$__cxx_atomic_store@VMaskedPointer@flags_internal@absl@@@__Cr@std@@YAXPAU?$__cxx_atomic_base_impl@VMaskedPointer@flags_internal@absl@@@01@VMaskedPointer@flags_internal@absl@@W4memory_order@01@@Z
    ??$__cxx_atomic_store@W4OnDeadlockCycle@absl@@@__Cr@std@@YAXPAU?$__cxx_atomic_base_impl@W4OnDeadlockCycle@absl@@@01@W4OnDeadlockCycle@absl@@W4memory_order@01@@Z
    ??$__cxx_atomic_store@W4State@PerThreadSynch@base_internal@absl@@@__Cr@std@@YAXPAU?$__cxx_atomic_base_impl@W4State@PerThreadSynch@base_internal@absl@@@01@W4State@PerThreadSynch@base_internal@absl@@W4memory_order@01@@Z
    ??$__debug_randomize_range@U_ClassicAlgPolicy@__Cr@std@@PAPAVCommandLineFlag@absl@@PAPAV45@@__Cr@std@@YAXPAPAVCommandLineFlag@absl@@0@Z
    ??$__debug_randomize_range@U_ClassicAlgPolicy@__Cr@std@@PAPBVCommandLineFlag@absl@@PAPBV45@@__Cr@std@@YAXPAPBVCommandLineFlag@absl@@0@Z
    ??$__debug_randomize_range@U_ClassicAlgPolicy@__Cr@std@@V?$__wrap_iter@PAPAVCommandLineFlag@absl@@@23@V423@@__Cr@std@@YAXV?$__wrap_iter@PAPAVCommandLineFlag@absl@@@01@0@Z
    ??$__debug_randomize_range@U_ClassicAlgPolicy@__Cr@std@@V?$__wrap_iter@PAPBVCommandLineFlag@absl@@@23@V423@@__Cr@std@@YAXV?$__wrap_iter@PAPBVCommandLineFlag@absl@@@01@0@Z
    ??$__destroy_at@PAPBVImpl@time_zone@cctz@time_internal@absl@@$0A@@__Cr@std@@YAXPAPAPBVImpl@time_zone@cctz@time_internal@absl@@@Z
    ??$__destroy_at@PAUCordRep@cord_internal@absl@@$0A@@__Cr@std@@YAXPAPAUCordRep@cord_internal@absl@@@Z
    ??$__destroy_at@PAUPrefixCrc@CrcCordState@crc_internal@absl@@$0A@@__Cr@std@@YAXPAPAUPrefixCrc@CrcCordState@crc_internal@absl@@@Z
    ??$__destroy_at@PAVCommandLineFlag@absl@@$0A@@__Cr@std@@YAXPAPAVCommandLineFlag@absl@@@Z
    ??$__destroy_at@PAVCordzHandle@cord_internal@absl@@$0A@@__Cr@std@@YAXPAPAVCordzHandle@cord_internal@absl@@@Z
    ??$__destroy_at@PAVLogSink@absl@@$0A@@__Cr@std@@YAXPAPAVLogSink@absl@@@Z
    ??$__destroy_at@PBUCordRep@cord_internal@absl@@$0A@@__Cr@std@@YAXPAPBUCordRep@cord_internal@absl@@@Z
    ??$__destroy_at@PBVCommandLineFlag@absl@@$0A@@__Cr@std@@YAXPAPBVCommandLineFlag@absl@@@Z
    ??$__destroy_at@PBVCordzHandle@cord_internal@absl@@$0A@@__Cr@std@@YAXPAPBVCordzHandle@cord_internal@absl@@@Z
    ??$__destroy_at@U?$__hash_node@PBUCordRep@cord_internal@absl@@PAX@__Cr@std@@$0A@@__Cr@std@@YAXPAU?$__hash_node@PBUCordRep@cord_internal@absl@@PAX@01@@Z
    ??$__destroy_at@U?$__hash_node@U?$__hash_value_type@V?$basic_string@DU?$char_traits@D@__Cr@std@@V?$allocator@D@23@@__Cr@std@@PBVImpl@time_zone@cctz@time_internal@absl@@@__Cr@std@@PAX@__Cr@std@@$0A@@__Cr@std@@YAXPAU?$__hash_node@U?$__hash_value_type@V?$basic_string@DU?$char_traits@D@__Cr@std@@V?$allocator@D@23@@__Cr@std@@PBVImpl@time_zone@cctz@time_internal@absl@@@__Cr@std@@PAX@01@@Z
    ??$__destroy_at@U?$pair@$$CBV?$basic_string@DU?$char_traits@D@__Cr@std@@V?$allocator@D@23@@__Cr@std@@PBVImpl@time_zone@cctz@time_internal@absl@@@__Cr@std@@$0A@@__Cr@std@@YAXPAU?$pair@$$CBV?$basic_string@DU?$char_traits@D@__Cr@std@@V?$allocator@D@23@@__Cr@std@@PBVImpl@time_zone@cctz@time_internal@absl@@@01@@Z
    ??$__destroy_at@U?$pair@$$CBV?$basic_string@DU?$char_traits@D@__Cr@std@@V?$allocator@D@23@@__Cr@std@@V?$map@V?$basic_string@DU?$char_traits@D@__Cr@std@@V?$allocator@D@23@@__Cr@std@@V?$vector@PBVCommandLineFlag@absl@@V?$allocator@PBVCommandLineFlag@absl@@@__Cr@std@@@23@U?$less@V?$basic_string@DU?$char_traits@D@__Cr@std@@V?$allocator@D@23@@__Cr@std@@@23@V?$allocator@U?$pair@$$CBV?$basic_string@DU?$char_traits@D@__Cr@std@@V?$allocator@D@23@@__Cr@std@@V?$vector@PBVCommandLineFlag@absl@@V?$allocator@PBVCommandLineFlag@absl@@@__Cr@std@@@23@@__Cr@std@@@23@@23@@__Cr@std@@$0A@@__Cr@std@@YAXPAU?$pair@$$CBV?$basic_string@DU?$char_traits@D@__Cr@std@@V?$allocator@D@23@@__Cr@std@@V?$map@V?$basic_string@DU?$char_traits@D@__Cr@std@@V?$allocator@D@23@@__Cr@std@@V?$vector@PBVCommandLineFlag@absl@@V?$allocator@PBVCommandLineFlag@absl@@@__Cr@std@@@23@U?$less@V?$basic_string@DU?$char_traits@D@__Cr@std@@V?$allocator@D@23@@__Cr@std@@@23@V?$allocator@U?$pair@$$CBV?$basic_string@DU?$char_traits@D@__Cr@std@@V?$allocator@D@23@@__Cr@std@@V?$vector@PBVCommandLineFlag@absl@@V?$allocator@PBVCommandLineFlag@absl@@@__Cr@std@@@23@@__Cr@std@@@23@@23@@01@@Z
    ??$__destroy_at@U?$pair@$$CBV?$basic_string@DU?$char_traits@D@__Cr@std@@V?$allocator@D@23@@__Cr@std@@V?$vector@PBVCommandLineFlag@absl@@V?$allocator@PBVCommandLineFlag@absl@@@__Cr@std@@@23@@__Cr@std@@$0A@@__Cr@std@@YAXPAU?$pair@$$CBV?$basic_string@DU?$char_traits@D@__Cr@std@@V?$allocator@D@23@@__Cr@std@@V?$vector@PBVCommandLineFlag@absl@@V?$allocator@PBVCommandLineFlag@absl@@@__Cr@std@@@23@@01@@Z
    ??$__destroy_at@U?$pair@V?$basic_string_view@DU?$char_traits@D@__Cr@std@@@__Cr@std@@PAVCommandLineFlag@absl@@@__Cr@std@@$0A@@__Cr@std@@YAXPAU?$pair@V?$basic_string_view@DU?$char_traits@D@__Cr@std@@@__Cr@std@@PAVCommandLineFlag@absl@@@01@@Z
    ??$__destroy_at@UConversionItem@ParsedFormatBase@str_format_internal@absl@@$0A@@__Cr@std@@YAXPAUConversionItem@ParsedFormatBase@str_format_internal@absl@@@Z
    ??$__destroy_at@UPayload@status_internal@absl@@$0A@@__Cr@std@@YAXPAUPayload@status_internal@absl@@@Z
    ??$__destroy_at@UPrefixCrc@CrcCordState@crc_internal@absl@@$0A@@__Cr@std@@YAXPAUPrefixCrc@CrcCordState@crc_internal@absl@@@Z
    ??$__destroy_at@UTransition@cctz@time_internal@absl@@$0A@@__Cr@std@@YAXPAUTransition@cctz@time_internal@absl@@@Z
    ??$__destroy_at@UTransitionType@cctz@time_internal@absl@@$0A@@__Cr@std@@YAXPAUTransitionType@cctz@time_internal@absl@@@Z
    ??$__destroy_at@UUnrecognizedFlag@absl@@$0A@@__Cr@std@@YAXPAUUnrecognizedFlag@absl@@@Z
    ??$__destroy_at@UViableSubstitution@strings_internal@absl@@$0A@@__Cr@std@@YAXPAUViableSubstitution@strings_internal@absl@@@Z
    ??$__destroy_at@V?$unique_ptr@VFlagStateInterface@flags_internal@absl@@U?$default_delete@VFlagStateInterface@flags_internal@absl@@@__Cr@std@@@__Cr@std@@$0A@@__Cr@std@@YAXPAV?$unique_ptr@VFlagStateInterface@flags_internal@absl@@U?$default_delete@VFlagStateInterface@flags_internal@absl@@@__Cr@std@@@01@@Z
    ??$__dispatch@$$QAU?$__value_visitor@UBufferSizeVisitor@?1??BufferSizeForStructuredProtoField@log_internal@absl@@YAIUStructuredProtoField@34@@Z@@__variant@__visitation@__variant_detail@__Cr@std@@AAV?$__base@$0A@V?$variant@_K_JIH_N@__Cr@std@@V?$variant@_K_JN@23@V?$Span@$$CBD@absl@@V?$variant@IHM@23@@456@@?$__dispatcher@$00@__base@__visitation@__variant_detail@__Cr@std@@SA?A_T$$QAU?$__value_visitor@UBufferSizeVisitor@?1??BufferSizeForStructuredProtoField@log_internal@absl@@YAIUStructuredProtoField@34@@Z@@__variant@2345@AAV?$__base@$0A@V?$variant@_K_JIH_N@__Cr@std@@V?$variant@_K_JN@23@V?$Span@$$CBD@absl@@V?$variant@IHM@23@@345@@Z
    ??$__dispatch@$$QAU?$__value_visitor@UBufferSizeVisitor@?1??BufferSizeForStructuredProtoField@log_internal@absl@@YAIUStructuredProtoField@34@@Z@@__variant@__visitation@__variant_detail@__Cr@std@@AAV?$__base@$0A@V?$variant@_K_JIH_N@__Cr@std@@V?$variant@_K_JN@23@V?$Span@$$CBD@absl@@V?$variant@IHM@23@@456@@?$__dispatcher@$01@__base@__visitation@__variant_detail@__Cr@std@@SA?A_T$$QAU?$__value_visitor@UBufferSizeVisitor@?1??BufferSizeForStructuredProtoField@log_internal@absl@@YAIUStructuredProtoField@34@@Z@@__variant@2345@AAV?$__base@$0A@V?$variant@_K_JIH_N@__Cr@std@@V?$variant@_K_JN@23@V?$Span@$$CBD@absl@@V?$variant@IHM@23@@345@@Z
    ??$__dispatch@$$QAU?$__value_visitor@UBufferSizeVisitor@?1??BufferSizeForStructuredProtoField@log_internal@absl@@YAIUStructuredProtoField@34@@Z@@__variant@__visitation@__variant_detail@__Cr@std@@AAV?$__base@$0A@V?$variant@_K_JIH_N@__Cr@std@@V?$variant@_K_JN@23@V?$Span@$$CBD@absl@@V?$variant@IHM@23@@456@@?$__dispatcher@$02@__base@__visitation@__variant_detail@__Cr@std@@SA?A_T$$QAU?$__value_visitor@UBufferSizeVisitor@?1??BufferSizeForStructuredProtoField@log_internal@absl@@YAIUStructuredProtoField@34@@Z@@__variant@2345@AAV?$__base@$0A@V?$variant@_K_JIH_N@__Cr@std@@V?$variant@_K_JN@23@V?$Span@$$CBD@absl@@V?$variant@IHM@23@@345@@Z
    ??$__dispatch@$$QAU?$__value_visitor@UBufferSizeVisitor@?1??BufferSizeForStructuredProtoField@log_internal@absl@@YAIUStructuredProtoField@34@@Z@@__variant@__visitation@__variant_detail@__Cr@std@@AAV?$__base@$0A@V?$variant@_K_JIH_N@__Cr@std@@V?$variant@_K_JN@23@V?$Span@$$CBD@absl@@V?$variant@IHM@23@@456@@?$__dispatcher@$0A@@__base@__visitation@__variant_detail@__Cr@std@@SA?A_T$$QAU?$__value_visitor@UBufferSizeVisitor@?1??BufferSizeForStructuredProtoField@log_internal@absl@@YAIUStructuredProtoField@34@@Z@@__variant@2345@AAV?$__base@$0A@V?$variant@_K_JIH_N@__Cr@std@@V?$variant@_K_JN@23@V?$Span@$$CBD@absl@@V?$variant@IHM@23@@345@@Z
    ??$__distance@PBUPayload@status_internal@absl@@@__Cr@std@@YAHPBUPayload@status_internal@absl@@0Urandom_access_iterator_tag@01@@Z
    ??$__distance@PBUTransition@cctz@time_internal@absl@@@__Cr@std@@YAHPBUTransition@cctz@time_internal@absl@@0Urandom_access_iterator_tag@01@@Z
    ??$__distance@PBVFormatArgImpl@str_format_internal@absl@@@__Cr@std@@YAHPBVFormatArgImpl@str_format_internal@absl@@0Urandom_access_iterator_tag@01@@Z
    ??$__distance@V?$__wrap_iter@PAPAVCommandLineFlag@absl@@@__Cr@std@@@__Cr@std@@YAHV?$__wrap_iter@PAPAVCommandLineFlag@absl@@@01@0Urandom_access_iterator_tag@01@@Z
    ??$__distance@V?$__wrap_iter@PAPBVCommandLineFlag@absl@@@__Cr@std@@@__Cr@std@@YAHV?$__wrap_iter@PAPBVCommandLineFlag@absl@@@01@0Urandom_access_iterator_tag@01@@Z
    ??$__distance@V?$__wrap_iter@PAUraw_view@?1???R?$ConvertToContainer@V?$vector@V?$basic_string_view@DU?$char_traits@D@__Cr@std@@@__Cr@std@@V?$allocator@V?$basic_string_view@DU?$char_traits@D@__Cr@std@@@__Cr@std@@@23@@__Cr@std@@V?$basic_string_view@DU?$char_traits@D@__Cr@std@@@23@$0A@@?$Splitter@VByChar@absl@@UAllowEmpty@2@V?$basic_string_view@DU?$char_traits@D@__Cr@std@@@__Cr@std@@@strings_internal@absl@@QBE?AV?$vector@V?$basic_string_view@DU?$char_traits@D@__Cr@std@@@__Cr@std@@V?$allocator@V?$basic_string_view@DU?$char_traits@D@__Cr@std@@@__Cr@std@@@23@@__Cr@std@@ABV345@@Z@@__Cr@std@@@__Cr@std@@YAHV?$__wrap_iter@PAUraw_view@?1???R?$ConvertToContainer@V?$vector@V?$basic_string_view@DU?$char_traits@D@__Cr@std@@@__Cr@std@@V?$allocator@V?$basic_string_view@DU?$char_traits@D@__Cr@std@@@__Cr@std@@@23@@__Cr@std@@V?$basic_string_view@DU?$char_traits@D@__Cr@std@@@23@$0A@@?$Splitter@VByChar@absl@@UAllowEmpty@2@V?$basic_string_view@DU?$char_traits@D@__Cr@std@@@__Cr@std@@@strings_internal@absl@@QBE?AV?$vector@V?$basic_string_view@DU?$char_traits@D@__Cr@std@@@__Cr@std@@V?$allocator@V?$basic_string_view@DU?$char_traits@D@__Cr@std@@@__Cr@std@@@23@@__Cr@std@@ABV345@@Z@@01@0Urandom_access_iterator_tag@01@@Z
    ??$__distance@V?$move_iterator@PAPAPBVImpl@time_zone@cctz@time_internal@absl@@@__Cr@std@@@__Cr@std@@YAHV?$move_iterator@PAPAPBVImpl@time_zone@cctz@time_internal@absl@@@01@0Urandom_access_iterator_tag@01@@Z
    ??$__distance@V?$move_iterator@PAPAUPrefixCrc@CrcCordState@crc_internal@absl@@@__Cr@std@@@__Cr@std@@YAHV?$move_iterator@PAPAUPrefixCrc@CrcCordState@crc_internal@absl@@@01@0Urandom_access_iterator_tag@01@@Z
    ??$__distance@V?$move_iterator@PAUTransition@cctz@time_internal@absl@@@__Cr@std@@@__Cr@std@@YAHV?$move_iterator@PAUTransition@cctz@time_internal@absl@@@01@0Urandom_access_iterator_tag@01@@Z
    ??$__distance@V?$move_iterator@PAUTransitionType@cctz@time_internal@absl@@@__Cr@std@@@__Cr@std@@YAHV?$move_iterator@PAUTransitionType@cctz@time_internal@absl@@@01@0Urandom_access_iterator_tag@01@@Z
    ??$__do_rehash@$00@?$__hash_table@PBUCordRep@cord_internal@absl@@U?$hash@PBUCordRep@cord_internal@absl@@@__Cr@std@@U?$equal_to@PBUCordRep@cord_internal@absl@@@56@V?$allocator@PBUCordRep@cord_internal@absl@@@56@@__Cr@std@@AAEXI@Z
    ??$__do_rehash@$00@?$__hash_table@U?$__hash_value_type@V?$basic_string@DU?$char_traits@D@__Cr@std@@V?$allocator@D@23@@__Cr@std@@PBVImpl@time_zone@cctz@time_internal@absl@@@__Cr@std@@V?$__unordered_map_hasher@V?$basic_string@DU?$char_traits@D@__Cr@std@@V?$allocator@D@23@@__Cr@std@@U?$__hash_value_type@V?$basic_string@DU?$char_traits@D@__Cr@std@@V?$allocator@D@23@@__Cr@std@@PBVImpl@time_zone@cctz@time_internal@absl@@@23@U?$hash@V?$basic_string@DU?$char_traits@D@__Cr@std@@V?$allocator@D@23@@__Cr@std@@@23@U?$equal_to@V?$basic_string@DU?$char_traits@D@__Cr@std@@V?$allocator@D@23@@__Cr@std@@@23@$00@23@V?$__unordered_map_equal@V?$basic_string@DU?$char_traits@D@__Cr@std@@V?$allocator@D@23@@__Cr@std@@U?$__hash_value_type@V?$basic_string@DU?$char_traits@D@__Cr@std@@V?$allocator@D@23@@__Cr@std@@PBVImpl@time_zone@cctz@time_internal@absl@@@23@U?$equal_to@V?$basic_string@DU?$char_traits@D@__Cr@std@@V?$allocator@D@23@@__Cr@std@@@23@U?$hash@V?$basic_string@DU?$char_traits@D@__Cr@std@@V?$allocator@D@23@@__Cr@std@@@23@$00@23@V?$allocator@U?$__hash_value_type@V?$basic_string@DU?$char_traits@D@__Cr@std@@V?$allocator@D@23@@__Cr@std@@PBVImpl@time_zone@cctz@time_internal@absl@@@__Cr@std@@@23@@__Cr@std@@AAEXI@Z
    ??$__emplace_back_assume_capacity@$$V@?$vector@UTransition@cctz@time_internal@absl@@V?$allocator@UTransition@cctz@time_internal@absl@@@__Cr@std@@@__Cr@std@@QAEXXZ
    ??$__emplace_back_assume_capacity@$$V@?$vector@UTransitionType@cctz@time_internal@absl@@V?$allocator@UTransitionType@cctz@time_internal@absl@@@__Cr@std@@@__Cr@std@@QAEXXZ
    ??$__emplace_back_assume_capacity@AAV?$basic_string_view@DU?$char_traits@D@__Cr@std@@@__Cr@std@@ABV123@AAI@?$vector@UViableSubstitution@strings_internal@absl@@V?$allocator@UViableSubstitution@strings_internal@absl@@@__Cr@std@@@__Cr@std@@QAEXAAV?$basic_string_view@DU?$char_traits@D@__Cr@std@@@12@ABV312@AAI@Z
    ??$__emplace_back_assume_capacity@ABQAVCommandLineFlag@absl@@@?$vector@PAVCommandLineFlag@absl@@V?$allocator@PAVCommandLineFlag@absl@@@__Cr@std@@@__Cr@std@@QAEXABQAVCommandLineFlag@absl@@@Z
    ??$__emplace_back_assume_capacity@ABQAVCordzHandle@cord_internal@absl@@@?$vector@PAVCordzHandle@cord_internal@absl@@V?$allocator@PAVCordzHandle@cord_internal@absl@@@__Cr@std@@@__Cr@std@@QAEXABQAVCordzHandle@cord_internal@absl@@@Z
    ??$__emplace_back_assume_capacity@ABQAVLogSink@absl@@@?$vector@PAVLogSink@absl@@V?$allocator@PAVLogSink@absl@@@__Cr@std@@@__Cr@std@@QAEXABQAVLogSink@absl@@@Z
    ??$__emplace_back_assume_capacity@ABQBVCommandLineFlag@absl@@@?$vector@PBVCommandLineFlag@absl@@V?$allocator@PBVCommandLineFlag@absl@@@__Cr@std@@@__Cr@std@@QAEXABQBVCommandLineFlag@absl@@@Z
    ??$__emplace_back_assume_capacity@ABQBVCordzHandle@cord_internal@absl@@@?$vector@PBVCordzHandle@cord_internal@absl@@V?$allocator@PBVCordzHandle@cord_internal@absl@@@__Cr@std@@@__Cr@std@@QAEXABQBVCordzHandle@cord_internal@absl@@@Z
    ??$__emplace_back_assume_capacity@ABUTransition@cctz@time_internal@absl@@@?$vector@UTransition@cctz@time_internal@absl@@V?$allocator@UTransition@cctz@time_internal@absl@@@__Cr@std@@@__Cr@std@@QAEXABUTransition@cctz@time_internal@absl@@@Z
    ??$__emplace_back_assume_capacity@ABUUnrecognizedFlag@absl@@@?$vector@UUnrecognizedFlag@absl@@V?$allocator@UUnrecognizedFlag@absl@@@__Cr@std@@@__Cr@std@@QAEXABUUnrecognizedFlag@absl@@@Z
    ??$__emplace_back_assume_capacity@PBVCommandLineFlag@absl@@@?$vector@PBVCommandLineFlag@absl@@V?$allocator@PBVCommandLineFlag@absl@@@__Cr@std@@@__Cr@std@@QAEX$$QAPBVCommandLineFlag@absl@@@Z
    ??$__emplace_back_assume_capacity@UConversionItem@ParsedFormatBase@str_format_internal@absl@@@?$vector@UConversionItem@ParsedFormatBase@str_format_internal@absl@@V?$allocator@UConversionItem@ParsedFormatBase@str_format_internal@absl@@@__Cr@std@@@__Cr@std@@QAEX$$QAUConversionItem@ParsedFormatBase@str_format_internal@absl@@@Z
    ??$__emplace_back_assume_capacity@V?$unique_ptr@VFlagStateInterface@flags_internal@absl@@U?$default_delete@VFlagStateInterface@flags_internal@absl@@@__Cr@std@@@__Cr@std@@@?$vector@V?$unique_ptr@VFlagStateInterface@flags_internal@absl@@U?$default_delete@VFlagStateInterface@flags_internal@absl@@@__Cr@std@@@__Cr@std@@V?$allocator@V?$unique_ptr@VFlagStateInterface@flags_internal@absl@@U?$default_delete@VFlagStateInterface@flags_internal@absl@@@__Cr@std@@@__Cr@std@@@23@@__Cr@std@@QAEX$$QAV?$unique_ptr@VFlagStateInterface@flags_internal@absl@@U?$default_delete@VFlagStateInterface@flags_internal@absl@@@__Cr@std@@@12@@Z
    ??$__emplace_back_assume_capacity@W4Source@UnrecognizedFlag@absl@@AAV?$basic_string_view@DU?$char_traits@D@__Cr@std@@@__Cr@std@@@?$vector@UUnrecognizedFlag@absl@@V?$allocator@UUnrecognizedFlag@absl@@@__Cr@std@@@__Cr@std@@QAEX$$QAW4Source@UnrecognizedFlag@absl@@AAV?$basic_string_view@DU?$char_traits@D@__Cr@std@@@12@@Z
    ??$__emplace_back_slow_path@AAV?$basic_string_view@DU?$char_traits@D@__Cr@std@@@__Cr@std@@ABV123@AAI@?$vector@UViableSubstitution@strings_internal@absl@@V?$allocator@UViableSubstitution@strings_internal@absl@@@__Cr@std@@@__Cr@std@@AAEPAUViableSubstitution@strings_internal@absl@@AAV?$basic_string_view@DU?$char_traits@D@__Cr@std@@@12@ABV612@AAI@Z
    ??$__emplace_back_slow_path@ABQAVCommandLineFlag@absl@@@?$vector@PAVCommandLineFlag@absl@@V?$allocator@PAVCommandLineFlag@absl@@@__Cr@std@@@__Cr@std@@AAEPAPAVCommandLineFlag@absl@@ABQAV34@@Z
    ??$__emplace_back_slow_path@ABQAVCordzHandle@cord_internal@absl@@@?$vector@PAVCordzHandle@cord_internal@absl@@V?$allocator@PAVCordzHandle@cord_internal@absl@@@__Cr@std@@@__Cr@std@@AAEPAPAVCordzHandle@cord_internal@absl@@ABQAV345@@Z
    ??$__emplace_back_slow_path@ABQAVLogSink@absl@@@?$vector@PAVLogSink@absl@@V?$allocator@PAVLogSink@absl@@@__Cr@std@@@__Cr@std@@AAEPAPAVLogSink@absl@@ABQAV34@@Z
    ??$__emplace_back_slow_path@ABQBVCommandLineFlag@absl@@@?$vector@PBVCommandLineFlag@absl@@V?$allocator@PBVCommandLineFlag@absl@@@__Cr@std@@@__Cr@std@@AAEPAPBVCommandLineFlag@absl@@ABQBV34@@Z
    ??$__emplace_back_slow_path@ABQBVCordzHandle@cord_internal@absl@@@?$vector@PBVCordzHandle@cord_internal@absl@@V?$allocator@PBVCordzHandle@cord_internal@absl@@@__Cr@std@@@__Cr@std@@AAEPAPBVCordzHandle@cord_internal@absl@@ABQBV345@@Z
    ??$__emplace_back_slow_path@ABUTransition@cctz@time_internal@absl@@@?$vector@UTransition@cctz@time_internal@absl@@V?$allocator@UTransition@cctz@time_internal@absl@@@__Cr@std@@@__Cr@std@@AAEPAUTransition@cctz@time_internal@absl@@ABU3456@@Z
    ??$__emplace_back_slow_path@ABUUnrecognizedFlag@absl@@@?$vector@UUnrecognizedFlag@absl@@V?$allocator@UUnrecognizedFlag@absl@@@__Cr@std@@@__Cr@std@@AAEPAUUnrecognizedFlag@absl@@ABU34@@Z
    ??$__emplace_back_slow_path@PBVCommandLineFlag@absl@@@?$vector@PBVCommandLineFlag@absl@@V?$allocator@PBVCommandLineFlag@absl@@@__Cr@std@@@__Cr@std@@AAEPAPBVCommandLineFlag@absl@@$$QAPBV34@@Z
    ??$__emplace_back_slow_path@UConversionItem@ParsedFormatBase@str_format_internal@absl@@@?$vector@UConversionItem@ParsedFormatBase@str_format_internal@absl@@V?$allocator@UConversionItem@ParsedFormatBase@str_format_internal@absl@@@__Cr@std@@@__Cr@std@@AAEPAUConversionItem@ParsedFormatBase@str_format_internal@absl@@$$QAU3456@@Z
    ??$__emplace_back_slow_path@V?$unique_ptr@VFlagStateInterface@flags_internal@absl@@U?$default_delete@VFlagStateInterface@flags_internal@absl@@@__Cr@std@@@__Cr@std@@@?$vector@V?$unique_ptr@VFlagStateInterface@flags_internal@absl@@U?$default_delete@VFlagStateInterface@flags_internal@absl@@@__Cr@std@@@__Cr@std@@V?$allocator@V?$unique_ptr@VFlagStateInterface@flags_internal@absl@@U?$default_delete@VFlagStateInterface@flags_internal@absl@@@__Cr@std@@@__Cr@std@@@23@@__Cr@std@@AAEPAV?$unique_ptr@VFlagStateInterface@flags_internal@absl@@U?$default_delete@VFlagStateInterface@flags_internal@absl@@@__Cr@std@@@12@$$QAV312@@Z
    ??$__emplace_back_slow_path@W4Source@UnrecognizedFlag@absl@@AAV?$basic_string_view@DU?$char_traits@D@__Cr@std@@@__Cr@std@@@?$vector@UUnrecognizedFlag@absl@@V?$allocator@UUnrecognizedFlag@absl@@@__Cr@std@@@__Cr@std@@AAEPAUUnrecognizedFlag@absl@@$$QAW4Source@34@AAV?$basic_string_view@DU?$char_traits@D@__Cr@std@@@12@@Z
    ??$__emplace_unique_key_args@PBUCordRep@cord_internal@absl@@ABQBU123@@?$__hash_table@PBUCordRep@cord_internal@absl@@U?$hash@PBUCordRep@cord_internal@absl@@@__Cr@std@@U?$equal_to@PBUCordRep@cord_internal@absl@@@56@V?$allocator@PBUCordRep@cord_internal@absl@@@56@@__Cr@std@@QAE?AU?$pair@V?$__hash_iterator@PAU?$__hash_node@PBUCordRep@cord_internal@absl@@PAX@__Cr@std@@@__Cr@std@@_N@12@ABQBUCordRep@cord_internal@absl@@0@Z
    ??$__emplace_unique_key_args@V?$basic_string@DU?$char_traits@D@__Cr@std@@V?$allocator@D@23@@__Cr@std@@ABUpiecewise_construct_t@23@V?$tuple@$$QAV?$basic_string@DU?$char_traits@D@__Cr@std@@V?$allocator@D@23@@__Cr@std@@@23@V?$tuple@$$V@23@@?$__tree@U?$__value_type@V?$basic_string@DU?$char_traits@D@__Cr@std@@V?$allocator@D@23@@__Cr@std@@V?$map@V?$basic_string@DU?$char_traits@D@__Cr@std@@V?$allocator@D@23@@__Cr@std@@V?$vector@PBVCommandLineFlag@absl@@V?$allocator@PBVCommandLineFlag@absl@@@__Cr@std@@@23@U?$less@V?$basic_string@DU?$char_traits@D@__Cr@std@@V?$allocator@D@23@@__Cr@std@@@23@V?$allocator@U?$pair@$$CBV?$basic_string@DU?$char_traits@D@__Cr@std@@V?$allocator@D@23@@__Cr@std@@V?$vector@PBVCommandLineFlag@absl@@V?$allocator@PBVCommandLineFlag@absl@@@__Cr@std@@@23@@__Cr@std@@@23@@23@@__Cr@std@@V?$__map_value_compare@V?$basic_string@DU?$char_traits@D@__Cr@std@@V?$allocator@D@23@@__Cr@std@@U?$__value_type@V?$basic_string@DU?$char_traits@D@__Cr@std@@V?$allocator@D@23@@__Cr@std@@V?$map@V?$basic_string@DU?$char_traits@D@__Cr@std@@V?$allocator@D@23@@__Cr@std@@V?$vector@PBVCommandLineFlag@absl@@V?$allocator@PBVCommandLineFlag@absl@@@__Cr@std@@@23@U?$less@V?$basic_string@DU?$char_traits@D@__Cr@std@@V?$allocator@D@23@@__Cr@std@@@23@V?$allocator@U?$pair@$$CBV?$basic_string@DU?$char_traits@D@__Cr@std@@V?$allocator@D@23@@__Cr@std@@V?$vector@PBVCommandLineFlag@absl@@V?$allocator@PBVCommandLineFlag@absl@@@__Cr@std@@@23@@__Cr@std@@@23@@23@@23@U?$less@V?$basic_string@DU?$char_traits@D@__Cr@std@@V?$allocator@D@23@@__Cr@std@@@23@$00@23@V?$allocator@U?$__value_type@V?$basic_string@DU?$char_traits@D@__Cr@std@@V?$allocator@D@23@@__Cr@std@@V?$map@V?$basic_string@DU?$char_traits@D@__Cr@std@@V?$allocator@D@23@@__Cr@std@@V?$vector@PBVCommandLineFlag@absl@@V?$allocator@PBVCommandLineFlag@absl@@@__Cr@std@@@23@U?$less@V?$basic_string@DU?$char_traits@D@__Cr@std@@V?$allocator@D@23@@__Cr@std@@@23@V?$allocator@U?$pair@$$CBV?$basic_string@DU?$char_traits@D@__Cr@std@@V?$allocator@D@23@@__Cr@std@@V?$vector@PBVCommandLineFlag@absl@@V?$allocator@PBVCommandLineFlag@absl@@@__Cr@std@@@23@@__Cr@std@@@23@@23@@__Cr@std@@@23@@__Cr@std@@QAE?AU?$pair@V?$__tree_iterator@U?$__value_type@V?$basic_string@DU?$char_traits@D@__Cr@std@@V?$allocator@D@23@@__Cr@std@@V?$map@V?$basic_string@DU?$char_traits@D@__Cr@std@@V?$allocator@D@23@@__Cr@std@@V?$vector@PBVCommandLineFlag@absl@@V?$allocator@PBVCommandLineFlag@absl@@@__Cr@std@@@23@U?$less@V?$basic_string@DU?$char_traits@D@__Cr@std@@V?$allocator@D@23@@__Cr@std@@@23@V?$allocator@U?$pair@$$CBV?$basic_string@DU?$char_traits@D@__Cr@std@@V?$allocator@D@23@@__Cr@std@@V?$vector@PBVCommandLineFlag@absl@@V?$allocator@PBVCommandLineFlag@absl@@@__Cr@std@@@23@@__Cr@std@@@23@@23@@__Cr@std@@PAV?$__tree_node@U?$__value_type@V?$basic_string@DU?$char_traits@D@__Cr@std@@V?$allocator@D@23@@__Cr@std@@V?$map@V?$basic_string@DU?$char_traits@D@__Cr@std@@V?$allocator@D@23@@__Cr@std@@V?$vector@PBVCommandLineFlag@absl@@V?$allocator@PBVCommandLineFlag@absl@@@__Cr@std@@@23@U?$less@V?$basic_string@DU?$char_traits@D@__Cr@std@@V?$allocator@D@23@@__Cr@std@@@23@V?$allocator@U?$pair@$$CBV?$basic_string@DU?$char_traits@D@__Cr@std@@V?$allocator@D@23@@__Cr@std@@V?$vector@PBVCommandLineFlag@absl@@V?$allocator@PBVCommandLineFlag@absl@@@__Cr@std@@@23@@__Cr@std@@@23@@23@@__Cr@std@@PAX@23@H@__Cr@std@@_N@12@ABV?$basic_string@DU?$char_traits@D@__Cr@std@@V?$allocator@D@23@@12@ABUpiecewise_construct_t@12@$$QAV?$tuple@$$QAV?$basic_string@DU?$char_traits@D@__Cr@std@@V?$allocator@D@23@@__Cr@std@@@12@$$QAV?$tuple@$$V@12@@Z
    ??$__emplace_unique_key_args@V?$basic_string@DU?$char_traits@D@__Cr@std@@V?$allocator@D@23@@__Cr@std@@ABUpiecewise_construct_t@23@V?$tuple@ABV?$basic_string@DU?$char_traits@D@__Cr@std@@V?$allocator@D@23@@__Cr@std@@@23@V?$tuple@$$V@23@@?$__hash_table@U?$__hash_value_type@V?$basic_string@DU?$char_traits@D@__Cr@std@@V?$allocator@D@23@@__Cr@std@@PBVImpl@time_zone@cctz@time_internal@absl@@@__Cr@std@@V?$__unordered_map_hasher@V?$basic_string@DU?$char_traits@D@__Cr@std@@V?$allocator@D@23@@__Cr@std@@U?$__hash_value_type@V?$basic_string@DU?$char_traits@D@__Cr@std@@V?$allocator@D@23@@__Cr@std@@PBVImpl@time_zone@cctz@time_internal@absl@@@23@U?$hash@V?$basic_string@DU?$char_traits@D@__Cr@std@@V?$allocator@D@23@@__Cr@std@@@23@U?$equal_to@V?$basic_string@DU?$char_traits@D@__Cr@std@@V?$allocator@D@23@@__Cr@std@@@23@$00@23@V?$__unordered_map_equal@V?$basic_string@DU?$char_traits@D@__Cr@std@@V?$allocator@D@23@@__Cr@std@@U?$__hash_value_type@V?$basic_string@DU?$char_traits@D@__Cr@std@@V?$allocator@D@23@@__Cr@std@@PBVImpl@time_zone@cctz@time_internal@absl@@@23@U?$equal_to@V?$basic_string@DU?$char_traits@D@__Cr@std@@V?$allocator@D@23@@__Cr@std@@@23@U?$hash@V?$basic_string@DU?$char_traits@D@__Cr@std@@V?$allocator@D@23@@__Cr@std@@@23@$00@23@V?$allocator@U?$__hash_value_type@V?$basic_string@DU?$char_traits@D@__Cr@std@@V?$allocator@D@23@@__Cr@std@@PBVImpl@time_zone@cctz@time_internal@absl@@@__Cr@std@@@23@@__Cr@std@@QAE?AU?$pair@V?$__hash_iterator@PAU?$__hash_node@U?$__hash_value_type@V?$basic_string@DU?$char_traits@D@__Cr@std@@V?$allocator@D@23@@__Cr@std@@PBVImpl@time_zone@cctz@time_internal@absl@@@__Cr@std@@PAX@__Cr@std@@@__Cr@std@@_N@12@ABV?$basic_string@DU?$char_traits@D@__Cr@std@@V?$allocator@D@23@@12@ABUpiecewise_construct_t@12@$$QAV?$tuple@ABV?$basic_string@DU?$char_traits@D@__Cr@std@@V?$allocator@D@23@@__Cr@std@@@12@$$QAV?$tuple@$$V@12@@Z
    ??$__emplace_unique_key_args@V?$basic_string@DU?$char_traits@D@__Cr@std@@V?$allocator@D@23@@__Cr@std@@ABUpiecewise_construct_t@23@V?$tuple@ABV?$basic_string@DU?$char_traits@D@__Cr@std@@V?$allocator@D@23@@__Cr@std@@@23@V?$tuple@$$V@23@@?$__tree@U?$__value_type@V?$basic_string@DU?$char_traits@D@__Cr@std@@V?$allocator@D@23@@__Cr@std@@V?$vector@PBVCommandLineFlag@absl@@V?$allocator@PBVCommandLineFlag@absl@@@__Cr@std@@@23@@__Cr@std@@V?$__map_value_compare@V?$basic_string@DU?$char_traits@D@__Cr@std@@V?$allocator@D@23@@__Cr@std@@U?$__value_type@V?$basic_string@DU?$char_traits@D@__Cr@std@@V?$allocator@D@23@@__Cr@std@@V?$vector@PBVCommandLineFlag@absl@@V?$allocator@PBVCommandLineFlag@absl@@@__Cr@std@@@23@@23@U?$less@V?$basic_string@DU?$char_traits@D@__Cr@std@@V?$allocator@D@23@@__Cr@std@@@23@$00@23@V?$allocator@U?$__value_type@V?$basic_string@DU?$char_traits@D@__Cr@std@@V?$allocator@D@23@@__Cr@std@@V?$vector@PBVCommandLineFlag@absl@@V?$allocator@PBVCommandLineFlag@absl@@@__Cr@std@@@23@@__Cr@std@@@23@@__Cr@std@@QAE?AU?$pair@V?$__tree_iterator@U?$__value_type@V?$basic_string@DU?$char_traits@D@__Cr@std@@V?$allocator@D@23@@__Cr@std@@V?$vector@PBVCommandLineFlag@absl@@V?$allocator@PBVCommandLineFlag@absl@@@__Cr@std@@@23@@__Cr@std@@PAV?$__tree_node@U?$__value_type@V?$basic_string@DU?$char_traits@D@__Cr@std@@V?$allocator@D@23@@__Cr@std@@V?$vector@PBVCommandLineFlag@absl@@V?$allocator@PBVCommandLineFlag@absl@@@__Cr@std@@@23@@__Cr@std@@PAX@23@H@__Cr@std@@_N@12@ABV?$basic_string@DU?$char_traits@D@__Cr@std@@V?$allocator@D@23@@12@ABUpiecewise_construct_t@12@$$QAV?$tuple@ABV?$basic_string@DU?$char_traits@D@__Cr@std@@V?$allocator@D@23@@__Cr@std@@@12@$$QAV?$tuple@$$V@12@@Z
    ??$__find@PAPAVLogSink@absl@@PAPAV12@PAV12@U__identity@__Cr@std@@@__Cr@std@@YAPAPAVLogSink@absl@@PAPAV23@0ABQAV23@AAU__identity@01@@Z
    ??$__find_equal@V?$basic_string@DU?$char_traits@D@__Cr@std@@V?$allocator@D@23@@__Cr@std@@@?$__tree@U?$__value_type@V?$basic_string@DU?$char_traits@D@__Cr@std@@V?$allocator@D@23@@__Cr@std@@V?$map@V?$basic_string@DU?$char_traits@D@__Cr@std@@V?$allocator@D@23@@__Cr@std@@V?$vector@PBVCommandLineFlag@absl@@V?$allocator@PBVCommandLineFlag@absl@@@__Cr@std@@@23@U?$less@V?$basic_string@DU?$char_traits@D@__Cr@std@@V?$allocator@D@23@@__Cr@std@@@23@V?$allocator@U?$pair@$$CBV?$basic_string@DU?$char_traits@D@__Cr@std@@V?$allocator@D@23@@__Cr@std@@V?$vector@PBVCommandLineFlag@absl@@V?$allocator@PBVCommandLineFlag@absl@@@__Cr@std@@@23@@__Cr@std@@@23@@23@@__Cr@std@@V?$__map_value_compare@V?$basic_string@DU?$char_traits@D@__Cr@std@@V?$allocator@D@23@@__Cr@std@@U?$__value_type@V?$basic_string@DU?$char_traits@D@__Cr@std@@V?$allocator@D@23@@__Cr@std@@V?$map@V?$basic_string@DU?$char_traits@D@__Cr@std@@V?$allocator@D@23@@__Cr@std@@V?$vector@PBVCommandLineFlag@absl@@V?$allocator@PBVCommandLineFlag@absl@@@__Cr@std@@@23@U?$less@V?$basic_string@DU?$char_traits@D@__Cr@std@@V?$allocator@D@23@@__Cr@std@@@23@V?$allocator@U?$pair@$$CBV?$basic_string@DU?$char_traits@D@__Cr@std@@V?$allocator@D@23@@__Cr@std@@V?$vector@PBVCommandLineFlag@absl@@V?$allocator@PBVCommandLineFlag@absl@@@__Cr@std@@@23@@__Cr@std@@@23@@23@@23@U?$less@V?$basic_string@DU?$char_traits@D@__Cr@std@@V?$allocator@D@23@@__Cr@std@@@23@$00@23@V?$allocator@U?$__value_type@V?$basic_string@DU?$char_traits@D@__Cr@std@@V?$allocator@D@23@@__Cr@std@@V?$map@V?$basic_string@DU?$char_traits@D@__Cr@std@@V?$allocator@D@23@@__Cr@std@@V?$vector@PBVCommandLineFlag@absl@@V?$allocator@PBVCommandLineFlag@absl@@@__Cr@std@@@23@U?$less@V?$basic_string@DU?$char_traits@D@__Cr@std@@V?$allocator@D@23@@__Cr@std@@@23@V?$allocator@U?$pair@$$CBV?$basic_string@DU?$char_traits@D@__Cr@std@@V?$allocator@D@23@@__Cr@std@@V?$vector@PBVCommandLineFlag@absl@@V?$allocator@PBVCommandLineFlag@absl@@@__Cr@std@@@23@@__Cr@std@@@23@@23@@__Cr@std@@@23@@__Cr@std@@QAEAAPAV?$__tree_node_base@PAX@12@AAPAV?$__tree_end_node@PAV?$__tree_node_base@PAX@__Cr@std@@@12@ABV?$basic_string@DU?$char_traits@D@__Cr@std@@V?$allocator@D@23@@12@@Z
    ??$__find_equal@V?$basic_string@DU?$char_traits@D@__Cr@std@@V?$allocator@D@23@@__Cr@std@@@?$__tree@U?$__value_type@V?$basic_string@DU?$char_traits@D@__Cr@std@@V?$allocator@D@23@@__Cr@std@@V?$vector@PBVCommandLineFlag@absl@@V?$allocator@PBVCommandLineFlag@absl@@@__Cr@std@@@23@@__Cr@std@@V?$__map_value_compare@V?$basic_string@DU?$char_traits@D@__Cr@std@@V?$allocator@D@23@@__Cr@std@@U?$__value_type@V?$basic_string@DU?$char_traits@D@__Cr@std@@V?$allocator@D@23@@__Cr@std@@V?$vector@PBVCommandLineFlag@absl@@V?$allocator@PBVCommandLineFlag@absl@@@__Cr@std@@@23@@23@U?$less@V?$basic_string@DU?$char_traits@D@__Cr@std@@V?$allocator@D@23@@__Cr@std@@@23@$00@23@V?$allocator@U?$__value_type@V?$basic_string@DU?$char_traits@D@__Cr@std@@V?$allocator@D@23@@__Cr@std@@V?$vector@PBVCommandLineFlag@absl@@V?$allocator@PBVCommandLineFlag@absl@@@__Cr@std@@@23@@__Cr@std@@@23@@__Cr@std@@QAEAAPAV?$__tree_node_base@PAX@12@AAPAV?$__tree_end_node@PAV?$__tree_node_base@PAX@__Cr@std@@@12@ABV?$basic_string@DU?$char_traits@D@__Cr@std@@V?$allocator@D@23@@12@@Z
    ??$__for_each_segment@V?$__deque_iterator@UPrefixCrc@CrcCordState@crc_internal@absl@@PBU1234@ABU1234@PBQBU1234@H$0A@@__Cr@std@@U?$_CopySegment@V?$__deque_iterator@UPrefixCrc@CrcCordState@crc_internal@absl@@PBU1234@ABU1234@PBQBU1234@H$0A@@__Cr@std@@V?$__deque_iterator@UPrefixCrc@CrcCordState@crc_internal@absl@@PAU1234@AAU1234@PAPAU1234@H$0A@@23@@__copy_impl@23@@__Cr@std@@YAXV?$__deque_iterator@UPrefixCrc@CrcCordState@crc_internal@absl@@PBU1234@ABU1234@PBQBU1234@H$0A@@01@0U?$_CopySegment@V?$__deque_iterator@UPrefixCrc@CrcCordState@crc_internal@absl@@PBU1234@ABU1234@PBQBU1234@H$0A@@__Cr@std@@V?$__deque_iterator@UPrefixCrc@CrcCordState@crc_internal@absl@@PAU1234@AAU1234@PAPAU1234@H$0A@@23@@__copy_impl@01@@Z
    ??$__get_alt@$00AAV?$__base@$0A@V?$variant@_K_JIH_N@__Cr@std@@V?$variant@_K_JN@23@V?$Span@$$CBD@absl@@V?$variant@IHM@23@@__variant_detail@__Cr@std@@@__base@__access@__variant_detail@__Cr@std@@SA$$QA_PAAV?$__base@$0A@V?$variant@_K_JIH_N@__Cr@std@@V?$variant@_K_JN@23@V?$Span@$$CBD@absl@@V?$variant@IHM@23@@234@@Z
    ??$__get_alt@$01AAV?$__base@$0A@V?$variant@_K_JIH_N@__Cr@std@@V?$variant@_K_JN@23@V?$Span@$$CBD@absl@@V?$variant@IHM@23@@__variant_detail@__Cr@std@@@__base@__access@__variant_detail@__Cr@std@@SA$$QA_PAAV?$__base@$0A@V?$variant@_K_JIH_N@__Cr@std@@V?$variant@_K_JN@23@V?$Span@$$CBD@absl@@V?$variant@IHM@23@@234@@Z
    ??$__get_alt@$02AAV?$__base@$0A@V?$variant@_K_JIH_N@__Cr@std@@V?$variant@_K_JN@23@V?$Span@$$CBD@absl@@V?$variant@IHM@23@@__variant_detail@__Cr@std@@@__base@__access@__variant_detail@__Cr@std@@SA$$QA_PAAV?$__base@$0A@V?$variant@_K_JIH_N@__Cr@std@@V?$variant@_K_JN@23@V?$Span@$$CBD@absl@@V?$variant@IHM@23@@234@@Z
    ??$__get_alt@$0A@AAV?$__base@$0A@V?$variant@_K_JIH_N@__Cr@std@@V?$variant@_K_JN@23@V?$Span@$$CBD@absl@@V?$variant@IHM@23@@__variant_detail@__Cr@std@@@__base@__access@__variant_detail@__Cr@std@@SA$$QA_PAAV?$__base@$0A@V?$variant@_K_JIH_N@__Cr@std@@V?$variant@_K_JN@23@V?$Span@$$CBD@absl@@V?$variant@IHM@23@@234@@Z
    ??$__get_alt@AAT?$__union@$0A@$00V?$variant@_K_JN@__Cr@std@@V?$Span@$$CBD@absl@@V?$variant@IHM@23@@__variant_detail@__Cr@std@@$00@__union@__access@__variant_detail@__Cr@std@@SA$$QA_PAAT?$__union@$0A@$00V?$variant@_K_JN@__Cr@std@@V?$Span@$$CBD@absl@@V?$variant@IHM@23@@234@U?$in_place_index_t@$00@34@@Z
    ??$__get_alt@AAT?$__union@$0A@$00V?$variant@_K_JN@__Cr@std@@V?$Span@$$CBD@absl@@V?$variant@IHM@23@@__variant_detail@__Cr@std@@$01@__union@__access@__variant_detail@__Cr@std@@SA$$QA_PAAT?$__union@$0A@$00V?$variant@_K_JN@__Cr@std@@V?$Span@$$CBD@absl@@V?$variant@IHM@23@@234@U?$in_place_index_t@$01@34@@Z
    ??$__get_alt@AAT?$__union@$0A@$00V?$variant@_K_JN@__Cr@std@@V?$Span@$$CBD@absl@@V?$variant@IHM@23@@__variant_detail@__Cr@std@@@__union@__access@__variant_detail@__Cr@std@@SA$$QA_PAAT?$__union@$0A@$00V?$variant@_K_JN@__Cr@std@@V?$Span@$$CBD@absl@@V?$variant@IHM@23@@234@U?$in_place_index_t@$0A@@34@@Z
    ??$__get_alt@AAT?$__union@$0A@$01V?$Span@$$CBD@absl@@V?$variant@IHM@__Cr@std@@@__variant_detail@__Cr@std@@$00@__union@__access@__variant_detail@__Cr@std@@SA$$QA_PAAT?$__union@$0A@$01V?$Span@$$CBD@absl@@V?$variant@IHM@__Cr@std@@@234@U?$in_place_index_t@$00@34@@Z
    ??$__get_alt@AAT?$__union@$0A@$01V?$Span@$$CBD@absl@@V?$variant@IHM@__Cr@std@@@__variant_detail@__Cr@std@@@__union@__access@__variant_detail@__Cr@std@@SA$$QA_PAAT?$__union@$0A@$01V?$Span@$$CBD@absl@@V?$variant@IHM@__Cr@std@@@234@U?$in_place_index_t@$0A@@34@@Z
    ??$__get_alt@AAT?$__union@$0A@$0A@V?$variant@_K_JIH_N@__Cr@std@@V?$variant@_K_JN@23@V?$Span@$$CBD@absl@@V?$variant@IHM@23@@__variant_detail@__Cr@std@@$00@__union@__access@__variant_detail@__Cr@std@@SA$$QA_PAAT?$__union@$0A@$0A@V?$variant@_K_JIH_N@__Cr@std@@V?$variant@_K_JN@23@V?$Span@$$CBD@absl@@V?$variant@IHM@23@@234@U?$in_place_index_t@$00@34@@Z
    ??$__get_alt@AAT?$__union@$0A@$0A@V?$variant@_K_JIH_N@__Cr@std@@V?$variant@_K_JN@23@V?$Span@$$CBD@absl@@V?$variant@IHM@23@@__variant_detail@__Cr@std@@$01@__union@__access@__variant_detail@__Cr@std@@SA$$QA_PAAT?$__union@$0A@$0A@V?$variant@_K_JIH_N@__Cr@std@@V?$variant@_K_JN@23@V?$Span@$$CBD@absl@@V?$variant@IHM@23@@234@U?$in_place_index_t@$01@34@@Z
    ??$__get_alt@AAT?$__union@$0A@$0A@V?$variant@_K_JIH_N@__Cr@std@@V?$variant@_K_JN@23@V?$Span@$$CBD@absl@@V?$variant@IHM@23@@__variant_detail@__Cr@std@@$02@__union@__access@__variant_detail@__Cr@std@@SA$$QA_PAAT?$__union@$0A@$0A@V?$variant@_K_JIH_N@__Cr@std@@V?$variant@_K_JN@23@V?$Span@$$CBD@absl@@V?$variant@IHM@23@@234@U?$in_place_index_t@$02@34@@Z
    ??$__get_alt@AAT?$__union@$0A@$0A@V?$variant@_K_JIH_N@__Cr@std@@V?$variant@_K_JN@23@V?$Span@$$CBD@absl@@V?$variant@IHM@23@@__variant_detail@__Cr@std@@@__union@__access@__variant_detail@__Cr@std@@SA$$QA_PAAT?$__union@$0A@$0A@V?$variant@_K_JIH_N@__Cr@std@@V?$variant@_K_JN@23@V?$Span@$$CBD@absl@@V?$variant@IHM@23@@234@U?$in_place_index_t@$0A@@34@@Z
    ??$__in_bounds@V?$__bucket_list_deallocator@V?$allocator@PAU?$__hash_node_base@PAU?$__hash_node@PBUCordRep@cord_internal@absl@@PAX@__Cr@std@@@__Cr@std@@@__Cr@std@@@__Cr@std@@PAU?$__hash_node_base@PAU?$__hash_node@PBUCordRep@cord_internal@absl@@PAX@__Cr@std@@@23@$0A@@__unique_ptr_array_bounds_stateless@__Cr@std@@QBE_NPAPAU?$__hash_node_base@PAU?$__hash_node@PBUCordRep@cord_internal@absl@@PAX@__Cr@std@@@12@I@Z
    ??$__in_bounds@V?$__bucket_list_deallocator@V?$allocator@PAU?$__hash_node_base@PAU?$__hash_node@U?$__hash_value_type@V?$basic_string@DU?$char_traits@D@__Cr@std@@V?$allocator@D@23@@__Cr@std@@PBVImpl@time_zone@cctz@time_internal@absl@@@__Cr@std@@PAX@__Cr@std@@@__Cr@std@@@__Cr@std@@@__Cr@std@@PAU?$__hash_node_base@PAU?$__hash_node@U?$__hash_value_type@V?$basic_string@DU?$char_traits@D@__Cr@std@@V?$allocator@D@23@@__Cr@std@@PBVImpl@time_zone@cctz@time_internal@absl@@@__Cr@std@@PAX@__Cr@std@@@23@$0A@@__unique_ptr_array_bounds_stateless@__Cr@std@@QBE_NPAPAU?$__hash_node_base@PAU?$__hash_node@U?$__hash_value_type@V?$basic_string@DU?$char_traits@D@__Cr@std@@V?$allocator@D@23@@__Cr@std@@PBVImpl@time_zone@cctz@time_internal@absl@@@__Cr@std@@PAX@__Cr@std@@@12@I@Z
    ??$__insert_assign_n_unchecked@V?$__wrap_iter@PAUraw_view@?1???R?$ConvertToContainer@V?$vector@V?$basic_string_view@DU?$char_traits@D@__Cr@std@@@__Cr@std@@V?$allocator@V?$basic_string_view@DU?$char_traits@D@__Cr@std@@@__Cr@std@@@23@@__Cr@std@@V?$basic_string_view@DU?$char_traits@D@__Cr@std@@@23@$0A@@?$Splitter@VByChar@absl@@UAllowEmpty@2@V?$basic_string_view@DU?$char_traits@D@__Cr@std@@@__Cr@std@@@strings_internal@absl@@QBE?AV?$vector@V?$basic_string_view@DU?$char_traits@D@__Cr@std@@@__Cr@std@@V?$allocator@V?$basic_string_view@DU?$char_traits@D@__Cr@std@@@__Cr@std@@@23@@__Cr@std@@ABV345@@Z@@__Cr@std@@$0A@@?$vector@V?$basic_string_view@DU?$char_traits@D@__Cr@std@@@__Cr@std@@V?$allocator@V?$basic_string_view@DU?$char_traits@D@__Cr@std@@@__Cr@std@@@23@@__Cr@std@@AAEXV?$__wrap_iter@PAUraw_view@?1???R?$ConvertToContainer@V?$vector@V?$basic_string_view@DU?$char_traits@D@__Cr@std@@@__Cr@std@@V?$allocator@V?$basic_string_view@DU?$char_traits@D@__Cr@std@@@__Cr@std@@@23@@__Cr@std@@V?$basic_string_view@DU?$char_traits@D@__Cr@std@@@23@$0A@@?$Splitter@VByChar@absl@@UAllowEmpty@2@V?$basic_string_view@DU?$char_traits@D@__Cr@std@@@__Cr@std@@@strings_internal@absl@@QBE?AV?$vector@V?$basic_string_view@DU?$char_traits@D@__Cr@std@@@__Cr@std@@V?$allocator@V?$basic_string_view@DU?$char_traits@D@__Cr@std@@@__Cr@std@@@23@@__Cr@std@@ABV345@@Z@@12@HPAV?$basic_string_view@DU?$char_traits@D@__Cr@std@@@12@@Z
    ??$__insert_with_size@V?$__wrap_iter@PAUraw_view@?1???R?$ConvertToContainer@V?$vector@V?$basic_string_view@DU?$char_traits@D@__Cr@std@@@__Cr@std@@V?$allocator@V?$basic_string_view@DU?$char_traits@D@__Cr@std@@@__Cr@std@@@23@@__Cr@std@@V?$basic_string_view@DU?$char_traits@D@__Cr@std@@@23@$0A@@?$Splitter@VByChar@absl@@UAllowEmpty@2@V?$basic_string_view@DU?$char_traits@D@__Cr@std@@@__Cr@std@@@strings_internal@absl@@QBE?AV?$vector@V?$basic_string_view@DU?$char_traits@D@__Cr@std@@@__Cr@std@@V?$allocator@V?$basic_string_view@DU?$char_traits@D@__Cr@std@@@__Cr@std@@@23@@__Cr@std@@ABV345@@Z@@__Cr@std@@V123@@?$vector@V?$basic_string_view@DU?$char_traits@D@__Cr@std@@@__Cr@std@@V?$allocator@V?$basic_string_view@DU?$char_traits@D@__Cr@std@@@__Cr@std@@@23@@__Cr@std@@AAE?AV?$__wrap_iter@PAV?$basic_string_view@DU?$char_traits@D@__Cr@std@@@__Cr@std@@@12@V?$__wrap_iter@PBV?$basic_string_view@DU?$char_traits@D@__Cr@std@@@__Cr@std@@@12@V?$__wrap_iter@PAUraw_view@?1???R?$ConvertToContainer@V?$vector@V?$basic_string_view@DU?$char_traits@D@__Cr@std@@@__Cr@std@@V?$allocator@V?$basic_string_view@DU?$char_traits@D@__Cr@std@@@__Cr@std@@@23@@__Cr@std@@V?$basic_string_view@DU?$char_traits@D@__Cr@std@@@23@$0A@@?$Splitter@VByChar@absl@@UAllowEmpty@2@V?$basic_string_view@DU?$char_traits@D@__Cr@std@@@__Cr@std@@@strings_internal@absl@@QBE?AV?$vector@V?$basic_string_view@DU?$char_traits@D@__Cr@std@@@__Cr@std@@V?$allocator@V?$basic_string_view@DU?$char_traits@D@__Cr@std@@@__Cr@std@@@23@@__Cr@std@@ABV345@@Z@@12@1H@Z
    ??$__invoke@AAUByCivilTime@Transition@cctz@time_internal@absl@@ABU2345@ABU2345@@__Cr@std@@YA_NAAUByCivilTime@Transition@cctz@time_internal@absl@@ABU3456@1@Z
    ??$__invoke@AAUByUnixTime@Transition@cctz@time_internal@absl@@ABU2345@ABU2345@@__Cr@std@@YA_NAAUByUnixTime@Transition@cctz@time_internal@absl@@ABU3456@1@Z
    ??$__invoke@AAU__identity@__Cr@std@@AAPAVLogSink@absl@@@__Cr@std@@YAAAPAVLogSink@absl@@AAU__identity@01@AAPAV23@@Z
    ??$__invoke@AAU__identity@__Cr@std@@AAPBVCommandLineFlag@absl@@@__Cr@std@@YAAAPBVCommandLineFlag@absl@@AAU__identity@01@AAPBV23@@Z
    ??$__invoke@AAU__identity@__Cr@std@@ABUTransition@cctz@time_internal@absl@@@__Cr@std@@YAABUTransition@cctz@time_internal@absl@@AAU__identity@01@ABU2345@@Z
    ??$__invoke@AAV<lambda_1>@?0??SaveFromRegistry@FlagSaverImpl@flags_internal@absl@@QAEXXZ@AAVCommandLineFlag@5@@__Cr@std@@YAXAAV<lambda_1>@?0??SaveFromRegistry@FlagSaverImpl@flags_internal@absl@@QAEXXZ@AAVCommandLineFlag@6@@Z
    ??$__invoke@P8FlagImpl@flags_internal@absl@@AEXXZPAV123@$$VX@__Cr@std@@YAX$$QAP8FlagImpl@flags_internal@absl@@AEXXZ$$QAPAV234@@Z
    ??$__invoke@U?$__value_visitor@UBufferSizeVisitor@?1??BufferSizeForStructuredProtoField@log_internal@absl@@YAIUStructuredProtoField@34@@Z@@__variant@__visitation@__variant_detail@__Cr@std@@AAU?$__alt@$00V?$variant@_K_JN@__Cr@std@@@456@@__Cr@std@@YAI$$QAU?$__value_visitor@UBufferSizeVisitor@?1??BufferSizeForStructuredProtoField@log_internal@absl@@YAIUStructuredProtoField@34@@Z@@__variant@__visitation@__variant_detail@01@AAU?$__alt@$00V?$variant@_K_JN@__Cr@std@@@501@@Z
    ??$__invoke@U?$__value_visitor@UBufferSizeVisitor@?1??BufferSizeForStructuredProtoField@log_internal@absl@@YAIUStructuredProtoField@34@@Z@@__variant@__visitation@__variant_detail@__Cr@std@@AAU?$__alt@$01V?$Span@$$CBD@absl@@@456@@__Cr@std@@YAI$$QAU?$__value_visitor@UBufferSizeVisitor@?1??BufferSizeForStructuredProtoField@log_internal@absl@@YAIUStructuredProtoField@34@@Z@@__variant@__visitation@__variant_detail@01@AAU?$__alt@$01V?$Span@$$CBD@absl@@@501@@Z
    ??$__invoke@U?$__value_visitor@UBufferSizeVisitor@?1??BufferSizeForStructuredProtoField@log_internal@absl@@YAIUStructuredProtoField@34@@Z@@__variant@__visitation@__variant_detail@__Cr@std@@AAU?$__alt@$02V?$variant@IHM@__Cr@std@@@456@@__Cr@std@@YAI$$QAU?$__value_visitor@UBufferSizeVisitor@?1??BufferSizeForStructuredProtoField@log_internal@absl@@YAIUStructuredProtoField@34@@Z@@__variant@__visitation@__variant_detail@01@AAU?$__alt@$02V?$variant@IHM@__Cr@std@@@501@@Z
    ??$__invoke@U?$__value_visitor@UBufferSizeVisitor@?1??BufferSizeForStructuredProtoField@log_internal@absl@@YAIUStructuredProtoField@34@@Z@@__variant@__visitation@__variant_detail@__Cr@std@@AAU?$__alt@$0A@V?$variant@_K_JIH_N@__Cr@std@@@456@@__Cr@std@@YAI$$QAU?$__value_visitor@UBufferSizeVisitor@?1??BufferSizeForStructuredProtoField@log_internal@absl@@YAIUStructuredProtoField@34@@Z@@__variant@__visitation@__variant_detail@01@AAU?$__alt@$0A@V?$variant@_K_JIH_N@__Cr@std@@@501@@Z
    ??$__invoke@UBufferSizeVisitor@?1??BufferSizeForStructuredProtoField@log_internal@absl@@YAIUStructuredProtoField@34@@Z@AAV?$Span@$$CBD@4@@__Cr@std@@YAI$$QAUBufferSizeVisitor@?1??BufferSizeForStructuredProtoField@log_internal@absl@@YAIUStructuredProtoField@45@@Z@AAV?$Span@$$CBD@5@@Z
    ??$__invoke@UBufferSizeVisitor@?1??BufferSizeForStructuredProtoField@log_internal@absl@@YAIUStructuredProtoField@34@@Z@AAV?$variant@IHM@__Cr@std@@@__Cr@std@@YAI$$QAUBufferSizeVisitor@?1??BufferSizeForStructuredProtoField@log_internal@absl@@YAIUStructuredProtoField@45@@Z@AAV?$variant@IHM@01@@Z
    ??$__invoke@UBufferSizeVisitor@?1??BufferSizeForStructuredProtoField@log_internal@absl@@YAIUStructuredProtoField@34@@Z@AAV?$variant@_K_JIH_N@__Cr@std@@@__Cr@std@@YAI$$QAUBufferSizeVisitor@?1??BufferSizeForStructuredProtoField@log_internal@absl@@YAIUStructuredProtoField@45@@Z@AAV?$variant@_K_JIH_N@01@@Z
    ??$__invoke@UBufferSizeVisitor@?1??BufferSizeForStructuredProtoField@log_internal@absl@@YAIUStructuredProtoField@34@@Z@AAV?$variant@_K_JN@__Cr@std@@@__Cr@std@@YAI$$QAUBufferSizeVisitor@?1??BufferSizeForStructuredProtoField@log_internal@absl@@YAIUStructuredProtoField@45@@Z@AAV?$variant@_K_JN@01@@Z
    ??$__invoke_r@XAAV<lambda_1>@?0??SaveFromRegistry@FlagSaverImpl@flags_internal@absl@@QAEXXZ@AAVCommandLineFlag@5@@__Cr@std@@YAXAAV<lambda_1>@?0??SaveFromRegistry@FlagSaverImpl@flags_internal@absl@@QAEXXZ@AAVCommandLineFlag@6@@Z
    ??$__iter_move@AAPAPAVCommandLineFlag@absl@@$0A@@?$_IterOps@U_ClassicAlgPolicy@__Cr@std@@@__Cr@std@@SA$$QAPAVCommandLineFlag@absl@@AAPAPAV34@@Z
    ??$__iter_move@AAPAPBVCommandLineFlag@absl@@$0A@@?$_IterOps@U_ClassicAlgPolicy@__Cr@std@@@__Cr@std@@SA$$QAPBVCommandLineFlag@absl@@AAPAPBV34@@Z
    ??$__launder@$$CBU?$pair@$$CBV?$basic_string@DU?$char_traits@D@__Cr@std@@V?$allocator@D@23@@__Cr@std@@PBVImpl@time_zone@cctz@time_internal@absl@@@__Cr@std@@@__Cr@std@@YAPBU?$pair@$$CBV?$basic_string@DU?$char_traits@D@__Cr@std@@V?$allocator@D@23@@__Cr@std@@PBVImpl@time_zone@cctz@time_internal@absl@@@01@PBU201@@Z
    ??$__launder@$$CBU?$pair@$$CBV?$basic_string@DU?$char_traits@D@__Cr@std@@V?$allocator@D@23@@__Cr@std@@V?$map@V?$basic_string@DU?$char_traits@D@__Cr@std@@V?$allocator@D@23@@__Cr@std@@V?$vector@PBVCommandLineFlag@absl@@V?$allocator@PBVCommandLineFlag@absl@@@__Cr@std@@@23@U?$less@V?$basic_string@DU?$char_traits@D@__Cr@std@@V?$allocator@D@23@@__Cr@std@@@23@V?$allocator@U?$pair@$$CBV?$basic_string@DU?$char_traits@D@__Cr@std@@V?$allocator@D@23@@__Cr@std@@V?$vector@PBVCommandLineFlag@absl@@V?$allocator@PBVCommandLineFlag@absl@@@__Cr@std@@@23@@__Cr@std@@@23@@23@@__Cr@std@@@__Cr@std@@YAPBU?$pair@$$CBV?$basic_string@DU?$char_traits@D@__Cr@std@@V?$allocator@D@23@@__Cr@std@@V?$map@V?$basic_string@DU?$char_traits@D@__Cr@std@@V?$allocator@D@23@@__Cr@std@@V?$vector@PBVCommandLineFlag@absl@@V?$allocator@PBVCommandLineFlag@absl@@@__Cr@std@@@23@U?$less@V?$basic_string@DU?$char_traits@D@__Cr@std@@V?$allocator@D@23@@__Cr@std@@@23@V?$allocator@U?$pair@$$CBV?$basic_string@DU?$char_traits@D@__Cr@std@@V?$allocator@D@23@@__Cr@std@@V?$vector@PBVCommandLineFlag@absl@@V?$allocator@PBVCommandLineFlag@absl@@@__Cr@std@@@23@@__Cr@std@@@23@@23@@01@PBU201@@Z
    ??$__launder@$$CBU?$pair@$$CBV?$basic_string@DU?$char_traits@D@__Cr@std@@V?$allocator@D@23@@__Cr@std@@V?$vector@PBVCommandLineFlag@absl@@V?$allocator@PBVCommandLineFlag@absl@@@__Cr@std@@@23@@__Cr@std@@@__Cr@std@@YAPBU?$pair@$$CBV?$basic_string@DU?$char_traits@D@__Cr@std@@V?$allocator@D@23@@__Cr@std@@V?$vector@PBVCommandLineFlag@absl@@V?$allocator@PBVCommandLineFlag@absl@@@__Cr@std@@@23@@01@PBU201@@Z
    ??$__launder@U?$pair@$$CBV?$basic_string@DU?$char_traits@D@__Cr@std@@V?$allocator@D@23@@__Cr@std@@PBVImpl@time_zone@cctz@time_internal@absl@@@__Cr@std@@@__Cr@std@@YAPAU?$pair@$$CBV?$basic_string@DU?$char_traits@D@__Cr@std@@V?$allocator@D@23@@__Cr@std@@PBVImpl@time_zone@cctz@time_internal@absl@@@01@PAU201@@Z
    ??$__launder@U?$pair@$$CBV?$basic_string@DU?$char_traits@D@__Cr@std@@V?$allocator@D@23@@__Cr@std@@V?$map@V?$basic_string@DU?$char_traits@D@__Cr@std@@V?$allocator@D@23@@__Cr@std@@V?$vector@PBVCommandLineFlag@absl@@V?$allocator@PBVCommandLineFlag@absl@@@__Cr@std@@@23@U?$less@V?$basic_string@DU?$char_traits@D@__Cr@std@@V?$allocator@D@23@@__Cr@std@@@23@V?$allocator@U?$pair@$$CBV?$basic_string@DU?$char_traits@D@__Cr@std@@V?$allocator@D@23@@__Cr@std@@V?$vector@PBVCommandLineFlag@absl@@V?$allocator@PBVCommandLineFlag@absl@@@__Cr@std@@@23@@__Cr@std@@@23@@23@@__Cr@std@@@__Cr@std@@YAPAU?$pair@$$CBV?$basic_string@DU?$char_traits@D@__Cr@std@@V?$allocator@D@23@@__Cr@std@@V?$map@V?$basic_string@DU?$char_traits@D@__Cr@std@@V?$allocator@D@23@@__Cr@std@@V?$vector@PBVCommandLineFlag@absl@@V?$allocator@PBVCommandLineFlag@absl@@@__Cr@std@@@23@U?$less@V?$basic_string@DU?$char_traits@D@__Cr@std@@V?$allocator@D@23@@__Cr@std@@@23@V?$allocator@U?$pair@$$CBV?$basic_string@DU?$char_traits@D@__Cr@std@@V?$allocator@D@23@@__Cr@std@@V?$vector@PBVCommandLineFlag@absl@@V?$allocator@PBVCommandLineFlag@absl@@@__Cr@std@@@23@@__Cr@std@@@23@@23@@01@PAU201@@Z
    ??$__launder@U?$pair@$$CBV?$basic_string@DU?$char_traits@D@__Cr@std@@V?$allocator@D@23@@__Cr@std@@V?$vector@PBVCommandLineFlag@absl@@V?$allocator@PBVCommandLineFlag@absl@@@__Cr@std@@@23@@__Cr@std@@@__Cr@std@@YAPAU?$pair@$$CBV?$basic_string@DU?$char_traits@D@__Cr@std@@V?$allocator@D@23@@__Cr@std@@V?$vector@PBVCommandLineFlag@absl@@V?$allocator@PBVCommandLineFlag@absl@@@__Cr@std@@@23@@01@PAU201@@Z
    ??$__launder@U?$pair@$$CBV?$basic_string_view@DU?$char_traits@D@__Cr@std@@@__Cr@std@@PAVCommandLineFlag@absl@@@__Cr@std@@@__Cr@std@@YAPAU?$pair@$$CBV?$basic_string_view@DU?$char_traits@D@__Cr@std@@@__Cr@std@@PAVCommandLineFlag@absl@@@01@PAU201@@Z
    ??$__launder@URefcountedRep@CrcCordState@crc_internal@absl@@@__Cr@std@@YAPAURefcountedRep@CrcCordState@crc_internal@absl@@PAU2345@@Z
    ??$__launder@V?$SampleRecorder@UHashtablezInfo@container_internal@absl@@@profiling_internal@absl@@@__Cr@std@@YAPAV?$SampleRecorder@UHashtablezInfo@container_internal@absl@@@profiling_internal@absl@@PAV234@@Z
    ??$__launder@VFlagRegistry@flags_internal@absl@@@__Cr@std@@YAPAVFlagRegistry@flags_internal@absl@@PAV234@@Z
    ??$__launder@VMutex@absl@@@__Cr@std@@YAPAVMutex@absl@@PAV23@@Z
    ??$__libcpp_allocate@PAPBVImpl@time_zone@cctz@time_internal@absl@@@__Cr@std@@YAPAPAPBVImpl@time_zone@cctz@time_internal@absl@@W4__element_count@01@I@Z
    ??$__libcpp_allocate@PAU?$__hash_node_base@PAU?$__hash_node@PBUCordRep@cord_internal@absl@@PAX@__Cr@std@@@__Cr@std@@@__Cr@std@@YAPAPAU?$__hash_node_base@PAU?$__hash_node@PBUCordRep@cord_internal@absl@@PAX@__Cr@std@@@01@W4__element_count@01@I@Z
    ??$__libcpp_allocate@PAU?$__hash_node_base@PAU?$__hash_node@U?$__hash_value_type@V?$basic_string@DU?$char_traits@D@__Cr@std@@V?$allocator@D@23@@__Cr@std@@PBVImpl@time_zone@cctz@time_internal@absl@@@__Cr@std@@PAX@__Cr@std@@@__Cr@std@@@__Cr@std@@YAPAPAU?$__hash_node_base@PAU?$__hash_node@U?$__hash_value_type@V?$basic_string@DU?$char_traits@D@__Cr@std@@V?$allocator@D@23@@__Cr@std@@PBVImpl@time_zone@cctz@time_internal@absl@@@__Cr@std@@PAX@__Cr@std@@@01@W4__element_count@01@I@Z
    ??$__libcpp_allocate@PAUCordRep@cord_internal@absl@@@__Cr@std@@YAPAPAUCordRep@cord_internal@absl@@W4__element_count@01@I@Z
    ??$__libcpp_allocate@PAUPrefixCrc@CrcCordState@crc_internal@absl@@@__Cr@std@@YAPAPAUPrefixCrc@CrcCordState@crc_internal@absl@@W4__element_count@01@I@Z
    ??$__libcpp_allocate@PAVCommandLineFlag@absl@@@__Cr@std@@YAPAPAVCommandLineFlag@absl@@W4__element_count@01@I@Z
    ??$__libcpp_allocate@PAVCordzHandle@cord_internal@absl@@@__Cr@std@@YAPAPAVCordzHandle@cord_internal@absl@@W4__element_count@01@I@Z
    ??$__libcpp_allocate@PAVLogSink@absl@@@__Cr@std@@YAPAPAVLogSink@absl@@W4__element_count@01@I@Z
    ??$__libcpp_allocate@PBVCommandLineFlag@absl@@@__Cr@std@@YAPAPBVCommandLineFlag@absl@@W4__element_count@01@I@Z
    ??$__libcpp_allocate@PBVCordzHandle@cord_internal@absl@@@__Cr@std@@YAPAPBVCordzHandle@cord_internal@absl@@W4__element_count@01@I@Z
    ??$__libcpp_allocate@PBVImpl@time_zone@cctz@time_internal@absl@@@__Cr@std@@YAPAPBVImpl@time_zone@cctz@time_internal@absl@@W4__element_count@01@I@Z
    ??$__libcpp_allocate@U?$AlignedType@$03@container_internal@absl@@@__Cr@std@@YAPAU?$AlignedType@$03@container_internal@absl@@W4__element_count@01@I@Z
    ??$__libcpp_allocate@U?$__hash_node@PBUCordRep@cord_internal@absl@@PAX@__Cr@std@@@__Cr@std@@YAPAU?$__hash_node@PBUCordRep@cord_internal@absl@@PAX@01@W4__element_count@01@I@Z
    ??$__libcpp_allocate@U?$__hash_node@U?$__hash_value_type@V?$basic_string@DU?$char_traits@D@__Cr@std@@V?$allocator@D@23@@__Cr@std@@PBVImpl@time_zone@cctz@time_internal@absl@@@__Cr@std@@PAX@__Cr@std@@@__Cr@std@@YAPAU?$__hash_node@U?$__hash_value_type@V?$basic_string@DU?$char_traits@D@__Cr@std@@V?$allocator@D@23@@__Cr@std@@PBVImpl@time_zone@cctz@time_internal@absl@@@__Cr@std@@PAX@01@W4__element_count@01@I@Z
    ??$__libcpp_allocate@UAlignedSpace@?1???$FlagOps@V?$vector@V?$basic_string@DU?$char_traits@D@__Cr@std@@V?$allocator@D@23@@__Cr@std@@V?$allocator@V?$basic_string@DU?$char_traits@D@__Cr@std@@V?$allocator@D@23@@__Cr@std@@@23@@__Cr@std@@@flags_internal@absl@@YAPAXW4FlagOp@23@PBXPAX2@Z@@__Cr@std@@YAPAUAlignedSpace@?1???$FlagOps@V?$vector@V?$basic_string@DU?$char_traits@D@__Cr@std@@V?$allocator@D@23@@__Cr@std@@V?$allocator@V?$basic_string@DU?$char_traits@D@__Cr@std@@V?$allocator@D@23@@__Cr@std@@@23@@__Cr@std@@@flags_internal@absl@@YAPAXW4FlagOp@34@PBXPAX2@Z@W4__element_count@01@I@Z
    ??$__libcpp_allocate@UConversionItem@ParsedFormatBase@str_format_internal@absl@@@__Cr@std@@YAPAUConversionItem@ParsedFormatBase@str_format_internal@absl@@W4__element_count@01@I@Z
    ??$__libcpp_allocate@UPayload@status_internal@absl@@@__Cr@std@@YAPAUPayload@status_internal@absl@@W4__element_count@01@I@Z
    ??$__libcpp_allocate@UPrefixCrc@CrcCordState@crc_internal@absl@@@__Cr@std@@YAPAUPrefixCrc@CrcCordState@crc_internal@absl@@W4__element_count@01@I@Z
    ??$__libcpp_allocate@UTransition@cctz@time_internal@absl@@@__Cr@std@@YAPAUTransition@cctz@time_internal@absl@@W4__element_count@01@I@Z
    ??$__libcpp_allocate@UTransitionType@cctz@time_internal@absl@@@__Cr@std@@YAPAUTransitionType@cctz@time_internal@absl@@W4__element_count@01@I@Z
    ??$__libcpp_allocate@UUnrecognizedFlag@absl@@@__Cr@std@@YAPAUUnrecognizedFlag@absl@@W4__element_count@01@I@Z
    ??$__libcpp_allocate@UViableSubstitution@strings_internal@absl@@@__Cr@std@@YAPAUViableSubstitution@strings_internal@absl@@W4__element_count@01@I@Z
    ??$__libcpp_allocate@V?$__tree_node@U?$__value_type@V?$basic_string@DU?$char_traits@D@__Cr@std@@V?$allocator@D@23@@__Cr@std@@V?$map@V?$basic_string@DU?$char_traits@D@__Cr@std@@V?$allocator@D@23@@__Cr@std@@V?$vector@PBVCommandLineFlag@absl@@V?$allocator@PBVCommandLineFlag@absl@@@__Cr@std@@@23@U?$less@V?$basic_string@DU?$char_traits@D@__Cr@std@@V?$allocator@D@23@@__Cr@std@@@23@V?$allocator@U?$pair@$$CBV?$basic_string@DU?$char_traits@D@__Cr@std@@V?$allocator@D@23@@__Cr@std@@V?$vector@PBVCommandLineFlag@absl@@V?$allocator@PBVCommandLineFlag@absl@@@__Cr@std@@@23@@__Cr@std@@@23@@23@@__Cr@std@@PAX@__Cr@std@@@__Cr@std@@YAPAV?$__tree_node@U?$__value_type@V?$basic_string@DU?$char_traits@D@__Cr@std@@V?$allocator@D@23@@__Cr@std@@V?$map@V?$basic_string@DU?$char_traits@D@__Cr@std@@V?$allocator@D@23@@__Cr@std@@V?$vector@PBVCommandLineFlag@absl@@V?$allocator@PBVCommandLineFlag@absl@@@__Cr@std@@@23@U?$less@V?$basic_string@DU?$char_traits@D@__Cr@std@@V?$allocator@D@23@@__Cr@std@@@23@V?$allocator@U?$pair@$$CBV?$basic_string@DU?$char_traits@D@__Cr@std@@V?$allocator@D@23@@__Cr@std@@V?$vector@PBVCommandLineFlag@absl@@V?$allocator@PBVCommandLineFlag@absl@@@__Cr@std@@@23@@__Cr@std@@@23@@23@@__Cr@std@@PAX@01@W4__element_count@01@I@Z
    ??$__libcpp_allocate@V?$__tree_node@U?$__value_type@V?$basic_string@DU?$char_traits@D@__Cr@std@@V?$allocator@D@23@@__Cr@std@@V?$vector@PBVCommandLineFlag@absl@@V?$allocator@PBVCommandLineFlag@absl@@@__Cr@std@@@23@@__Cr@std@@PAX@__Cr@std@@@__Cr@std@@YAPAV?$__tree_node@U?$__value_type@V?$basic_string@DU?$char_traits@D@__Cr@std@@V?$allocator@D@23@@__Cr@std@@V?$vector@PBVCommandLineFlag@absl@@V?$allocator@PBVCommandLineFlag@absl@@@__Cr@std@@@23@@__Cr@std@@PAX@01@W4__element_count@01@I@Z
    ??$__libcpp_allocate@V?$unique_ptr@VFlagStateInterface@flags_internal@absl@@U?$default_delete@VFlagStateInterface@flags_internal@absl@@@__Cr@std@@@__Cr@std@@@__Cr@std@@YAPAV?$unique_ptr@VFlagStateInterface@flags_internal@absl@@U?$default_delete@VFlagStateInterface@flags_internal@absl@@@__Cr@std@@@01@W4__element_count@01@I@Z
    ??$__libcpp_allocate@VFormatArgImpl@str_format_internal@absl@@@__Cr@std@@YAPAVFormatArgImpl@str_format_internal@absl@@W4__element_count@01@I@Z
    ??$__libcpp_deallocate@PAPBVImpl@time_zone@cctz@time_internal@absl@@@__Cr@std@@YAXPAPAPBVImpl@time_zone@cctz@time_internal@absl@@W4__element_count@01@I@Z
    ??$__libcpp_deallocate@PAU?$__hash_node_base@PAU?$__hash_node@PBUCordRep@cord_internal@absl@@PAX@__Cr@std@@@__Cr@std@@@__Cr@std@@YAXPAPAU?$__hash_node_base@PAU?$__hash_node@PBUCordRep@cord_internal@absl@@PAX@__Cr@std@@@01@W4__element_count@01@I@Z
    ??$__libcpp_deallocate@PAU?$__hash_node_base@PAU?$__hash_node@U?$__hash_value_type@V?$basic_string@DU?$char_traits@D@__Cr@std@@V?$allocator@D@23@@__Cr@std@@PBVImpl@time_zone@cctz@time_internal@absl@@@__Cr@std@@PAX@__Cr@std@@@__Cr@std@@@__Cr@std@@YAXPAPAU?$__hash_node_base@PAU?$__hash_node@U?$__hash_value_type@V?$basic_string@DU?$char_traits@D@__Cr@std@@V?$allocator@D@23@@__Cr@std@@PBVImpl@time_zone@cctz@time_internal@absl@@@__Cr@std@@PAX@__Cr@std@@@01@W4__element_count@01@I@Z
    ??$__libcpp_deallocate@PAUCordRep@cord_internal@absl@@@__Cr@std@@YAXPAPAUCordRep@cord_internal@absl@@W4__element_count@01@I@Z
    ??$__libcpp_deallocate@PAUPrefixCrc@CrcCordState@crc_internal@absl@@@__Cr@std@@YAXPAPAUPrefixCrc@CrcCordState@crc_internal@absl@@W4__element_count@01@I@Z
    ??$__libcpp_deallocate@PAVCommandLineFlag@absl@@@__Cr@std@@YAXPAPAVCommandLineFlag@absl@@W4__element_count@01@I@Z
    ??$__libcpp_deallocate@PAVCordzHandle@cord_internal@absl@@@__Cr@std@@YAXPAPAVCordzHandle@cord_internal@absl@@W4__element_count@01@I@Z
    ??$__libcpp_deallocate@PAVLogSink@absl@@@__Cr@std@@YAXPAPAVLogSink@absl@@W4__element_count@01@I@Z
    ??$__libcpp_deallocate@PBVCommandLineFlag@absl@@@__Cr@std@@YAXPAPBVCommandLineFlag@absl@@W4__element_count@01@I@Z
    ??$__libcpp_deallocate@PBVCordzHandle@cord_internal@absl@@@__Cr@std@@YAXPAPBVCordzHandle@cord_internal@absl@@W4__element_count@01@I@Z
    ??$__libcpp_deallocate@PBVImpl@time_zone@cctz@time_internal@absl@@@__Cr@std@@YAXPAPBVImpl@time_zone@cctz@time_internal@absl@@W4__element_count@01@I@Z
    ??$__libcpp_deallocate@U?$AlignedType@$03@container_internal@absl@@@__Cr@std@@YAXPAU?$AlignedType@$03@container_internal@absl@@W4__element_count@01@I@Z
    ??$__libcpp_deallocate@U?$__hash_node@PBUCordRep@cord_internal@absl@@PAX@__Cr@std@@@__Cr@std@@YAXPAU?$__hash_node@PBUCordRep@cord_internal@absl@@PAX@01@W4__element_count@01@I@Z
    ??$__libcpp_deallocate@U?$__hash_node@U?$__hash_value_type@V?$basic_string@DU?$char_traits@D@__Cr@std@@V?$allocator@D@23@@__Cr@std@@PBVImpl@time_zone@cctz@time_internal@absl@@@__Cr@std@@PAX@__Cr@std@@@__Cr@std@@YAXPAU?$__hash_node@U?$__hash_value_type@V?$basic_string@DU?$char_traits@D@__Cr@std@@V?$allocator@D@23@@__Cr@std@@PBVImpl@time_zone@cctz@time_internal@absl@@@__Cr@std@@PAX@01@W4__element_count@01@I@Z
    ??$__libcpp_deallocate@UAlignedSpace@?1???$FlagOps@V?$vector@V?$basic_string@DU?$char_traits@D@__Cr@std@@V?$allocator@D@23@@__Cr@std@@V?$allocator@V?$basic_string@DU?$char_traits@D@__Cr@std@@V?$allocator@D@23@@__Cr@std@@@23@@__Cr@std@@@flags_internal@absl@@YAPAXW4FlagOp@23@PBXPAX2@Z@@__Cr@std@@YAXPAUAlignedSpace@?1???$FlagOps@V?$vector@V?$basic_string@DU?$char_traits@D@__Cr@std@@V?$allocator@D@23@@__Cr@std@@V?$allocator@V?$basic_string@DU?$char_traits@D@__Cr@std@@V?$allocator@D@23@@__Cr@std@@@23@@__Cr@std@@@flags_internal@absl@@YAPAXW4FlagOp@34@PBXPAX2@Z@W4__element_count@01@I@Z
    ??$__libcpp_deallocate@UConversionItem@ParsedFormatBase@str_format_internal@absl@@@__Cr@std@@YAXPAUConversionItem@ParsedFormatBase@str_format_internal@absl@@W4__element_count@01@I@Z
    ??$__libcpp_deallocate@UPayload@status_internal@absl@@@__Cr@std@@YAXPAUPayload@status_internal@absl@@W4__element_count@01@I@Z
    ??$__libcpp_deallocate@UPrefixCrc@CrcCordState@crc_internal@absl@@@__Cr@std@@YAXPAUPrefixCrc@CrcCordState@crc_internal@absl@@W4__element_count@01@I@Z
    ??$__libcpp_deallocate@UTransition@cctz@time_internal@absl@@@__Cr@std@@YAXPAUTransition@cctz@time_internal@absl@@W4__element_count@01@I@Z
    ??$__libcpp_deallocate@UTransitionType@cctz@time_internal@absl@@@__Cr@std@@YAXPAUTransitionType@cctz@time_internal@absl@@W4__element_count@01@I@Z
    ??$__libcpp_deallocate@UUnrecognizedFlag@absl@@@__Cr@std@@YAXPAUUnrecognizedFlag@absl@@W4__element_count@01@I@Z
    ??$__libcpp_deallocate@UViableSubstitution@strings_internal@absl@@@__Cr@std@@YAXPAUViableSubstitution@strings_internal@absl@@W4__element_count@01@I@Z
    ??$__libcpp_deallocate@V?$__tree_node@U?$__value_type@V?$basic_string@DU?$char_traits@D@__Cr@std@@V?$allocator@D@23@@__Cr@std@@V?$map@V?$basic_string@DU?$char_traits@D@__Cr@std@@V?$allocator@D@23@@__Cr@std@@V?$vector@PBVCommandLineFlag@absl@@V?$allocator@PBVCommandLineFlag@absl@@@__Cr@std@@@23@U?$less@V?$basic_string@DU?$char_traits@D@__Cr@std@@V?$allocator@D@23@@__Cr@std@@@23@V?$allocator@U?$pair@$$CBV?$basic_string@DU?$char_traits@D@__Cr@std@@V?$allocator@D@23@@__Cr@std@@V?$vector@PBVCommandLineFlag@absl@@V?$allocator@PBVCommandLineFlag@absl@@@__Cr@std@@@23@@__Cr@std@@@23@@23@@__Cr@std@@PAX@__Cr@std@@@__Cr@std@@YAXPAV?$__tree_node@U?$__value_type@V?$basic_string@DU?$char_traits@D@__Cr@std@@V?$allocator@D@23@@__Cr@std@@V?$map@V?$basic_string@DU?$char_traits@D@__Cr@std@@V?$allocator@D@23@@__Cr@std@@V?$vector@PBVCommandLineFlag@absl@@V?$allocator@PBVCommandLineFlag@absl@@@__Cr@std@@@23@U?$less@V?$basic_string@DU?$char_traits@D@__Cr@std@@V?$allocator@D@23@@__Cr@std@@@23@V?$allocator@U?$pair@$$CBV?$basic_string@DU?$char_traits@D@__Cr@std@@V?$allocator@D@23@@__Cr@std@@V?$vector@PBVCommandLineFlag@absl@@V?$allocator@PBVCommandLineFlag@absl@@@__Cr@std@@@23@@__Cr@std@@@23@@23@@__Cr@std@@PAX@01@W4__element_count@01@I@Z
    ??$__libcpp_deallocate@V?$__tree_node@U?$__value_type@V?$basic_string@DU?$char_traits@D@__Cr@std@@V?$allocator@D@23@@__Cr@std@@V?$vector@PBVCommandLineFlag@absl@@V?$allocator@PBVCommandLineFlag@absl@@@__Cr@std@@@23@@__Cr@std@@PAX@__Cr@std@@@__Cr@std@@YAXPAV?$__tree_node@U?$__value_type@V?$basic_string@DU?$char_traits@D@__Cr@std@@V?$allocator@D@23@@__Cr@std@@V?$vector@PBVCommandLineFlag@absl@@V?$allocator@PBVCommandLineFlag@absl@@@__Cr@std@@@23@@__Cr@std@@PAX@01@W4__element_count@01@I@Z
    ??$__libcpp_deallocate@V?$unique_ptr@VFlagStateInterface@flags_internal@absl@@U?$default_delete@VFlagStateInterface@flags_internal@absl@@@__Cr@std@@@__Cr@std@@@__Cr@std@@YAXPAV?$unique_ptr@VFlagStateInterface@flags_internal@absl@@U?$default_delete@VFlagStateInterface@flags_internal@absl@@@__Cr@std@@@01@W4__element_count@01@I@Z
    ??$__libcpp_deallocate@VFormatArgImpl@str_format_internal@absl@@@__Cr@std@@YAXPAVFormatArgImpl@str_format_internal@absl@@W4__element_count@01@I@Z
    ??$__libcpp_operator_delete@PAPAPBVImpl@time_zone@cctz@time_internal@absl@@@__Cr@std@@YAXPAPAPBVImpl@time_zone@cctz@time_internal@absl@@@Z
    ??$__libcpp_operator_delete@PAPAPBVImpl@time_zone@cctz@time_internal@absl@@W4align_val_t@std@@@__Cr@std@@YAXPAPAPBVImpl@time_zone@cctz@time_internal@absl@@W4align_val_t@1@@Z
    ??$__libcpp_operator_delete@PAPAU?$__hash_node_base@PAU?$__hash_node@PBUCordRep@cord_internal@absl@@PAX@__Cr@std@@@__Cr@std@@@__Cr@std@@YAXPAPAU?$__hash_node_base@PAU?$__hash_node@PBUCordRep@cord_internal@absl@@PAX@__Cr@std@@@01@@Z
    ??$__libcpp_operator_delete@PAPAU?$__hash_node_base@PAU?$__hash_node@PBUCordRep@cord_internal@absl@@PAX@__Cr@std@@@__Cr@std@@W4align_val_t@3@@__Cr@std@@YAXPAPAU?$__hash_node_base@PAU?$__hash_node@PBUCordRep@cord_internal@absl@@PAX@__Cr@std@@@01@W4align_val_t@1@@Z
    ??$__libcpp_operator_delete@PAPAU?$__hash_node_base@PAU?$__hash_node@U?$__hash_value_type@V?$basic_string@DU?$char_traits@D@__Cr@std@@V?$allocator@D@23@@__Cr@std@@PBVImpl@time_zone@cctz@time_internal@absl@@@__Cr@std@@PAX@__Cr@std@@@__Cr@std@@@__Cr@std@@YAXPAPAU?$__hash_node_base@PAU?$__hash_node@U?$__hash_value_type@V?$basic_string@DU?$char_traits@D@__Cr@std@@V?$allocator@D@23@@__Cr@std@@PBVImpl@time_zone@cctz@time_internal@absl@@@__Cr@std@@PAX@__Cr@std@@@01@@Z
    ??$__libcpp_operator_delete@PAPAU?$__hash_node_base@PAU?$__hash_node@U?$__hash_value_type@V?$basic_string@DU?$char_traits@D@__Cr@std@@V?$allocator@D@23@@__Cr@std@@PBVImpl@time_zone@cctz@time_internal@absl@@@__Cr@std@@PAX@__Cr@std@@@__Cr@std@@W4align_val_t@3@@__Cr@std@@YAXPAPAU?$__hash_node_base@PAU?$__hash_node@U?$__hash_value_type@V?$basic_string@DU?$char_traits@D@__Cr@std@@V?$allocator@D@23@@__Cr@std@@PBVImpl@time_zone@cctz@time_internal@absl@@@__Cr@std@@PAX@__Cr@std@@@01@W4align_val_t@1@@Z
    ??$__libcpp_operator_delete@PAPAUCordRep@cord_internal@absl@@@__Cr@std@@YAXPAPAUCordRep@cord_internal@absl@@@Z
    ??$__libcpp_operator_delete@PAPAUCordRep@cord_internal@absl@@W4align_val_t@std@@@__Cr@std@@YAXPAPAUCordRep@cord_internal@absl@@W4align_val_t@1@@Z
    ??$__libcpp_operator_delete@PAPAUPrefixCrc@CrcCordState@crc_internal@absl@@@__Cr@std@@YAXPAPAUPrefixCrc@CrcCordState@crc_internal@absl@@@Z
    ??$__libcpp_operator_delete@PAPAUPrefixCrc@CrcCordState@crc_internal@absl@@W4align_val_t@std@@@__Cr@std@@YAXPAPAUPrefixCrc@CrcCordState@crc_internal@absl@@W4align_val_t@1@@Z
    ??$__libcpp_operator_delete@PAPAVCommandLineFlag@absl@@@__Cr@std@@YAXPAPAVCommandLineFlag@absl@@@Z
    ??$__libcpp_operator_delete@PAPAVCommandLineFlag@absl@@W4align_val_t@std@@@__Cr@std@@YAXPAPAVCommandLineFlag@absl@@W4align_val_t@1@@Z
    ??$__libcpp_operator_delete@PAPAVCordzHandle@cord_internal@absl@@@__Cr@std@@YAXPAPAVCordzHandle@cord_internal@absl@@@Z
    ??$__libcpp_operator_delete@PAPAVCordzHandle@cord_internal@absl@@W4align_val_t@std@@@__Cr@std@@YAXPAPAVCordzHandle@cord_internal@absl@@W4align_val_t@1@@Z
    ??$__libcpp_operator_delete@PAPAVLogSink@absl@@@__Cr@std@@YAXPAPAVLogSink@absl@@@Z
    ??$__libcpp_operator_delete@PAPAVLogSink@absl@@W4align_val_t@std@@@__Cr@std@@YAXPAPAVLogSink@absl@@W4align_val_t@1@@Z
    ??$__libcpp_operator_delete@PAPBVCommandLineFlag@absl@@@__Cr@std@@YAXPAPBVCommandLineFlag@absl@@@Z
    ??$__libcpp_operator_delete@PAPBVCommandLineFlag@absl@@W4align_val_t@std@@@__Cr@std@@YAXPAPBVCommandLineFlag@absl@@W4align_val_t@1@@Z
    ??$__libcpp_operator_delete@PAPBVCordzHandle@cord_internal@absl@@@__Cr@std@@YAXPAPBVCordzHandle@cord_internal@absl@@@Z
    ??$__libcpp_operator_delete@PAPBVCordzHandle@cord_internal@absl@@W4align_val_t@std@@@__Cr@std@@YAXPAPBVCordzHandle@cord_internal@absl@@W4align_val_t@1@@Z
    ??$__libcpp_operator_delete@PAPBVImpl@time_zone@cctz@time_internal@absl@@@__Cr@std@@YAXPAPBVImpl@time_zone@cctz@time_internal@absl@@@Z
    ??$__libcpp_operator_delete@PAPBVImpl@time_zone@cctz@time_internal@absl@@W4align_val_t@std@@@__Cr@std@@YAXPAPBVImpl@time_zone@cctz@time_internal@absl@@W4align_val_t@1@@Z
    ??$__libcpp_operator_delete@PAU?$AlignedType@$03@container_internal@absl@@@__Cr@std@@YAXPAU?$AlignedType@$03@container_internal@absl@@@Z
    ??$__libcpp_operator_delete@PAU?$AlignedType@$03@container_internal@absl@@W4align_val_t@std@@@__Cr@std@@YAXPAU?$AlignedType@$03@container_internal@absl@@W4align_val_t@1@@Z
    ??$__libcpp_operator_delete@PAU?$__hash_node@PBUCordRep@cord_internal@absl@@PAX@__Cr@std@@@__Cr@std@@YAXPAU?$__hash_node@PBUCordRep@cord_internal@absl@@PAX@01@@Z
    ??$__libcpp_operator_delete@PAU?$__hash_node@PBUCordRep@cord_internal@absl@@PAX@__Cr@std@@W4align_val_t@3@@__Cr@std@@YAXPAU?$__hash_node@PBUCordRep@cord_internal@absl@@PAX@01@W4align_val_t@1@@Z
    ??$__libcpp_operator_delete@PAU?$__hash_node@U?$__hash_value_type@V?$basic_string@DU?$char_traits@D@__Cr@std@@V?$allocator@D@23@@__Cr@std@@PBVImpl@time_zone@cctz@time_internal@absl@@@__Cr@std@@PAX@__Cr@std@@@__Cr@std@@YAXPAU?$__hash_node@U?$__hash_value_type@V?$basic_string@DU?$char_traits@D@__Cr@std@@V?$allocator@D@23@@__Cr@std@@PBVImpl@time_zone@cctz@time_internal@absl@@@__Cr@std@@PAX@01@@Z
    ??$__libcpp_operator_delete@PAU?$__hash_node@U?$__hash_value_type@V?$basic_string@DU?$char_traits@D@__Cr@std@@V?$allocator@D@23@@__Cr@std@@PBVImpl@time_zone@cctz@time_internal@absl@@@__Cr@std@@PAX@__Cr@std@@W4align_val_t@3@@__Cr@std@@YAXPAU?$__hash_node@U?$__hash_value_type@V?$basic_string@DU?$char_traits@D@__Cr@std@@V?$allocator@D@23@@__Cr@std@@PBVImpl@time_zone@cctz@time_internal@absl@@@__Cr@std@@PAX@01@W4align_val_t@1@@Z
    ??$__libcpp_operator_delete@PAUAlignedSpace@?1???$FlagOps@V?$vector@V?$basic_string@DU?$char_traits@D@__Cr@std@@V?$allocator@D@23@@__Cr@std@@V?$allocator@V?$basic_string@DU?$char_traits@D@__Cr@std@@V?$allocator@D@23@@__Cr@std@@@23@@__Cr@std@@@flags_internal@absl@@YAPAXW4FlagOp@23@PBXPAX2@Z@@__Cr@std@@YAXPAUAlignedSpace@?1???$FlagOps@V?$vector@V?$basic_string@DU?$char_traits@D@__Cr@std@@V?$allocator@D@23@@__Cr@std@@V?$allocator@V?$basic_string@DU?$char_traits@D@__Cr@std@@V?$allocator@D@23@@__Cr@std@@@23@@__Cr@std@@@flags_internal@absl@@YAPAXW4FlagOp@34@PBXPAX2@Z@@Z
    ??$__libcpp_operator_delete@PAUAlignedSpace@?1???$FlagOps@V?$vector@V?$basic_string@DU?$char_traits@D@__Cr@std@@V?$allocator@D@23@@__Cr@std@@V?$allocator@V?$basic_string@DU?$char_traits@D@__Cr@std@@V?$allocator@D@23@@__Cr@std@@@23@@__Cr@std@@@flags_internal@absl@@YAPAXW4FlagOp@23@PBXPAX2@Z@W4align_val_t@std@@@__Cr@std@@YAXPAUAlignedSpace@?1???$FlagOps@V?$vector@V?$basic_string@DU?$char_traits@D@__Cr@std@@V?$allocator@D@23@@__Cr@std@@V?$allocator@V?$basic_string@DU?$char_traits@D@__Cr@std@@V?$allocator@D@23@@__Cr@std@@@23@@__Cr@std@@@flags_internal@absl@@YAPAXW4FlagOp@34@PBXPAX2@Z@W4align_val_t@1@@Z
    ??$__libcpp_operator_delete@PAUConversionItem@ParsedFormatBase@str_format_internal@absl@@@__Cr@std@@YAXPAUConversionItem@ParsedFormatBase@str_format_internal@absl@@@Z
    ??$__libcpp_operator_delete@PAUConversionItem@ParsedFormatBase@str_format_internal@absl@@W4align_val_t@std@@@__Cr@std@@YAXPAUConversionItem@ParsedFormatBase@str_format_internal@absl@@W4align_val_t@1@@Z
    ??$__libcpp_operator_delete@PAUPayload@status_internal@absl@@@__Cr@std@@YAXPAUPayload@status_internal@absl@@@Z
    ??$__libcpp_operator_delete@PAUPayload@status_internal@absl@@W4align_val_t@std@@@__Cr@std@@YAXPAUPayload@status_internal@absl@@W4align_val_t@1@@Z
    ??$__libcpp_operator_delete@PAUPrefixCrc@CrcCordState@crc_internal@absl@@@__Cr@std@@YAXPAUPrefixCrc@CrcCordState@crc_internal@absl@@@Z
    ??$__libcpp_operator_delete@PAUPrefixCrc@CrcCordState@crc_internal@absl@@W4align_val_t@std@@@__Cr@std@@YAXPAUPrefixCrc@CrcCordState@crc_internal@absl@@W4align_val_t@1@@Z
    ??$__libcpp_operator_delete@PAUTransition@cctz@time_internal@absl@@@__Cr@std@@YAXPAUTransition@cctz@time_internal@absl@@@Z
    ??$__libcpp_operator_delete@PAUTransition@cctz@time_internal@absl@@W4align_val_t@std@@@__Cr@std@@YAXPAUTransition@cctz@time_internal@absl@@W4align_val_t@1@@Z
    ??$__libcpp_operator_delete@PAUTransitionType@cctz@time_internal@absl@@@__Cr@std@@YAXPAUTransitionType@cctz@time_internal@absl@@@Z
    ??$__libcpp_operator_delete@PAUTransitionType@cctz@time_internal@absl@@W4align_val_t@std@@@__Cr@std@@YAXPAUTransitionType@cctz@time_internal@absl@@W4align_val_t@1@@Z
    ??$__libcpp_operator_delete@PAUUnrecognizedFlag@absl@@@__Cr@std@@YAXPAUUnrecognizedFlag@absl@@@Z
    ??$__libcpp_operator_delete@PAUUnrecognizedFlag@absl@@W4align_val_t@std@@@__Cr@std@@YAXPAUUnrecognizedFlag@absl@@W4align_val_t@1@@Z
    ??$__libcpp_operator_delete@PAUViableSubstitution@strings_internal@absl@@@__Cr@std@@YAXPAUViableSubstitution@strings_internal@absl@@@Z
    ??$__libcpp_operator_delete@PAUViableSubstitution@strings_internal@absl@@W4align_val_t@std@@@__Cr@std@@YAXPAUViableSubstitution@strings_internal@absl@@W4align_val_t@1@@Z
    ??$__libcpp_operator_delete@PAV?$__tree_node@U?$__value_type@V?$basic_string@DU?$char_traits@D@__Cr@std@@V?$allocator@D@23@@__Cr@std@@V?$map@V?$basic_string@DU?$char_traits@D@__Cr@std@@V?$allocator@D@23@@__Cr@std@@V?$vector@PBVCommandLineFlag@absl@@V?$allocator@PBVCommandLineFlag@absl@@@__Cr@std@@@23@U?$less@V?$basic_string@DU?$char_traits@D@__Cr@std@@V?$allocator@D@23@@__Cr@std@@@23@V?$allocator@U?$pair@$$CBV?$basic_string@DU?$char_traits@D@__Cr@std@@V?$allocator@D@23@@__Cr@std@@V?$vector@PBVCommandLineFlag@absl@@V?$allocator@PBVCommandLineFlag@absl@@@__Cr@std@@@23@@__Cr@std@@@23@@23@@__Cr@std@@PAX@__Cr@std@@@__Cr@std@@YAXPAV?$__tree_node@U?$__value_type@V?$basic_string@DU?$char_traits@D@__Cr@std@@V?$allocator@D@23@@__Cr@std@@V?$map@V?$basic_string@DU?$char_traits@D@__Cr@std@@V?$allocator@D@23@@__Cr@std@@V?$vector@PBVCommandLineFlag@absl@@V?$allocator@PBVCommandLineFlag@absl@@@__Cr@std@@@23@U?$less@V?$basic_string@DU?$char_traits@D@__Cr@std@@V?$allocator@D@23@@__Cr@std@@@23@V?$allocator@U?$pair@$$CBV?$basic_string@DU?$char_traits@D@__Cr@std@@V?$allocator@D@23@@__Cr@std@@V?$vector@PBVCommandLineFlag@absl@@V?$allocator@PBVCommandLineFlag@absl@@@__Cr@std@@@23@@__Cr@std@@@23@@23@@__Cr@std@@PAX@01@@Z
    ??$__libcpp_operator_delete@PAV?$__tree_node@U?$__value_type@V?$basic_string@DU?$char_traits@D@__Cr@std@@V?$allocator@D@23@@__Cr@std@@V?$map@V?$basic_string@DU?$char_traits@D@__Cr@std@@V?$allocator@D@23@@__Cr@std@@V?$vector@PBVCommandLineFlag@absl@@V?$allocator@PBVCommandLineFlag@absl@@@__Cr@std@@@23@U?$less@V?$basic_string@DU?$char_traits@D@__Cr@std@@V?$allocator@D@23@@__Cr@std@@@23@V?$allocator@U?$pair@$$CBV?$basic_string@DU?$char_traits@D@__Cr@std@@V?$allocator@D@23@@__Cr@std@@V?$vector@PBVCommandLineFlag@absl@@V?$allocator@PBVCommandLineFlag@absl@@@__Cr@std@@@23@@__Cr@std@@@23@@23@@__Cr@std@@PAX@__Cr@std@@W4align_val_t@3@@__Cr@std@@YAXPAV?$__tree_node@U?$__value_type@V?$basic_string@DU?$char_traits@D@__Cr@std@@V?$allocator@D@23@@__Cr@std@@V?$map@V?$basic_string@DU?$char_traits@D@__Cr@std@@V?$allocator@D@23@@__Cr@std@@V?$vector@PBVCommandLineFlag@absl@@V?$allocator@PBVCommandLineFlag@absl@@@__Cr@std@@@23@U?$less@V?$basic_string@DU?$char_traits@D@__Cr@std@@V?$allocator@D@23@@__Cr@std@@@23@V?$allocator@U?$pair@$$CBV?$basic_string@DU?$char_traits@D@__Cr@std@@V?$allocator@D@23@@__Cr@std@@V?$vector@PBVCommandLineFlag@absl@@V?$allocator@PBVCommandLineFlag@absl@@@__Cr@std@@@23@@__Cr@std@@@23@@23@@__Cr@std@@PAX@01@W4align_val_t@1@@Z
    ??$__libcpp_operator_delete@PAV?$__tree_node@U?$__value_type@V?$basic_string@DU?$char_traits@D@__Cr@std@@V?$allocator@D@23@@__Cr@std@@V?$vector@PBVCommandLineFlag@absl@@V?$allocator@PBVCommandLineFlag@absl@@@__Cr@std@@@23@@__Cr@std@@PAX@__Cr@std@@@__Cr@std@@YAXPAV?$__tree_node@U?$__value_type@V?$basic_string@DU?$char_traits@D@__Cr@std@@V?$allocator@D@23@@__Cr@std@@V?$vector@PBVCommandLineFlag@absl@@V?$allocator@PBVCommandLineFlag@absl@@@__Cr@std@@@23@@__Cr@std@@PAX@01@@Z
    ??$__libcpp_operator_delete@PAV?$__tree_node@U?$__value_type@V?$basic_string@DU?$char_traits@D@__Cr@std@@V?$allocator@D@23@@__Cr@std@@V?$vector@PBVCommandLineFlag@absl@@V?$allocator@PBVCommandLineFlag@absl@@@__Cr@std@@@23@@__Cr@std@@PAX@__Cr@std@@W4align_val_t@3@@__Cr@std@@YAXPAV?$__tree_node@U?$__value_type@V?$basic_string@DU?$char_traits@D@__Cr@std@@V?$allocator@D@23@@__Cr@std@@V?$vector@PBVCommandLineFlag@absl@@V?$allocator@PBVCommandLineFlag@absl@@@__Cr@std@@@23@@__Cr@std@@PAX@01@W4align_val_t@1@@Z
    ??$__libcpp_operator_delete@PAV?$unique_ptr@VFlagStateInterface@flags_internal@absl@@U?$default_delete@VFlagStateInterface@flags_internal@absl@@@__Cr@std@@@__Cr@std@@@__Cr@std@@YAXPAV?$unique_ptr@VFlagStateInterface@flags_internal@absl@@U?$default_delete@VFlagStateInterface@flags_internal@absl@@@__Cr@std@@@01@@Z
    ??$__libcpp_operator_delete@PAV?$unique_ptr@VFlagStateInterface@flags_internal@absl@@U?$default_delete@VFlagStateInterface@flags_internal@absl@@@__Cr@std@@@__Cr@std@@W4align_val_t@3@@__Cr@std@@YAXPAV?$unique_ptr@VFlagStateInterface@flags_internal@absl@@U?$default_delete@VFlagStateInterface@flags_internal@absl@@@__Cr@std@@@01@W4align_val_t@1@@Z
    ??$__libcpp_operator_delete@PAVFormatArgImpl@str_format_internal@absl@@@__Cr@std@@YAXPAVFormatArgImpl@str_format_internal@absl@@@Z
    ??$__libcpp_operator_delete@PAVFormatArgImpl@str_format_internal@absl@@W4align_val_t@std@@@__Cr@std@@YAXPAVFormatArgImpl@str_format_internal@absl@@W4align_val_t@1@@Z
    ??$__lower_bound@U_ClassicAlgPolicy@__Cr@std@@PBUTransition@cctz@time_internal@absl@@PBU4567@U4567@U__identity@23@UByUnixTime@4567@@__Cr@std@@YAPBUTransition@cctz@time_internal@absl@@PBU2345@0ABU2345@AAUByUnixTime@2345@AAU__identity@01@@Z
    ??$__lower_bound_bisecting@U_ClassicAlgPolicy@__Cr@std@@PBUTransition@cctz@time_internal@absl@@U4567@U__identity@23@UByUnixTime@4567@@__Cr@std@@YAPBUTransition@cctz@time_internal@absl@@PBU2345@ABU2345@HAAUByUnixTime@2345@AAU__identity@01@@Z
    ??$__make_exception_guard@V?$_AllocatorDestroyRangeReverse@V?$allocator@UUnrecognizedFlag@absl@@@__Cr@std@@PAUUnrecognizedFlag@absl@@@__Cr@std@@@__Cr@std@@YA?AU?$__exception_guard_noexceptions@V?$_AllocatorDestroyRangeReverse@V?$allocator@UUnrecognizedFlag@absl@@@__Cr@std@@PAUUnrecognizedFlag@absl@@@__Cr@std@@@01@V?$_AllocatorDestroyRangeReverse@V?$allocator@UUnrecognizedFlag@absl@@@__Cr@std@@PAUUnrecognizedFlag@absl@@@01@@Z
    ??$__make_value_visitor@UBufferSizeVisitor@?1??BufferSizeForStructuredProtoField@log_internal@absl@@YAIUStructuredProtoField@34@@Z@@__variant@__visitation@__variant_detail@__Cr@std@@CA?A_P$$QAUBufferSizeVisitor@?1??BufferSizeForStructuredProtoField@log_internal@absl@@YAIUStructuredProtoField@78@@Z@@Z
    ??$__memberwise_forward_assign@V?$tuple@AAPAVCommandLineFlag@absl@@AA_N@__Cr@std@@V?$tuple@PAVCommandLineFlag@absl@@_N@23@PAVCommandLineFlag@absl@@_N$$Z$0A@$00@__Cr@std@@YAXAAV?$tuple@AAPAVCommandLineFlag@absl@@AA_N@01@$$QAV?$tuple@PAVCommandLineFlag@absl@@_N@01@U?$__tuple_types@PAVCommandLineFlag@absl@@_N@01@U?$__tuple_indices@$0A@$00@01@@Z
    ??$__move@U_ClassicAlgPolicy@__Cr@std@@PAPAPBVImpl@time_zone@cctz@time_internal@absl@@PAPAPBV45678@PAPAPBV45678@@__Cr@std@@YA?AU?$pair@PAPAPBVImpl@time_zone@cctz@time_internal@absl@@PAPAPBV12345@@01@PAPAPBVImpl@time_zone@cctz@time_internal@absl@@00@Z
    ??$__move@U_ClassicAlgPolicy@__Cr@std@@PAPAUPrefixCrc@CrcCordState@crc_internal@absl@@PAPAU4567@PAPAU4567@@__Cr@std@@YA?AU?$pair@PAPAUPrefixCrc@CrcCordState@crc_internal@absl@@PAPAU1234@@01@PAPAUPrefixCrc@CrcCordState@crc_internal@absl@@00@Z
    ??$__move@U_ClassicAlgPolicy@__Cr@std@@PAPAVLogSink@absl@@PAPAV45@PAPAV45@@__Cr@std@@YA?AU?$pair@PAPAVLogSink@absl@@PAPAV12@@01@PAPAVLogSink@absl@@00@Z
    ??$__move@U_ClassicAlgPolicy@__Cr@std@@PAUTransition@cctz@time_internal@absl@@PAU4567@PAU4567@@__Cr@std@@YA?AU?$pair@PAUTransition@cctz@time_internal@absl@@PAU1234@@01@PAUTransition@cctz@time_internal@absl@@00@Z
    ??$__move@U_ClassicAlgPolicy@__Cr@std@@PAUTransitionType@cctz@time_internal@absl@@PAU4567@PAU4567@@__Cr@std@@YA?AU?$pair@PAUTransitionType@cctz@time_internal@absl@@PAU1234@@01@PAUTransitionType@cctz@time_internal@absl@@00@Z
    ??$__move_backward@U_ClassicAlgPolicy@__Cr@std@@PAPAPBVImpl@time_zone@cctz@time_internal@absl@@PAPAPBV45678@PAPAPBV45678@@__Cr@std@@YA?AU?$pair@PAPAPBVImpl@time_zone@cctz@time_internal@absl@@PAPAPBV12345@@01@PAPAPBVImpl@time_zone@cctz@time_internal@absl@@00@Z
    ??$__move_backward@U_ClassicAlgPolicy@__Cr@std@@PAPAUPrefixCrc@CrcCordState@crc_internal@absl@@PAPAU4567@PAPAU4567@@__Cr@std@@YA?AU?$pair@PAPAUPrefixCrc@CrcCordState@crc_internal@absl@@PAPAU1234@@01@PAPAUPrefixCrc@CrcCordState@crc_internal@absl@@00@Z
    ??$__move_backward@U_ClassicAlgPolicy@__Cr@std@@PAUTransition@cctz@time_internal@absl@@PAU4567@PAU4567@@__Cr@std@@YA?AU?$pair@PAUTransition@cctz@time_internal@absl@@PAU1234@@01@PAUTransition@cctz@time_internal@absl@@00@Z
    ??$__move_backward@U_ClassicAlgPolicy@__Cr@std@@PAUTransitionType@cctz@time_internal@absl@@PAU4567@PAU4567@@__Cr@std@@YA?AU?$pair@PAUTransitionType@cctz@time_internal@absl@@PAU1234@@01@PAUTransitionType@cctz@time_internal@absl@@00@Z
    ??$__not_null@V<lambda_1>@?0??SaveFromRegistry@FlagSaverImpl@flags_internal@absl@@QAEXXZ@@__function@__Cr@std@@YA_NABV<lambda_1>@?0??SaveFromRegistry@FlagSaverImpl@flags_internal@absl@@QAEXXZ@@Z
    ??$__rehash@$00@?$__hash_table@PBUCordRep@cord_internal@absl@@U?$hash@PBUCordRep@cord_internal@absl@@@__Cr@std@@U?$equal_to@PBUCordRep@cord_internal@absl@@@56@V?$allocator@PBUCordRep@cord_internal@absl@@@56@@__Cr@std@@AAEXI@Z
    ??$__rehash@$00@?$__hash_table@U?$__hash_value_type@V?$basic_string@DU?$char_traits@D@__Cr@std@@V?$allocator@D@23@@__Cr@std@@PBVImpl@time_zone@cctz@time_internal@absl@@@__Cr@std@@V?$__unordered_map_hasher@V?$basic_string@DU?$char_traits@D@__Cr@std@@V?$allocator@D@23@@__Cr@std@@U?$__hash_value_type@V?$basic_string@DU?$char_traits@D@__Cr@std@@V?$allocator@D@23@@__Cr@std@@PBVImpl@time_zone@cctz@time_internal@absl@@@23@U?$hash@V?$basic_string@DU?$char_traits@D@__Cr@std@@V?$allocator@D@23@@__Cr@std@@@23@U?$equal_to@V?$basic_string@DU?$char_traits@D@__Cr@std@@V?$allocator@D@23@@__Cr@std@@@23@$00@23@V?$__unordered_map_equal@V?$basic_string@DU?$char_traits@D@__Cr@std@@V?$allocator@D@23@@__Cr@std@@U?$__hash_value_type@V?$basic_string@DU?$char_traits@D@__Cr@std@@V?$allocator@D@23@@__Cr@std@@PBVImpl@time_zone@cctz@time_internal@absl@@@23@U?$equal_to@V?$basic_string@DU?$char_traits@D@__Cr@std@@V?$allocator@D@23@@__Cr@std@@@23@U?$hash@V?$basic_string@DU?$char_traits@D@__Cr@std@@V?$allocator@D@23@@__Cr@std@@@23@$00@23@V?$allocator@U?$__hash_value_type@V?$basic_string@DU?$char_traits@D@__Cr@std@@V?$allocator@D@23@@__Cr@std@@PBVImpl@time_zone@cctz@time_internal@absl@@@__Cr@std@@@23@@__Cr@std@@AAEXI@Z
    ??$__rewrap_iter@PAPAPBVImpl@time_zone@cctz@time_internal@absl@@PAPAPBV12345@U?$__unwrap_iter_impl@PAPAPBVImpl@time_zone@cctz@time_internal@absl@@$00@__Cr@std@@@__Cr@std@@YAPAPAPBVImpl@time_zone@cctz@time_internal@absl@@PAPAPBV23456@0@Z
    ??$__rewrap_iter@PAPAUPrefixCrc@CrcCordState@crc_internal@absl@@PAPAU1234@U?$__unwrap_iter_impl@PAPAUPrefixCrc@CrcCordState@crc_internal@absl@@$00@__Cr@std@@@__Cr@std@@YAPAPAUPrefixCrc@CrcCordState@crc_internal@absl@@PAPAU2345@0@Z
    ??$__rewrap_iter@PAPAVLogSink@absl@@PAPAV12@U?$__unwrap_iter_impl@PAPAVLogSink@absl@@$00@__Cr@std@@@__Cr@std@@YAPAPAVLogSink@absl@@PAPAV23@0@Z
    ??$__rewrap_iter@PAUPrefixCrc@CrcCordState@crc_internal@absl@@PAU1234@U?$__unwrap_iter_impl@PAUPrefixCrc@CrcCordState@crc_internal@absl@@$00@__Cr@std@@@__Cr@std@@YAPAUPrefixCrc@CrcCordState@crc_internal@absl@@PAU2345@0@Z
    ??$__rewrap_iter@PAUTransition@cctz@time_internal@absl@@PAU1234@U?$__unwrap_iter_impl@PAUTransition@cctz@time_internal@absl@@$00@__Cr@std@@@__Cr@std@@YAPAUTransition@cctz@time_internal@absl@@PAU2345@0@Z
    ??$__rewrap_iter@PAUTransitionType@cctz@time_internal@absl@@PAU1234@U?$__unwrap_iter_impl@PAUTransitionType@cctz@time_internal@absl@@$00@__Cr@std@@@__Cr@std@@YAPAUTransitionType@cctz@time_internal@absl@@PAU2345@0@Z
    ??$__rewrap_iter@PBUPrefixCrc@CrcCordState@crc_internal@absl@@PBU1234@U?$__unwrap_iter_impl@PBUPrefixCrc@CrcCordState@crc_internal@absl@@$00@__Cr@std@@@__Cr@std@@YAPBUPrefixCrc@CrcCordState@crc_internal@absl@@PBU2345@0@Z
    ??$__rewrap_iter@V?$__deque_iterator@UPrefixCrc@CrcCordState@crc_internal@absl@@PAU1234@AAU1234@PAPAU1234@H$0A@@__Cr@std@@V123@U?$__unwrap_iter_impl@V?$__deque_iterator@UPrefixCrc@CrcCordState@crc_internal@absl@@PAU1234@AAU1234@PAPAU1234@H$0A@@__Cr@std@@$0A@@23@@__Cr@std@@YA?AV?$__deque_iterator@UPrefixCrc@CrcCordState@crc_internal@absl@@PAU1234@AAU1234@PAPAU1234@H$0A@@01@V201@0@Z
    ??$__rewrap_iter@V?$__deque_iterator@UPrefixCrc@CrcCordState@crc_internal@absl@@PBU1234@ABU1234@PBQBU1234@H$0A@@__Cr@std@@V123@U?$__unwrap_iter_impl@V?$__deque_iterator@UPrefixCrc@CrcCordState@crc_internal@absl@@PBU1234@ABU1234@PBQBU1234@H$0A@@__Cr@std@@$0A@@23@@__Cr@std@@YA?AV?$__deque_iterator@UPrefixCrc@CrcCordState@crc_internal@absl@@PBU1234@ABU1234@PBQBU1234@H$0A@@01@V201@0@Z
    ??$__rewrap_iter@V?$__wrap_iter@PAPAVLogSink@absl@@@__Cr@std@@PAPAVLogSink@absl@@U?$__unwrap_iter_impl@V?$__wrap_iter@PAPAVLogSink@absl@@@__Cr@std@@$00@23@@__Cr@std@@YA?AV?$__wrap_iter@PAPAVLogSink@absl@@@01@V201@PAPAVLogSink@absl@@@Z
    ??$__rewrap_range@PAPAPBVImpl@time_zone@cctz@time_internal@absl@@PAPAPBV12345@PAPAPBV12345@@__Cr@std@@YAPAPAPBVImpl@time_zone@cctz@time_internal@absl@@PAPAPBV23456@0@Z
    ??$__rewrap_range@PAPAUPrefixCrc@CrcCordState@crc_internal@absl@@PAPAU1234@PAPAU1234@@__Cr@std@@YAPAPAUPrefixCrc@CrcCordState@crc_internal@absl@@PAPAU2345@0@Z
    ??$__rewrap_range@PAPAVLogSink@absl@@PAPAV12@PAPAV12@@__Cr@std@@YAPAPAVLogSink@absl@@PAPAV23@0@Z
    ??$__rewrap_range@PAUTransition@cctz@time_internal@absl@@PAU1234@PAU1234@@__Cr@std@@YAPAUTransition@cctz@time_internal@absl@@PAU2345@0@Z
    ??$__rewrap_range@PAUTransitionType@cctz@time_internal@absl@@PAU1234@PAU1234@@__Cr@std@@YAPAUTransitionType@cctz@time_internal@absl@@PAU2345@0@Z
    ??$__rewrap_range@PBUPrefixCrc@CrcCordState@crc_internal@absl@@PBU1234@PBU1234@@__Cr@std@@YAPBUPrefixCrc@CrcCordState@crc_internal@absl@@PBU2345@0@Z
    ??$__rewrap_range@V?$__deque_iterator@UPrefixCrc@CrcCordState@crc_internal@absl@@PBU1234@ABU1234@PBQBU1234@H$0A@@__Cr@std@@V123@V123@@__Cr@std@@YA?AV?$__deque_iterator@UPrefixCrc@CrcCordState@crc_internal@absl@@PBU1234@ABU1234@PBQBU1234@H$0A@@01@V201@0@Z
    ??$__std_visit_exhaustive_visitor_check@UBufferSizeVisitor@?1??BufferSizeForStructuredProtoField@log_internal@absl@@YAIUStructuredProtoField@34@@Z@AAV?$Span@$$CBD@4@@__variant@__visitation@__variant_detail@__Cr@std@@CAXXZ
    ??$__std_visit_exhaustive_visitor_check@UBufferSizeVisitor@?1??BufferSizeForStructuredProtoField@log_internal@absl@@YAIUStructuredProtoField@34@@Z@AAV?$variant@IHM@__Cr@std@@@__variant@__visitation@__variant_detail@__Cr@std@@CAXXZ
    ??$__std_visit_exhaustive_visitor_check@UBufferSizeVisitor@?1??BufferSizeForStructuredProtoField@log_internal@absl@@YAIUStructuredProtoField@34@@Z@AAV?$variant@_K_JIH_N@__Cr@std@@@__variant@__visitation@__variant_detail@__Cr@std@@CAXXZ
    ??$__std_visit_exhaustive_visitor_check@UBufferSizeVisitor@?1??BufferSizeForStructuredProtoField@log_internal@absl@@YAIUStructuredProtoField@34@@Z@AAV?$variant@_K_JN@__Cr@std@@@__variant@__visitation@__variant_detail@__Cr@std@@CAXXZ
    ??$__swap_allocator@V?$allocator@UUnrecognizedFlag@absl@@@__Cr@std@@@__Cr@std@@YAXAAV?$allocator@UUnrecognizedFlag@absl@@@01@0@Z
    ??$__swap_allocator@V?$allocator@UUnrecognizedFlag@absl@@@__Cr@std@@@__Cr@std@@YAXAAV?$allocator@UUnrecognizedFlag@absl@@@01@0U?$integral_constant@_N$0A@@01@@Z
    ??$__swap_bitmap_pos@U_ClassicAlgPolicy@__Cr@std@@PAPAVCommandLineFlag@absl@@@__Cr@std@@YAXPAPAVCommandLineFlag@absl@@0AA_K1@Z
    ??$__swap_bitmap_pos@U_ClassicAlgPolicy@__Cr@std@@PAPBVCommandLineFlag@absl@@@__Cr@std@@YAXPAPBVCommandLineFlag@absl@@0AA_K1@Z
    ??$__swap_bitmap_pos_within@U_ClassicAlgPolicy@__Cr@std@@PAPAVCommandLineFlag@absl@@@__Cr@std@@YAXAAPAPAVCommandLineFlag@absl@@0AA_K1@Z
    ??$__swap_bitmap_pos_within@U_ClassicAlgPolicy@__Cr@std@@PAPBVCommandLineFlag@absl@@@__Cr@std@@YAXAAPAPBVCommandLineFlag@absl@@0AA_K1@Z
    ??$__throw_if_valueless@AAV?$variant@V?$variant@_K_JIH_N@__Cr@std@@V?$variant@_K_JN@23@V?$Span@$$CBD@absl@@V?$variant@IHM@23@@__Cr@std@@@__Cr@std@@YAXAAV?$variant@V?$variant@_K_JIH_N@__Cr@std@@V?$variant@_K_JN@23@V?$Span@$$CBD@absl@@V?$variant@IHM@23@@01@@Z
    ??$__to_address@$$CBUPrefixCrc@CrcCordState@crc_internal@absl@@@__Cr@std@@YAPBUPrefixCrc@CrcCordState@crc_internal@absl@@PBU2345@@Z
    ??$__to_address@PAPBVImpl@time_zone@cctz@time_internal@absl@@@__Cr@std@@YAPAPAPBVImpl@time_zone@cctz@time_internal@absl@@PAPAPBV23456@@Z
    ??$__to_address@PAU?$__hash_node_base@PAU?$__hash_node@PBUCordRep@cord_internal@absl@@PAX@__Cr@std@@@__Cr@std@@@__Cr@std@@YAPAPAU?$__hash_node_base@PAU?$__hash_node@PBUCordRep@cord_internal@absl@@PAX@__Cr@std@@@01@PAPAU201@@Z
    ??$__to_address@PAU?$__hash_node_base@PAU?$__hash_node@U?$__hash_value_type@V?$basic_string@DU?$char_traits@D@__Cr@std@@V?$allocator@D@23@@__Cr@std@@PBVImpl@time_zone@cctz@time_internal@absl@@@__Cr@std@@PAX@__Cr@std@@@__Cr@std@@@__Cr@std@@YAPAPAU?$__hash_node_base@PAU?$__hash_node@U?$__hash_value_type@V?$basic_string@DU?$char_traits@D@__Cr@std@@V?$allocator@D@23@@__Cr@std@@PBVImpl@time_zone@cctz@time_internal@absl@@@__Cr@std@@PAX@__Cr@std@@@01@PAPAU201@@Z
    ??$__to_address@PAUPrefixCrc@CrcCordState@crc_internal@absl@@@__Cr@std@@YAPAPAUPrefixCrc@CrcCordState@crc_internal@absl@@PAPAU2345@@Z
    ??$__to_address@PAVCommandLineFlag@absl@@@__Cr@std@@YAPAPAVCommandLineFlag@absl@@PAPAV23@@Z
    ??$__to_address@PAVCordzHandle@cord_internal@absl@@@__Cr@std@@YAPAPAVCordzHandle@cord_internal@absl@@PAPAV234@@Z
    ??$__to_address@PAVLogSink@absl@@@__Cr@std@@YAPAPAVLogSink@absl@@PAPAV23@@Z
    ??$__to_address@PBVCommandLineFlag@absl@@@__Cr@std@@YAPAPBVCommandLineFlag@absl@@PAPBV23@@Z
    ??$__to_address@PBVCordzHandle@cord_internal@absl@@@__Cr@std@@YAPAPBVCordzHandle@cord_internal@absl@@PAPBV234@@Z
    ??$__to_address@UConversionItem@ParsedFormatBase@str_format_internal@absl@@@__Cr@std@@YAPAUConversionItem@ParsedFormatBase@str_format_internal@absl@@PAU2345@@Z
    ??$__to_address@UPrefixCrc@CrcCordState@crc_internal@absl@@@__Cr@std@@YAPAUPrefixCrc@CrcCordState@crc_internal@absl@@PAU2345@@Z
    ??$__to_address@UTransition@cctz@time_internal@absl@@@__Cr@std@@YAPAUTransition@cctz@time_internal@absl@@PAU2345@@Z
    ??$__to_address@UTransitionType@cctz@time_internal@absl@@@__Cr@std@@YAPAUTransitionType@cctz@time_internal@absl@@PAU2345@@Z
    ??$__to_address@UUnrecognizedFlag@absl@@@__Cr@std@@YAPAUUnrecognizedFlag@absl@@PAU23@@Z
    ??$__to_address@UViableSubstitution@strings_internal@absl@@@__Cr@std@@YAPAUViableSubstitution@strings_internal@absl@@PAU234@@Z
    ??$__to_address@Uraw_view@?1???R?$ConvertToContainer@V?$vector@V?$basic_string_view@DU?$char_traits@D@__Cr@std@@@__Cr@std@@V?$allocator@V?$basic_string_view@DU?$char_traits@D@__Cr@std@@@__Cr@std@@@23@@__Cr@std@@V?$basic_string_view@DU?$char_traits@D@__Cr@std@@@23@$0A@@?$Splitter@VByChar@absl@@UAllowEmpty@2@V?$basic_string_view@DU?$char_traits@D@__Cr@std@@@__Cr@std@@@strings_internal@absl@@QBE?AV?$vector@V?$basic_string_view@DU?$char_traits@D@__Cr@std@@@__Cr@std@@V?$allocator@V?$basic_string_view@DU?$char_traits@D@__Cr@std@@@__Cr@std@@@23@@__Cr@std@@ABV345@@Z@@__Cr@std@@YAPAUraw_view@?1???R?$ConvertToContainer@V?$vector@V?$basic_string_view@DU?$char_traits@D@__Cr@std@@@__Cr@std@@V?$allocator@V?$basic_string_view@DU?$char_traits@D@__Cr@std@@@__Cr@std@@@23@@__Cr@std@@V?$basic_string_view@DU?$char_traits@D@__Cr@std@@@23@$0A@@?$Splitter@VByChar@absl@@UAllowEmpty@2@V?$basic_string_view@DU?$char_traits@D@__Cr@std@@@__Cr@std@@@strings_internal@absl@@QBE?AV?$vector@V?$basic_string_view@DU?$char_traits@D@__Cr@std@@@__Cr@std@@V?$allocator@V?$basic_string_view@DU?$char_traits@D@__Cr@std@@@__Cr@std@@@23@@01@ABV456@@Z@PAU2?1???R3456@QBE?AV701@0@Z@@Z
    ??$__to_address@V?$__wrap_iter@PAPAVCommandLineFlag@absl@@@__Cr@std@@$0A@@__Cr@std@@YAPAPAVCommandLineFlag@absl@@ABV?$__wrap_iter@PAPAVCommandLineFlag@absl@@@01@@Z
    ??$__to_address@V?$__wrap_iter@PAPAVLogSink@absl@@@__Cr@std@@$0A@@__Cr@std@@YAPAPAVLogSink@absl@@ABV?$__wrap_iter@PAPAVLogSink@absl@@@01@@Z
    ??$__to_address@V?$__wrap_iter@PAPBVCommandLineFlag@absl@@@__Cr@std@@$0A@@__Cr@std@@YAPAPBVCommandLineFlag@absl@@ABV?$__wrap_iter@PAPBVCommandLineFlag@absl@@@01@@Z
    ??$__to_address@V?$__wrap_iter@PAUraw_view@?1???R?$ConvertToContainer@V?$vector@V?$basic_string_view@DU?$char_traits@D@__Cr@std@@@__Cr@std@@V?$allocator@V?$basic_string_view@DU?$char_traits@D@__Cr@std@@@__Cr@std@@@23@@__Cr@std@@V?$basic_string_view@DU?$char_traits@D@__Cr@std@@@23@$0A@@?$Splitter@VByChar@absl@@UAllowEmpty@2@V?$basic_string_view@DU?$char_traits@D@__Cr@std@@@__Cr@std@@@strings_internal@absl@@QBE?AV?$vector@V?$basic_string_view@DU?$char_traits@D@__Cr@std@@@__Cr@std@@V?$allocator@V?$basic_string_view@DU?$char_traits@D@__Cr@std@@@__Cr@std@@@23@@__Cr@std@@ABV345@@Z@@__Cr@std@@$0A@@__Cr@std@@YAPAUraw_view@?1???R?$ConvertToContainer@V?$vector@V?$basic_string_view@DU?$char_traits@D@__Cr@std@@@__Cr@std@@V?$allocator@V?$basic_string_view@DU?$char_traits@D@__Cr@std@@@__Cr@std@@@23@@__Cr@std@@V?$basic_string_view@DU?$char_traits@D@__Cr@std@@@23@$0A@@?$Splitter@VByChar@absl@@UAllowEmpty@2@V?$basic_string_view@DU?$char_traits@D@__Cr@std@@@__Cr@std@@@strings_internal@absl@@QBE?AV?$vector@V?$basic_string_view@DU?$char_traits@D@__Cr@std@@@__Cr@std@@V?$allocator@V?$basic_string_view@DU?$char_traits@D@__Cr@std@@@__Cr@std@@@23@@01@ABV456@@Z@ABV?$__wrap_iter@PAUraw_view@?1???R?$ConvertToContainer@V?$vector@V?$basic_string_view@DU?$char_traits@D@__Cr@std@@@__Cr@std@@V?$allocator@V?$basic_string_view@DU?$char_traits@D@__Cr@std@@@__Cr@std@@@23@@__Cr@std@@V?$basic_string_view@DU?$char_traits@D@__Cr@std@@@23@$0A@@?$Splitter@VByChar@absl@@UAllowEmpty@2@V?$basic_string_view@DU?$char_traits@D@__Cr@std@@@__Cr@std@@@strings_internal@absl@@QBE?AV?$vector@V?$basic_string_view@DU?$char_traits@D@__Cr@std@@@__Cr@std@@V?$allocator@V?$basic_string_view@DU?$char_traits@D@__Cr@std@@@__Cr@std@@@23@@__Cr@std@@ABV345@@Z@@01@@Z
    ??$__to_address@V?$unique_ptr@VFlagStateInterface@flags_internal@absl@@U?$default_delete@VFlagStateInterface@flags_internal@absl@@@__Cr@std@@@__Cr@std@@@__Cr@std@@YAPAV?$unique_ptr@VFlagStateInterface@flags_internal@absl@@U?$default_delete@VFlagStateInterface@flags_internal@absl@@@__Cr@std@@@01@PAV201@@Z
    ??$__uninitialized_allocator_copy@V?$allocator@V?$basic_string_view@DU?$char_traits@D@__Cr@std@@@__Cr@std@@@__Cr@std@@V?$__wrap_iter@PAUraw_view@?1???R?$ConvertToContainer@V?$vector@V?$basic_string_view@DU?$char_traits@D@__Cr@std@@@__Cr@std@@V?$allocator@V?$basic_string_view@DU?$char_traits@D@__Cr@std@@@__Cr@std@@@23@@__Cr@std@@V?$basic_string_view@DU?$char_traits@D@__Cr@std@@@23@$0A@@?$Splitter@VByChar@absl@@UAllowEmpty@2@V?$basic_string_view@DU?$char_traits@D@__Cr@std@@@__Cr@std@@@strings_internal@absl@@QBE?AV?$vector@V?$basic_string_view@DU?$char_traits@D@__Cr@std@@@__Cr@std@@V?$allocator@V?$basic_string_view@DU?$char_traits@D@__Cr@std@@@__Cr@std@@@23@@__Cr@std@@ABV345@@Z@@23@V423@PAV?$basic_string_view@DU?$char_traits@D@__Cr@std@@@23@@__Cr@std@@YAPAV?$basic_string_view@DU?$char_traits@D@__Cr@std@@@01@AAV?$allocator@V?$basic_string_view@DU?$char_traits@D@__Cr@std@@@__Cr@std@@@01@V?$__wrap_iter@PAUraw_view@?1???R?$ConvertToContainer@V?$vector@V?$basic_string_view@DU?$char_traits@D@__Cr@std@@@__Cr@std@@V?$allocator@V?$basic_string_view@DU?$char_traits@D@__Cr@std@@@__Cr@std@@@23@@__Cr@std@@V?$basic_string_view@DU?$char_traits@D@__Cr@std@@@23@$0A@@?$Splitter@VByChar@absl@@UAllowEmpty@2@V?$basic_string_view@DU?$char_traits@D@__Cr@std@@@__Cr@std@@@strings_internal@absl@@QBE?AV?$vector@V?$basic_string_view@DU?$char_traits@D@__Cr@std@@@__Cr@std@@V?$allocator@V?$basic_string_view@DU?$char_traits@D@__Cr@std@@@__Cr@std@@@23@@__Cr@std@@ABV345@@Z@@01@1PAV201@@Z
    ??$__uninitialized_allocator_copy_impl@V?$allocator@V?$basic_string_view@DU?$char_traits@D@__Cr@std@@@__Cr@std@@@__Cr@std@@PAUraw_view@?1???R?$ConvertToContainer@V?$vector@V?$basic_string_view@DU?$char_traits@D@__Cr@std@@@__Cr@std@@V?$allocator@V?$basic_string_view@DU?$char_traits@D@__Cr@std@@@__Cr@std@@@23@@__Cr@std@@V?$basic_string_view@DU?$char_traits@D@__Cr@std@@@23@$0A@@?$Splitter@VByChar@absl@@UAllowEmpty@2@V?$basic_string_view@DU?$char_traits@D@__Cr@std@@@__Cr@std@@@strings_internal@absl@@QBE?AV?$vector@V?$basic_string_view@DU?$char_traits@D@__Cr@std@@@__Cr@std@@V?$allocator@V?$basic_string_view@DU?$char_traits@D@__Cr@std@@@__Cr@std@@@23@@23@ABV678@@Z@PAU4?1???R5678@QBE?AV923@0@Z@PAV?$basic_string_view@DU?$char_traits@D@__Cr@std@@@23@@__Cr@std@@YAPAV?$basic_string_view@DU?$char_traits@D@__Cr@std@@@01@AAV?$allocator@V?$basic_string_view@DU?$char_traits@D@__Cr@std@@@__Cr@std@@@01@PAUraw_view@?1???R?$ConvertToContainer@V?$vector@V?$basic_string_view@DU?$char_traits@D@__Cr@std@@@__Cr@std@@V?$allocator@V?$basic_string_view@DU?$char_traits@D@__Cr@std@@@__Cr@std@@@23@@__Cr@std@@V?$basic_string_view@DU?$char_traits@D@__Cr@std@@@23@$0A@@?$Splitter@VByChar@absl@@UAllowEmpty@2@V?$basic_string_view@DU?$char_traits@D@__Cr@std@@@__Cr@std@@@strings_internal@absl@@QBE?AV?$vector@V?$basic_string_view@DU?$char_traits@D@__Cr@std@@@__Cr@std@@V?$allocator@V?$basic_string_view@DU?$char_traits@D@__Cr@std@@@__Cr@std@@@23@@01@ABV567@@Z@2PAV?$basic_string_view@DU?$char_traits@D@__Cr@std@@@01@@Z
    ??$__uninitialized_allocator_relocate@V?$allocator@PAVCommandLineFlag@absl@@@__Cr@std@@PAPAVCommandLineFlag@absl@@@__Cr@std@@YAXAAV?$allocator@PAVCommandLineFlag@absl@@@01@PAPAVCommandLineFlag@absl@@11@Z
    ??$__uninitialized_allocator_relocate@V?$allocator@PAVCordzHandle@cord_internal@absl@@@__Cr@std@@PAPAVCordzHandle@cord_internal@absl@@@__Cr@std@@YAXAAV?$allocator@PAVCordzHandle@cord_internal@absl@@@01@PAPAVCordzHandle@cord_internal@absl@@11@Z
    ??$__uninitialized_allocator_relocate@V?$allocator@PAVLogSink@absl@@@__Cr@std@@PAPAVLogSink@absl@@@__Cr@std@@YAXAAV?$allocator@PAVLogSink@absl@@@01@PAPAVLogSink@absl@@11@Z
    ??$__uninitialized_allocator_relocate@V?$allocator@PBVCommandLineFlag@absl@@@__Cr@std@@PAPBVCommandLineFlag@absl@@@__Cr@std@@YAXAAV?$allocator@PBVCommandLineFlag@absl@@@01@PAPBVCommandLineFlag@absl@@11@Z
    ??$__uninitialized_allocator_relocate@V?$allocator@PBVCordzHandle@cord_internal@absl@@@__Cr@std@@PAPBVCordzHandle@cord_internal@absl@@@__Cr@std@@YAXAAV?$allocator@PBVCordzHandle@cord_internal@absl@@@01@PAPBVCordzHandle@cord_internal@absl@@11@Z
    ??$__uninitialized_allocator_relocate@V?$allocator@UConversionItem@ParsedFormatBase@str_format_internal@absl@@@__Cr@std@@PAUConversionItem@ParsedFormatBase@str_format_internal@absl@@@__Cr@std@@YAXAAV?$allocator@UConversionItem@ParsedFormatBase@str_format_internal@absl@@@01@PAUConversionItem@ParsedFormatBase@str_format_internal@absl@@11@Z
    ??$__uninitialized_allocator_relocate@V?$allocator@UTransition@cctz@time_internal@absl@@@__Cr@std@@PAUTransition@cctz@time_internal@absl@@@__Cr@std@@YAXAAV?$allocator@UTransition@cctz@time_internal@absl@@@01@PAUTransition@cctz@time_internal@absl@@11@Z
    ??$__uninitialized_allocator_relocate@V?$allocator@UTransitionType@cctz@time_internal@absl@@@__Cr@std@@PAUTransitionType@cctz@time_internal@absl@@@__Cr@std@@YAXAAV?$allocator@UTransitionType@cctz@time_internal@absl@@@01@PAUTransitionType@cctz@time_internal@absl@@11@Z
    ??$__uninitialized_allocator_relocate@V?$allocator@UUnrecognizedFlag@absl@@@__Cr@std@@PAUUnrecognizedFlag@absl@@@__Cr@std@@YAXAAV?$allocator@UUnrecognizedFlag@absl@@@01@PAUUnrecognizedFlag@absl@@11@Z
    ??$__uninitialized_allocator_relocate@V?$allocator@UViableSubstitution@strings_internal@absl@@@__Cr@std@@PAUViableSubstitution@strings_internal@absl@@@__Cr@std@@YAXAAV?$allocator@UViableSubstitution@strings_internal@absl@@@01@PAUViableSubstitution@strings_internal@absl@@11@Z
    ??$__uninitialized_allocator_relocate@V?$allocator@V?$unique_ptr@VFlagStateInterface@flags_internal@absl@@U?$default_delete@VFlagStateInterface@flags_internal@absl@@@__Cr@std@@@__Cr@std@@@__Cr@std@@PAV?$unique_ptr@VFlagStateInterface@flags_internal@absl@@U?$default_delete@VFlagStateInterface@flags_internal@absl@@@__Cr@std@@@23@@__Cr@std@@YAXAAV?$allocator@V?$unique_ptr@VFlagStateInterface@flags_internal@absl@@U?$default_delete@VFlagStateInterface@flags_internal@absl@@@__Cr@std@@@__Cr@std@@@01@PAV?$unique_ptr@VFlagStateInterface@flags_internal@absl@@U?$default_delete@VFlagStateInterface@flags_internal@absl@@@__Cr@std@@@01@11@Z
    ??$__unwrap_iter@PAPAPBVImpl@time_zone@cctz@time_internal@absl@@U?$__unwrap_iter_impl@PAPAPBVImpl@time_zone@cctz@time_internal@absl@@$00@__Cr@std@@$0A@@__Cr@std@@YAPAPAPBVImpl@time_zone@cctz@time_internal@absl@@PAPAPBV23456@@Z
    ??$__unwrap_iter@PAPAUPrefixCrc@CrcCordState@crc_internal@absl@@U?$__unwrap_iter_impl@PAPAUPrefixCrc@CrcCordState@crc_internal@absl@@$00@__Cr@std@@$0A@@__Cr@std@@YAPAPAUPrefixCrc@CrcCordState@crc_internal@absl@@PAPAU2345@@Z
    ??$__unwrap_iter@PAPAVLogSink@absl@@U?$__unwrap_iter_impl@PAPAVLogSink@absl@@$00@__Cr@std@@$0A@@__Cr@std@@YAPAPAVLogSink@absl@@PAPAV23@@Z
    ??$__unwrap_iter@PAUPrefixCrc@CrcCordState@crc_internal@absl@@U?$__unwrap_iter_impl@PAUPrefixCrc@CrcCordState@crc_internal@absl@@$00@__Cr@std@@$0A@@__Cr@std@@YAPAUPrefixCrc@CrcCordState@crc_internal@absl@@PAU2345@@Z
    ??$__unwrap_iter@PAUTransition@cctz@time_internal@absl@@U?$__unwrap_iter_impl@PAUTransition@cctz@time_internal@absl@@$00@__Cr@std@@$0A@@__Cr@std@@YAPAUTransition@cctz@time_internal@absl@@PAU2345@@Z
    ??$__unwrap_iter@PAUTransitionType@cctz@time_internal@absl@@U?$__unwrap_iter_impl@PAUTransitionType@cctz@time_internal@absl@@$00@__Cr@std@@$0A@@__Cr@std@@YAPAUTransitionType@cctz@time_internal@absl@@PAU2345@@Z
    ??$__unwrap_iter@PBUPrefixCrc@CrcCordState@crc_internal@absl@@U?$__unwrap_iter_impl@PBUPrefixCrc@CrcCordState@crc_internal@absl@@$00@__Cr@std@@$0A@@__Cr@std@@YAPBUPrefixCrc@CrcCordState@crc_internal@absl@@PBU2345@@Z
    ??$__unwrap_iter@V?$__deque_iterator@UPrefixCrc@CrcCordState@crc_internal@absl@@PAU1234@AAU1234@PAPAU1234@H$0A@@__Cr@std@@U?$__unwrap_iter_impl@V?$__deque_iterator@UPrefixCrc@CrcCordState@crc_internal@absl@@PAU1234@AAU1234@PAPAU1234@H$0A@@__Cr@std@@$0A@@23@$0A@@__Cr@std@@YA?AV?$__deque_iterator@UPrefixCrc@CrcCordState@crc_internal@absl@@PAU1234@AAU1234@PAPAU1234@H$0A@@01@V201@@Z
    ??$__unwrap_iter@V?$__deque_iterator@UPrefixCrc@CrcCordState@crc_internal@absl@@PBU1234@ABU1234@PBQBU1234@H$0A@@__Cr@std@@U?$__unwrap_iter_impl@V?$__deque_iterator@UPrefixCrc@CrcCordState@crc_internal@absl@@PBU1234@ABU1234@PBQBU1234@H$0A@@__Cr@std@@$0A@@23@$0A@@__Cr@std@@YA?AV?$__deque_iterator@UPrefixCrc@CrcCordState@crc_internal@absl@@PBU1234@ABU1234@PBQBU1234@H$0A@@01@V201@@Z
    ??$__unwrap_iter@V?$__wrap_iter@PAPAVCommandLineFlag@absl@@@__Cr@std@@U?$__unwrap_iter_impl@V?$__wrap_iter@PAPAVCommandLineFlag@absl@@@__Cr@std@@$00@23@$0A@@__Cr@std@@YAPAPAVCommandLineFlag@absl@@V?$__wrap_iter@PAPAVCommandLineFlag@absl@@@01@@Z
    ??$__unwrap_iter@V?$__wrap_iter@PAPAVLogSink@absl@@@__Cr@std@@U?$__unwrap_iter_impl@V?$__wrap_iter@PAPAVLogSink@absl@@@__Cr@std@@$00@23@$0A@@__Cr@std@@YAPAPAVLogSink@absl@@V?$__wrap_iter@PAPAVLogSink@absl@@@01@@Z
    ??$__unwrap_iter@V?$__wrap_iter@PAPBVCommandLineFlag@absl@@@__Cr@std@@U?$__unwrap_iter_impl@V?$__wrap_iter@PAPBVCommandLineFlag@absl@@@__Cr@std@@$00@23@$0A@@__Cr@std@@YAPAPBVCommandLineFlag@absl@@V?$__wrap_iter@PAPBVCommandLineFlag@absl@@@01@@Z
    ??$__unwrap_iter@V?$__wrap_iter@PAUraw_view@?1???R?$ConvertToContainer@V?$vector@V?$basic_string_view@DU?$char_traits@D@__Cr@std@@@__Cr@std@@V?$allocator@V?$basic_string_view@DU?$char_traits@D@__Cr@std@@@__Cr@std@@@23@@__Cr@std@@V?$basic_string_view@DU?$char_traits@D@__Cr@std@@@23@$0A@@?$Splitter@VByChar@absl@@UAllowEmpty@2@V?$basic_string_view@DU?$char_traits@D@__Cr@std@@@__Cr@std@@@strings_internal@absl@@QBE?AV?$vector@V?$basic_string_view@DU?$char_traits@D@__Cr@std@@@__Cr@std@@V?$allocator@V?$basic_string_view@DU?$char_traits@D@__Cr@std@@@__Cr@std@@@23@@__Cr@std@@ABV345@@Z@@__Cr@std@@U?$__unwrap_iter_impl@V?$__wrap_iter@PAUraw_view@?1???R?$ConvertToContainer@V?$vector@V?$basic_string_view@DU?$char_traits@D@__Cr@std@@@__Cr@std@@V?$allocator@V?$basic_string_view@DU?$char_traits@D@__Cr@std@@@__Cr@std@@@23@@__Cr@std@@V?$basic_string_view@DU?$char_traits@D@__Cr@std@@@23@$0A@@?$Splitter@VByChar@absl@@UAllowEmpty@2@V?$basic_string_view@DU?$char_traits@D@__Cr@std@@@__Cr@std@@@strings_internal@absl@@QBE?AV?$vector@V?$basic_string_view@DU?$char_traits@D@__Cr@std@@@__Cr@std@@V?$allocator@V?$basic_string_view@DU?$char_traits@D@__Cr@std@@@__Cr@std@@@23@@__Cr@std@@ABV345@@Z@@__Cr@std@@$00@23@$0A@@__Cr@std@@YAPAUraw_view@?1???R?$ConvertToContainer@V?$vector@V?$basic_string_view@DU?$char_traits@D@__Cr@std@@@__Cr@std@@V?$allocator@V?$basic_string_view@DU?$char_traits@D@__Cr@std@@@__Cr@std@@@23@@__Cr@std@@V?$basic_string_view@DU?$char_traits@D@__Cr@std@@@23@$0A@@?$Splitter@VByChar@absl@@UAllowEmpty@2@V?$basic_string_view@DU?$char_traits@D@__Cr@std@@@__Cr@std@@@strings_internal@absl@@QBE?AV?$vector@V?$basic_string_view@DU?$char_traits@D@__Cr@std@@@__Cr@std@@V?$allocator@V?$basic_string_view@DU?$char_traits@D@__Cr@std@@@__Cr@std@@@23@@01@ABV456@@Z@V?$__wrap_iter@PAUraw_view@?1???R?$ConvertToContainer@V?$vector@V?$basic_string_view@DU?$char_traits@D@__Cr@std@@@__Cr@std@@V?$allocator@V?$basic_string_view@DU?$char_traits@D@__Cr@std@@@__Cr@std@@@23@@__Cr@std@@V?$basic_string_view@DU?$char_traits@D@__Cr@std@@@23@$0A@@?$Splitter@VByChar@absl@@UAllowEmpty@2@V?$basic_string_view@DU?$char_traits@D@__Cr@std@@@__Cr@std@@@strings_internal@absl@@QBE?AV?$vector@V?$basic_string_view@DU?$char_traits@D@__Cr@std@@@__Cr@std@@V?$allocator@V?$basic_string_view@DU?$char_traits@D@__Cr@std@@@__Cr@std@@@23@@__Cr@std@@ABV345@@Z@@01@@Z
    ??$__unwrap_range@PAPAPBVImpl@time_zone@cctz@time_internal@absl@@PAPAPBV12345@@__Cr@std@@YA?A_PPAPAPBVImpl@time_zone@cctz@time_internal@absl@@0@Z
    ??$__unwrap_range@PAPAUPrefixCrc@CrcCordState@crc_internal@absl@@PAPAU1234@@__Cr@std@@YA?A_PPAPAUPrefixCrc@CrcCordState@crc_internal@absl@@0@Z
    ??$__unwrap_range@PAPAVLogSink@absl@@PAPAV12@@__Cr@std@@YA?A_PPAPAVLogSink@absl@@0@Z
    ??$__unwrap_range@PAUTransition@cctz@time_internal@absl@@PAU1234@@__Cr@std@@YA?A_PPAUTransition@cctz@time_internal@absl@@0@Z
    ??$__unwrap_range@PAUTransitionType@cctz@time_internal@absl@@PAU1234@@__Cr@std@@YA?A_PPAUTransitionType@cctz@time_internal@absl@@0@Z
    ??$__unwrap_range@PBUPrefixCrc@CrcCordState@crc_internal@absl@@PBU1234@@__Cr@std@@YA?A_PPBUPrefixCrc@CrcCordState@crc_internal@absl@@0@Z
    ??$__unwrap_range@V?$__deque_iterator@UPrefixCrc@CrcCordState@crc_internal@absl@@PBU1234@ABU1234@PBQBU1234@H$0A@@__Cr@std@@V123@@__Cr@std@@YA?A_PV?$__deque_iterator@UPrefixCrc@CrcCordState@crc_internal@absl@@PBU1234@ABU1234@PBQBU1234@H$0A@@01@0@Z
    ??$__unwrap_range@V?$__wrap_iter@PAUraw_view@?1???R?$ConvertToContainer@V?$vector@V?$basic_string_view@DU?$char_traits@D@__Cr@std@@@__Cr@std@@V?$allocator@V?$basic_string_view@DU?$char_traits@D@__Cr@std@@@__Cr@std@@@23@@__Cr@std@@V?$basic_string_view@DU?$char_traits@D@__Cr@std@@@23@$0A@@?$Splitter@VByChar@absl@@UAllowEmpty@2@V?$basic_string_view@DU?$char_traits@D@__Cr@std@@@__Cr@std@@@strings_internal@absl@@QBE?AV?$vector@V?$basic_string_view@DU?$char_traits@D@__Cr@std@@@__Cr@std@@V?$allocator@V?$basic_string_view@DU?$char_traits@D@__Cr@std@@@__Cr@std@@@23@@__Cr@std@@ABV345@@Z@@__Cr@std@@V123@@__Cr@std@@YA?A_PV?$__wrap_iter@PAUraw_view@?1???R?$ConvertToContainer@V?$vector@V?$basic_string_view@DU?$char_traits@D@__Cr@std@@@__Cr@std@@V?$allocator@V?$basic_string_view@DU?$char_traits@D@__Cr@std@@@__Cr@std@@@23@@__Cr@std@@V?$basic_string_view@DU?$char_traits@D@__Cr@std@@@23@$0A@@?$Splitter@VByChar@absl@@UAllowEmpty@2@V?$basic_string_view@DU?$char_traits@D@__Cr@std@@@__Cr@std@@@strings_internal@absl@@QBE?AV?$vector@V?$basic_string_view@DU?$char_traits@D@__Cr@std@@@__Cr@std@@V?$allocator@V?$basic_string_view@DU?$char_traits@D@__Cr@std@@@__Cr@std@@@23@@__Cr@std@@ABV345@@Z@@01@0@Z
    ??$__upper_bound@U_ClassicAlgPolicy@__Cr@std@@UByCivilTime@Transition@cctz@time_internal@absl@@PBU5678@PBU5678@U5678@U__identity@23@@__Cr@std@@YAPBUTransition@cctz@time_internal@absl@@PBU2345@0ABU2345@$$QAUByCivilTime@2345@$$QAU__identity@01@@Z
    ??$__upper_bound@U_ClassicAlgPolicy@__Cr@std@@UByUnixTime@Transition@cctz@time_internal@absl@@PBU5678@PBU5678@U5678@U__identity@23@@__Cr@std@@YAPBUTransition@cctz@time_internal@absl@@PBU2345@0ABU2345@$$QAUByUnixTime@2345@$$QAU__identity@01@@Z
    ??$__validate_iter_reference@AAPAPAVCommandLineFlag@absl@@@?$_IterOps@U_ClassicAlgPolicy@__Cr@std@@@__Cr@std@@SAXXZ
    ??$__validate_iter_reference@AAPAPBVCommandLineFlag@absl@@@?$_IterOps@U_ClassicAlgPolicy@__Cr@std@@@__Cr@std@@SAXXZ
    ??$__visit_alt@U?$__value_visitor@UBufferSizeVisitor@?1??BufferSizeForStructuredProtoField@log_internal@absl@@YAIUStructuredProtoField@34@@Z@@__variant@__visitation@__variant_detail@__Cr@std@@AAV?$__impl@V?$variant@_K_JIH_N@__Cr@std@@V?$variant@_K_JN@23@V?$Span@$$CBD@absl@@V?$variant@IHM@23@@456@@__base@__visitation@__variant_detail@__Cr@std@@SA?A_T$$QAU?$__value_visitor@UBufferSizeVisitor@?1??BufferSizeForStructuredProtoField@log_internal@absl@@YAIUStructuredProtoField@34@@Z@@__variant@1234@AAV?$__impl@V?$variant@_K_JIH_N@__Cr@std@@V?$variant@_K_JN@23@V?$Span@$$CBD@absl@@V?$variant@IHM@23@@234@@Z
    ??$__visit_alt@U?$__value_visitor@UBufferSizeVisitor@?1??BufferSizeForStructuredProtoField@log_internal@absl@@YAIUStructuredProtoField@34@@Z@@__variant@__visitation@__variant_detail@__Cr@std@@AAV?$variant@V?$variant@_K_JIH_N@__Cr@std@@V?$variant@_K_JN@23@V?$Span@$$CBD@absl@@V?$variant@IHM@23@@56@@__variant@__visitation@__variant_detail@__Cr@std@@SA?A_T$$QAU?$__value_visitor@UBufferSizeVisitor@?1??BufferSizeForStructuredProtoField@log_internal@absl@@YAIUStructuredProtoField@34@@Z@@01234@AAV?$variant@V?$variant@_K_JIH_N@__Cr@std@@V?$variant@_K_JN@23@V?$Span@$$CBD@absl@@V?$variant@IHM@23@@34@@Z
    ??$__visit_value@UBufferSizeVisitor@?1??BufferSizeForStructuredProtoField@log_internal@absl@@YAIUStructuredProtoField@34@@Z@AAV?$variant@V?$variant@_K_JIH_N@__Cr@std@@V?$variant@_K_JN@23@V?$Span@$$CBD@absl@@V?$variant@IHM@23@@__Cr@std@@@__variant@__visitation@__variant_detail@__Cr@std@@SA?A_T$$QAUBufferSizeVisitor@?1??BufferSizeForStructuredProtoField@log_internal@absl@@YAIUStructuredProtoField@78@@Z@AAV?$variant@V?$variant@_K_JIH_N@__Cr@std@@V?$variant@_K_JN@23@V?$Span@$$CBD@absl@@V?$variant@IHM@23@@34@@Z
    ??$advance@PBUTransition@cctz@time_internal@absl@@H@?$_IterOps@U_ClassicAlgPolicy@__Cr@std@@@__Cr@std@@SAXAAPBUTransition@cctz@time_internal@absl@@H@Z
    ??$advance@PBUTransition@cctz@time_internal@absl@@HH$0A@@__Cr@std@@YAXAAPBUTransition@cctz@time_internal@absl@@H@Z
    ??$advance@V?$__wrap_iter@PAPAVCommandLineFlag@absl@@@__Cr@std@@HH$0A@@__Cr@std@@YAXAAV?$__wrap_iter@PAPAVCommandLineFlag@absl@@@01@H@Z
    ??$advance@V?$__wrap_iter@PAPBVCommandLineFlag@absl@@@__Cr@std@@H@?$_IterOps@U_ClassicAlgPolicy@__Cr@std@@@__Cr@std@@SAXAAV?$__wrap_iter@PAPBVCommandLineFlag@absl@@@12@H@Z
    ??$advance@V?$__wrap_iter@PAPBVCommandLineFlag@absl@@@__Cr@std@@HH$0A@@__Cr@std@@YAXAAV?$__wrap_iter@PAPBVCommandLineFlag@absl@@@01@H@Z
    ??$advance@V?$__wrap_iter@PAUraw_view@?1???R?$ConvertToContainer@V?$vector@V?$basic_string_view@DU?$char_traits@D@__Cr@std@@@__Cr@std@@V?$allocator@V?$basic_string_view@DU?$char_traits@D@__Cr@std@@@__Cr@std@@@23@@__Cr@std@@V?$basic_string_view@DU?$char_traits@D@__Cr@std@@@23@$0A@@?$Splitter@VByChar@absl@@UAllowEmpty@2@V?$basic_string_view@DU?$char_traits@D@__Cr@std@@@__Cr@std@@@strings_internal@absl@@QBE?AV?$vector@V?$basic_string_view@DU?$char_traits@D@__Cr@std@@@__Cr@std@@V?$allocator@V?$basic_string_view@DU?$char_traits@D@__Cr@std@@@__Cr@std@@@23@@__Cr@std@@ABV345@@Z@@__Cr@std@@HH$0A@@__Cr@std@@YAXAAV?$__wrap_iter@PAUraw_view@?1???R?$ConvertToContainer@V?$vector@V?$basic_string_view@DU?$char_traits@D@__Cr@std@@@__Cr@std@@V?$allocator@V?$basic_string_view@DU?$char_traits@D@__Cr@std@@@__Cr@std@@@23@@__Cr@std@@V?$basic_string_view@DU?$char_traits@D@__Cr@std@@@23@$0A@@?$Splitter@VByChar@absl@@UAllowEmpty@2@V?$basic_string_view@DU?$char_traits@D@__Cr@std@@@__Cr@std@@@strings_internal@absl@@QBE?AV?$vector@V?$basic_string_view@DU?$char_traits@D@__Cr@std@@@__Cr@std@@V?$allocator@V?$basic_string_view@DU?$char_traits@D@__Cr@std@@@__Cr@std@@@23@@__Cr@std@@ABV345@@Z@@01@H@Z
    ??$apply@U?$EqualElement@V?$basic_string_view@DU?$char_traits@D@__Cr@std@@@__Cr@std@@@?$raw_hash_set@U?$FlatHashMapPolicy@V?$basic_string_view@DU?$char_traits@D@__Cr@std@@@__Cr@std@@PAVCommandLineFlag@absl@@@container_internal@absl@@UStringHash@23@UStringEq@23@V?$allocator@U?$pair@$$CBV?$basic_string_view@DU?$char_traits@D@__Cr@std@@@__Cr@std@@PAVCommandLineFlag@absl@@@__Cr@std@@@__Cr@std@@@container_internal@absl@@AAU?$pair@$$CBV?$basic_string_view@DU?$char_traits@D@__Cr@std@@@__Cr@std@@PAVCommandLineFlag@absl@@@__Cr@std@@@?$FlatHashMapPolicy@V?$basic_string_view@DU?$char_traits@D@__Cr@std@@@__Cr@std@@PAVCommandLineFlag@absl@@@container_internal@absl@@SA_N$$QAU?$EqualElement@V?$basic_string_view@DU?$char_traits@D@__Cr@std@@@__Cr@std@@@?$raw_hash_set@U?$FlatHashMapPolicy@V?$basic_string_view@DU?$char_traits@D@__Cr@std@@@__Cr@std@@PAVCommandLineFlag@absl@@@container_internal@absl@@UStringHash@23@UStringEq@23@V?$allocator@U?$pair@$$CBV?$basic_string_view@DU?$char_traits@D@__Cr@std@@@__Cr@std@@PAVCommandLineFlag@absl@@@__Cr@std@@@__Cr@std@@@12@AAU?$pair@$$CBV?$basic_string_view@DU?$char_traits@D@__Cr@std@@@__Cr@std@@PAVCommandLineFlag@absl@@@__Cr@std@@@Z
    ??$apply@U?$EqualElement@V?$basic_string_view@DU?$char_traits@D@__Cr@std@@@__Cr@std@@@?$raw_hash_set@U?$FlatHashMapPolicy@V?$basic_string_view@DU?$char_traits@D@__Cr@std@@@__Cr@std@@PAVCommandLineFlag@absl@@@container_internal@absl@@UStringHash@23@UStringEq@23@V?$allocator@U?$pair@$$CBV?$basic_string_view@DU?$char_traits@D@__Cr@std@@@__Cr@std@@PAVCommandLineFlag@absl@@@__Cr@std@@@__Cr@std@@@container_internal@absl@@AAU?$pair@$$CBV?$basic_string_view@DU?$char_traits@D@__Cr@std@@@__Cr@std@@PAVCommandLineFlag@absl@@@__Cr@std@@U?$FlatHashMapPolicy@V?$basic_string_view@DU?$char_traits@D@__Cr@std@@@__Cr@std@@PAVCommandLineFlag@absl@@@34@@?$hash_policy_traits@U?$FlatHashMapPolicy@V?$basic_string_view@DU?$char_traits@D@__Cr@std@@@__Cr@std@@PAVCommandLineFlag@absl@@@container_internal@absl@@X@container_internal@absl@@SA_N$$QAU?$EqualElement@V?$basic_string_view@DU?$char_traits@D@__Cr@std@@@__Cr@std@@@?$raw_hash_set@U?$FlatHashMapPolicy@V?$basic_string_view@DU?$char_traits@D@__Cr@std@@@__Cr@std@@PAVCommandLineFlag@absl@@@container_internal@absl@@UStringHash@23@UStringEq@23@V?$allocator@U?$pair@$$CBV?$basic_string_view@DU?$char_traits@D@__Cr@std@@@__Cr@std@@PAVCommandLineFlag@absl@@@__Cr@std@@@__Cr@std@@@12@AAU?$pair@$$CBV?$basic_string_view@DU?$char_traits@D@__Cr@std@@@__Cr@std@@PAVCommandLineFlag@absl@@@__Cr@std@@@Z
    ??$apply@UEmplaceDecomposable@?$raw_hash_set@U?$FlatHashMapPolicy@V?$basic_string_view@DU?$char_traits@D@__Cr@std@@@__Cr@std@@PAVCommandLineFlag@absl@@@container_internal@absl@@UStringHash@23@UStringEq@23@V?$allocator@U?$pair@$$CBV?$basic_string_view@DU?$char_traits@D@__Cr@std@@@__Cr@std@@PAVCommandLineFlag@absl@@@__Cr@std@@@__Cr@std@@@container_internal@absl@@U?$pair@$$CBV?$basic_string_view@DU?$char_traits@D@__Cr@std@@@__Cr@std@@PAVCommandLineFlag@absl@@@__Cr@std@@@?$FlatHashMapPolicy@V?$basic_string_view@DU?$char_traits@D@__Cr@std@@@__Cr@std@@PAVCommandLineFlag@absl@@@container_internal@absl@@SA?AU?$pair@Viterator@?$raw_hash_set@U?$FlatHashMapPolicy@V?$basic_string_view@DU?$char_traits@D@__Cr@std@@@__Cr@std@@PAVCommandLineFlag@absl@@@container_internal@absl@@UStringHash@23@UStringEq@23@V?$allocator@U?$pair@$$CBV?$basic_string_view@DU?$char_traits@D@__Cr@std@@@__Cr@std@@PAVCommandLineFlag@absl@@@__Cr@std@@@__Cr@std@@@container_internal@absl@@_N@__Cr@std@@$$QAUEmplaceDecomposable@?$raw_hash_set@U?$FlatHashMapPolicy@V?$basic_string_view@DU?$char_traits@D@__Cr@std@@@__Cr@std@@PAVCommandLineFlag@absl@@@container_internal@absl@@UStringHash@23@UStringEq@23@V?$allocator@U?$pair@$$CBV?$basic_string_view@DU?$char_traits@D@__Cr@std@@@__Cr@std@@PAVCommandLineFlag@absl@@@__Cr@std@@@__Cr@std@@@12@$$QAU?$pair@$$CBV?$basic_string_view@DU?$char_traits@D@__Cr@std@@@__Cr@std@@PAVCommandLineFlag@absl@@@45@@Z
    ??$apply@UEmplaceDecomposable@?$raw_hash_set@U?$FlatHashMapPolicy@V?$basic_string_view@DU?$char_traits@D@__Cr@std@@@__Cr@std@@PAVCommandLineFlag@absl@@@container_internal@absl@@UStringHash@23@UStringEq@23@V?$allocator@U?$pair@$$CBV?$basic_string_view@DU?$char_traits@D@__Cr@std@@@__Cr@std@@PAVCommandLineFlag@absl@@@__Cr@std@@@__Cr@std@@@container_internal@absl@@U?$pair@$$CBV?$basic_string_view@DU?$char_traits@D@__Cr@std@@@__Cr@std@@PAVCommandLineFlag@absl@@@__Cr@std@@U?$FlatHashMapPolicy@V?$basic_string_view@DU?$char_traits@D@__Cr@std@@@__Cr@std@@PAVCommandLineFlag@absl@@@34@@?$hash_policy_traits@U?$FlatHashMapPolicy@V?$basic_string_view@DU?$char_traits@D@__Cr@std@@@__Cr@std@@PAVCommandLineFlag@absl@@@container_internal@absl@@X@container_internal@absl@@SA?AU?$pair@Viterator@?$raw_hash_set@U?$FlatHashMapPolicy@V?$basic_string_view@DU?$char_traits@D@__Cr@std@@@__Cr@std@@PAVCommandLineFlag@absl@@@container_internal@absl@@UStringHash@23@UStringEq@23@V?$allocator@U?$pair@$$CBV?$basic_string_view@DU?$char_traits@D@__Cr@std@@@__Cr@std@@PAVCommandLineFlag@absl@@@__Cr@std@@@__Cr@std@@@container_internal@absl@@_N@__Cr@std@@$$QAUEmplaceDecomposable@?$raw_hash_set@U?$FlatHashMapPolicy@V?$basic_string_view@DU?$char_traits@D@__Cr@std@@@__Cr@std@@PAVCommandLineFlag@absl@@@container_internal@absl@@UStringHash@23@UStringEq@23@V?$allocator@U?$pair@$$CBV?$basic_string_view@DU?$char_traits@D@__Cr@std@@@__Cr@std@@PAVCommandLineFlag@absl@@@__Cr@std@@@__Cr@std@@@12@$$QAU?$pair@$$CBV?$basic_string_view@DU?$char_traits@D@__Cr@std@@@__Cr@std@@PAVCommandLineFlag@absl@@@45@@Z
    ??$apply@UEmplaceDecomposable@?$raw_hash_set@U?$FlatHashMapPolicy@V?$basic_string_view@DU?$char_traits@D@__Cr@std@@@__Cr@std@@PAVCommandLineFlag@absl@@@container_internal@absl@@UStringHash@23@UStringEq@23@V?$allocator@U?$pair@$$CBV?$basic_string_view@DU?$char_traits@D@__Cr@std@@@__Cr@std@@PAVCommandLineFlag@absl@@@__Cr@std@@@__Cr@std@@@container_internal@absl@@U?$pair@V?$basic_string_view@DU?$char_traits@D@__Cr@std@@@__Cr@std@@PAVCommandLineFlag@absl@@@__Cr@std@@@?$FlatHashMapPolicy@V?$basic_string_view@DU?$char_traits@D@__Cr@std@@@__Cr@std@@PAVCommandLineFlag@absl@@@container_internal@absl@@SA?AU?$pair@Viterator@?$raw_hash_set@U?$FlatHashMapPolicy@V?$basic_string_view@DU?$char_traits@D@__Cr@std@@@__Cr@std@@PAVCommandLineFlag@absl@@@container_internal@absl@@UStringHash@23@UStringEq@23@V?$allocator@U?$pair@$$CBV?$basic_string_view@DU?$char_traits@D@__Cr@std@@@__Cr@std@@PAVCommandLineFlag@absl@@@__Cr@std@@@__Cr@std@@@container_internal@absl@@_N@__Cr@std@@$$QAUEmplaceDecomposable@?$raw_hash_set@U?$FlatHashMapPolicy@V?$basic_string_view@DU?$char_traits@D@__Cr@std@@@__Cr@std@@PAVCommandLineFlag@absl@@@container_internal@absl@@UStringHash@23@UStringEq@23@V?$allocator@U?$pair@$$CBV?$basic_string_view@DU?$char_traits@D@__Cr@std@@@__Cr@std@@PAVCommandLineFlag@absl@@@__Cr@std@@@__Cr@std@@@12@$$QAU?$pair@V?$basic_string_view@DU?$char_traits@D@__Cr@std@@@__Cr@std@@PAVCommandLineFlag@absl@@@45@@Z
    ??$apply@UEmplaceDecomposable@?$raw_hash_set@U?$FlatHashMapPolicy@V?$basic_string_view@DU?$char_traits@D@__Cr@std@@@__Cr@std@@PAVCommandLineFlag@absl@@@container_internal@absl@@UStringHash@23@UStringEq@23@V?$allocator@U?$pair@$$CBV?$basic_string_view@DU?$char_traits@D@__Cr@std@@@__Cr@std@@PAVCommandLineFlag@absl@@@__Cr@std@@@__Cr@std@@@container_internal@absl@@U?$pair@V?$basic_string_view@DU?$char_traits@D@__Cr@std@@@__Cr@std@@PAVCommandLineFlag@absl@@@__Cr@std@@U?$FlatHashMapPolicy@V?$basic_string_view@DU?$char_traits@D@__Cr@std@@@__Cr@std@@PAVCommandLineFlag@absl@@@34@@?$hash_policy_traits@U?$FlatHashMapPolicy@V?$basic_string_view@DU?$char_traits@D@__Cr@std@@@__Cr@std@@PAVCommandLineFlag@absl@@@container_internal@absl@@X@container_internal@absl@@SA?AU?$pair@Viterator@?$raw_hash_set@U?$FlatHashMapPolicy@V?$basic_string_view@DU?$char_traits@D@__Cr@std@@@__Cr@std@@PAVCommandLineFlag@absl@@@container_internal@absl@@UStringHash@23@UStringEq@23@V?$allocator@U?$pair@$$CBV?$basic_string_view@DU?$char_traits@D@__Cr@std@@@__Cr@std@@PAVCommandLineFlag@absl@@@__Cr@std@@@__Cr@std@@@container_internal@absl@@_N@__Cr@std@@$$QAUEmplaceDecomposable@?$raw_hash_set@U?$FlatHashMapPolicy@V?$basic_string_view@DU?$char_traits@D@__Cr@std@@@__Cr@std@@PAVCommandLineFlag@absl@@@container_internal@absl@@UStringHash@23@UStringEq@23@V?$allocator@U?$pair@$$CBV?$basic_string_view@DU?$char_traits@D@__Cr@std@@@__Cr@std@@PAVCommandLineFlag@absl@@@__Cr@std@@@__Cr@std@@@12@$$QAU?$pair@V?$basic_string_view@DU?$char_traits@D@__Cr@std@@@__Cr@std@@PAVCommandLineFlag@absl@@@45@@Z
    ??$apply@UFindElement@?$raw_hash_set@U?$FlatHashMapPolicy@V?$basic_string_view@DU?$char_traits@D@__Cr@std@@@__Cr@std@@PAVCommandLineFlag@absl@@@container_internal@absl@@UStringHash@23@UStringEq@23@V?$allocator@U?$pair@$$CBV?$basic_string_view@DU?$char_traits@D@__Cr@std@@@__Cr@std@@PAVCommandLineFlag@absl@@@__Cr@std@@@__Cr@std@@@container_internal@absl@@AAU?$pair@$$CBV?$basic_string_view@DU?$char_traits@D@__Cr@std@@@__Cr@std@@PAVCommandLineFlag@absl@@@__Cr@std@@@?$FlatHashMapPolicy@V?$basic_string_view@DU?$char_traits@D@__Cr@std@@@__Cr@std@@PAVCommandLineFlag@absl@@@container_internal@absl@@SA?AVconst_iterator@?$raw_hash_set@U?$FlatHashMapPolicy@V?$basic_string_view@DU?$char_traits@D@__Cr@std@@@__Cr@std@@PAVCommandLineFlag@absl@@@container_internal@absl@@UStringHash@23@UStringEq@23@V?$allocator@U?$pair@$$CBV?$basic_string_view@DU?$char_traits@D@__Cr@std@@@__Cr@std@@PAVCommandLineFlag@absl@@@__Cr@std@@@__Cr@std@@@12@$$QAUFindElement@412@AAU?$pair@$$CBV?$basic_string_view@DU?$char_traits@D@__Cr@std@@@__Cr@std@@PAVCommandLineFlag@absl@@@__Cr@std@@@Z
    ??$apply@UFindElement@?$raw_hash_set@U?$FlatHashMapPolicy@V?$basic_string_view@DU?$char_traits@D@__Cr@std@@@__Cr@std@@PAVCommandLineFlag@absl@@@container_internal@absl@@UStringHash@23@UStringEq@23@V?$allocator@U?$pair@$$CBV?$basic_string_view@DU?$char_traits@D@__Cr@std@@@__Cr@std@@PAVCommandLineFlag@absl@@@__Cr@std@@@__Cr@std@@@container_internal@absl@@AAU?$pair@$$CBV?$basic_string_view@DU?$char_traits@D@__Cr@std@@@__Cr@std@@PAVCommandLineFlag@absl@@@__Cr@std@@U?$FlatHashMapPolicy@V?$basic_string_view@DU?$char_traits@D@__Cr@std@@@__Cr@std@@PAVCommandLineFlag@absl@@@34@@?$hash_policy_traits@U?$FlatHashMapPolicy@V?$basic_string_view@DU?$char_traits@D@__Cr@std@@@__Cr@std@@PAVCommandLineFlag@absl@@@container_internal@absl@@X@container_internal@absl@@SA?AVconst_iterator@?$raw_hash_set@U?$FlatHashMapPolicy@V?$basic_string_view@DU?$char_traits@D@__Cr@std@@@__Cr@std@@PAVCommandLineFlag@absl@@@container_internal@absl@@UStringHash@23@UStringEq@23@V?$allocator@U?$pair@$$CBV?$basic_string_view@DU?$char_traits@D@__Cr@std@@@__Cr@std@@PAVCommandLineFlag@absl@@@__Cr@std@@@__Cr@std@@@12@$$QAUFindElement@412@AAU?$pair@$$CBV?$basic_string_view@DU?$char_traits@D@__Cr@std@@@__Cr@std@@PAVCommandLineFlag@absl@@@__Cr@std@@@Z
    ??$apply@UHashElement@?$raw_hash_set@U?$FlatHashMapPolicy@V?$basic_string_view@DU?$char_traits@D@__Cr@std@@@__Cr@std@@PAVCommandLineFlag@absl@@@container_internal@absl@@UStringHash@23@UStringEq@23@V?$allocator@U?$pair@$$CBV?$basic_string_view@DU?$char_traits@D@__Cr@std@@@__Cr@std@@PAVCommandLineFlag@absl@@@__Cr@std@@@__Cr@std@@@container_internal@absl@@AAU?$pair@$$CBV?$basic_string_view@DU?$char_traits@D@__Cr@std@@@__Cr@std@@PAVCommandLineFlag@absl@@@__Cr@std@@@?$FlatHashMapPolicy@V?$basic_string_view@DU?$char_traits@D@__Cr@std@@@__Cr@std@@PAVCommandLineFlag@absl@@@container_internal@absl@@SAI$$QAUHashElement@?$raw_hash_set@U?$FlatHashMapPolicy@V?$basic_string_view@DU?$char_traits@D@__Cr@std@@@__Cr@std@@PAVCommandLineFlag@absl@@@container_internal@absl@@UStringHash@23@UStringEq@23@V?$allocator@U?$pair@$$CBV?$basic_string_view@DU?$char_traits@D@__Cr@std@@@__Cr@std@@PAVCommandLineFlag@absl@@@__Cr@std@@@__Cr@std@@@12@AAU?$pair@$$CBV?$basic_string_view@DU?$char_traits@D@__Cr@std@@@__Cr@std@@PAVCommandLineFlag@absl@@@__Cr@std@@@Z
    ??$apply@UHashElement@?$raw_hash_set@U?$FlatHashMapPolicy@V?$basic_string_view@DU?$char_traits@D@__Cr@std@@@__Cr@std@@PAVCommandLineFlag@absl@@@container_internal@absl@@UStringHash@23@UStringEq@23@V?$allocator@U?$pair@$$CBV?$basic_string_view@DU?$char_traits@D@__Cr@std@@@__Cr@std@@PAVCommandLineFlag@absl@@@__Cr@std@@@__Cr@std@@@container_internal@absl@@AAU?$pair@$$CBV?$basic_string_view@DU?$char_traits@D@__Cr@std@@@__Cr@std@@PAVCommandLineFlag@absl@@@__Cr@std@@U?$FlatHashMapPolicy@V?$basic_string_view@DU?$char_traits@D@__Cr@std@@@__Cr@std@@PAVCommandLineFlag@absl@@@34@@?$hash_policy_traits@U?$FlatHashMapPolicy@V?$basic_string_view@DU?$char_traits@D@__Cr@std@@@__Cr@std@@PAVCommandLineFlag@absl@@@container_internal@absl@@X@container_internal@absl@@SAI$$QAUHashElement@?$raw_hash_set@U?$FlatHashMapPolicy@V?$basic_string_view@DU?$char_traits@D@__Cr@std@@@__Cr@std@@PAVCommandLineFlag@absl@@@container_internal@absl@@UStringHash@23@UStringEq@23@V?$allocator@U?$pair@$$CBV?$basic_string_view@DU?$char_traits@D@__Cr@std@@@__Cr@std@@PAVCommandLineFlag@absl@@@__Cr@std@@@__Cr@std@@@12@AAU?$pair@$$CBV?$basic_string_view@DU?$char_traits@D@__Cr@std@@@__Cr@std@@PAVCommandLineFlag@absl@@@__Cr@std@@@Z
    ??$assign@V?$__deque_iterator@UPrefixCrc@CrcCordState@crc_internal@absl@@PBU1234@ABU1234@PBQBU1234@H$0A@@__Cr@std@@$0A@@?$deque@UPrefixCrc@CrcCordState@crc_internal@absl@@V?$allocator@UPrefixCrc@CrcCordState@crc_internal@absl@@@__Cr@std@@@__Cr@std@@QAEXV?$__deque_iterator@UPrefixCrc@CrcCordState@crc_internal@absl@@PBU1234@ABU1234@PBQBU1234@H$0A@@12@0@Z
    ??$begin@V?$vector@PAVCommandLineFlag@absl@@V?$allocator@PAVCommandLineFlag@absl@@@__Cr@std@@@__Cr@std@@@__Cr@std@@YA?AV?$__wrap_iter@PAPAVCommandLineFlag@absl@@@01@AAV?$vector@PAVCommandLineFlag@absl@@V?$allocator@PAVCommandLineFlag@absl@@@__Cr@std@@@01@@Z
    ??$begin@V?$vector@PBVCommandLineFlag@absl@@V?$allocator@PBVCommandLineFlag@absl@@@__Cr@std@@@__Cr@std@@@__Cr@std@@YA?AV?$__wrap_iter@PAPBVCommandLineFlag@absl@@@01@AAV?$vector@PBVCommandLineFlag@absl@@V?$allocator@PBVCommandLineFlag@absl@@@__Cr@std@@@01@@Z
    ??$bit_cast@U?$FlagValueAndInitBit@_N@flags_internal@absl@@_J@__Cr@std@@YA?AU?$FlagValueAndInitBit@_N@flags_internal@absl@@AB_J@Z
    ??$c_begin@V?$vector@V?$basic_string@DU?$char_traits@D@__Cr@std@@V?$allocator@D@23@@__Cr@std@@V?$allocator@V?$basic_string@DU?$char_traits@D@__Cr@std@@V?$allocator@D@23@@__Cr@std@@@23@@__Cr@std@@@container_algorithm_internal@absl@@YA?AV?$__wrap_iter@PAV?$basic_string@DU?$char_traits@D@__Cr@std@@V?$allocator@D@23@@__Cr@std@@@__Cr@std@@AAV?$vector@V?$basic_string@DU?$char_traits@D@__Cr@std@@V?$allocator@D@23@@__Cr@std@@V?$allocator@V?$basic_string@DU?$char_traits@D@__Cr@std@@V?$allocator@D@23@@__Cr@std@@@23@@34@@Z
    ??$c_end@V?$vector@V?$basic_string@DU?$char_traits@D@__Cr@std@@V?$allocator@D@23@@__Cr@std@@V?$allocator@V?$basic_string@DU?$char_traits@D@__Cr@std@@V?$allocator@D@23@@__Cr@std@@@23@@__Cr@std@@@container_algorithm_internal@absl@@YA?AV?$__wrap_iter@PAV?$basic_string@DU?$char_traits@D@__Cr@std@@V?$allocator@D@23@@__Cr@std@@@__Cr@std@@AAV?$vector@V?$basic_string@DU?$char_traits@D@__Cr@std@@V?$allocator@D@23@@__Cr@std@@V?$allocator@V?$basic_string@DU?$char_traits@D@__Cr@std@@V?$allocator@D@23@@__Cr@std@@@23@@34@@Z
    ??$call_once@A6AXXZ$$V@absl@@YAXAAVonce_flag@0@A6AXXZ@Z
    ??$call_once@P8FlagImpl@flags_internal@absl@@AEXXZPAV123@@absl@@YAXAAVonce_flag@0@$$QAP8FlagImpl@flags_internal@0@AEXXZ$$QAPAV230@@Z
    ??$combine@H$$V@?$HashStateBase@VMixingHashState@hash_internal@absl@@@hash_internal@absl@@SA?AVMixingHashState@12@V312@ABH@Z
    ??$combine@I$$V@?$HashStateBase@VMixingHashState@hash_internal@absl@@@hash_internal@absl@@SA?AVMixingHashState@12@V312@ABI@Z
    ??$combine@UWeaklyMixedInteger@hash_internal@absl@@$$V@?$HashStateBase@VMixingHashState@hash_internal@absl@@@hash_internal@absl@@SA?AVMixingHashState@12@V312@ABUWeaklyMixedInteger@12@@Z
    ??$combine@V?$basic_string_view@DU?$char_traits@D@__Cr@std@@@__Cr@std@@$$V@?$HashStateBase@VMixingHashState@hash_internal@absl@@@hash_internal@absl@@SA?AVMixingHashState@12@V312@ABV?$basic_string_view@DU?$char_traits@D@__Cr@std@@@__Cr@std@@@Z
    ??$combine@V?$basic_string_view@DU?$char_traits@D@__Cr@std@@@__Cr@std@@H@?$HashStateBase@VMixingHashState@hash_internal@absl@@@hash_internal@absl@@SA?AVMixingHashState@12@V312@ABV?$basic_string_view@DU?$char_traits@D@__Cr@std@@@__Cr@std@@ABH@Z
    ??$combine@V?$tuple@ABI@__Cr@std@@$$V@?$HashStateBase@VMixingHashState@hash_internal@absl@@@hash_internal@absl@@SA?AVMixingHashState@12@V312@ABV?$tuple@ABI@__Cr@std@@@Z
    ??$combine@V?$tuple@ABV?$basic_string_view@DU?$char_traits@D@__Cr@std@@@__Cr@std@@ABH@__Cr@std@@$$V@?$HashStateBase@VMixingHashState@hash_internal@absl@@@hash_internal@absl@@SA?AVMixingHashState@12@V312@ABV?$tuple@ABV?$basic_string_view@DU?$char_traits@D@__Cr@std@@@__Cr@std@@ABH@__Cr@std@@@Z
    ??$combine_contiguous@D@?$HashStateBase@VMixingHashState@hash_internal@absl@@@hash_internal@absl@@SA?AVMixingHashState@12@V312@PBDI@Z
    ??$construct@ABUpiecewise_construct_t@__Cr@std@@V?$tuple@$$QAV?$basic_string_view@DU?$char_traits@D@__Cr@std@@@__Cr@std@@@23@V?$tuple@$$QAPAVCommandLineFlag@absl@@@23@@?$raw_hash_set@U?$FlatHashMapPolicy@V?$basic_string_view@DU?$char_traits@D@__Cr@std@@@__Cr@std@@PAVCommandLineFlag@absl@@@container_internal@absl@@UStringHash@23@UStringEq@23@V?$allocator@U?$pair@$$CBV?$basic_string_view@DU?$char_traits@D@__Cr@std@@@__Cr@std@@PAVCommandLineFlag@absl@@@__Cr@std@@@__Cr@std@@@container_internal@absl@@AAEXPAT?$map_slot_type@V?$basic_string_view@DU?$char_traits@D@__Cr@std@@@__Cr@std@@PAVCommandLineFlag@absl@@@12@ABUpiecewise_construct_t@__Cr@std@@$$QAV?$tuple@$$QAV?$basic_string_view@DU?$char_traits@D@__Cr@std@@@__Cr@std@@@56@$$QAV?$tuple@$$QAPAVCommandLineFlag@absl@@@56@@Z
    ??$construct@ABUpiecewise_construct_t@__Cr@std@@V?$tuple@$$QBV?$basic_string_view@DU?$char_traits@D@__Cr@std@@@__Cr@std@@@23@V?$tuple@$$QAPAVCommandLineFlag@absl@@@23@@?$raw_hash_set@U?$FlatHashMapPolicy@V?$basic_string_view@DU?$char_traits@D@__Cr@std@@@__Cr@std@@PAVCommandLineFlag@absl@@@container_internal@absl@@UStringHash@23@UStringEq@23@V?$allocator@U?$pair@$$CBV?$basic_string_view@DU?$char_traits@D@__Cr@std@@@__Cr@std@@PAVCommandLineFlag@absl@@@__Cr@std@@@__Cr@std@@@container_internal@absl@@AAEXPAT?$map_slot_type@V?$basic_string_view@DU?$char_traits@D@__Cr@std@@@__Cr@std@@PAVCommandLineFlag@absl@@@12@ABUpiecewise_construct_t@__Cr@std@@$$QAV?$tuple@$$QBV?$basic_string_view@DU?$char_traits@D@__Cr@std@@@__Cr@std@@@56@$$QAV?$tuple@$$QAPAVCommandLineFlag@absl@@@56@@Z
    ??$construct@PAPBVImpl@time_zone@cctz@time_internal@absl@@AAPAPBV12345@$0A@@?$allocator_traits@V?$allocator@PAPBVImpl@time_zone@cctz@time_internal@absl@@@__Cr@std@@@__Cr@std@@SAXAAV?$allocator@PAPBVImpl@time_zone@cctz@time_internal@absl@@@12@PAPAPBVImpl@time_zone@cctz@time_internal@absl@@AAPAPBV45678@@Z
    ??$construct@PAPBVImpl@time_zone@cctz@time_internal@absl@@PAPBV12345@$0A@@?$allocator_traits@V?$allocator@PAPBVImpl@time_zone@cctz@time_internal@absl@@@__Cr@std@@@__Cr@std@@SAXAAV?$allocator@PAPBVImpl@time_zone@cctz@time_internal@absl@@@12@PAPAPBVImpl@time_zone@cctz@time_internal@absl@@$$QAPAPBV45678@@Z
    ??$construct@PAUCordRep@cord_internal@absl@@ABQAU123@$0A@@?$allocator_traits@V?$allocator@PAUCordRep@cord_internal@absl@@@__Cr@std@@@__Cr@std@@SAXAAV?$allocator@PAUCordRep@cord_internal@absl@@@12@PAPAUCordRep@cord_internal@absl@@ABQAU456@@Z
    ??$construct@PAUCordRep@cord_internal@absl@@PAU123@$0A@@?$allocator_traits@V?$allocator@PAUCordRep@cord_internal@absl@@@__Cr@std@@@__Cr@std@@SAXAAV?$allocator@PAUCordRep@cord_internal@absl@@@12@PAPAUCordRep@cord_internal@absl@@$$QAPAU456@@Z
    ??$construct@PAUPrefixCrc@CrcCordState@crc_internal@absl@@AAPAU1234@$0A@@?$allocator_traits@V?$allocator@PAUPrefixCrc@CrcCordState@crc_internal@absl@@@__Cr@std@@@__Cr@std@@SAXAAV?$allocator@PAUPrefixCrc@CrcCordState@crc_internal@absl@@@12@PAPAUPrefixCrc@CrcCordState@crc_internal@absl@@AAPAU4567@@Z
    ??$construct@PAUPrefixCrc@CrcCordState@crc_internal@absl@@PAU1234@$0A@@?$allocator_traits@V?$allocator@PAUPrefixCrc@CrcCordState@crc_internal@absl@@@__Cr@std@@@__Cr@std@@SAXAAV?$allocator@PAUPrefixCrc@CrcCordState@crc_internal@absl@@@12@PAPAUPrefixCrc@CrcCordState@crc_internal@absl@@$$QAPAU4567@@Z
    ??$construct@PAVCommandLineFlag@absl@@ABQAV12@$0A@@?$allocator_traits@V?$allocator@PAVCommandLineFlag@absl@@@__Cr@std@@@__Cr@std@@SAXAAV?$allocator@PAVCommandLineFlag@absl@@@12@PAPAVCommandLineFlag@absl@@ABQAV45@@Z
    ??$construct@PAVCordzHandle@cord_internal@absl@@ABQAV123@$0A@@?$allocator_traits@V?$allocator@PAVCordzHandle@cord_internal@absl@@@__Cr@std@@@__Cr@std@@SAXAAV?$allocator@PAVCordzHandle@cord_internal@absl@@@12@PAPAVCordzHandle@cord_internal@absl@@ABQAV456@@Z
    ??$construct@PAVLogSink@absl@@ABQAV12@$0A@@?$allocator_traits@V?$allocator@PAVLogSink@absl@@@__Cr@std@@@__Cr@std@@SAXAAV?$allocator@PAVLogSink@absl@@@12@PAPAVLogSink@absl@@ABQAV45@@Z
    ??$construct@PAVLogSink@absl@@PAV12@$0A@@?$allocator_traits@V?$allocator@PAVLogSink@absl@@@__Cr@std@@@__Cr@std@@SAXAAV?$allocator@PAVLogSink@absl@@@12@PAPAVLogSink@absl@@$$QAPAV45@@Z
    ??$construct@PBUCordRep@cord_internal@absl@@ABQBU123@$0A@@?$allocator_traits@V?$allocator@U?$__hash_node@PBUCordRep@cord_internal@absl@@PAX@__Cr@std@@@__Cr@std@@@__Cr@std@@SAXAAV?$allocator@U?$__hash_node@PBUCordRep@cord_internal@absl@@PAX@__Cr@std@@@12@PAPBUCordRep@cord_internal@absl@@ABQBU456@@Z
    ??$construct@PBVCommandLineFlag@absl@@ABQBV12@$0A@@?$allocator_traits@V?$allocator@PBVCommandLineFlag@absl@@@__Cr@std@@@__Cr@std@@SAXAAV?$allocator@PBVCommandLineFlag@absl@@@12@PAPBVCommandLineFlag@absl@@ABQBV45@@Z
    ??$construct@PBVCommandLineFlag@absl@@PBV12@$0A@@?$allocator_traits@V?$allocator@PBVCommandLineFlag@absl@@@__Cr@std@@@__Cr@std@@SAXAAV?$allocator@PBVCommandLineFlag@absl@@@12@PAPBVCommandLineFlag@absl@@$$QAPBV45@@Z
    ??$construct@PBVCordzHandle@cord_internal@absl@@ABQBV123@$0A@@?$allocator_traits@V?$allocator@PBVCordzHandle@cord_internal@absl@@@__Cr@std@@@__Cr@std@@SAXAAV?$allocator@PBVCordzHandle@cord_internal@absl@@@12@PAPBVCordzHandle@cord_internal@absl@@ABQBV456@@Z
    ??$construct@PBVImpl@time_zone@cctz@time_internal@absl@@ABQBV12345@$0A@@?$allocator_traits@V?$allocator@PBVImpl@time_zone@cctz@time_internal@absl@@@__Cr@std@@@__Cr@std@@SAXAAV?$allocator@PBVImpl@time_zone@cctz@time_internal@absl@@@12@PAPBVImpl@time_zone@cctz@time_internal@absl@@ABQBV45678@@Z
    ??$construct@U?$pair@$$CBV?$basic_string@DU?$char_traits@D@__Cr@std@@V?$allocator@D@23@@__Cr@std@@PBVImpl@time_zone@cctz@time_internal@absl@@@__Cr@std@@ABUpiecewise_construct_t@23@V?$tuple@ABV?$basic_string@DU?$char_traits@D@__Cr@std@@V?$allocator@D@23@@__Cr@std@@@23@V?$tuple@$$V@23@$0A@@?$allocator_traits@V?$allocator@U?$__hash_node@U?$__hash_value_type@V?$basic_string@DU?$char_traits@D@__Cr@std@@V?$allocator@D@23@@__Cr@std@@PBVImpl@time_zone@cctz@time_internal@absl@@@__Cr@std@@PAX@__Cr@std@@@__Cr@std@@@__Cr@std@@SAXAAV?$allocator@U?$__hash_node@U?$__hash_value_type@V?$basic_string@DU?$char_traits@D@__Cr@std@@V?$allocator@D@23@@__Cr@std@@PBVImpl@time_zone@cctz@time_internal@absl@@@__Cr@std@@PAX@__Cr@std@@@12@PAU?$pair@$$CBV?$basic_string@DU?$char_traits@D@__Cr@std@@V?$allocator@D@23@@__Cr@std@@PBVImpl@time_zone@cctz@time_internal@absl@@@12@ABUpiecewise_construct_t@12@$$QAV?$tuple@ABV?$basic_string@DU?$char_traits@D@__Cr@std@@V?$allocator@D@23@@__Cr@std@@@12@$$QAV?$tuple@$$V@12@@Z
    ??$construct@U?$pair@$$CBV?$basic_string@DU?$char_traits@D@__Cr@std@@V?$allocator@D@23@@__Cr@std@@V?$map@V?$basic_string@DU?$char_traits@D@__Cr@std@@V?$allocator@D@23@@__Cr@std@@V?$vector@PBVCommandLineFlag@absl@@V?$allocator@PBVCommandLineFlag@absl@@@__Cr@std@@@23@U?$less@V?$basic_string@DU?$char_traits@D@__Cr@std@@V?$allocator@D@23@@__Cr@std@@@23@V?$allocator@U?$pair@$$CBV?$basic_string@DU?$char_traits@D@__Cr@std@@V?$allocator@D@23@@__Cr@std@@V?$vector@PBVCommandLineFlag@absl@@V?$allocator@PBVCommandLineFlag@absl@@@__Cr@std@@@23@@__Cr@std@@@23@@23@@__Cr@std@@ABUpiecewise_construct_t@23@V?$tuple@$$QAV?$basic_string@DU?$char_traits@D@__Cr@std@@V?$allocator@D@23@@__Cr@std@@@23@V?$tuple@$$V@23@$0A@@?$allocator_traits@V?$allocator@V?$__tree_node@U?$__value_type@V?$basic_string@DU?$char_traits@D@__Cr@std@@V?$allocator@D@23@@__Cr@std@@V?$map@V?$basic_string@DU?$char_traits@D@__Cr@std@@V?$allocator@D@23@@__Cr@std@@V?$vector@PBVCommandLineFlag@absl@@V?$allocator@PBVCommandLineFlag@absl@@@__Cr@std@@@23@U?$less@V?$basic_string@DU?$char_traits@D@__Cr@std@@V?$allocator@D@23@@__Cr@std@@@23@V?$allocator@U?$pair@$$CBV?$basic_string@DU?$char_traits@D@__Cr@std@@V?$allocator@D@23@@__Cr@std@@V?$vector@PBVCommandLineFlag@absl@@V?$allocator@PBVCommandLineFlag@absl@@@__Cr@std@@@23@@__Cr@std@@@23@@23@@__Cr@std@@PAX@__Cr@std@@@__Cr@std@@@__Cr@std@@SAXAAV?$allocator@V?$__tree_node@U?$__value_type@V?$basic_string@DU?$char_traits@D@__Cr@std@@V?$allocator@D@23@@__Cr@std@@V?$map@V?$basic_string@DU?$char_traits@D@__Cr@std@@V?$allocator@D@23@@__Cr@std@@V?$vector@PBVCommandLineFlag@absl@@V?$allocator@PBVCommandLineFlag@absl@@@__Cr@std@@@23@U?$less@V?$basic_string@DU?$char_traits@D@__Cr@std@@V?$allocator@D@23@@__Cr@std@@@23@V?$allocator@U?$pair@$$CBV?$basic_string@DU?$char_traits@D@__Cr@std@@V?$allocator@D@23@@__Cr@std@@V?$vector@PBVCommandLineFlag@absl@@V?$allocator@PBVCommandLineFlag@absl@@@__Cr@std@@@23@@__Cr@std@@@23@@23@@__Cr@std@@PAX@__Cr@std@@@12@PAU?$pair@$$CBV?$basic_string@DU?$char_traits@D@__Cr@std@@V?$allocator@D@23@@__Cr@std@@V?$map@V?$basic_string@DU?$char_traits@D@__Cr@std@@V?$allocator@D@23@@__Cr@std@@V?$vector@PBVCommandLineFlag@absl@@V?$allocator@PBVCommandLineFlag@absl@@@__Cr@std@@@23@U?$less@V?$basic_string@DU?$char_traits@D@__Cr@std@@V?$allocator@D@23@@__Cr@std@@@23@V?$allocator@U?$pair@$$CBV?$basic_string@DU?$char_traits@D@__Cr@std@@V?$allocator@D@23@@__Cr@std@@V?$vector@PBVCommandLineFlag@absl@@V?$allocator@PBVCommandLineFlag@absl@@@__Cr@std@@@23@@__Cr@std@@@23@@23@@12@ABUpiecewise_construct_t@12@$$QAV?$tuple@$$QAV?$basic_string@DU?$char_traits@D@__Cr@std@@V?$allocator@D@23@@__Cr@std@@@12@$$QAV?$tuple@$$V@12@@Z
    ??$construct@U?$pair@$$CBV?$basic_string@DU?$char_traits@D@__Cr@std@@V?$allocator@D@23@@__Cr@std@@V?$vector@PBVCommandLineFlag@absl@@V?$allocator@PBVCommandLineFlag@absl@@@__Cr@std@@@23@@__Cr@std@@ABUpiecewise_construct_t@23@V?$tuple@ABV?$basic_string@DU?$char_traits@D@__Cr@std@@V?$allocator@D@23@@__Cr@std@@@23@V?$tuple@$$V@23@$0A@@?$allocator_traits@V?$allocator@V?$__tree_node@U?$__value_type@V?$basic_string@DU?$char_traits@D@__Cr@std@@V?$allocator@D@23@@__Cr@std@@V?$vector@PBVCommandLineFlag@absl@@V?$allocator@PBVCommandLineFlag@absl@@@__Cr@std@@@23@@__Cr@std@@PAX@__Cr@std@@@__Cr@std@@@__Cr@std@@SAXAAV?$allocator@V?$__tree_node@U?$__value_type@V?$basic_string@DU?$char_traits@D@__Cr@std@@V?$allocator@D@23@@__Cr@std@@V?$vector@PBVCommandLineFlag@absl@@V?$allocator@PBVCommandLineFlag@absl@@@__Cr@std@@@23@@__Cr@std@@PAX@__Cr@std@@@12@PAU?$pair@$$CBV?$basic_string@DU?$char_traits@D@__Cr@std@@V?$allocator@D@23@@__Cr@std@@V?$vector@PBVCommandLineFlag@absl@@V?$allocator@PBVCommandLineFlag@absl@@@__Cr@std@@@23@@12@ABUpiecewise_construct_t@12@$$QAV?$tuple@ABV?$basic_string@DU?$char_traits@D@__Cr@std@@V?$allocator@D@23@@__Cr@std@@@12@$$QAV?$tuple@$$V@12@@Z
    ??$construct@U?$pair@V?$basic_string_view@DU?$char_traits@D@__Cr@std@@@__Cr@std@@PAVCommandLineFlag@absl@@@__Cr@std@@ABUpiecewise_construct_t@23@V?$tuple@$$QAV?$basic_string_view@DU?$char_traits@D@__Cr@std@@@__Cr@std@@@23@V?$tuple@$$QAPAVCommandLineFlag@absl@@@23@$0A@@?$allocator_traits@V?$allocator@U?$pair@$$CBV?$basic_string_view@DU?$char_traits@D@__Cr@std@@@__Cr@std@@PAVCommandLineFlag@absl@@@__Cr@std@@@__Cr@std@@@__Cr@std@@SAXAAV?$allocator@U?$pair@$$CBV?$basic_string_view@DU?$char_traits@D@__Cr@std@@@__Cr@std@@PAVCommandLineFlag@absl@@@__Cr@std@@@12@PAU?$pair@V?$basic_string_view@DU?$char_traits@D@__Cr@std@@@__Cr@std@@PAVCommandLineFlag@absl@@@12@ABUpiecewise_construct_t@12@$$QAV?$tuple@$$QAV?$basic_string_view@DU?$char_traits@D@__Cr@std@@@__Cr@std@@@12@$$QAV?$tuple@$$QAPAVCommandLineFlag@absl@@@12@@Z
    ??$construct@U?$pair@V?$basic_string_view@DU?$char_traits@D@__Cr@std@@@__Cr@std@@PAVCommandLineFlag@absl@@@__Cr@std@@ABUpiecewise_construct_t@23@V?$tuple@$$QBV?$basic_string_view@DU?$char_traits@D@__Cr@std@@@__Cr@std@@@23@V?$tuple@$$QAPAVCommandLineFlag@absl@@@23@$0A@@?$allocator_traits@V?$allocator@U?$pair@$$CBV?$basic_string_view@DU?$char_traits@D@__Cr@std@@@__Cr@std@@PAVCommandLineFlag@absl@@@__Cr@std@@@__Cr@std@@@__Cr@std@@SAXAAV?$allocator@U?$pair@$$CBV?$basic_string_view@DU?$char_traits@D@__Cr@std@@@__Cr@std@@PAVCommandLineFlag@absl@@@__Cr@std@@@12@PAU?$pair@V?$basic_string_view@DU?$char_traits@D@__Cr@std@@@__Cr@std@@PAVCommandLineFlag@absl@@@12@ABUpiecewise_construct_t@12@$$QAV?$tuple@$$QBV?$basic_string_view@DU?$char_traits@D@__Cr@std@@@__Cr@std@@@12@$$QAV?$tuple@$$QAPAVCommandLineFlag@absl@@@12@@Z
    ??$construct@UConversionItem@ParsedFormatBase@str_format_internal@absl@@U1234@$0A@@?$allocator_traits@V?$allocator@UConversionItem@ParsedFormatBase@str_format_internal@absl@@@__Cr@std@@@__Cr@std@@SAXAAV?$allocator@UConversionItem@ParsedFormatBase@str_format_internal@absl@@@12@PAUConversionItem@ParsedFormatBase@str_format_internal@absl@@$$QAU4567@@Z
    ??$construct@UPayload@status_internal@absl@@ABU123@$0A@@?$allocator_traits@V?$allocator@UPayload@status_internal@absl@@@__Cr@std@@@__Cr@std@@SAXAAV?$allocator@UPayload@status_internal@absl@@@12@PAUPayload@status_internal@absl@@ABU456@@Z
    ??$construct@UPayload@status_internal@absl@@U123@$0A@@?$allocator_traits@V?$allocator@UPayload@status_internal@absl@@@__Cr@std@@@__Cr@std@@SAXAAV?$allocator@UPayload@status_internal@absl@@@12@PAUPayload@status_internal@absl@@$$QAU456@@Z
    ??$construct@UPrefixCrc@CrcCordState@crc_internal@absl@@ABU1234@$0A@@?$allocator_traits@V?$allocator@UPrefixCrc@CrcCordState@crc_internal@absl@@@__Cr@std@@@__Cr@std@@SAXAAV?$allocator@UPrefixCrc@CrcCordState@crc_internal@absl@@@12@PAUPrefixCrc@CrcCordState@crc_internal@absl@@ABU4567@@Z
    ??$construct@UPrefixCrc@CrcCordState@crc_internal@absl@@HVcrc32c_t@4@$0A@@?$allocator_traits@V?$allocator@UPrefixCrc@CrcCordState@crc_internal@absl@@@__Cr@std@@@__Cr@std@@SAXAAV?$allocator@UPrefixCrc@CrcCordState@crc_internal@absl@@@12@PAUPrefixCrc@CrcCordState@crc_internal@absl@@$$QAH$$QAVcrc32c_t@7@@Z
    ??$construct@UPrefixCrc@CrcCordState@crc_internal@absl@@U1234@$0A@@?$allocator_traits@V?$allocator@UPrefixCrc@CrcCordState@crc_internal@absl@@@__Cr@std@@@__Cr@std@@SAXAAV?$allocator@UPrefixCrc@CrcCordState@crc_internal@absl@@@12@PAUPrefixCrc@CrcCordState@crc_internal@absl@@$$QAU4567@@Z
    ??$construct@UTransition@cctz@time_internal@absl@@$$V$0A@@?$allocator_traits@V?$allocator@UTransition@cctz@time_internal@absl@@@__Cr@std@@@__Cr@std@@SAXAAV?$allocator@UTransition@cctz@time_internal@absl@@@12@PAUTransition@cctz@time_internal@absl@@@Z
    ??$construct@UTransition@cctz@time_internal@absl@@ABU1234@$0A@@?$allocator_traits@V?$allocator@UTransition@cctz@time_internal@absl@@@__Cr@std@@@__Cr@std@@SAXAAV?$allocator@UTransition@cctz@time_internal@absl@@@12@PAUTransition@cctz@time_internal@absl@@ABU4567@@Z
    ??$construct@UTransition@cctz@time_internal@absl@@U1234@$0A@@?$allocator_traits@V?$allocator@UTransition@cctz@time_internal@absl@@@__Cr@std@@@__Cr@std@@SAXAAV?$allocator@UTransition@cctz@time_internal@absl@@@12@PAUTransition@cctz@time_internal@absl@@$$QAU4567@@Z
    ??$construct@UTransitionType@cctz@time_internal@absl@@$$V$0A@@?$allocator_traits@V?$allocator@UTransitionType@cctz@time_internal@absl@@@__Cr@std@@@__Cr@std@@SAXAAV?$allocator@UTransitionType@cctz@time_internal@absl@@@12@PAUTransitionType@cctz@time_internal@absl@@@Z
    ??$construct@UTransitionType@cctz@time_internal@absl@@U1234@$0A@@?$allocator_traits@V?$allocator@UTransitionType@cctz@time_internal@absl@@@__Cr@std@@@__Cr@std@@SAXAAV?$allocator@UTransitionType@cctz@time_internal@absl@@@12@PAUTransitionType@cctz@time_internal@absl@@$$QAU4567@@Z
    ??$construct@UUnrecognizedFlag@absl@@ABU12@$0A@@?$allocator_traits@V?$allocator@UUnrecognizedFlag@absl@@@__Cr@std@@@__Cr@std@@SAXAAV?$allocator@UUnrecognizedFlag@absl@@@12@PAUUnrecognizedFlag@absl@@ABU45@@Z
    ??$construct@UUnrecognizedFlag@absl@@U12@$0A@@?$allocator_traits@V?$allocator@UUnrecognizedFlag@absl@@@__Cr@std@@@__Cr@std@@SAXAAV?$allocator@UUnrecognizedFlag@absl@@@12@PAUUnrecognizedFlag@absl@@$$QAU45@@Z
    ??$construct@UUnrecognizedFlag@absl@@W4Source@12@AAV?$basic_string_view@DU?$char_traits@D@__Cr@std@@@__Cr@std@@$0A@@?$allocator_traits@V?$allocator@UUnrecognizedFlag@absl@@@__Cr@std@@@__Cr@std@@SAXAAV?$allocator@UUnrecognizedFlag@absl@@@12@PAUUnrecognizedFlag@absl@@$$QAW4Source@45@AAV?$basic_string_view@DU?$char_traits@D@__Cr@std@@@12@@Z
    ??$construct@UViableSubstitution@strings_internal@absl@@AAV?$basic_string_view@DU?$char_traits@D@__Cr@std@@@__Cr@std@@ABV456@AAI$0A@@?$allocator_traits@V?$allocator@UViableSubstitution@strings_internal@absl@@@__Cr@std@@@__Cr@std@@SAXAAV?$allocator@UViableSubstitution@strings_internal@absl@@@12@PAUViableSubstitution@strings_internal@absl@@AAV?$basic_string_view@DU?$char_traits@D@__Cr@std@@@12@ABV712@AAI@Z
    ??$construct@V?$allocator@U?$pair@$$CBV?$basic_string_view@DU?$char_traits@D@__Cr@std@@@__Cr@std@@PAVCommandLineFlag@absl@@@__Cr@std@@@__Cr@std@@ABUpiecewise_construct_t@23@V?$tuple@$$QAV?$basic_string_view@DU?$char_traits@D@__Cr@std@@@__Cr@std@@@23@V?$tuple@$$QAPAVCommandLineFlag@absl@@@23@@?$FlatHashMapPolicy@V?$basic_string_view@DU?$char_traits@D@__Cr@std@@@__Cr@std@@PAVCommandLineFlag@absl@@@container_internal@absl@@SAXPAV?$allocator@U?$pair@$$CBV?$basic_string_view@DU?$char_traits@D@__Cr@std@@@__Cr@std@@PAVCommandLineFlag@absl@@@__Cr@std@@@__Cr@std@@PAT?$map_slot_type@V?$basic_string_view@DU?$char_traits@D@__Cr@std@@@__Cr@std@@PAVCommandLineFlag@absl@@@12@ABUpiecewise_construct_t@45@$$QAV?$tuple@$$QAV?$basic_string_view@DU?$char_traits@D@__Cr@std@@@__Cr@std@@@45@$$QAV?$tuple@$$QAPAVCommandLineFlag@absl@@@45@@Z
    ??$construct@V?$allocator@U?$pair@$$CBV?$basic_string_view@DU?$char_traits@D@__Cr@std@@@__Cr@std@@PAVCommandLineFlag@absl@@@__Cr@std@@@__Cr@std@@ABUpiecewise_construct_t@23@V?$tuple@$$QAV?$basic_string_view@DU?$char_traits@D@__Cr@std@@@__Cr@std@@@23@V?$tuple@$$QAPAVCommandLineFlag@absl@@@23@@?$common_policy_traits@U?$FlatHashMapPolicy@V?$basic_string_view@DU?$char_traits@D@__Cr@std@@@__Cr@std@@PAVCommandLineFlag@absl@@@container_internal@absl@@X@container_internal@absl@@SAXPAV?$allocator@U?$pair@$$CBV?$basic_string_view@DU?$char_traits@D@__Cr@std@@@__Cr@std@@PAVCommandLineFlag@absl@@@__Cr@std@@@__Cr@std@@PAT?$map_slot_type@V?$basic_string_view@DU?$char_traits@D@__Cr@std@@@__Cr@std@@PAVCommandLineFlag@absl@@@12@ABUpiecewise_construct_t@45@$$QAV?$tuple@$$QAV?$basic_string_view@DU?$char_traits@D@__Cr@std@@@__Cr@std@@@45@$$QAV?$tuple@$$QAPAVCommandLineFlag@absl@@@45@@Z
    ??$construct@V?$allocator@U?$pair@$$CBV?$basic_string_view@DU?$char_traits@D@__Cr@std@@@__Cr@std@@PAVCommandLineFlag@absl@@@__Cr@std@@@__Cr@std@@ABUpiecewise_construct_t@23@V?$tuple@$$QAV?$basic_string_view@DU?$char_traits@D@__Cr@std@@@__Cr@std@@@23@V?$tuple@$$QAPAVCommandLineFlag@absl@@@23@@?$map_slot_policy@V?$basic_string_view@DU?$char_traits@D@__Cr@std@@@__Cr@std@@PAVCommandLineFlag@absl@@@container_internal@absl@@SAXPAV?$allocator@U?$pair@$$CBV?$basic_string_view@DU?$char_traits@D@__Cr@std@@@__Cr@std@@PAVCommandLineFlag@absl@@@__Cr@std@@@__Cr@std@@PAT?$map_slot_type@V?$basic_string_view@DU?$char_traits@D@__Cr@std@@@__Cr@std@@PAVCommandLineFlag@absl@@@12@ABUpiecewise_construct_t@45@$$QAV?$tuple@$$QAV?$basic_string_view@DU?$char_traits@D@__Cr@std@@@__Cr@std@@@45@$$QAV?$tuple@$$QAPAVCommandLineFlag@absl@@@45@@Z
    ??$construct@V?$allocator@U?$pair@$$CBV?$basic_string_view@DU?$char_traits@D@__Cr@std@@@__Cr@std@@PAVCommandLineFlag@absl@@@__Cr@std@@@__Cr@std@@ABUpiecewise_construct_t@23@V?$tuple@$$QBV?$basic_string_view@DU?$char_traits@D@__Cr@std@@@__Cr@std@@@23@V?$tuple@$$QAPAVCommandLineFlag@absl@@@23@@?$FlatHashMapPolicy@V?$basic_string_view@DU?$char_traits@D@__Cr@std@@@__Cr@std@@PAVCommandLineFlag@absl@@@container_internal@absl@@SAXPAV?$allocator@U?$pair@$$CBV?$basic_string_view@DU?$char_traits@D@__Cr@std@@@__Cr@std@@PAVCommandLineFlag@absl@@@__Cr@std@@@__Cr@std@@PAT?$map_slot_type@V?$basic_string_view@DU?$char_traits@D@__Cr@std@@@__Cr@std@@PAVCommandLineFlag@absl@@@12@ABUpiecewise_construct_t@45@$$QAV?$tuple@$$QBV?$basic_string_view@DU?$char_traits@D@__Cr@std@@@__Cr@std@@@45@$$QAV?$tuple@$$QAPAVCommandLineFlag@absl@@@45@@Z
    ??$construct@V?$allocator@U?$pair@$$CBV?$basic_string_view@DU?$char_traits@D@__Cr@std@@@__Cr@std@@PAVCommandLineFlag@absl@@@__Cr@std@@@__Cr@std@@ABUpiecewise_construct_t@23@V?$tuple@$$QBV?$basic_string_view@DU?$char_traits@D@__Cr@std@@@__Cr@std@@@23@V?$tuple@$$QAPAVCommandLineFlag@absl@@@23@@?$common_policy_traits@U?$FlatHashMapPolicy@V?$basic_string_view@DU?$char_traits@D@__Cr@std@@@__Cr@std@@PAVCommandLineFlag@absl@@@container_internal@absl@@X@container_internal@absl@@SAXPAV?$allocator@U?$pair@$$CBV?$basic_string_view@DU?$char_traits@D@__Cr@std@@@__Cr@std@@PAVCommandLineFlag@absl@@@__Cr@std@@@__Cr@std@@PAT?$map_slot_type@V?$basic_string_view@DU?$char_traits@D@__Cr@std@@@__Cr@std@@PAVCommandLineFlag@absl@@@12@ABUpiecewise_construct_t@45@$$QAV?$tuple@$$QBV?$basic_string_view@DU?$char_traits@D@__Cr@std@@@__Cr@std@@@45@$$QAV?$tuple@$$QAPAVCommandLineFlag@absl@@@45@@Z
    ??$construct@V?$allocator@U?$pair@$$CBV?$basic_string_view@DU?$char_traits@D@__Cr@std@@@__Cr@std@@PAVCommandLineFlag@absl@@@__Cr@std@@@__Cr@std@@ABUpiecewise_construct_t@23@V?$tuple@$$QBV?$basic_string_view@DU?$char_traits@D@__Cr@std@@@__Cr@std@@@23@V?$tuple@$$QAPAVCommandLineFlag@absl@@@23@@?$map_slot_policy@V?$basic_string_view@DU?$char_traits@D@__Cr@std@@@__Cr@std@@PAVCommandLineFlag@absl@@@container_internal@absl@@SAXPAV?$allocator@U?$pair@$$CBV?$basic_string_view@DU?$char_traits@D@__Cr@std@@@__Cr@std@@PAVCommandLineFlag@absl@@@__Cr@std@@@__Cr@std@@PAT?$map_slot_type@V?$basic_string_view@DU?$char_traits@D@__Cr@std@@@__Cr@std@@PAVCommandLineFlag@absl@@@12@ABUpiecewise_construct_t@45@$$QAV?$tuple@$$QBV?$basic_string_view@DU?$char_traits@D@__Cr@std@@@__Cr@std@@@45@$$QAV?$tuple@$$QAPAVCommandLineFlag@absl@@@45@@Z
    ??$construct@V?$basic_string_view@DU?$char_traits@D@__Cr@std@@@__Cr@std@@AAUraw_view@?1???R?$ConvertToContainer@V?$vector@V?$basic_string_view@DU?$char_traits@D@__Cr@std@@@__Cr@std@@V?$allocator@V?$basic_string_view@DU?$char_traits@D@__Cr@std@@@__Cr@std@@@23@@__Cr@std@@V?$basic_string_view@DU?$char_traits@D@__Cr@std@@@23@$0A@@?$Splitter@VByChar@absl@@UAllowEmpty@2@V?$basic_string_view@DU?$char_traits@D@__Cr@std@@@__Cr@std@@@strings_internal@absl@@QBE?AV?$vector@V?$basic_string_view@DU?$char_traits@D@__Cr@std@@@__Cr@std@@V?$allocator@V?$basic_string_view@DU?$char_traits@D@__Cr@std@@@__Cr@std@@@23@@23@ABV678@@Z@$0A@@?$allocator_traits@V?$allocator@V?$basic_string_view@DU?$char_traits@D@__Cr@std@@@__Cr@std@@@__Cr@std@@@__Cr@std@@SAXAAV?$allocator@V?$basic_string_view@DU?$char_traits@D@__Cr@std@@@__Cr@std@@@12@PAV?$basic_string_view@DU?$char_traits@D@__Cr@std@@@12@AAUraw_view@?1???R?$ConvertToContainer@V?$vector@V?$basic_string_view@DU?$char_traits@D@__Cr@std@@@__Cr@std@@V?$allocator@V?$basic_string_view@DU?$char_traits@D@__Cr@std@@@__Cr@std@@@23@@__Cr@std@@V?$basic_string_view@DU?$char_traits@D@__Cr@std@@@23@$0A@@?$Splitter@VByChar@absl@@UAllowEmpty@2@V?$basic_string_view@DU?$char_traits@D@__Cr@std@@@__Cr@std@@@strings_internal@absl@@QBE?AV?$vector@V?$basic_string_view@DU?$char_traits@D@__Cr@std@@@__Cr@std@@V?$allocator@V?$basic_string_view@DU?$char_traits@D@__Cr@std@@@__Cr@std@@@23@@12@ABV789@@Z@@Z
    ??$construct@V?$unique_ptr@VFlagStateInterface@flags_internal@absl@@U?$default_delete@VFlagStateInterface@flags_internal@absl@@@__Cr@std@@@__Cr@std@@V123@$0A@@?$allocator_traits@V?$allocator@V?$unique_ptr@VFlagStateInterface@flags_internal@absl@@U?$default_delete@VFlagStateInterface@flags_internal@absl@@@__Cr@std@@@__Cr@std@@@__Cr@std@@@__Cr@std@@SAXAAV?$allocator@V?$unique_ptr@VFlagStateInterface@flags_internal@absl@@U?$default_delete@VFlagStateInterface@flags_internal@absl@@@__Cr@std@@@__Cr@std@@@12@PAV?$unique_ptr@VFlagStateInterface@flags_internal@absl@@U?$default_delete@VFlagStateInterface@flags_internal@absl@@@__Cr@std@@@12@$$QAV412@@Z
    ??$construct@VFormatArgImpl@str_format_internal@absl@@ABV123@$0A@@?$allocator_traits@V?$allocator@VFormatArgImpl@str_format_internal@absl@@@__Cr@std@@@__Cr@std@@SAXAAV?$allocator@VFormatArgImpl@str_format_internal@absl@@@12@PAVFormatArgImpl@str_format_internal@absl@@ABV456@@Z
    ??$construct_at@PAPBVImpl@time_zone@cctz@time_internal@absl@@AAPAPBV12345@PAPAPBV12345@@__Cr@std@@YAPAPAPBVImpl@time_zone@cctz@time_internal@absl@@PAPAPBV23456@AAPAPBV23456@@Z
    ??$construct_at@PAPBVImpl@time_zone@cctz@time_internal@absl@@PAPBV12345@PAPAPBV12345@@__Cr@std@@YAPAPAPBVImpl@time_zone@cctz@time_internal@absl@@PAPAPBV23456@$$QAPAPBV23456@@Z
    ??$construct_at@PAUCordRep@cord_internal@absl@@ABQAU123@PAPAU123@@__Cr@std@@YAPAPAUCordRep@cord_internal@absl@@PAPAU234@ABQAU234@@Z
    ??$construct_at@PAUCordRep@cord_internal@absl@@PAU123@PAPAU123@@__Cr@std@@YAPAPAUCordRep@cord_internal@absl@@PAPAU234@$$QAPAU234@@Z
    ??$construct_at@PAUPrefixCrc@CrcCordState@crc_internal@absl@@AAPAU1234@PAPAU1234@@__Cr@std@@YAPAPAUPrefixCrc@CrcCordState@crc_internal@absl@@PAPAU2345@AAPAU2345@@Z
    ??$construct_at@PAUPrefixCrc@CrcCordState@crc_internal@absl@@PAU1234@PAPAU1234@@__Cr@std@@YAPAPAUPrefixCrc@CrcCordState@crc_internal@absl@@PAPAU2345@$$QAPAU2345@@Z
    ??$construct_at@PAVCommandLineFlag@absl@@ABQAV12@PAPAV12@@__Cr@std@@YAPAPAVCommandLineFlag@absl@@PAPAV23@ABQAV23@@Z
    ??$construct_at@PAVCordzHandle@cord_internal@absl@@ABQAV123@PAPAV123@@__Cr@std@@YAPAPAVCordzHandle@cord_internal@absl@@PAPAV234@ABQAV234@@Z
    ??$construct_at@PAVLogSink@absl@@ABQAV12@PAPAV12@@__Cr@std@@YAPAPAVLogSink@absl@@PAPAV23@ABQAV23@@Z
    ??$construct_at@PAVLogSink@absl@@PAV12@PAPAV12@@__Cr@std@@YAPAPAVLogSink@absl@@PAPAV23@$$QAPAV23@@Z
    ??$construct_at@PBUCordRep@cord_internal@absl@@ABQBU123@PAPBU123@@__Cr@std@@YAPAPBUCordRep@cord_internal@absl@@PAPBU234@ABQBU234@@Z
    ??$construct_at@PBVCommandLineFlag@absl@@ABQBV12@PAPBV12@@__Cr@std@@YAPAPBVCommandLineFlag@absl@@PAPBV23@ABQBV23@@Z
    ??$construct_at@PBVCommandLineFlag@absl@@PBV12@PAPBV12@@__Cr@std@@YAPAPBVCommandLineFlag@absl@@PAPBV23@$$QAPBV23@@Z
    ??$construct_at@PBVCordzHandle@cord_internal@absl@@ABQBV123@PAPBV123@@__Cr@std@@YAPAPBVCordzHandle@cord_internal@absl@@PAPBV234@ABQBV234@@Z
    ??$construct_at@PBVImpl@time_zone@cctz@time_internal@absl@@ABQBV12345@PAPBV12345@@__Cr@std@@YAPAPBVImpl@time_zone@cctz@time_internal@absl@@PAPBV23456@ABQBV23456@@Z
    ??$construct_at@U?$__hash_node@PBUCordRep@cord_internal@absl@@PAX@__Cr@std@@$$TAAIPAU123@@__Cr@std@@YAPAU?$__hash_node@PBUCordRep@cord_internal@absl@@PAX@01@PAU201@$$QA$$TAAI@Z
    ??$construct_at@U?$__hash_node@U?$__hash_value_type@V?$basic_string@DU?$char_traits@D@__Cr@std@@V?$allocator@D@23@@__Cr@std@@PBVImpl@time_zone@cctz@time_internal@absl@@@__Cr@std@@PAX@__Cr@std@@$$TAAIPAU123@@__Cr@std@@YAPAU?$__hash_node@U?$__hash_value_type@V?$basic_string@DU?$char_traits@D@__Cr@std@@V?$allocator@D@23@@__Cr@std@@PBVImpl@time_zone@cctz@time_internal@absl@@@__Cr@std@@PAX@01@PAU201@$$QA$$TAAI@Z
    ??$construct_at@U?$pair@$$CBV?$basic_string@DU?$char_traits@D@__Cr@std@@V?$allocator@D@23@@__Cr@std@@PBVImpl@time_zone@cctz@time_internal@absl@@@__Cr@std@@ABUpiecewise_construct_t@23@V?$tuple@ABV?$basic_string@DU?$char_traits@D@__Cr@std@@V?$allocator@D@23@@__Cr@std@@@23@V?$tuple@$$V@23@PAU123@@__Cr@std@@YAPAU?$pair@$$CBV?$basic_string@DU?$char_traits@D@__Cr@std@@V?$allocator@D@23@@__Cr@std@@PBVImpl@time_zone@cctz@time_internal@absl@@@01@PAU201@ABUpiecewise_construct_t@01@$$QAV?$tuple@ABV?$basic_string@DU?$char_traits@D@__Cr@std@@V?$allocator@D@23@@__Cr@std@@@01@$$QAV?$tuple@$$V@01@@Z
    ??$construct_at@U?$pair@$$CBV?$basic_string@DU?$char_traits@D@__Cr@std@@V?$allocator@D@23@@__Cr@std@@V?$map@V?$basic_string@DU?$char_traits@D@__Cr@std@@V?$allocator@D@23@@__Cr@std@@V?$vector@PBVCommandLineFlag@absl@@V?$allocator@PBVCommandLineFlag@absl@@@__Cr@std@@@23@U?$less@V?$basic_string@DU?$char_traits@D@__Cr@std@@V?$allocator@D@23@@__Cr@std@@@23@V?$allocator@U?$pair@$$CBV?$basic_string@DU?$char_traits@D@__Cr@std@@V?$allocator@D@23@@__Cr@std@@V?$vector@PBVCommandLineFlag@absl@@V?$allocator@PBVCommandLineFlag@absl@@@__Cr@std@@@23@@__Cr@std@@@23@@23@@__Cr@std@@ABUpiecewise_construct_t@23@V?$tuple@$$QAV?$basic_string@DU?$char_traits@D@__Cr@std@@V?$allocator@D@23@@__Cr@std@@@23@V?$tuple@$$V@23@PAU123@@__Cr@std@@YAPAU?$pair@$$CBV?$basic_string@DU?$char_traits@D@__Cr@std@@V?$allocator@D@23@@__Cr@std@@V?$map@V?$basic_string@DU?$char_traits@D@__Cr@std@@V?$allocator@D@23@@__Cr@std@@V?$vector@PBVCommandLineFlag@absl@@V?$allocator@PBVCommandLineFlag@absl@@@__Cr@std@@@23@U?$less@V?$basic_string@DU?$char_traits@D@__Cr@std@@V?$allocator@D@23@@__Cr@std@@@23@V?$allocator@U?$pair@$$CBV?$basic_string@DU?$char_traits@D@__Cr@std@@V?$allocator@D@23@@__Cr@std@@V?$vector@PBVCommandLineFlag@absl@@V?$allocator@PBVCommandLineFlag@absl@@@__Cr@std@@@23@@__Cr@std@@@23@@23@@01@PAU201@ABUpiecewise_construct_t@01@$$QAV?$tuple@$$QAV?$basic_string@DU?$char_traits@D@__Cr@std@@V?$allocator@D@23@@__Cr@std@@@01@$$QAV?$tuple@$$V@01@@Z
    ??$construct_at@U?$pair@$$CBV?$basic_string@DU?$char_traits@D@__Cr@std@@V?$allocator@D@23@@__Cr@std@@V?$vector@PBVCommandLineFlag@absl@@V?$allocator@PBVCommandLineFlag@absl@@@__Cr@std@@@23@@__Cr@std@@ABUpiecewise_construct_t@23@V?$tuple@ABV?$basic_string@DU?$char_traits@D@__Cr@std@@V?$allocator@D@23@@__Cr@std@@@23@V?$tuple@$$V@23@PAU123@@__Cr@std@@YAPAU?$pair@$$CBV?$basic_string@DU?$char_traits@D@__Cr@std@@V?$allocator@D@23@@__Cr@std@@V?$vector@PBVCommandLineFlag@absl@@V?$allocator@PBVCommandLineFlag@absl@@@__Cr@std@@@23@@01@PAU201@ABUpiecewise_construct_t@01@$$QAV?$tuple@ABV?$basic_string@DU?$char_traits@D@__Cr@std@@V?$allocator@D@23@@__Cr@std@@@01@$$QAV?$tuple@$$V@01@@Z
    ??$construct_at@U?$pair@V?$basic_string_view@DU?$char_traits@D@__Cr@std@@@__Cr@std@@PAVCommandLineFlag@absl@@@__Cr@std@@ABUpiecewise_construct_t@23@V?$tuple@$$QAV?$basic_string_view@DU?$char_traits@D@__Cr@std@@@__Cr@std@@@23@V?$tuple@$$QAPAVCommandLineFlag@absl@@@23@PAU123@@__Cr@std@@YAPAU?$pair@V?$basic_string_view@DU?$char_traits@D@__Cr@std@@@__Cr@std@@PAVCommandLineFlag@absl@@@01@PAU201@ABUpiecewise_construct_t@01@$$QAV?$tuple@$$QAV?$basic_string_view@DU?$char_traits@D@__Cr@std@@@__Cr@std@@@01@$$QAV?$tuple@$$QAPAVCommandLineFlag@absl@@@01@@Z
    ??$construct_at@U?$pair@V?$basic_string_view@DU?$char_traits@D@__Cr@std@@@__Cr@std@@PAVCommandLineFlag@absl@@@__Cr@std@@ABUpiecewise_construct_t@23@V?$tuple@$$QBV?$basic_string_view@DU?$char_traits@D@__Cr@std@@@__Cr@std@@@23@V?$tuple@$$QAPAVCommandLineFlag@absl@@@23@PAU123@@__Cr@std@@YAPAU?$pair@V?$basic_string_view@DU?$char_traits@D@__Cr@std@@@__Cr@std@@PAVCommandLineFlag@absl@@@01@PAU201@ABUpiecewise_construct_t@01@$$QAV?$tuple@$$QBV?$basic_string_view@DU?$char_traits@D@__Cr@std@@@__Cr@std@@@01@$$QAV?$tuple@$$QAPAVCommandLineFlag@absl@@@01@@Z
    ??$construct_at@UConversionItem@ParsedFormatBase@str_format_internal@absl@@U1234@PAU1234@@__Cr@std@@YAPAUConversionItem@ParsedFormatBase@str_format_internal@absl@@PAU2345@$$QAU2345@@Z
    ??$construct_at@UPayload@status_internal@absl@@ABU123@PAU123@@__Cr@std@@YAPAUPayload@status_internal@absl@@PAU234@ABU234@@Z
    ??$construct_at@UPayload@status_internal@absl@@U123@PAU123@@__Cr@std@@YAPAUPayload@status_internal@absl@@PAU234@$$QAU234@@Z
    ??$construct_at@UPrefixCrc@CrcCordState@crc_internal@absl@@ABU1234@PAU1234@@__Cr@std@@YAPAUPrefixCrc@CrcCordState@crc_internal@absl@@PAU2345@ABU2345@@Z
    ??$construct_at@UPrefixCrc@CrcCordState@crc_internal@absl@@HVcrc32c_t@4@PAU1234@@__Cr@std@@YAPAUPrefixCrc@CrcCordState@crc_internal@absl@@PAU2345@$$QAH$$QAVcrc32c_t@5@@Z
    ??$construct_at@UPrefixCrc@CrcCordState@crc_internal@absl@@U1234@PAU1234@@__Cr@std@@YAPAUPrefixCrc@CrcCordState@crc_internal@absl@@PAU2345@$$QAU2345@@Z
    ??$construct_at@UTransition@cctz@time_internal@absl@@$$VPAU1234@@__Cr@std@@YAPAUTransition@cctz@time_internal@absl@@PAU2345@@Z
    ??$construct_at@UTransition@cctz@time_internal@absl@@ABU1234@PAU1234@@__Cr@std@@YAPAUTransition@cctz@time_internal@absl@@PAU2345@ABU2345@@Z
    ??$construct_at@UTransition@cctz@time_internal@absl@@U1234@PAU1234@@__Cr@std@@YAPAUTransition@cctz@time_internal@absl@@PAU2345@$$QAU2345@@Z
    ??$construct_at@UTransitionType@cctz@time_internal@absl@@$$VPAU1234@@__Cr@std@@YAPAUTransitionType@cctz@time_internal@absl@@PAU2345@@Z
    ??$construct_at@UTransitionType@cctz@time_internal@absl@@U1234@PAU1234@@__Cr@std@@YAPAUTransitionType@cctz@time_internal@absl@@PAU2345@$$QAU2345@@Z
    ??$construct_at@UUnrecognizedFlag@absl@@ABU12@PAU12@@__Cr@std@@YAPAUUnrecognizedFlag@absl@@PAU23@ABU23@@Z
    ??$construct_at@UUnrecognizedFlag@absl@@U12@PAU12@@__Cr@std@@YAPAUUnrecognizedFlag@absl@@PAU23@$$QAU23@@Z
    ??$construct_at@UUnrecognizedFlag@absl@@W4Source@12@AAV?$basic_string_view@DU?$char_traits@D@__Cr@std@@@__Cr@std@@PAU12@@__Cr@std@@YAPAUUnrecognizedFlag@absl@@PAU23@$$QAW4Source@23@AAV?$basic_string_view@DU?$char_traits@D@__Cr@std@@@01@@Z
    ??$construct_at@UViableSubstitution@strings_internal@absl@@AAV?$basic_string_view@DU?$char_traits@D@__Cr@std@@@__Cr@std@@ABV456@AAIPAU123@@__Cr@std@@YAPAUViableSubstitution@strings_internal@absl@@PAU234@AAV?$basic_string_view@DU?$char_traits@D@__Cr@std@@@01@ABV501@AAI@Z
    ??$construct_at@V?$basic_string_view@DU?$char_traits@D@__Cr@std@@@__Cr@std@@AAUraw_view@?1???R?$ConvertToContainer@V?$vector@V?$basic_string_view@DU?$char_traits@D@__Cr@std@@@__Cr@std@@V?$allocator@V?$basic_string_view@DU?$char_traits@D@__Cr@std@@@__Cr@std@@@23@@__Cr@std@@V?$basic_string_view@DU?$char_traits@D@__Cr@std@@@23@$0A@@?$Splitter@VByChar@absl@@UAllowEmpty@2@V?$basic_string_view@DU?$char_traits@D@__Cr@std@@@__Cr@std@@@strings_internal@absl@@QBE?AV?$vector@V?$basic_string_view@DU?$char_traits@D@__Cr@std@@@__Cr@std@@V?$allocator@V?$basic_string_view@DU?$char_traits@D@__Cr@std@@@__Cr@std@@@23@@23@ABV678@@Z@PAV123@@__Cr@std@@YAPAV?$basic_string_view@DU?$char_traits@D@__Cr@std@@@01@PAV201@AAUraw_view@?1???R?$ConvertToContainer@V?$vector@V?$basic_string_view@DU?$char_traits@D@__Cr@std@@@__Cr@std@@V?$allocator@V?$basic_string_view@DU?$char_traits@D@__Cr@std@@@__Cr@std@@@23@@__Cr@std@@V?$basic_string_view@DU?$char_traits@D@__Cr@std@@@23@$0A@@?$Splitter@VByChar@absl@@UAllowEmpty@2@V?$basic_string_view@DU?$char_traits@D@__Cr@std@@@__Cr@std@@@strings_internal@absl@@QBE?AV?$vector@V?$basic_string_view@DU?$char_traits@D@__Cr@std@@@__Cr@std@@V?$allocator@V?$basic_string_view@DU?$char_traits@D@__Cr@std@@@__Cr@std@@@23@@01@ABV567@@Z@@Z
    ??$construct_at@V?$unique_ptr@VFlagStateInterface@flags_internal@absl@@U?$default_delete@VFlagStateInterface@flags_internal@absl@@@__Cr@std@@@__Cr@std@@V123@PAV123@@__Cr@std@@YAPAV?$unique_ptr@VFlagStateInterface@flags_internal@absl@@U?$default_delete@VFlagStateInterface@flags_internal@absl@@@__Cr@std@@@01@PAV201@$$QAV201@@Z
    ??$construct_at@VFormatArgImpl@str_format_internal@absl@@ABV123@PAV123@@__Cr@std@@YAPAVFormatArgImpl@str_format_internal@absl@@PAV234@ABV234@@Z
    ??$copy@V?$__deque_iterator@UPrefixCrc@CrcCordState@crc_internal@absl@@PBU1234@ABU1234@PBQBU1234@H$0A@@__Cr@std@@V?$__deque_iterator@UPrefixCrc@CrcCordState@crc_internal@absl@@PAU1234@AAU1234@PAPAU1234@H$0A@@23@@__Cr@std@@YA?AV?$__deque_iterator@UPrefixCrc@CrcCordState@crc_internal@absl@@PAU1234@AAU1234@PAPAU1234@H$0A@@01@V?$__deque_iterator@UPrefixCrc@CrcCordState@crc_internal@absl@@PBU1234@ABU1234@PBQBU1234@H$0A@@01@0V201@@Z
    ??$copy_n@V?$__deque_iterator@UPrefixCrc@CrcCordState@crc_internal@absl@@PBU1234@ABU1234@PBQBU1234@H$0A@@__Cr@std@@HV?$__deque_iterator@UPrefixCrc@CrcCordState@crc_internal@absl@@PAU1234@AAU1234@PAPAU1234@H$0A@@23@$0A@@__Cr@std@@YA?AV?$__deque_iterator@UPrefixCrc@CrcCordState@crc_internal@absl@@PAU1234@AAU1234@PAPAU1234@H$0A@@01@V?$__deque_iterator@UPrefixCrc@CrcCordState@crc_internal@absl@@PBU1234@ABU1234@PBQBU1234@H$0A@@01@HV201@@Z
    ??$destroy@PAPBVImpl@time_zone@cctz@time_internal@absl@@$0A@@?$allocator_traits@V?$allocator@PAPBVImpl@time_zone@cctz@time_internal@absl@@@__Cr@std@@@__Cr@std@@SAXAAV?$allocator@PAPBVImpl@time_zone@cctz@time_internal@absl@@@12@PAPAPBVImpl@time_zone@cctz@time_internal@absl@@@Z
    ??$destroy@PAUCordRep@cord_internal@absl@@$0A@@?$allocator_traits@V?$allocator@PAUCordRep@cord_internal@absl@@@__Cr@std@@@__Cr@std@@SAXAAV?$allocator@PAUCordRep@cord_internal@absl@@@12@PAPAUCordRep@cord_internal@absl@@@Z
    ??$destroy@PAUPrefixCrc@CrcCordState@crc_internal@absl@@$0A@@?$allocator_traits@V?$allocator@PAUPrefixCrc@CrcCordState@crc_internal@absl@@@__Cr@std@@@__Cr@std@@SAXAAV?$allocator@PAUPrefixCrc@CrcCordState@crc_internal@absl@@@12@PAPAUPrefixCrc@CrcCordState@crc_internal@absl@@@Z
    ??$destroy@PAVCommandLineFlag@absl@@$0A@@?$allocator_traits@V?$allocator@PAVCommandLineFlag@absl@@@__Cr@std@@@__Cr@std@@SAXAAV?$allocator@PAVCommandLineFlag@absl@@@12@PAPAVCommandLineFlag@absl@@@Z
    ??$destroy@PAVCordzHandle@cord_internal@absl@@$0A@@?$allocator_traits@V?$allocator@PAVCordzHandle@cord_internal@absl@@@__Cr@std@@@__Cr@std@@SAXAAV?$allocator@PAVCordzHandle@cord_internal@absl@@@12@PAPAVCordzHandle@cord_internal@absl@@@Z
    ??$destroy@PAVLogSink@absl@@$0A@@?$allocator_traits@V?$allocator@PAVLogSink@absl@@@__Cr@std@@@__Cr@std@@SAXAAV?$allocator@PAVLogSink@absl@@@12@PAPAVLogSink@absl@@@Z
    ??$destroy@PBUCordRep@cord_internal@absl@@$0A@@?$allocator_traits@V?$allocator@U?$__hash_node@PBUCordRep@cord_internal@absl@@PAX@__Cr@std@@@__Cr@std@@@__Cr@std@@SAXAAV?$allocator@U?$__hash_node@PBUCordRep@cord_internal@absl@@PAX@__Cr@std@@@12@PAPBUCordRep@cord_internal@absl@@@Z
    ??$destroy@PBVCommandLineFlag@absl@@$0A@@?$allocator_traits@V?$allocator@PBVCommandLineFlag@absl@@@__Cr@std@@@__Cr@std@@SAXAAV?$allocator@PBVCommandLineFlag@absl@@@12@PAPBVCommandLineFlag@absl@@@Z
    ??$destroy@PBVCordzHandle@cord_internal@absl@@$0A@@?$allocator_traits@V?$allocator@PBVCordzHandle@cord_internal@absl@@@__Cr@std@@@__Cr@std@@SAXAAV?$allocator@PBVCordzHandle@cord_internal@absl@@@12@PAPBVCordzHandle@cord_internal@absl@@@Z
    ??$destroy@U?$pair@$$CBV?$basic_string@DU?$char_traits@D@__Cr@std@@V?$allocator@D@23@@__Cr@std@@PBVImpl@time_zone@cctz@time_internal@absl@@@__Cr@std@@$0A@@?$allocator_traits@V?$allocator@U?$__hash_node@U?$__hash_value_type@V?$basic_string@DU?$char_traits@D@__Cr@std@@V?$allocator@D@23@@__Cr@std@@PBVImpl@time_zone@cctz@time_internal@absl@@@__Cr@std@@PAX@__Cr@std@@@__Cr@std@@@__Cr@std@@SAXAAV?$allocator@U?$__hash_node@U?$__hash_value_type@V?$basic_string@DU?$char_traits@D@__Cr@std@@V?$allocator@D@23@@__Cr@std@@PBVImpl@time_zone@cctz@time_internal@absl@@@__Cr@std@@PAX@__Cr@std@@@12@PAU?$pair@$$CBV?$basic_string@DU?$char_traits@D@__Cr@std@@V?$allocator@D@23@@__Cr@std@@PBVImpl@time_zone@cctz@time_internal@absl@@@12@@Z
    ??$destroy@U?$pair@$$CBV?$basic_string@DU?$char_traits@D@__Cr@std@@V?$allocator@D@23@@__Cr@std@@V?$map@V?$basic_string@DU?$char_traits@D@__Cr@std@@V?$allocator@D@23@@__Cr@std@@V?$vector@PBVCommandLineFlag@absl@@V?$allocator@PBVCommandLineFlag@absl@@@__Cr@std@@@23@U?$less@V?$basic_string@DU?$char_traits@D@__Cr@std@@V?$allocator@D@23@@__Cr@std@@@23@V?$allocator@U?$pair@$$CBV?$basic_string@DU?$char_traits@D@__Cr@std@@V?$allocator@D@23@@__Cr@std@@V?$vector@PBVCommandLineFlag@absl@@V?$allocator@PBVCommandLineFlag@absl@@@__Cr@std@@@23@@__Cr@std@@@23@@23@@__Cr@std@@$0A@@?$allocator_traits@V?$allocator@V?$__tree_node@U?$__value_type@V?$basic_string@DU?$char_traits@D@__Cr@std@@V?$allocator@D@23@@__Cr@std@@V?$map@V?$basic_string@DU?$char_traits@D@__Cr@std@@V?$allocator@D@23@@__Cr@std@@V?$vector@PBVCommandLineFlag@absl@@V?$allocator@PBVCommandLineFlag@absl@@@__Cr@std@@@23@U?$less@V?$basic_string@DU?$char_traits@D@__Cr@std@@V?$allocator@D@23@@__Cr@std@@@23@V?$allocator@U?$pair@$$CBV?$basic_string@DU?$char_traits@D@__Cr@std@@V?$allocator@D@23@@__Cr@std@@V?$vector@PBVCommandLineFlag@absl@@V?$allocator@PBVCommandLineFlag@absl@@@__Cr@std@@@23@@__Cr@std@@@23@@23@@__Cr@std@@PAX@__Cr@std@@@__Cr@std@@@__Cr@std@@SAXAAV?$allocator@V?$__tree_node@U?$__value_type@V?$basic_string@DU?$char_traits@D@__Cr@std@@V?$allocator@D@23@@__Cr@std@@V?$map@V?$basic_string@DU?$char_traits@D@__Cr@std@@V?$allocator@D@23@@__Cr@std@@V?$vector@PBVCommandLineFlag@absl@@V?$allocator@PBVCommandLineFlag@absl@@@__Cr@std@@@23@U?$less@V?$basic_string@DU?$char_traits@D@__Cr@std@@V?$allocator@D@23@@__Cr@std@@@23@V?$allocator@U?$pair@$$CBV?$basic_string@DU?$char_traits@D@__Cr@std@@V?$allocator@D@23@@__Cr@std@@V?$vector@PBVCommandLineFlag@absl@@V?$allocator@PBVCommandLineFlag@absl@@@__Cr@std@@@23@@__Cr@std@@@23@@23@@__Cr@std@@PAX@__Cr@std@@@12@PAU?$pair@$$CBV?$basic_string@DU?$char_traits@D@__Cr@std@@V?$allocator@D@23@@__Cr@std@@V?$map@V?$basic_string@DU?$char_traits@D@__Cr@std@@V?$allocator@D@23@@__Cr@std@@V?$vector@PBVCommandLineFlag@absl@@V?$allocator@PBVCommandLineFlag@absl@@@__Cr@std@@@23@U?$less@V?$basic_string@DU?$char_traits@D@__Cr@std@@V?$allocator@D@23@@__Cr@std@@@23@V?$allocator@U?$pair@$$CBV?$basic_string@DU?$char_traits@D@__Cr@std@@V?$allocator@D@23@@__Cr@std@@V?$vector@PBVCommandLineFlag@absl@@V?$allocator@PBVCommandLineFlag@absl@@@__Cr@std@@@23@@__Cr@std@@@23@@23@@12@@Z
    ??$destroy@U?$pair@$$CBV?$basic_string@DU?$char_traits@D@__Cr@std@@V?$allocator@D@23@@__Cr@std@@V?$vector@PBVCommandLineFlag@absl@@V?$allocator@PBVCommandLineFlag@absl@@@__Cr@std@@@23@@__Cr@std@@$0A@@?$allocator_traits@V?$allocator@V?$__tree_node@U?$__value_type@V?$basic_string@DU?$char_traits@D@__Cr@std@@V?$allocator@D@23@@__Cr@std@@V?$vector@PBVCommandLineFlag@absl@@V?$allocator@PBVCommandLineFlag@absl@@@__Cr@std@@@23@@__Cr@std@@PAX@__Cr@std@@@__Cr@std@@@__Cr@std@@SAXAAV?$allocator@V?$__tree_node@U?$__value_type@V?$basic_string@DU?$char_traits@D@__Cr@std@@V?$allocator@D@23@@__Cr@std@@V?$vector@PBVCommandLineFlag@absl@@V?$allocator@PBVCommandLineFlag@absl@@@__Cr@std@@@23@@__Cr@std@@PAX@__Cr@std@@@12@PAU?$pair@$$CBV?$basic_string@DU?$char_traits@D@__Cr@std@@V?$allocator@D@23@@__Cr@std@@V?$vector@PBVCommandLineFlag@absl@@V?$allocator@PBVCommandLineFlag@absl@@@__Cr@std@@@23@@12@@Z
    ??$destroy@U?$pair@V?$basic_string_view@DU?$char_traits@D@__Cr@std@@@__Cr@std@@PAVCommandLineFlag@absl@@@__Cr@std@@$0A@@?$allocator_traits@V?$allocator@U?$pair@$$CBV?$basic_string_view@DU?$char_traits@D@__Cr@std@@@__Cr@std@@PAVCommandLineFlag@absl@@@__Cr@std@@@__Cr@std@@@__Cr@std@@SAXAAV?$allocator@U?$pair@$$CBV?$basic_string_view@DU?$char_traits@D@__Cr@std@@@__Cr@std@@PAVCommandLineFlag@absl@@@__Cr@std@@@12@PAU?$pair@V?$basic_string_view@DU?$char_traits@D@__Cr@std@@@__Cr@std@@PAVCommandLineFlag@absl@@@12@@Z
    ??$destroy@UConversionItem@ParsedFormatBase@str_format_internal@absl@@$0A@@?$allocator_traits@V?$allocator@UConversionItem@ParsedFormatBase@str_format_internal@absl@@@__Cr@std@@@__Cr@std@@SAXAAV?$allocator@UConversionItem@ParsedFormatBase@str_format_internal@absl@@@12@PAUConversionItem@ParsedFormatBase@str_format_internal@absl@@@Z
    ??$destroy@UPayload@status_internal@absl@@$0A@@?$allocator_traits@V?$allocator@UPayload@status_internal@absl@@@__Cr@std@@@__Cr@std@@SAXAAV?$allocator@UPayload@status_internal@absl@@@12@PAUPayload@status_internal@absl@@@Z
    ??$destroy@UPrefixCrc@CrcCordState@crc_internal@absl@@$0A@@?$allocator_traits@V?$allocator@UPrefixCrc@CrcCordState@crc_internal@absl@@@__Cr@std@@@__Cr@std@@SAXAAV?$allocator@UPrefixCrc@CrcCordState@crc_internal@absl@@@12@PAUPrefixCrc@CrcCordState@crc_internal@absl@@@Z
    ??$destroy@UTransition@cctz@time_internal@absl@@$0A@@?$allocator_traits@V?$allocator@UTransition@cctz@time_internal@absl@@@__Cr@std@@@__Cr@std@@SAXAAV?$allocator@UTransition@cctz@time_internal@absl@@@12@PAUTransition@cctz@time_internal@absl@@@Z
    ??$destroy@UTransitionType@cctz@time_internal@absl@@$0A@@?$allocator_traits@V?$allocator@UTransitionType@cctz@time_internal@absl@@@__Cr@std@@@__Cr@std@@SAXAAV?$allocator@UTransitionType@cctz@time_internal@absl@@@12@PAUTransitionType@cctz@time_internal@absl@@@Z
    ??$destroy@UUnrecognizedFlag@absl@@$0A@@?$allocator_traits@V?$allocator@UUnrecognizedFlag@absl@@@__Cr@std@@@__Cr@std@@SAXAAV?$allocator@UUnrecognizedFlag@absl@@@12@PAUUnrecognizedFlag@absl@@@Z
    ??$destroy@UViableSubstitution@strings_internal@absl@@$0A@@?$allocator_traits@V?$allocator@UViableSubstitution@strings_internal@absl@@@__Cr@std@@@__Cr@std@@SAXAAV?$allocator@UViableSubstitution@strings_internal@absl@@@12@PAUViableSubstitution@strings_internal@absl@@@Z
    ??$destroy@V?$allocator@U?$pair@$$CBV?$basic_string_view@DU?$char_traits@D@__Cr@std@@@__Cr@std@@PAVCommandLineFlag@absl@@@__Cr@std@@@__Cr@std@@@?$FlatHashMapPolicy@V?$basic_string_view@DU?$char_traits@D@__Cr@std@@@__Cr@std@@PAVCommandLineFlag@absl@@@container_internal@absl@@SA?A_PPAV?$allocator@U?$pair@$$CBV?$basic_string_view@DU?$char_traits@D@__Cr@std@@@__Cr@std@@PAVCommandLineFlag@absl@@@__Cr@std@@@__Cr@std@@PAT?$map_slot_type@V?$basic_string_view@DU?$char_traits@D@__Cr@std@@@__Cr@std@@PAVCommandLineFlag@absl@@@12@@Z
    ??$destroy@V?$allocator@U?$pair@$$CBV?$basic_string_view@DU?$char_traits@D@__Cr@std@@@__Cr@std@@PAVCommandLineFlag@absl@@@__Cr@std@@@__Cr@std@@@?$common_policy_traits@U?$FlatHashMapPolicy@V?$basic_string_view@DU?$char_traits@D@__Cr@std@@@__Cr@std@@PAVCommandLineFlag@absl@@@container_internal@absl@@X@container_internal@absl@@SA?A_PPAV?$allocator@U?$pair@$$CBV?$basic_string_view@DU?$char_traits@D@__Cr@std@@@__Cr@std@@PAVCommandLineFlag@absl@@@__Cr@std@@@__Cr@std@@PAT?$map_slot_type@V?$basic_string_view@DU?$char_traits@D@__Cr@std@@@__Cr@std@@PAVCommandLineFlag@absl@@@12@@Z
    ??$destroy@V?$allocator@U?$pair@$$CBV?$basic_string_view@DU?$char_traits@D@__Cr@std@@@__Cr@std@@PAVCommandLineFlag@absl@@@__Cr@std@@@__Cr@std@@@?$map_slot_policy@V?$basic_string_view@DU?$char_traits@D@__Cr@std@@@__Cr@std@@PAVCommandLineFlag@absl@@@container_internal@absl@@SA?A_PPAV?$allocator@U?$pair@$$CBV?$basic_string_view@DU?$char_traits@D@__Cr@std@@@__Cr@std@@PAVCommandLineFlag@absl@@@__Cr@std@@@__Cr@std@@PAT?$map_slot_type@V?$basic_string_view@DU?$char_traits@D@__Cr@std@@@__Cr@std@@PAVCommandLineFlag@absl@@@12@@Z
    ??$destroy@V?$unique_ptr@VFlagStateInterface@flags_internal@absl@@U?$default_delete@VFlagStateInterface@flags_internal@absl@@@__Cr@std@@@__Cr@std@@$0A@@?$allocator_traits@V?$allocator@V?$unique_ptr@VFlagStateInterface@flags_internal@absl@@U?$default_delete@VFlagStateInterface@flags_internal@absl@@@__Cr@std@@@__Cr@std@@@__Cr@std@@@__Cr@std@@SAXAAV?$allocator@V?$unique_ptr@VFlagStateInterface@flags_internal@absl@@U?$default_delete@VFlagStateInterface@flags_internal@absl@@@__Cr@std@@@__Cr@std@@@12@PAV?$unique_ptr@VFlagStateInterface@flags_internal@absl@@U?$default_delete@VFlagStateInterface@flags_internal@absl@@@__Cr@std@@@12@@Z
    ??$distance@PBUPayload@status_internal@absl@@@__Cr@std@@YAHPBUPayload@status_internal@absl@@0@Z
    ??$distance@PBUTransition@cctz@time_internal@absl@@@?$_IterOps@U_ClassicAlgPolicy@__Cr@std@@@__Cr@std@@SAHPBUTransition@cctz@time_internal@absl@@0@Z
    ??$distance@PBUTransition@cctz@time_internal@absl@@@__Cr@std@@YAHPBUTransition@cctz@time_internal@absl@@0@Z
    ??$distance@PBVFormatArgImpl@str_format_internal@absl@@@__Cr@std@@YAHPBVFormatArgImpl@str_format_internal@absl@@0@Z
    ??$distance@V?$__wrap_iter@PAPAVCommandLineFlag@absl@@@__Cr@std@@@__Cr@std@@YAHV?$__wrap_iter@PAPAVCommandLineFlag@absl@@@01@0@Z
    ??$distance@V?$__wrap_iter@PAPBVCommandLineFlag@absl@@@__Cr@std@@@?$_IterOps@U_ClassicAlgPolicy@__Cr@std@@@__Cr@std@@SAHV?$__wrap_iter@PAPBVCommandLineFlag@absl@@@12@0@Z
    ??$distance@V?$__wrap_iter@PAPBVCommandLineFlag@absl@@@__Cr@std@@@__Cr@std@@YAHV?$__wrap_iter@PAPBVCommandLineFlag@absl@@@01@0@Z
    ??$distance@V?$__wrap_iter@PAUraw_view@?1???R?$ConvertToContainer@V?$vector@V?$basic_string_view@DU?$char_traits@D@__Cr@std@@@__Cr@std@@V?$allocator@V?$basic_string_view@DU?$char_traits@D@__Cr@std@@@__Cr@std@@@23@@__Cr@std@@V?$basic_string_view@DU?$char_traits@D@__Cr@std@@@23@$0A@@?$Splitter@VByChar@absl@@UAllowEmpty@2@V?$basic_string_view@DU?$char_traits@D@__Cr@std@@@__Cr@std@@@strings_internal@absl@@QBE?AV?$vector@V?$basic_string_view@DU?$char_traits@D@__Cr@std@@@__Cr@std@@V?$allocator@V?$basic_string_view@DU?$char_traits@D@__Cr@std@@@__Cr@std@@@23@@__Cr@std@@ABV345@@Z@@__Cr@std@@@__Cr@std@@YAHV?$__wrap_iter@PAUraw_view@?1???R?$ConvertToContainer@V?$vector@V?$basic_string_view@DU?$char_traits@D@__Cr@std@@@__Cr@std@@V?$allocator@V?$basic_string_view@DU?$char_traits@D@__Cr@std@@@__Cr@std@@@23@@__Cr@std@@V?$basic_string_view@DU?$char_traits@D@__Cr@std@@@23@$0A@@?$Splitter@VByChar@absl@@UAllowEmpty@2@V?$basic_string_view@DU?$char_traits@D@__Cr@std@@@__Cr@std@@@strings_internal@absl@@QBE?AV?$vector@V?$basic_string_view@DU?$char_traits@D@__Cr@std@@@__Cr@std@@V?$allocator@V?$basic_string_view@DU?$char_traits@D@__Cr@std@@@__Cr@std@@@23@@__Cr@std@@ABV345@@Z@@01@0@Z
    ??$distance@V?$move_iterator@PAPAPBVImpl@time_zone@cctz@time_internal@absl@@@__Cr@std@@@__Cr@std@@YAHV?$move_iterator@PAPAPBVImpl@time_zone@cctz@time_internal@absl@@@01@0@Z
    ??$distance@V?$move_iterator@PAPAUPrefixCrc@CrcCordState@crc_internal@absl@@@__Cr@std@@@__Cr@std@@YAHV?$move_iterator@PAPAUPrefixCrc@CrcCordState@crc_internal@absl@@@01@0@Z
    ??$distance@V?$move_iterator@PAUTransition@cctz@time_internal@absl@@@__Cr@std@@@__Cr@std@@YAHV?$move_iterator@PAUTransition@cctz@time_internal@absl@@@01@0@Z
    ??$distance@V?$move_iterator@PAUTransitionType@cctz@time_internal@absl@@@__Cr@std@@@__Cr@std@@YAHV?$move_iterator@PAUTransitionType@cctz@time_internal@absl@@@01@0@Z
    ??$element@U?$FlatHashMapPolicy@V?$basic_string_view@DU?$char_traits@D@__Cr@std@@@__Cr@std@@PAVCommandLineFlag@absl@@@container_internal@absl@@@?$common_policy_traits@U?$FlatHashMapPolicy@V?$basic_string_view@DU?$char_traits@D@__Cr@std@@@__Cr@std@@PAVCommandLineFlag@absl@@@container_internal@absl@@X@container_internal@absl@@SAAAU?$pair@$$CBV?$basic_string_view@DU?$char_traits@D@__Cr@std@@@__Cr@std@@PAVCommandLineFlag@absl@@@__Cr@std@@PAT?$map_slot_type@V?$basic_string_view@DU?$char_traits@D@__Cr@std@@@__Cr@std@@PAVCommandLineFlag@absl@@@12@@Z
    ??$emplace@$$V@?$vector@UTransition@cctz@time_internal@absl@@V?$allocator@UTransition@cctz@time_internal@absl@@@__Cr@std@@@__Cr@std@@QAE?AV?$__wrap_iter@PAUTransition@cctz@time_internal@absl@@@12@V?$__wrap_iter@PBUTransition@cctz@time_internal@absl@@@12@@Z
    ??$emplace@$$V@?$vector@UTransitionType@cctz@time_internal@absl@@V?$allocator@UTransitionType@cctz@time_internal@absl@@@__Cr@std@@@__Cr@std@@QAE?AV?$__wrap_iter@PAUTransitionType@cctz@time_internal@absl@@@12@V?$__wrap_iter@PBUTransitionType@cctz@time_internal@absl@@@12@@Z
    ??$emplace@U?$pair@$$CBV?$basic_string_view@DU?$char_traits@D@__Cr@std@@@__Cr@std@@PAVCommandLineFlag@absl@@@__Cr@std@@$0A@@?$raw_hash_set@U?$FlatHashMapPolicy@V?$basic_string_view@DU?$char_traits@D@__Cr@std@@@__Cr@std@@PAVCommandLineFlag@absl@@@container_internal@absl@@UStringHash@23@UStringEq@23@V?$allocator@U?$pair@$$CBV?$basic_string_view@DU?$char_traits@D@__Cr@std@@@__Cr@std@@PAVCommandLineFlag@absl@@@__Cr@std@@@__Cr@std@@@container_internal@absl@@QAE?AU?$pair@Viterator@?$raw_hash_set@U?$FlatHashMapPolicy@V?$basic_string_view@DU?$char_traits@D@__Cr@std@@@__Cr@std@@PAVCommandLineFlag@absl@@@container_internal@absl@@UStringHash@23@UStringEq@23@V?$allocator@U?$pair@$$CBV?$basic_string_view@DU?$char_traits@D@__Cr@std@@@__Cr@std@@PAVCommandLineFlag@absl@@@__Cr@std@@@__Cr@std@@@container_internal@absl@@_N@__Cr@std@@$$QAU?$pair@$$CBV?$basic_string_view@DU?$char_traits@D@__Cr@std@@@__Cr@std@@PAVCommandLineFlag@absl@@@45@@Z
    ??$emplace@U?$pair@V?$basic_string_view@DU?$char_traits@D@__Cr@std@@@__Cr@std@@PAVCommandLineFlag@absl@@@__Cr@std@@$0A@@?$raw_hash_set@U?$FlatHashMapPolicy@V?$basic_string_view@DU?$char_traits@D@__Cr@std@@@__Cr@std@@PAVCommandLineFlag@absl@@@container_internal@absl@@UStringHash@23@UStringEq@23@V?$allocator@U?$pair@$$CBV?$basic_string_view@DU?$char_traits@D@__Cr@std@@@__Cr@std@@PAVCommandLineFlag@absl@@@__Cr@std@@@__Cr@std@@@container_internal@absl@@QAE?AU?$pair@Viterator@?$raw_hash_set@U?$FlatHashMapPolicy@V?$basic_string_view@DU?$char_traits@D@__Cr@std@@@__Cr@std@@PAVCommandLineFlag@absl@@@container_internal@absl@@UStringHash@23@UStringEq@23@V?$allocator@U?$pair@$$CBV?$basic_string_view@DU?$char_traits@D@__Cr@std@@@__Cr@std@@PAVCommandLineFlag@absl@@@__Cr@std@@@__Cr@std@@@container_internal@absl@@_N@__Cr@std@@$$QAU?$pair@V?$basic_string_view@DU?$char_traits@D@__Cr@std@@@__Cr@std@@PAVCommandLineFlag@absl@@@45@@Z
    ??$emplace_at@ABUpiecewise_construct_t@__Cr@std@@V?$tuple@$$QAV?$basic_string_view@DU?$char_traits@D@__Cr@std@@@__Cr@std@@@23@V?$tuple@$$QAPAVCommandLineFlag@absl@@@23@@?$raw_hash_set@U?$FlatHashMapPolicy@V?$basic_string_view@DU?$char_traits@D@__Cr@std@@@__Cr@std@@PAVCommandLineFlag@absl@@@container_internal@absl@@UStringHash@23@UStringEq@23@V?$allocator@U?$pair@$$CBV?$basic_string_view@DU?$char_traits@D@__Cr@std@@@__Cr@std@@PAVCommandLineFlag@absl@@@__Cr@std@@@__Cr@std@@@container_internal@absl@@IAEXViterator@012@ABUpiecewise_construct_t@__Cr@std@@$$QAV?$tuple@$$QAV?$basic_string_view@DU?$char_traits@D@__Cr@std@@@__Cr@std@@@56@$$QAV?$tuple@$$QAPAVCommandLineFlag@absl@@@56@@Z
    ??$emplace_at@ABUpiecewise_construct_t@__Cr@std@@V?$tuple@$$QBV?$basic_string_view@DU?$char_traits@D@__Cr@std@@@__Cr@std@@@23@V?$tuple@$$QAPAVCommandLineFlag@absl@@@23@@?$raw_hash_set@U?$FlatHashMapPolicy@V?$basic_string_view@DU?$char_traits@D@__Cr@std@@@__Cr@std@@PAVCommandLineFlag@absl@@@container_internal@absl@@UStringHash@23@UStringEq@23@V?$allocator@U?$pair@$$CBV?$basic_string_view@DU?$char_traits@D@__Cr@std@@@__Cr@std@@PAVCommandLineFlag@absl@@@__Cr@std@@@__Cr@std@@@container_internal@absl@@IAEXViterator@012@ABUpiecewise_construct_t@__Cr@std@@$$QAV?$tuple@$$QBV?$basic_string_view@DU?$char_traits@D@__Cr@std@@@__Cr@std@@@56@$$QAV?$tuple@$$QAPAVCommandLineFlag@absl@@@56@@Z
    ??$emplace_back@$$V@?$__split_buffer@UTransition@cctz@time_internal@absl@@AAV?$allocator@UTransition@cctz@time_internal@absl@@@__Cr@std@@@__Cr@std@@QAEXXZ
    ??$emplace_back@$$V@?$__split_buffer@UTransitionType@cctz@time_internal@absl@@AAV?$allocator@UTransitionType@cctz@time_internal@absl@@@__Cr@std@@@__Cr@std@@QAEXXZ
    ??$emplace_back@AAPAPBVImpl@time_zone@cctz@time_internal@absl@@@?$__split_buffer@PAPBVImpl@time_zone@cctz@time_internal@absl@@V?$allocator@PAPBVImpl@time_zone@cctz@time_internal@absl@@@__Cr@std@@@__Cr@std@@QAEXAAPAPBVImpl@time_zone@cctz@time_internal@absl@@@Z
    ??$emplace_back@AAPAUPrefixCrc@CrcCordState@crc_internal@absl@@@?$__split_buffer@PAUPrefixCrc@CrcCordState@crc_internal@absl@@AAV?$allocator@PAUPrefixCrc@CrcCordState@crc_internal@absl@@@__Cr@std@@@__Cr@std@@QAEXAAPAUPrefixCrc@CrcCordState@crc_internal@absl@@@Z
    ??$emplace_back@AAPAUPrefixCrc@CrcCordState@crc_internal@absl@@@?$__split_buffer@PAUPrefixCrc@CrcCordState@crc_internal@absl@@V?$allocator@PAUPrefixCrc@CrcCordState@crc_internal@absl@@@__Cr@std@@@__Cr@std@@QAEXAAPAUPrefixCrc@CrcCordState@crc_internal@absl@@@Z
    ??$emplace_back@AAV?$basic_string_view@DU?$char_traits@D@__Cr@std@@@__Cr@std@@ABV123@AAI@?$vector@UViableSubstitution@strings_internal@absl@@V?$allocator@UViableSubstitution@strings_internal@absl@@@__Cr@std@@@__Cr@std@@QAEAAUViableSubstitution@strings_internal@absl@@AAV?$basic_string_view@DU?$char_traits@D@__Cr@std@@@12@ABV612@AAI@Z
    ??$emplace_back@ABQAUCordRep@cord_internal@absl@@@?$InlinedVector@PAUCordRep@cord_internal@absl@@$01V?$allocator@PAUCordRep@cord_internal@absl@@@__Cr@std@@@absl@@QAEAAPAUCordRep@cord_internal@1@ABQAU231@@Z
    ??$emplace_back@ABQAVCommandLineFlag@absl@@@?$vector@PAVCommandLineFlag@absl@@V?$allocator@PAVCommandLineFlag@absl@@@__Cr@std@@@__Cr@std@@QAEAAPAVCommandLineFlag@absl@@ABQAV34@@Z
    ??$emplace_back@ABQAVCordzHandle@cord_internal@absl@@@?$vector@PAVCordzHandle@cord_internal@absl@@V?$allocator@PAVCordzHandle@cord_internal@absl@@@__Cr@std@@@__Cr@std@@QAEAAPAVCordzHandle@cord_internal@absl@@ABQAV345@@Z
    ??$emplace_back@ABQAVLogSink@absl@@@?$InlinedVector@PAVLogSink@absl@@$0BA@V?$allocator@PAVLogSink@absl@@@__Cr@std@@@absl@@QAEAAPAVLogSink@1@ABQAV21@@Z
    ??$emplace_back@ABQAVLogSink@absl@@@?$vector@PAVLogSink@absl@@V?$allocator@PAVLogSink@absl@@@__Cr@std@@@__Cr@std@@QAEAAPAVLogSink@absl@@ABQAV34@@Z
    ??$emplace_back@ABQBVCommandLineFlag@absl@@@?$vector@PBVCommandLineFlag@absl@@V?$allocator@PBVCommandLineFlag@absl@@@__Cr@std@@@__Cr@std@@QAEAAPBVCommandLineFlag@absl@@ABQBV34@@Z
    ??$emplace_back@ABQBVCordzHandle@cord_internal@absl@@@?$vector@PBVCordzHandle@cord_internal@absl@@V?$allocator@PBVCordzHandle@cord_internal@absl@@@__Cr@std@@@__Cr@std@@QAEAAPBVCordzHandle@cord_internal@absl@@ABQBV345@@Z
    ??$emplace_back@ABUTransition@cctz@time_internal@absl@@@?$vector@UTransition@cctz@time_internal@absl@@V?$allocator@UTransition@cctz@time_internal@absl@@@__Cr@std@@@__Cr@std@@QAEAAUTransition@cctz@time_internal@absl@@ABU3456@@Z
    ??$emplace_back@ABUUnrecognizedFlag@absl@@@?$vector@UUnrecognizedFlag@absl@@V?$allocator@UUnrecognizedFlag@absl@@@__Cr@std@@@__Cr@std@@QAEAAUUnrecognizedFlag@absl@@ABU34@@Z
    ??$emplace_back@HVcrc32c_t@absl@@@?$deque@UPrefixCrc@CrcCordState@crc_internal@absl@@V?$allocator@UPrefixCrc@CrcCordState@crc_internal@absl@@@__Cr@std@@@__Cr@std@@QAEAAUPrefixCrc@CrcCordState@crc_internal@absl@@$$QAH$$QAVcrc32c_t@6@@Z
    ??$emplace_back@PAPBVImpl@time_zone@cctz@time_internal@absl@@@?$__split_buffer@PAPBVImpl@time_zone@cctz@time_internal@absl@@AAV?$allocator@PAPBVImpl@time_zone@cctz@time_internal@absl@@@__Cr@std@@@__Cr@std@@QAEX$$QAPAPBVImpl@time_zone@cctz@time_internal@absl@@@Z
    ??$emplace_back@PAPBVImpl@time_zone@cctz@time_internal@absl@@@?$__split_buffer@PAPBVImpl@time_zone@cctz@time_internal@absl@@V?$allocator@PAPBVImpl@time_zone@cctz@time_internal@absl@@@__Cr@std@@@__Cr@std@@QAEX$$QAPAPBVImpl@time_zone@cctz@time_internal@absl@@@Z
    ??$emplace_back@PAUPrefixCrc@CrcCordState@crc_internal@absl@@@?$__split_buffer@PAUPrefixCrc@CrcCordState@crc_internal@absl@@AAV?$allocator@PAUPrefixCrc@CrcCordState@crc_internal@absl@@@__Cr@std@@@__Cr@std@@QAEX$$QAPAUPrefixCrc@CrcCordState@crc_internal@absl@@@Z
    ??$emplace_back@PAUPrefixCrc@CrcCordState@crc_internal@absl@@@?$__split_buffer@PAUPrefixCrc@CrcCordState@crc_internal@absl@@V?$allocator@PAUPrefixCrc@CrcCordState@crc_internal@absl@@@__Cr@std@@@__Cr@std@@QAEX$$QAPAUPrefixCrc@CrcCordState@crc_internal@absl@@@Z
    ??$emplace_back@PBVCommandLineFlag@absl@@@?$vector@PBVCommandLineFlag@absl@@V?$allocator@PBVCommandLineFlag@absl@@@__Cr@std@@@__Cr@std@@QAEAAPBVCommandLineFlag@absl@@$$QAPBV34@@Z
    ??$emplace_back@UConversionItem@ParsedFormatBase@str_format_internal@absl@@@?$vector@UConversionItem@ParsedFormatBase@str_format_internal@absl@@V?$allocator@UConversionItem@ParsedFormatBase@str_format_internal@absl@@@__Cr@std@@@__Cr@std@@QAEAAUConversionItem@ParsedFormatBase@str_format_internal@absl@@$$QAU3456@@Z
    ??$emplace_back@UPayload@status_internal@absl@@@?$InlinedVector@UPayload@status_internal@absl@@$00V?$allocator@UPayload@status_internal@absl@@@__Cr@std@@@absl@@QAEAAUPayload@status_internal@1@$$QAU231@@Z
    ??$emplace_back@V?$unique_ptr@VFlagStateInterface@flags_internal@absl@@U?$default_delete@VFlagStateInterface@flags_internal@absl@@@__Cr@std@@@__Cr@std@@@?$vector@V?$unique_ptr@VFlagStateInterface@flags_internal@absl@@U?$default_delete@VFlagStateInterface@flags_internal@absl@@@__Cr@std@@@__Cr@std@@V?$allocator@V?$unique_ptr@VFlagStateInterface@flags_internal@absl@@U?$default_delete@VFlagStateInterface@flags_internal@absl@@@__Cr@std@@@__Cr@std@@@23@@__Cr@std@@QAEAAV?$unique_ptr@VFlagStateInterface@flags_internal@absl@@U?$default_delete@VFlagStateInterface@flags_internal@absl@@@__Cr@std@@@12@$$QAV312@@Z
    ??$emplace_back@W4Source@UnrecognizedFlag@absl@@AAV?$basic_string_view@DU?$char_traits@D@__Cr@std@@@__Cr@std@@@?$vector@UUnrecognizedFlag@absl@@V?$allocator@UUnrecognizedFlag@absl@@@__Cr@std@@@__Cr@std@@QAEAAUUnrecognizedFlag@absl@@$$QAW4Source@34@AAV?$basic_string_view@DU?$char_traits@D@__Cr@std@@@12@@Z
    ??$emplace_front@AAPAPBVImpl@time_zone@cctz@time_internal@absl@@@?$__split_buffer@PAPBVImpl@time_zone@cctz@time_internal@absl@@AAV?$allocator@PAPBVImpl@time_zone@cctz@time_internal@absl@@@__Cr@std@@@__Cr@std@@QAEXAAPAPBVImpl@time_zone@cctz@time_internal@absl@@@Z
    ??$emplace_front@AAPAUPrefixCrc@CrcCordState@crc_internal@absl@@@?$__split_buffer@PAUPrefixCrc@CrcCordState@crc_internal@absl@@AAV?$allocator@PAUPrefixCrc@CrcCordState@crc_internal@absl@@@__Cr@std@@@__Cr@std@@QAEXAAPAUPrefixCrc@CrcCordState@crc_internal@absl@@@Z
    ??$emplace_front@PAPBVImpl@time_zone@cctz@time_internal@absl@@@?$__split_buffer@PAPBVImpl@time_zone@cctz@time_internal@absl@@V?$allocator@PAPBVImpl@time_zone@cctz@time_internal@absl@@@__Cr@std@@@__Cr@std@@QAEX$$QAPAPBVImpl@time_zone@cctz@time_internal@absl@@@Z
    ??$emplace_front@PAUPrefixCrc@CrcCordState@crc_internal@absl@@@?$__split_buffer@PAUPrefixCrc@CrcCordState@crc_internal@absl@@V?$allocator@PAUPrefixCrc@CrcCordState@crc_internal@absl@@@__Cr@std@@@__Cr@std@@QAEX$$QAPAUPrefixCrc@CrcCordState@crc_internal@absl@@@Z
    ??$end@V?$vector@PAVCommandLineFlag@absl@@V?$allocator@PAVCommandLineFlag@absl@@@__Cr@std@@@__Cr@std@@@__Cr@std@@YA?AV?$__wrap_iter@PAPAVCommandLineFlag@absl@@@01@AAV?$vector@PAVCommandLineFlag@absl@@V?$allocator@PAVCommandLineFlag@absl@@@__Cr@std@@@01@@Z
    ??$end@V?$vector@PBVCommandLineFlag@absl@@V?$allocator@PBVCommandLineFlag@absl@@@__Cr@std@@@__Cr@std@@@__Cr@std@@YA?AV?$__wrap_iter@PAPBVCommandLineFlag@absl@@@01@AAV?$vector@PBVCommandLineFlag@absl@@V?$allocator@PBVCommandLineFlag@absl@@@__Cr@std@@@01@@Z
    ??$find@V?$__wrap_iter@PAPAVLogSink@absl@@@__Cr@std@@PAVLogSink@absl@@@__Cr@std@@YA?AV?$__wrap_iter@PAPAVLogSink@absl@@@01@V201@0ABQAVLogSink@absl@@@Z
    ??$find@V?$basic_string@DU?$char_traits@D@__Cr@std@@V?$allocator@D@23@@__Cr@std@@@?$__hash_table@U?$__hash_value_type@V?$basic_string@DU?$char_traits@D@__Cr@std@@V?$allocator@D@23@@__Cr@std@@PBVImpl@time_zone@cctz@time_internal@absl@@@__Cr@std@@V?$__unordered_map_hasher@V?$basic_string@DU?$char_traits@D@__Cr@std@@V?$allocator@D@23@@__Cr@std@@U?$__hash_value_type@V?$basic_string@DU?$char_traits@D@__Cr@std@@V?$allocator@D@23@@__Cr@std@@PBVImpl@time_zone@cctz@time_internal@absl@@@23@U?$hash@V?$basic_string@DU?$char_traits@D@__Cr@std@@V?$allocator@D@23@@__Cr@std@@@23@U?$equal_to@V?$basic_string@DU?$char_traits@D@__Cr@std@@V?$allocator@D@23@@__Cr@std@@@23@$00@23@V?$__unordered_map_equal@V?$basic_string@DU?$char_traits@D@__Cr@std@@V?$allocator@D@23@@__Cr@std@@U?$__hash_value_type@V?$basic_string@DU?$char_traits@D@__Cr@std@@V?$allocator@D@23@@__Cr@std@@PBVImpl@time_zone@cctz@time_internal@absl@@@23@U?$equal_to@V?$basic_string@DU?$char_traits@D@__Cr@std@@V?$allocator@D@23@@__Cr@std@@@23@U?$hash@V?$basic_string@DU?$char_traits@D@__Cr@std@@V?$allocator@D@23@@__Cr@std@@@23@$00@23@V?$allocator@U?$__hash_value_type@V?$basic_string@DU?$char_traits@D@__Cr@std@@V?$allocator@D@23@@__Cr@std@@PBVImpl@time_zone@cctz@time_internal@absl@@@__Cr@std@@@23@@__Cr@std@@QAE?AV?$__hash_iterator@PAU?$__hash_node@U?$__hash_value_type@V?$basic_string@DU?$char_traits@D@__Cr@std@@V?$allocator@D@23@@__Cr@std@@PBVImpl@time_zone@cctz@time_internal@absl@@@__Cr@std@@PAX@__Cr@std@@@12@ABV?$basic_string@DU?$char_traits@D@__Cr@std@@V?$allocator@D@23@@12@@Z
    ??$find@V?$basic_string_view@DU?$char_traits@D@__Cr@std@@@__Cr@std@@@?$raw_hash_set@U?$FlatHashMapPolicy@V?$basic_string_view@DU?$char_traits@D@__Cr@std@@@__Cr@std@@PAVCommandLineFlag@absl@@@container_internal@absl@@UStringHash@23@UStringEq@23@V?$allocator@U?$pair@$$CBV?$basic_string_view@DU?$char_traits@D@__Cr@std@@@__Cr@std@@PAVCommandLineFlag@absl@@@__Cr@std@@@__Cr@std@@@container_internal@absl@@QAE?AViterator@012@ABV?$basic_string_view@DU?$char_traits@D@__Cr@std@@@__Cr@std@@@Z
    ??$find@V?$basic_string_view@DU?$char_traits@D@__Cr@std@@@__Cr@std@@@?$raw_hash_set@U?$FlatHashMapPolicy@V?$basic_string_view@DU?$char_traits@D@__Cr@std@@@__Cr@std@@PAVCommandLineFlag@absl@@@container_internal@absl@@UStringHash@23@UStringEq@23@V?$allocator@U?$pair@$$CBV?$basic_string_view@DU?$char_traits@D@__Cr@std@@@__Cr@std@@PAVCommandLineFlag@absl@@@__Cr@std@@@__Cr@std@@@container_internal@absl@@QBE?AVconst_iterator@012@ABV?$basic_string_view@DU?$char_traits@D@__Cr@std@@@__Cr@std@@@Z
    ??$find_non_soo@V?$basic_string_view@DU?$char_traits@D@__Cr@std@@@__Cr@std@@@?$raw_hash_set@U?$FlatHashMapPolicy@V?$basic_string_view@DU?$char_traits@D@__Cr@std@@@__Cr@std@@PAVCommandLineFlag@absl@@@container_internal@absl@@UStringHash@23@UStringEq@23@V?$allocator@U?$pair@$$CBV?$basic_string_view@DU?$char_traits@D@__Cr@std@@@__Cr@std@@PAVCommandLineFlag@absl@@@__Cr@std@@@__Cr@std@@@container_internal@absl@@AAE?AViterator@012@ABV?$basic_string_view@DU?$char_traits@D@__Cr@std@@@__Cr@std@@I@Z
    ??$find_or_prepare_insert@V?$basic_string_view@DU?$char_traits@D@__Cr@std@@@__Cr@std@@@?$raw_hash_set@U?$FlatHashMapPolicy@V?$basic_string_view@DU?$char_traits@D@__Cr@std@@@__Cr@std@@PAVCommandLineFlag@absl@@@container_internal@absl@@UStringHash@23@UStringEq@23@V?$allocator@U?$pair@$$CBV?$basic_string_view@DU?$char_traits@D@__Cr@std@@@__Cr@std@@PAVCommandLineFlag@absl@@@__Cr@std@@@__Cr@std@@@container_internal@absl@@IAE?AU?$pair@Viterator@?$raw_hash_set@U?$FlatHashMapPolicy@V?$basic_string_view@DU?$char_traits@D@__Cr@std@@@__Cr@std@@PAVCommandLineFlag@absl@@@container_internal@absl@@UStringHash@23@UStringEq@23@V?$allocator@U?$pair@$$CBV?$basic_string_view@DU?$char_traits@D@__Cr@std@@@__Cr@std@@PAVCommandLineFlag@absl@@@__Cr@std@@@__Cr@std@@@container_internal@absl@@_N@__Cr@std@@ABV?$basic_string_view@DU?$char_traits@D@__Cr@std@@@45@@Z
    ??$find_or_prepare_insert_non_soo@V?$basic_string_view@DU?$char_traits@D@__Cr@std@@@__Cr@std@@@?$raw_hash_set@U?$FlatHashMapPolicy@V?$basic_string_view@DU?$char_traits@D@__Cr@std@@@__Cr@std@@PAVCommandLineFlag@absl@@@container_internal@absl@@UStringHash@23@UStringEq@23@V?$allocator@U?$pair@$$CBV?$basic_string_view@DU?$char_traits@D@__Cr@std@@@__Cr@std@@PAVCommandLineFlag@absl@@@__Cr@std@@@__Cr@std@@@container_internal@absl@@AAE?AU?$pair@Viterator@?$raw_hash_set@U?$FlatHashMapPolicy@V?$basic_string_view@DU?$char_traits@D@__Cr@std@@@__Cr@std@@PAVCommandLineFlag@absl@@@container_internal@absl@@UStringHash@23@UStringEq@23@V?$allocator@U?$pair@$$CBV?$basic_string_view@DU?$char_traits@D@__Cr@std@@@__Cr@std@@PAVCommandLineFlag@absl@@@__Cr@std@@@__Cr@std@@@container_internal@absl@@_N@__Cr@std@@ABV?$basic_string_view@DU?$char_traits@D@__Cr@std@@@45@@Z
    ??$find_or_prepare_insert_soo@V?$basic_string_view@DU?$char_traits@D@__Cr@std@@@__Cr@std@@@?$raw_hash_set@U?$FlatHashMapPolicy@V?$basic_string_view@DU?$char_traits@D@__Cr@std@@@__Cr@std@@PAVCommandLineFlag@absl@@@container_internal@absl@@UStringHash@23@UStringEq@23@V?$allocator@U?$pair@$$CBV?$basic_string_view@DU?$char_traits@D@__Cr@std@@@__Cr@std@@PAVCommandLineFlag@absl@@@__Cr@std@@@__Cr@std@@@container_internal@absl@@AAE?AU?$pair@Viterator@?$raw_hash_set@U?$FlatHashMapPolicy@V?$basic_string_view@DU?$char_traits@D@__Cr@std@@@__Cr@std@@PAVCommandLineFlag@absl@@@container_internal@absl@@UStringHash@23@UStringEq@23@V?$allocator@U?$pair@$$CBV?$basic_string_view@DU?$char_traits@D@__Cr@std@@@__Cr@std@@PAVCommandLineFlag@absl@@@__Cr@std@@@__Cr@std@@@container_internal@absl@@_N@__Cr@std@@ABV?$basic_string_view@DU?$char_traits@D@__Cr@std@@@45@@Z
    ??$find_soo@V?$basic_string_view@DU?$char_traits@D@__Cr@std@@@__Cr@std@@@?$raw_hash_set@U?$FlatHashMapPolicy@V?$basic_string_view@DU?$char_traits@D@__Cr@std@@@__Cr@std@@PAVCommandLineFlag@absl@@@container_internal@absl@@UStringHash@23@UStringEq@23@V?$allocator@U?$pair@$$CBV?$basic_string_view@DU?$char_traits@D@__Cr@std@@@__Cr@std@@PAVCommandLineFlag@absl@@@__Cr@std@@@__Cr@std@@@container_internal@absl@@AAE?AViterator@012@ABV?$basic_string_view@DU?$char_traits@D@__Cr@std@@@__Cr@std@@@Z
    ??$forward_as_tuple@ABQAVCommandLineFlag@absl@@@__Cr@std@@YA?AV?$tuple@ABQAVCommandLineFlag@absl@@@01@ABQAVCommandLineFlag@absl@@@Z
    ??$forward_as_tuple@PAVCommandLineFlag@absl@@@__Cr@std@@YA?AV?$tuple@$$QAPAVCommandLineFlag@absl@@@01@$$QAPAVCommandLineFlag@absl@@@Z
    ??$get@$00@?$CompressedTuple@IV?$allocator@D@__Cr@std@@@container_internal@absl@@QGAEAAV?$allocator@D@__Cr@std@@XZ
    ??$get@$00@?$CompressedTuple@V?$allocator@PAUCordRep@cord_internal@absl@@@__Cr@std@@I@container_internal@absl@@QGAEAAIXZ
    ??$get@$00@?$CompressedTuple@V?$allocator@PAUCordRep@cord_internal@absl@@@__Cr@std@@I@container_internal@absl@@QGBEABIXZ
    ??$get@$00@?$CompressedTuple@V?$allocator@PAUCordRep@cord_internal@absl@@@__Cr@std@@PAPAUCordRep@cord_internal@absl@@@container_internal@absl@@QGAEAAPAPAUCordRep@cord_internal@2@XZ
    ??$get@$00@?$CompressedTuple@V?$allocator@PAVLogSink@absl@@@__Cr@std@@I@container_internal@absl@@QGAEAAIXZ
    ??$get@$00@?$CompressedTuple@V?$allocator@PAVLogSink@absl@@@__Cr@std@@I@container_internal@absl@@QGBEABIXZ
    ??$get@$00@?$CompressedTuple@V?$allocator@PAVLogSink@absl@@@__Cr@std@@PAPAVLogSink@absl@@@container_internal@absl@@QGAEAAPAPAVLogSink@2@XZ
    ??$get@$00@?$CompressedTuple@V?$allocator@UPayload@status_internal@absl@@@__Cr@std@@I@container_internal@absl@@QGAEAAIXZ
    ??$get@$00@?$CompressedTuple@V?$allocator@UPayload@status_internal@absl@@@__Cr@std@@I@container_internal@absl@@QGBEABIXZ
    ??$get@$00@?$CompressedTuple@V?$allocator@UPayload@status_internal@absl@@@__Cr@std@@PAUPayload@status_internal@absl@@@container_internal@absl@@QGAEAAPAUPayload@status_internal@2@XZ
    ??$get@$00@?$CompressedTuple@V?$allocator@VFormatArgImpl@str_format_internal@absl@@@__Cr@std@@I@container_internal@absl@@QGAEAAIXZ
    ??$get@$00@?$CompressedTuple@V?$allocator@VFormatArgImpl@str_format_internal@absl@@@__Cr@std@@I@container_internal@absl@@QGBEABIXZ
    ??$get@$00@?$CompressedTuple@VCommonFields@container_internal@absl@@UStringHash@23@UStringEq@23@V?$allocator@D@__Cr@std@@@container_internal@absl@@QGAEAAUStringHash@12@XZ
    ??$get@$00@?$CompressedTuple@VCommonFields@container_internal@absl@@UStringHash@23@UStringEq@23@V?$allocator@D@__Cr@std@@@container_internal@absl@@QGBEABUStringHash@12@XZ
    ??$get@$00AAPAVCommandLineFlag@absl@@AA_N@__Cr@std@@YAAA_NAAV?$tuple@AAPAVCommandLineFlag@absl@@AA_N@01@@Z
    ??$get@$00PAVCommandLineFlag@absl@@_N@__Cr@std@@YAAA_NAAV?$tuple@PAVCommandLineFlag@absl@@_N@01@@Z
    ??$get@$01@?$CompressedTuple@VCommonFields@container_internal@absl@@UStringHash@23@UStringEq@23@V?$allocator@D@__Cr@std@@@container_internal@absl@@QGAEAAUStringEq@12@XZ
    ??$get@$02@?$CompressedTuple@VCommonFields@container_internal@absl@@UStringHash@23@UStringEq@23@V?$allocator@D@__Cr@std@@@container_internal@absl@@QGAEAAV?$allocator@D@__Cr@std@@XZ
    ??$get@$0A@$$QAPAVCommandLineFlag@absl@@@__Cr@std@@YAAAPAVCommandLineFlag@absl@@AAV?$tuple@$$QAPAVCommandLineFlag@absl@@@01@@Z
    ??$get@$0A@@?$CompressedTuple@IV?$allocator@D@__Cr@std@@@container_internal@absl@@QGBEABIXZ
    ??$get@$0A@@?$CompressedTuple@V?$allocator@PAUCordRep@cord_internal@absl@@@__Cr@std@@I@container_internal@absl@@QGAEAAV?$allocator@PAUCordRep@cord_internal@absl@@@__Cr@std@@XZ
    ??$get@$0A@@?$CompressedTuple@V?$allocator@PAUCordRep@cord_internal@absl@@@__Cr@std@@PAPAUCordRep@cord_internal@absl@@@container_internal@absl@@QGAEAAV?$allocator@PAUCordRep@cord_internal@absl@@@__Cr@std@@XZ
    ??$get@$0A@@?$CompressedTuple@V?$allocator@PAVLogSink@absl@@@__Cr@std@@I@container_internal@absl@@QGAEAAV?$allocator@PAVLogSink@absl@@@__Cr@std@@XZ
    ??$get@$0A@@?$CompressedTuple@V?$allocator@PAVLogSink@absl@@@__Cr@std@@PAPAVLogSink@absl@@@container_internal@absl@@QGAEAAV?$allocator@PAVLogSink@absl@@@__Cr@std@@XZ
    ??$get@$0A@@?$CompressedTuple@V?$allocator@UPayload@status_internal@absl@@@__Cr@std@@I@container_internal@absl@@QGAEAAV?$allocator@UPayload@status_internal@absl@@@__Cr@std@@XZ
    ??$get@$0A@@?$CompressedTuple@V?$allocator@UPayload@status_internal@absl@@@__Cr@std@@I@container_internal@absl@@QGBEABV?$allocator@UPayload@status_internal@absl@@@__Cr@std@@XZ
    ??$get@$0A@@?$CompressedTuple@V?$allocator@UPayload@status_internal@absl@@@__Cr@std@@PAUPayload@status_internal@absl@@@container_internal@absl@@QGAEAAV?$allocator@UPayload@status_internal@absl@@@__Cr@std@@XZ
    ??$get@$0A@@?$CompressedTuple@V?$allocator@VFormatArgImpl@str_format_internal@absl@@@__Cr@std@@I@container_internal@absl@@QGAEAAV?$allocator@VFormatArgImpl@str_format_internal@absl@@@__Cr@std@@XZ
    ??$get@$0A@@?$CompressedTuple@VCommonFields@container_internal@absl@@UStringHash@23@UStringEq@23@V?$allocator@D@__Cr@std@@@container_internal@absl@@QGAEAAVCommonFields@12@XZ
    ??$get@$0A@@?$CompressedTuple@VCommonFields@container_internal@absl@@UStringHash@23@UStringEq@23@V?$allocator@D@__Cr@std@@@container_internal@absl@@QGBEABVCommonFields@12@XZ
    ??$get@$0A@AAPAVCommandLineFlag@absl@@AA_N@__Cr@std@@YAAAPAVCommandLineFlag@absl@@AAV?$tuple@AAPAVCommandLineFlag@absl@@AA_N@01@@Z
    ??$get@$0A@ABQAVCommandLineFlag@absl@@@__Cr@std@@YAABQAVCommandLineFlag@absl@@AAV?$tuple@ABQAVCommandLineFlag@absl@@@01@@Z
    ??$get@$0A@PAVCommandLineFlag@absl@@_N@__Cr@std@@YA$$QAPAVCommandLineFlag@absl@@$$QAV?$tuple@PAVCommandLineFlag@absl@@_N@01@@Z
    ??$get@$0A@PAVCommandLineFlag@absl@@_N@__Cr@std@@YAAAPAVCommandLineFlag@absl@@AAV?$tuple@PAVCommandLineFlag@absl@@_N@01@@Z
    ??$hash@V?$basic_string_view@DU?$char_traits@D@__Cr@std@@@__Cr@std@@$0A@@MixingHashState@hash_internal@absl@@SAIABV?$basic_string_view@DU?$char_traits@D@__Cr@std@@@__Cr@std@@@Z
    ??$hash@V?$tuple@ABI@__Cr@std@@$0A@@MixingHashState@hash_internal@absl@@SAIABV?$tuple@ABI@__Cr@std@@@Z
    ??$hash@V?$tuple@ABV?$basic_string_view@DU?$char_traits@D@__Cr@std@@@__Cr@std@@ABH@__Cr@std@@$0A@@MixingHashState@hash_internal@absl@@SAIABV?$tuple@ABV?$basic_string_view@DU?$char_traits@D@__Cr@std@@@__Cr@std@@ABH@__Cr@std@@@Z
    ??$hash_bytes@VMixingHashState@hash_internal@absl@@H$0A@@hash_internal@absl@@YA?AVMixingHashState@01@V201@ABH@Z
    ??$hash_bytes@VMixingHashState@hash_internal@absl@@I$0A@@hash_internal@absl@@YA?AVMixingHashState@01@V201@ABI@Z
    ??$hash_range_or_bytes@VMixingHashState@hash_internal@absl@@D@hash_internal@absl@@YA?AVMixingHashState@01@V201@PBDI@Z
    ??$hash_tuple@VMixingHashState@hash_internal@absl@@V?$tuple@ABI@__Cr@std@@$0A@@hash_internal@absl@@YA?AVMixingHashState@01@V201@ABV?$tuple@ABI@__Cr@std@@U?$integer_sequence@I$0A@@45@@Z
    ??$hash_tuple@VMixingHashState@hash_internal@absl@@V?$tuple@ABV?$basic_string_view@DU?$char_traits@D@__Cr@std@@@__Cr@std@@ABH@__Cr@std@@$0A@$00@hash_internal@absl@@YA?AVMixingHashState@01@V201@ABV?$tuple@ABV?$basic_string_view@DU?$char_traits@D@__Cr@std@@@__Cr@std@@ABH@__Cr@std@@U?$integer_sequence@I$0A@$00@45@@Z
    ??$hash_weakly_mixed_integer@VMixingHashState@hash_internal@absl@@@hash_internal@absl@@YA?AVMixingHashState@01@V201@UWeaklyMixedInteger@01@@Z
    ??$insert@U?$pair@$$CBV?$basic_string_view@DU?$char_traits@D@__Cr@std@@@__Cr@std@@PAVCommandLineFlag@absl@@@__Cr@std@@$0A@@?$raw_hash_set@U?$FlatHashMapPolicy@V?$basic_string_view@DU?$char_traits@D@__Cr@std@@@__Cr@std@@PAVCommandLineFlag@absl@@@container_internal@absl@@UStringHash@23@UStringEq@23@V?$allocator@U?$pair@$$CBV?$basic_string_view@DU?$char_traits@D@__Cr@std@@@__Cr@std@@PAVCommandLineFlag@absl@@@__Cr@std@@@__Cr@std@@@container_internal@absl@@QAE?AU?$pair@Viterator@?$raw_hash_set@U?$FlatHashMapPolicy@V?$basic_string_view@DU?$char_traits@D@__Cr@std@@@__Cr@std@@PAVCommandLineFlag@absl@@@container_internal@absl@@UStringHash@23@UStringEq@23@V?$allocator@U?$pair@$$CBV?$basic_string_view@DU?$char_traits@D@__Cr@std@@@__Cr@std@@PAVCommandLineFlag@absl@@@__Cr@std@@@__Cr@std@@@container_internal@absl@@_N@__Cr@std@@$$QAU?$pair@$$CBV?$basic_string_view@DU?$char_traits@D@__Cr@std@@@__Cr@std@@PAVCommandLineFlag@absl@@@45@@Z
    ??$insert@V?$__wrap_iter@PAUraw_view@?1???R?$ConvertToContainer@V?$vector@V?$basic_string_view@DU?$char_traits@D@__Cr@std@@@__Cr@std@@V?$allocator@V?$basic_string_view@DU?$char_traits@D@__Cr@std@@@__Cr@std@@@23@@__Cr@std@@V?$basic_string_view@DU?$char_traits@D@__Cr@std@@@23@$0A@@?$Splitter@VByChar@absl@@UAllowEmpty@2@V?$basic_string_view@DU?$char_traits@D@__Cr@std@@@__Cr@std@@@strings_internal@absl@@QBE?AV?$vector@V?$basic_string_view@DU?$char_traits@D@__Cr@std@@@__Cr@std@@V?$allocator@V?$basic_string_view@DU?$char_traits@D@__Cr@std@@@__Cr@std@@@23@@__Cr@std@@ABV345@@Z@@__Cr@std@@$0A@@?$vector@V?$basic_string_view@DU?$char_traits@D@__Cr@std@@@__Cr@std@@V?$allocator@V?$basic_string_view@DU?$char_traits@D@__Cr@std@@@__Cr@std@@@23@@__Cr@std@@QAE?AV?$__wrap_iter@PAV?$basic_string_view@DU?$char_traits@D@__Cr@std@@@__Cr@std@@@12@V?$__wrap_iter@PBV?$basic_string_view@DU?$char_traits@D@__Cr@std@@@__Cr@std@@@12@V?$__wrap_iter@PAUraw_view@?1???R?$ConvertToContainer@V?$vector@V?$basic_string_view@DU?$char_traits@D@__Cr@std@@@__Cr@std@@V?$allocator@V?$basic_string_view@DU?$char_traits@D@__Cr@std@@@__Cr@std@@@23@@__Cr@std@@V?$basic_string_view@DU?$char_traits@D@__Cr@std@@@23@$0A@@?$Splitter@VByChar@absl@@UAllowEmpty@2@V?$basic_string_view@DU?$char_traits@D@__Cr@std@@@__Cr@std@@@strings_internal@absl@@QBE?AV?$vector@V?$basic_string_view@DU?$char_traits@D@__Cr@std@@@__Cr@std@@V?$allocator@V?$basic_string_view@DU?$char_traits@D@__Cr@std@@@__Cr@std@@@23@@__Cr@std@@ABV345@@Z@@12@1@Z
    ??$invoke@P8FlagImpl@flags_internal@absl@@AEXXZPAV123@@__Cr@std@@YAX$$QAP8FlagImpl@flags_internal@absl@@AEXXZ$$QAPAV234@@Z
    ??$iter_swap@AAPAPAVCommandLineFlag@absl@@AAPAPAV12@@?$_IterOps@U_ClassicAlgPolicy@__Cr@std@@@__Cr@std@@SAXAAPAPAVCommandLineFlag@absl@@0@Z
    ??$iter_swap@AAPAPAVCommandLineFlag@absl@@PAPAV12@@?$_IterOps@U_ClassicAlgPolicy@__Cr@std@@@__Cr@std@@SAXAAPAPAVCommandLineFlag@absl@@$$QAPAPAV34@@Z
    ??$iter_swap@AAPAPBVCommandLineFlag@absl@@AAPAPBV12@@?$_IterOps@U_ClassicAlgPolicy@__Cr@std@@@__Cr@std@@SAXAAPAPBVCommandLineFlag@absl@@0@Z
    ??$iter_swap@AAPAPBVCommandLineFlag@absl@@PAPBV12@@?$_IterOps@U_ClassicAlgPolicy@__Cr@std@@@__Cr@std@@SAXAAPAPBVCommandLineFlag@absl@@$$QAPAPBV34@@Z
    ??$iter_swap@PAPAVCommandLineFlag@absl@@PAPAV12@@?$_IterOps@U_ClassicAlgPolicy@__Cr@std@@@__Cr@std@@SAX$$QAPAPAVCommandLineFlag@absl@@0@Z
    ??$iter_swap@PAPAVCommandLineFlag@absl@@PAPAV12@@__Cr@std@@YAXPAPAVCommandLineFlag@absl@@0@Z
    ??$iter_swap@PAPBVCommandLineFlag@absl@@PAPBV12@@?$_IterOps@U_ClassicAlgPolicy@__Cr@std@@@__Cr@std@@SAX$$QAPAPBVCommandLineFlag@absl@@0@Z
    ??$iter_swap@PAPBVCommandLineFlag@absl@@PAPBV12@@__Cr@std@@YAXPAPBVCommandLineFlag@absl@@0@Z
    ??$launder@$$CBU?$pair@$$CBV?$basic_string@DU?$char_traits@D@__Cr@std@@V?$allocator@D@23@@__Cr@std@@PBVImpl@time_zone@cctz@time_internal@absl@@@__Cr@std@@@__Cr@std@@YAPBU?$pair@$$CBV?$basic_string@DU?$char_traits@D@__Cr@std@@V?$allocator@D@23@@__Cr@std@@PBVImpl@time_zone@cctz@time_internal@absl@@@01@PBU201@@Z
    ??$launder@$$CBU?$pair@$$CBV?$basic_string@DU?$char_traits@D@__Cr@std@@V?$allocator@D@23@@__Cr@std@@V?$map@V?$basic_string@DU?$char_traits@D@__Cr@std@@V?$allocator@D@23@@__Cr@std@@V?$vector@PBVCommandLineFlag@absl@@V?$allocator@PBVCommandLineFlag@absl@@@__Cr@std@@@23@U?$less@V?$basic_string@DU?$char_traits@D@__Cr@std@@V?$allocator@D@23@@__Cr@std@@@23@V?$allocator@U?$pair@$$CBV?$basic_string@DU?$char_traits@D@__Cr@std@@V?$allocator@D@23@@__Cr@std@@V?$vector@PBVCommandLineFlag@absl@@V?$allocator@PBVCommandLineFlag@absl@@@__Cr@std@@@23@@__Cr@std@@@23@@23@@__Cr@std@@@__Cr@std@@YAPBU?$pair@$$CBV?$basic_string@DU?$char_traits@D@__Cr@std@@V?$allocator@D@23@@__Cr@std@@V?$map@V?$basic_string@DU?$char_traits@D@__Cr@std@@V?$allocator@D@23@@__Cr@std@@V?$vector@PBVCommandLineFlag@absl@@V?$allocator@PBVCommandLineFlag@absl@@@__Cr@std@@@23@U?$less@V?$basic_string@DU?$char_traits@D@__Cr@std@@V?$allocator@D@23@@__Cr@std@@@23@V?$allocator@U?$pair@$$CBV?$basic_string@DU?$char_traits@D@__Cr@std@@V?$allocator@D@23@@__Cr@std@@V?$vector@PBVCommandLineFlag@absl@@V?$allocator@PBVCommandLineFlag@absl@@@__Cr@std@@@23@@__Cr@std@@@23@@23@@01@PBU201@@Z
    ??$launder@$$CBU?$pair@$$CBV?$basic_string@DU?$char_traits@D@__Cr@std@@V?$allocator@D@23@@__Cr@std@@V?$vector@PBVCommandLineFlag@absl@@V?$allocator@PBVCommandLineFlag@absl@@@__Cr@std@@@23@@__Cr@std@@@__Cr@std@@YAPBU?$pair@$$CBV?$basic_string@DU?$char_traits@D@__Cr@std@@V?$allocator@D@23@@__Cr@std@@V?$vector@PBVCommandLineFlag@absl@@V?$allocator@PBVCommandLineFlag@absl@@@__Cr@std@@@23@@01@PBU201@@Z
    ??$launder@U?$pair@$$CBV?$basic_string@DU?$char_traits@D@__Cr@std@@V?$allocator@D@23@@__Cr@std@@PBVImpl@time_zone@cctz@time_internal@absl@@@__Cr@std@@@__Cr@std@@YAPAU?$pair@$$CBV?$basic_string@DU?$char_traits@D@__Cr@std@@V?$allocator@D@23@@__Cr@std@@PBVImpl@time_zone@cctz@time_internal@absl@@@01@PAU201@@Z
    ??$launder@U?$pair@$$CBV?$basic_string@DU?$char_traits@D@__Cr@std@@V?$allocator@D@23@@__Cr@std@@V?$map@V?$basic_string@DU?$char_traits@D@__Cr@std@@V?$allocator@D@23@@__Cr@std@@V?$vector@PBVCommandLineFlag@absl@@V?$allocator@PBVCommandLineFlag@absl@@@__Cr@std@@@23@U?$less@V?$basic_string@DU?$char_traits@D@__Cr@std@@V?$allocator@D@23@@__Cr@std@@@23@V?$allocator@U?$pair@$$CBV?$basic_string@DU?$char_traits@D@__Cr@std@@V?$allocator@D@23@@__Cr@std@@V?$vector@PBVCommandLineFlag@absl@@V?$allocator@PBVCommandLineFlag@absl@@@__Cr@std@@@23@@__Cr@std@@@23@@23@@__Cr@std@@@__Cr@std@@YAPAU?$pair@$$CBV?$basic_string@DU?$char_traits@D@__Cr@std@@V?$allocator@D@23@@__Cr@std@@V?$map@V?$basic_string@DU?$char_traits@D@__Cr@std@@V?$allocator@D@23@@__Cr@std@@V?$vector@PBVCommandLineFlag@absl@@V?$allocator@PBVCommandLineFlag@absl@@@__Cr@std@@@23@U?$less@V?$basic_string@DU?$char_traits@D@__Cr@std@@V?$allocator@D@23@@__Cr@std@@@23@V?$allocator@U?$pair@$$CBV?$basic_string@DU?$char_traits@D@__Cr@std@@V?$allocator@D@23@@__Cr@std@@V?$vector@PBVCommandLineFlag@absl@@V?$allocator@PBVCommandLineFlag@absl@@@__Cr@std@@@23@@__Cr@std@@@23@@23@@01@PAU201@@Z
    ??$launder@U?$pair@$$CBV?$basic_string@DU?$char_traits@D@__Cr@std@@V?$allocator@D@23@@__Cr@std@@V?$vector@PBVCommandLineFlag@absl@@V?$allocator@PBVCommandLineFlag@absl@@@__Cr@std@@@23@@__Cr@std@@@__Cr@std@@YAPAU?$pair@$$CBV?$basic_string@DU?$char_traits@D@__Cr@std@@V?$allocator@D@23@@__Cr@std@@V?$vector@PBVCommandLineFlag@absl@@V?$allocator@PBVCommandLineFlag@absl@@@__Cr@std@@@23@@01@PAU201@@Z
    ??$launder@U?$pair@$$CBV?$basic_string_view@DU?$char_traits@D@__Cr@std@@@__Cr@std@@PAVCommandLineFlag@absl@@@__Cr@std@@@__Cr@std@@YAPAU?$pair@$$CBV?$basic_string_view@DU?$char_traits@D@__Cr@std@@@__Cr@std@@PAVCommandLineFlag@absl@@@01@PAU201@@Z
    ??$launder@URefcountedRep@CrcCordState@crc_internal@absl@@@__Cr@std@@YAPAURefcountedRep@CrcCordState@crc_internal@absl@@PAU2345@@Z
    ??$launder@V?$SampleRecorder@UHashtablezInfo@container_internal@absl@@@profiling_internal@absl@@@__Cr@std@@YAPAV?$SampleRecorder@UHashtablezInfo@container_internal@absl@@@profiling_internal@absl@@PAV234@@Z
    ??$launder@VFlagRegistry@flags_internal@absl@@@__Cr@std@@YAPAVFlagRegistry@flags_internal@absl@@PAV234@@Z
    ??$launder@VMutex@absl@@@__Cr@std@@YAPAVMutex@absl@@PAV23@@Z
    ??$lower_bound@PBUTransition@cctz@time_internal@absl@@U1234@UByUnixTime@1234@@__Cr@std@@YAPBUTransition@cctz@time_internal@absl@@PBU2345@0ABU2345@UByUnixTime@2345@@Z
    ??$make_pair@AAPAPAPBVImpl@time_zone@cctz@time_internal@absl@@AAPAPAPBV12345@@__Cr@std@@YA?AU?$pair@PAPAPBVImpl@time_zone@cctz@time_internal@absl@@PAPAPBV12345@@01@AAPAPAPBVImpl@time_zone@cctz@time_internal@absl@@0@Z
    ??$make_pair@AAPAPAPBVImpl@time_zone@cctz@time_internal@absl@@PAPAPBV12345@@__Cr@std@@YA?AU?$pair@PAPAPBVImpl@time_zone@cctz@time_internal@absl@@PAPAPBV12345@@01@AAPAPAPBVImpl@time_zone@cctz@time_internal@absl@@$$QAPAPAPBV34567@@Z
    ??$make_pair@AAPAPAUPrefixCrc@CrcCordState@crc_internal@absl@@AAPAPAU1234@@__Cr@std@@YA?AU?$pair@PAPAUPrefixCrc@CrcCordState@crc_internal@absl@@PAPAU1234@@01@AAPAPAUPrefixCrc@CrcCordState@crc_internal@absl@@0@Z
    ??$make_pair@AAPAPAUPrefixCrc@CrcCordState@crc_internal@absl@@PAPAU1234@@__Cr@std@@YA?AU?$pair@PAPAUPrefixCrc@CrcCordState@crc_internal@absl@@PAPAU1234@@01@AAPAPAUPrefixCrc@CrcCordState@crc_internal@absl@@$$QAPAPAU3456@@Z
    ??$make_pair@AAPAPAVCommandLineFlag@absl@@AA_N@__Cr@std@@YA?AU?$pair@PAPAVCommandLineFlag@absl@@_N@01@AAPAPAVCommandLineFlag@absl@@AA_N@Z
    ??$make_pair@AAPAPAVLogSink@absl@@PAPAV12@@__Cr@std@@YA?AU?$pair@PAPAVLogSink@absl@@PAPAV12@@01@AAPAPAVLogSink@absl@@$$QAPAPAV34@@Z
    ??$make_pair@AAPAPBVCommandLineFlag@absl@@AA_N@__Cr@std@@YA?AU?$pair@PAPBVCommandLineFlag@absl@@_N@01@AAPAPBVCommandLineFlag@absl@@AA_N@Z
    ??$make_pair@AAPAUTransition@cctz@time_internal@absl@@AAPAU1234@@__Cr@std@@YA?AU?$pair@PAUTransition@cctz@time_internal@absl@@PAU1234@@01@AAPAUTransition@cctz@time_internal@absl@@0@Z
    ??$make_pair@AAPAUTransition@cctz@time_internal@absl@@PAU1234@@__Cr@std@@YA?AU?$pair@PAUTransition@cctz@time_internal@absl@@PAU1234@@01@AAPAUTransition@cctz@time_internal@absl@@$$QAPAU3456@@Z
    ??$make_pair@AAPAUTransitionType@cctz@time_internal@absl@@AAPAU1234@@__Cr@std@@YA?AU?$pair@PAUTransitionType@cctz@time_internal@absl@@PAU1234@@01@AAPAUTransitionType@cctz@time_internal@absl@@0@Z
    ??$make_pair@AAPAUTransitionType@cctz@time_internal@absl@@PAU1234@@__Cr@std@@YA?AU?$pair@PAUTransitionType@cctz@time_internal@absl@@PAU1234@@01@AAPAUTransitionType@cctz@time_internal@absl@@$$QAPAU3456@@Z
    ??$make_pair@AAPBUPrefixCrc@CrcCordState@crc_internal@absl@@PAU1234@@__Cr@std@@YA?AU?$pair@PBUPrefixCrc@CrcCordState@crc_internal@absl@@PAU1234@@01@AAPBUPrefixCrc@CrcCordState@crc_internal@absl@@$$QAPAU3456@@Z
    ??$make_pair@AAV?$__deque_iterator@UPrefixCrc@CrcCordState@crc_internal@absl@@PBU1234@ABU1234@PBQBU1234@H$0A@@__Cr@std@@V?$__deque_iterator@UPrefixCrc@CrcCordState@crc_internal@absl@@PAU1234@AAU1234@PAPAU1234@H$0A@@23@@__Cr@std@@YA?AU?$pair@V?$__deque_iterator@UPrefixCrc@CrcCordState@crc_internal@absl@@PBU1234@ABU1234@PBQBU1234@H$0A@@__Cr@std@@V?$__deque_iterator@UPrefixCrc@CrcCordState@crc_internal@absl@@PAU1234@AAU1234@PAPAU1234@H$0A@@23@@01@AAV?$__deque_iterator@UPrefixCrc@CrcCordState@crc_internal@absl@@PBU1234@ABU1234@PBQBU1234@H$0A@@01@$$QAV?$__deque_iterator@UPrefixCrc@CrcCordState@crc_internal@absl@@PAU1234@AAU1234@PAPAU1234@H$0A@@01@@Z
    ??$make_pair@PAPAPBVImpl@time_zone@cctz@time_internal@absl@@PAPAPBV12345@@__Cr@std@@YA?AU?$pair@PAPAPBVImpl@time_zone@cctz@time_internal@absl@@PAPAPBV12345@@01@$$QAPAPAPBVImpl@time_zone@cctz@time_internal@absl@@0@Z
    ??$make_pair@PAPAUPrefixCrc@CrcCordState@crc_internal@absl@@PAPAU1234@@__Cr@std@@YA?AU?$pair@PAPAUPrefixCrc@CrcCordState@crc_internal@absl@@PAPAU1234@@01@$$QAPAPAUPrefixCrc@CrcCordState@crc_internal@absl@@0@Z
    ??$make_pair@PAPAVLogSink@absl@@PAPAV12@@__Cr@std@@YA?AU?$pair@PAPAVLogSink@absl@@PAPAV12@@01@$$QAPAPAVLogSink@absl@@0@Z
    ??$make_pair@PAUTransition@cctz@time_internal@absl@@PAU1234@@__Cr@std@@YA?AU?$pair@PAUTransition@cctz@time_internal@absl@@PAU1234@@01@$$QAPAUTransition@cctz@time_internal@absl@@0@Z
    ??$make_pair@PAUTransitionType@cctz@time_internal@absl@@PAU1234@@__Cr@std@@YA?AU?$pair@PAUTransitionType@cctz@time_internal@absl@@PAU1234@@01@$$QAPAUTransitionType@cctz@time_internal@absl@@0@Z
    ??$make_pair@PBUPrefixCrc@CrcCordState@crc_internal@absl@@PAU1234@@__Cr@std@@YA?AU?$pair@PBUPrefixCrc@CrcCordState@crc_internal@absl@@PAU1234@@01@$$QAPBUPrefixCrc@CrcCordState@crc_internal@absl@@$$QAPAU3456@@Z
    ??$make_pair@PBUPrefixCrc@CrcCordState@crc_internal@absl@@V?$__deque_iterator@UPrefixCrc@CrcCordState@crc_internal@absl@@PAU1234@AAU1234@PAPAU1234@H$0A@@__Cr@std@@@__Cr@std@@YA?AU?$pair@PBUPrefixCrc@CrcCordState@crc_internal@absl@@V?$__deque_iterator@UPrefixCrc@CrcCordState@crc_internal@absl@@PAU1234@AAU1234@PAPAU1234@H$0A@@__Cr@std@@@01@$$QAPBUPrefixCrc@CrcCordState@crc_internal@absl@@$$QAV?$__deque_iterator@UPrefixCrc@CrcCordState@crc_internal@absl@@PAU1234@AAU1234@PAPAU1234@H$0A@@01@@Z
    ??$make_pair@V?$__deque_iterator@UPrefixCrc@CrcCordState@crc_internal@absl@@PBU1234@ABU1234@PBQBU1234@H$0A@@__Cr@std@@V?$__deque_iterator@UPrefixCrc@CrcCordState@crc_internal@absl@@PAU1234@AAU1234@PAPAU1234@H$0A@@23@@__Cr@std@@YA?AU?$pair@V?$__deque_iterator@UPrefixCrc@CrcCordState@crc_internal@absl@@PBU1234@ABU1234@PBQBU1234@H$0A@@__Cr@std@@V?$__deque_iterator@UPrefixCrc@CrcCordState@crc_internal@absl@@PAU1234@AAU1234@PAPAU1234@H$0A@@23@@01@$$QAV?$__deque_iterator@UPrefixCrc@CrcCordState@crc_internal@absl@@PBU1234@ABU1234@PBQBU1234@H$0A@@01@$$QAV?$__deque_iterator@UPrefixCrc@CrcCordState@crc_internal@absl@@PAU1234@AAU1234@PAPAU1234@H$0A@@01@@Z
    ??$make_tuple@AAPAVCommandLineFlag@absl@@AA_N@__Cr@std@@YA?AV?$tuple@PAVCommandLineFlag@absl@@_N@01@AAPAVCommandLineFlag@absl@@AA_N@Z
    ??$make_unique@ULogMessageData@LogMessage@log_internal@absl@@AAPBDAAHAAW4LogSeverity@4@VTime@4@$0A@@__Cr@std@@YA?AV?$unique_ptr@ULogMessageData@LogMessage@log_internal@absl@@U?$default_delete@ULogMessageData@LogMessage@log_internal@absl@@@__Cr@std@@@01@AAPBDAAHAAW4LogSeverity@absl@@$$QAVTime@4@@Z
    ??$make_unique@V?$InlinedVector@UPayload@status_internal@absl@@$00V?$allocator@UPayload@status_internal@absl@@@__Cr@std@@@absl@@$$V$0A@@__Cr@std@@YA?AV?$unique_ptr@V?$InlinedVector@UPayload@status_internal@absl@@$00V?$allocator@UPayload@status_internal@absl@@@__Cr@std@@@absl@@U?$default_delete@V?$InlinedVector@UPayload@status_internal@absl@@$00V?$allocator@UPayload@status_internal@absl@@@__Cr@std@@@absl@@@__Cr@std@@@01@XZ
    ??$make_unique@V?$InlinedVector@UPayload@status_internal@absl@@$00V?$allocator@UPayload@status_internal@absl@@@__Cr@std@@@absl@@AAV12@$0A@@__Cr@std@@YA?AV?$unique_ptr@V?$InlinedVector@UPayload@status_internal@absl@@$00V?$allocator@UPayload@status_internal@absl@@@__Cr@std@@@absl@@U?$default_delete@V?$InlinedVector@UPayload@status_internal@absl@@$00V?$allocator@UPayload@status_internal@absl@@@__Cr@std@@@absl@@@__Cr@std@@@01@AAV?$InlinedVector@UPayload@status_internal@absl@@$00V?$allocator@UPayload@status_internal@absl@@@__Cr@std@@@absl@@@Z
    ??$make_unique@VFallbackCrcMemcpyEngine@crc_internal@absl@@$$V$0A@@__Cr@std@@YA?AV?$unique_ptr@VFallbackCrcMemcpyEngine@crc_internal@absl@@U?$default_delete@VFallbackCrcMemcpyEngine@crc_internal@absl@@@__Cr@std@@@01@XZ
    ??$make_unique@VFlagState@flags_internal@absl@@AAVFlagImpl@23@AAPAXAA_NAA_N_J$0A@@__Cr@std@@YA?AV?$unique_ptr@VFlagState@flags_internal@absl@@U?$default_delete@VFlagState@flags_internal@absl@@@__Cr@std@@@01@AAVFlagImpl@flags_internal@absl@@AAPAXAA_N2$$QA_J@Z
    ??$make_unique@VFlagState@flags_internal@absl@@AAVFlagImpl@23@PAXAA_NAA_N_J$0A@@__Cr@std@@YA?AV?$unique_ptr@VFlagState@flags_internal@absl@@U?$default_delete@VFlagState@flags_internal@absl@@@__Cr@std@@@01@AAVFlagImpl@flags_internal@absl@@$$QAPAXAA_N2$$QA_J@Z
    ??$make_unique@VFlagState@flags_internal@absl@@AAVFlagImpl@23@_JAA_NAA_N_J$0A@@__Cr@std@@YA?AV?$unique_ptr@VFlagState@flags_internal@absl@@U?$default_delete@VFlagState@flags_internal@absl@@@__Cr@std@@@01@AAVFlagImpl@flags_internal@absl@@$$QA_JAA_N21@Z
    ??$max@VDuration@absl@@@__Cr@std@@YAABVDuration@absl@@ABV23@0@Z
    ??$max@VDuration@absl@@U?$__less@XX@__Cr@std@@@__Cr@std@@YAABVDuration@absl@@ABV23@0U?$__less@XX@01@@Z
    ??$max_size@V?$allocator@PAPBVImpl@time_zone@cctz@time_internal@absl@@@__Cr@std@@$0A@@?$allocator_traits@V?$allocator@PAPBVImpl@time_zone@cctz@time_internal@absl@@@__Cr@std@@@__Cr@std@@SAIABV?$allocator@PAPBVImpl@time_zone@cctz@time_internal@absl@@@12@@Z
    ??$max_size@V?$allocator@PAU?$__hash_node_base@PAU?$__hash_node@PBUCordRep@cord_internal@absl@@PAX@__Cr@std@@@__Cr@std@@@__Cr@std@@$0A@@?$allocator_traits@V?$allocator@PAU?$__hash_node_base@PAU?$__hash_node@PBUCordRep@cord_internal@absl@@PAX@__Cr@std@@@__Cr@std@@@__Cr@std@@@__Cr@std@@SAIABV?$allocator@PAU?$__hash_node_base@PAU?$__hash_node@PBUCordRep@cord_internal@absl@@PAX@__Cr@std@@@__Cr@std@@@12@@Z
    ??$max_size@V?$allocator@PAU?$__hash_node_base@PAU?$__hash_node@U?$__hash_value_type@V?$basic_string@DU?$char_traits@D@__Cr@std@@V?$allocator@D@23@@__Cr@std@@PBVImpl@time_zone@cctz@time_internal@absl@@@__Cr@std@@PAX@__Cr@std@@@__Cr@std@@@__Cr@std@@$0A@@?$allocator_traits@V?$allocator@PAU?$__hash_node_base@PAU?$__hash_node@U?$__hash_value_type@V?$basic_string@DU?$char_traits@D@__Cr@std@@V?$allocator@D@23@@__Cr@std@@PBVImpl@time_zone@cctz@time_internal@absl@@@__Cr@std@@PAX@__Cr@std@@@__Cr@std@@@__Cr@std@@@__Cr@std@@SAIABV?$allocator@PAU?$__hash_node_base@PAU?$__hash_node@U?$__hash_value_type@V?$basic_string@DU?$char_traits@D@__Cr@std@@V?$allocator@D@23@@__Cr@std@@PBVImpl@time_zone@cctz@time_internal@absl@@@__Cr@std@@PAX@__Cr@std@@@__Cr@std@@@12@@Z
    ??$max_size@V?$allocator@PAUCordRep@cord_internal@absl@@@__Cr@std@@$0A@@?$allocator_traits@V?$allocator@PAUCordRep@cord_internal@absl@@@__Cr@std@@@__Cr@std@@SAIABV?$allocator@PAUCordRep@cord_internal@absl@@@12@@Z
    ??$max_size@V?$allocator@PAUPrefixCrc@CrcCordState@crc_internal@absl@@@__Cr@std@@$0A@@?$allocator_traits@V?$allocator@PAUPrefixCrc@CrcCordState@crc_internal@absl@@@__Cr@std@@@__Cr@std@@SAIABV?$allocator@PAUPrefixCrc@CrcCordState@crc_internal@absl@@@12@@Z
    ??$max_size@V?$allocator@PAVCommandLineFlag@absl@@@__Cr@std@@$0A@@?$allocator_traits@V?$allocator@PAVCommandLineFlag@absl@@@__Cr@std@@@__Cr@std@@SAIABV?$allocator@PAVCommandLineFlag@absl@@@12@@Z
    ??$max_size@V?$allocator@PAVCordzHandle@cord_internal@absl@@@__Cr@std@@$0A@@?$allocator_traits@V?$allocator@PAVCordzHandle@cord_internal@absl@@@__Cr@std@@@__Cr@std@@SAIABV?$allocator@PAVCordzHandle@cord_internal@absl@@@12@@Z
    ??$max_size@V?$allocator@PAVLogSink@absl@@@__Cr@std@@$0A@@?$allocator_traits@V?$allocator@PAVLogSink@absl@@@__Cr@std@@@__Cr@std@@SAIABV?$allocator@PAVLogSink@absl@@@12@@Z
    ??$max_size@V?$allocator@PBVCommandLineFlag@absl@@@__Cr@std@@$0A@@?$allocator_traits@V?$allocator@PBVCommandLineFlag@absl@@@__Cr@std@@@__Cr@std@@SAIABV?$allocator@PBVCommandLineFlag@absl@@@12@@Z
    ??$max_size@V?$allocator@PBVCordzHandle@cord_internal@absl@@@__Cr@std@@$0A@@?$allocator_traits@V?$allocator@PBVCordzHandle@cord_internal@absl@@@__Cr@std@@@__Cr@std@@SAIABV?$allocator@PBVCordzHandle@cord_internal@absl@@@12@@Z
    ??$max_size@V?$allocator@PBVImpl@time_zone@cctz@time_internal@absl@@@__Cr@std@@$0A@@?$allocator_traits@V?$allocator@PBVImpl@time_zone@cctz@time_internal@absl@@@__Cr@std@@@__Cr@std@@SAIABV?$allocator@PBVImpl@time_zone@cctz@time_internal@absl@@@12@@Z
    ??$max_size@V?$allocator@U?$AlignedType@$03@container_internal@absl@@@__Cr@std@@$0A@@?$allocator_traits@V?$allocator@U?$AlignedType@$03@container_internal@absl@@@__Cr@std@@@__Cr@std@@SAIABV?$allocator@U?$AlignedType@$03@container_internal@absl@@@12@@Z
    ??$max_size@V?$allocator@U?$__hash_node@PBUCordRep@cord_internal@absl@@PAX@__Cr@std@@@__Cr@std@@$0A@@?$allocator_traits@V?$allocator@U?$__hash_node@PBUCordRep@cord_internal@absl@@PAX@__Cr@std@@@__Cr@std@@@__Cr@std@@SAIABV?$allocator@U?$__hash_node@PBUCordRep@cord_internal@absl@@PAX@__Cr@std@@@12@@Z
    ??$max_size@V?$allocator@U?$__hash_node@U?$__hash_value_type@V?$basic_string@DU?$char_traits@D@__Cr@std@@V?$allocator@D@23@@__Cr@std@@PBVImpl@time_zone@cctz@time_internal@absl@@@__Cr@std@@PAX@__Cr@std@@@__Cr@std@@$0A@@?$allocator_traits@V?$allocator@U?$__hash_node@U?$__hash_value_type@V?$basic_string@DU?$char_traits@D@__Cr@std@@V?$allocator@D@23@@__Cr@std@@PBVImpl@time_zone@cctz@time_internal@absl@@@__Cr@std@@PAX@__Cr@std@@@__Cr@std@@@__Cr@std@@SAIABV?$allocator@U?$__hash_node@U?$__hash_value_type@V?$basic_string@DU?$char_traits@D@__Cr@std@@V?$allocator@D@23@@__Cr@std@@PBVImpl@time_zone@cctz@time_internal@absl@@@__Cr@std@@PAX@__Cr@std@@@12@@Z
    ??$max_size@V?$allocator@UAlignedSpace@?1???$FlagOps@V?$vector@V?$basic_string@DU?$char_traits@D@__Cr@std@@V?$allocator@D@23@@__Cr@std@@V?$allocator@V?$basic_string@DU?$char_traits@D@__Cr@std@@V?$allocator@D@23@@__Cr@std@@@23@@__Cr@std@@@flags_internal@absl@@YAPAXW4FlagOp@23@PBXPAX2@Z@@__Cr@std@@$0A@@?$allocator_traits@V?$allocator@UAlignedSpace@?1???$FlagOps@V?$vector@V?$basic_string@DU?$char_traits@D@__Cr@std@@V?$allocator@D@23@@__Cr@std@@V?$allocator@V?$basic_string@DU?$char_traits@D@__Cr@std@@V?$allocator@D@23@@__Cr@std@@@23@@__Cr@std@@@flags_internal@absl@@YAPAXW4FlagOp@23@PBXPAX2@Z@@__Cr@std@@@__Cr@std@@SAIABV?$allocator@UAlignedSpace@?1???$FlagOps@V?$vector@V?$basic_string@DU?$char_traits@D@__Cr@std@@V?$allocator@D@23@@__Cr@std@@V?$allocator@V?$basic_string@DU?$char_traits@D@__Cr@std@@V?$allocator@D@23@@__Cr@std@@@23@@__Cr@std@@@flags_internal@absl@@YAPAXW4FlagOp@23@PBXPAX2@Z@@12@@Z
    ??$max_size@V?$allocator@UConversionItem@ParsedFormatBase@str_format_internal@absl@@@__Cr@std@@$0A@@?$allocator_traits@V?$allocator@UConversionItem@ParsedFormatBase@str_format_internal@absl@@@__Cr@std@@@__Cr@std@@SAIABV?$allocator@UConversionItem@ParsedFormatBase@str_format_internal@absl@@@12@@Z
    ??$max_size@V?$allocator@UPayload@status_internal@absl@@@__Cr@std@@$0A@@?$allocator_traits@V?$allocator@UPayload@status_internal@absl@@@__Cr@std@@@__Cr@std@@SAIABV?$allocator@UPayload@status_internal@absl@@@12@@Z
    ??$max_size@V?$allocator@UPrefixCrc@CrcCordState@crc_internal@absl@@@__Cr@std@@$0A@@?$allocator_traits@V?$allocator@UPrefixCrc@CrcCordState@crc_internal@absl@@@__Cr@std@@@__Cr@std@@SAIABV?$allocator@UPrefixCrc@CrcCordState@crc_internal@absl@@@12@@Z
    ??$max_size@V?$allocator@UTransition@cctz@time_internal@absl@@@__Cr@std@@$0A@@?$allocator_traits@V?$allocator@UTransition@cctz@time_internal@absl@@@__Cr@std@@@__Cr@std@@SAIABV?$allocator@UTransition@cctz@time_internal@absl@@@12@@Z
    ??$max_size@V?$allocator@UTransitionType@cctz@time_internal@absl@@@__Cr@std@@$0A@@?$allocator_traits@V?$allocator@UTransitionType@cctz@time_internal@absl@@@__Cr@std@@@__Cr@std@@SAIABV?$allocator@UTransitionType@cctz@time_internal@absl@@@12@@Z
    ??$max_size@V?$allocator@UUnrecognizedFlag@absl@@@__Cr@std@@$0A@@?$allocator_traits@V?$allocator@UUnrecognizedFlag@absl@@@__Cr@std@@@__Cr@std@@SAIABV?$allocator@UUnrecognizedFlag@absl@@@12@@Z
    ??$max_size@V?$allocator@UViableSubstitution@strings_internal@absl@@@__Cr@std@@$0A@@?$allocator_traits@V?$allocator@UViableSubstitution@strings_internal@absl@@@__Cr@std@@@__Cr@std@@SAIABV?$allocator@UViableSubstitution@strings_internal@absl@@@12@@Z
    ??$max_size@V?$allocator@V?$__tree_node@U?$__value_type@V?$basic_string@DU?$char_traits@D@__Cr@std@@V?$allocator@D@23@@__Cr@std@@V?$map@V?$basic_string@DU?$char_traits@D@__Cr@std@@V?$allocator@D@23@@__Cr@std@@V?$vector@PBVCommandLineFlag@absl@@V?$allocator@PBVCommandLineFlag@absl@@@__Cr@std@@@23@U?$less@V?$basic_string@DU?$char_traits@D@__Cr@std@@V?$allocator@D@23@@__Cr@std@@@23@V?$allocator@U?$pair@$$CBV?$basic_string@DU?$char_traits@D@__Cr@std@@V?$allocator@D@23@@__Cr@std@@V?$vector@PBVCommandLineFlag@absl@@V?$allocator@PBVCommandLineFlag@absl@@@__Cr@std@@@23@@__Cr@std@@@23@@23@@__Cr@std@@PAX@__Cr@std@@@__Cr@std@@$0A@@?$allocator_traits@V?$allocator@V?$__tree_node@U?$__value_type@V?$basic_string@DU?$char_traits@D@__Cr@std@@V?$allocator@D@23@@__Cr@std@@V?$map@V?$basic_string@DU?$char_traits@D@__Cr@std@@V?$allocator@D@23@@__Cr@std@@V?$vector@PBVCommandLineFlag@absl@@V?$allocator@PBVCommandLineFlag@absl@@@__Cr@std@@@23@U?$less@V?$basic_string@DU?$char_traits@D@__Cr@std@@V?$allocator@D@23@@__Cr@std@@@23@V?$allocator@U?$pair@$$CBV?$basic_string@DU?$char_traits@D@__Cr@std@@V?$allocator@D@23@@__Cr@std@@V?$vector@PBVCommandLineFlag@absl@@V?$allocator@PBVCommandLineFlag@absl@@@__Cr@std@@@23@@__Cr@std@@@23@@23@@__Cr@std@@PAX@__Cr@std@@@__Cr@std@@@__Cr@std@@SAIABV?$allocator@V?$__tree_node@U?$__value_type@V?$basic_string@DU?$char_traits@D@__Cr@std@@V?$allocator@D@23@@__Cr@std@@V?$map@V?$basic_string@DU?$char_traits@D@__Cr@std@@V?$allocator@D@23@@__Cr@std@@V?$vector@PBVCommandLineFlag@absl@@V?$allocator@PBVCommandLineFlag@absl@@@__Cr@std@@@23@U?$less@V?$basic_string@DU?$char_traits@D@__Cr@std@@V?$allocator@D@23@@__Cr@std@@@23@V?$allocator@U?$pair@$$CBV?$basic_string@DU?$char_traits@D@__Cr@std@@V?$allocator@D@23@@__Cr@std@@V?$vector@PBVCommandLineFlag@absl@@V?$allocator@PBVCommandLineFlag@absl@@@__Cr@std@@@23@@__Cr@std@@@23@@23@@__Cr@std@@PAX@__Cr@std@@@12@@Z
    ??$max_size@V?$allocator@V?$__tree_node@U?$__value_type@V?$basic_string@DU?$char_traits@D@__Cr@std@@V?$allocator@D@23@@__Cr@std@@V?$vector@PBVCommandLineFlag@absl@@V?$allocator@PBVCommandLineFlag@absl@@@__Cr@std@@@23@@__Cr@std@@PAX@__Cr@std@@@__Cr@std@@$0A@@?$allocator_traits@V?$allocator@V?$__tree_node@U?$__value_type@V?$basic_string@DU?$char_traits@D@__Cr@std@@V?$allocator@D@23@@__Cr@std@@V?$vector@PBVCommandLineFlag@absl@@V?$allocator@PBVCommandLineFlag@absl@@@__Cr@std@@@23@@__Cr@std@@PAX@__Cr@std@@@__Cr@std@@@__Cr@std@@SAIABV?$allocator@V?$__tree_node@U?$__value_type@V?$basic_string@DU?$char_traits@D@__Cr@std@@V?$allocator@D@23@@__Cr@std@@V?$vector@PBVCommandLineFlag@absl@@V?$allocator@PBVCommandLineFlag@absl@@@__Cr@std@@@23@@__Cr@std@@PAX@__Cr@std@@@12@@Z
    ??$max_size@V?$allocator@V?$unique_ptr@VFlagStateInterface@flags_internal@absl@@U?$default_delete@VFlagStateInterface@flags_internal@absl@@@__Cr@std@@@__Cr@std@@@__Cr@std@@$0A@@?$allocator_traits@V?$allocator@V?$unique_ptr@VFlagStateInterface@flags_internal@absl@@U?$default_delete@VFlagStateInterface@flags_internal@absl@@@__Cr@std@@@__Cr@std@@@__Cr@std@@@__Cr@std@@SAIABV?$allocator@V?$unique_ptr@VFlagStateInterface@flags_internal@absl@@U?$default_delete@VFlagStateInterface@flags_internal@absl@@@__Cr@std@@@__Cr@std@@@12@@Z
    ??$max_size@V?$allocator@VFormatArgImpl@str_format_internal@absl@@@__Cr@std@@$0A@@?$allocator_traits@V?$allocator@VFormatArgImpl@str_format_internal@absl@@@__Cr@std@@@__Cr@std@@SAIABV?$allocator@VFormatArgImpl@str_format_internal@absl@@@12@@Z
    ??$min@VDuration@absl@@@__Cr@std@@YAABVDuration@absl@@ABV23@0@Z
    ??$min@VDuration@absl@@U?$__less@XX@__Cr@std@@@__Cr@std@@YAABVDuration@absl@@ABV23@0U?$__less@XX@01@@Z
    ??$move@PAPAPBVImpl@time_zone@cctz@time_internal@absl@@PAPAPBV12345@@__Cr@std@@YAPAPAPBVImpl@time_zone@cctz@time_internal@absl@@PAPAPBV23456@00@Z
    ??$move@PAPAUPrefixCrc@CrcCordState@crc_internal@absl@@PAPAU1234@@__Cr@std@@YAPAPAUPrefixCrc@CrcCordState@crc_internal@absl@@PAPAU2345@00@Z
    ??$move@PAPAVLogSink@absl@@PAPAV12@@__Cr@std@@YAPAPAVLogSink@absl@@PAPAV23@00@Z
    ??$move@PAUTransition@cctz@time_internal@absl@@PAU1234@@__Cr@std@@YAPAUTransition@cctz@time_internal@absl@@PAU2345@00@Z
    ??$move@PAUTransitionType@cctz@time_internal@absl@@PAU1234@@__Cr@std@@YAPAUTransitionType@cctz@time_internal@absl@@PAU2345@00@Z
    ??$move_backward@PAPAPBVImpl@time_zone@cctz@time_internal@absl@@PAPAPBV12345@@__Cr@std@@YAPAPAPBVImpl@time_zone@cctz@time_internal@absl@@PAPAPBV23456@00@Z
    ??$move_backward@PAPAUPrefixCrc@CrcCordState@crc_internal@absl@@PAPAU1234@@__Cr@std@@YAPAPAUPrefixCrc@CrcCordState@crc_internal@absl@@PAPAU2345@00@Z
    ??$move_backward@PAUTransition@cctz@time_internal@absl@@PAU1234@@__Cr@std@@YAPAUTransition@cctz@time_internal@absl@@PAU2345@00@Z
    ??$move_backward@PAUTransitionType@cctz@time_internal@absl@@PAU1234@@__Cr@std@@YAPAUTransitionType@cctz@time_internal@absl@@PAU2345@00@Z
    ??$next@AAPBUTransition@cctz@time_internal@absl@@@?$_IterOps@U_ClassicAlgPolicy@__Cr@std@@@__Cr@std@@SAPBUTransition@cctz@time_internal@absl@@AAPBU3456@H@Z
    ??$next@PAPAVCommandLineFlag@absl@@@?$_IterOps@U_ClassicAlgPolicy@__Cr@std@@@__Cr@std@@SAPAPAVCommandLineFlag@absl@@PAPAV34@0@Z
    ??$next@PAPBVCommandLineFlag@absl@@@?$_IterOps@U_ClassicAlgPolicy@__Cr@std@@@__Cr@std@@SAPAPBVCommandLineFlag@absl@@PAPBV34@0@Z
    ??$next@PBUTransition@cctz@time_internal@absl@@$0A@@__Cr@std@@YAPBUTransition@cctz@time_internal@absl@@PBU2345@H@Z
    ??$next@V?$__wrap_iter@PAUraw_view@?1???R?$ConvertToContainer@V?$vector@V?$basic_string_view@DU?$char_traits@D@__Cr@std@@@__Cr@std@@V?$allocator@V?$basic_string_view@DU?$char_traits@D@__Cr@std@@@__Cr@std@@@23@@__Cr@std@@V?$basic_string_view@DU?$char_traits@D@__Cr@std@@@23@$0A@@?$Splitter@VByChar@absl@@UAllowEmpty@2@V?$basic_string_view@DU?$char_traits@D@__Cr@std@@@__Cr@std@@@strings_internal@absl@@QBE?AV?$vector@V?$basic_string_view@DU?$char_traits@D@__Cr@std@@@__Cr@std@@V?$allocator@V?$basic_string_view@DU?$char_traits@D@__Cr@std@@@__Cr@std@@@23@@__Cr@std@@ABV345@@Z@@__Cr@std@@$0A@@__Cr@std@@YA?AV?$__wrap_iter@PAUraw_view@?1???R?$ConvertToContainer@V?$vector@V?$basic_string_view@DU?$char_traits@D@__Cr@std@@@__Cr@std@@V?$allocator@V?$basic_string_view@DU?$char_traits@D@__Cr@std@@@__Cr@std@@@23@@__Cr@std@@V?$basic_string_view@DU?$char_traits@D@__Cr@std@@@23@$0A@@?$Splitter@VByChar@absl@@UAllowEmpty@2@V?$basic_string_view@DU?$char_traits@D@__Cr@std@@@__Cr@std@@@strings_internal@absl@@QBE?AV?$vector@V?$basic_string_view@DU?$char_traits@D@__Cr@std@@@__Cr@std@@V?$allocator@V?$basic_string_view@DU?$char_traits@D@__Cr@std@@@__Cr@std@@@23@@__Cr@std@@ABV345@@Z@@01@V201@H@Z
    ??$reset@PAPAU?$__hash_node_base@PAU?$__hash_node@PBUCordRep@cord_internal@absl@@PAX@__Cr@std@@@__Cr@std@@$0A@@?$unique_ptr@$$BY0A@PAU?$__hash_node_base@PAU?$__hash_node@PBUCordRep@cord_internal@absl@@PAX@__Cr@std@@@__Cr@std@@V?$__bucket_list_deallocator@V?$allocator@PAU?$__hash_node_base@PAU?$__hash_node@PBUCordRep@cord_internal@absl@@PAX@__Cr@std@@@__Cr@std@@@__Cr@std@@@23@@__Cr@std@@QAEXPAPAU?$__hash_node_base@PAU?$__hash_node@PBUCordRep@cord_internal@absl@@PAX@__Cr@std@@@12@@Z
    ??$reset@PAPAU?$__hash_node_base@PAU?$__hash_node@U?$__hash_value_type@V?$basic_string@DU?$char_traits@D@__Cr@std@@V?$allocator@D@23@@__Cr@std@@PBVImpl@time_zone@cctz@time_internal@absl@@@__Cr@std@@PAX@__Cr@std@@@__Cr@std@@$0A@@?$unique_ptr@$$BY0A@PAU?$__hash_node_base@PAU?$__hash_node@U?$__hash_value_type@V?$basic_string@DU?$char_traits@D@__Cr@std@@V?$allocator@D@23@@__Cr@std@@PBVImpl@time_zone@cctz@time_internal@absl@@@__Cr@std@@PAX@__Cr@std@@@__Cr@std@@V?$__bucket_list_deallocator@V?$allocator@PAU?$__hash_node_base@PAU?$__hash_node@U?$__hash_value_type@V?$basic_string@DU?$char_traits@D@__Cr@std@@V?$allocator@D@23@@__Cr@std@@PBVImpl@time_zone@cctz@time_internal@absl@@@__Cr@std@@PAX@__Cr@std@@@__Cr@std@@@__Cr@std@@@23@@__Cr@std@@QAEXPAPAU?$__hash_node_base@PAU?$__hash_node@U?$__hash_value_type@V?$basic_string@DU?$char_traits@D@__Cr@std@@V?$allocator@D@23@@__Cr@std@@PBVImpl@time_zone@cctz@time_internal@absl@@@__Cr@std@@PAX@__Cr@std@@@12@@Z
    ??$safe_strtoi_base@H@numbers_internal@absl@@YA_NV?$basic_string_view@DU?$char_traits@D@__Cr@std@@@__Cr@std@@PAHH@Z
    ??$safe_strtoi_base@I@numbers_internal@absl@@YA_NV?$basic_string_view@DU?$char_traits@D@__Cr@std@@@__Cr@std@@PAIH@Z
    ??$safe_strtoi_base@J@numbers_internal@absl@@YA_NV?$basic_string_view@DU?$char_traits@D@__Cr@std@@@__Cr@std@@PAJH@Z
    ??$safe_strtoi_base@K@numbers_internal@absl@@YA_NV?$basic_string_view@DU?$char_traits@D@__Cr@std@@@__Cr@std@@PAKH@Z
    ??$safe_strtoi_base@_J@numbers_internal@absl@@YA_NV?$basic_string_view@DU?$char_traits@D@__Cr@std@@@__Cr@std@@PA_JH@Z
    ??$safe_strtoi_base@_K@numbers_internal@absl@@YA_NV?$basic_string_view@DU?$char_traits@D@__Cr@std@@@__Cr@std@@PA_KH@Z
    ??$set_control@$00@CommonFields@container_internal@absl@@QAEXPAW4ctrl_t@12@@Z
    ??$set_control@$0A@@CommonFields@container_internal@absl@@QAEXPAW4ctrl_t@12@@Z
    ??$swap@PAPAPBVImpl@time_zone@cctz@time_internal@absl@@@__Cr@std@@YAXAAPAPAPBVImpl@time_zone@cctz@time_internal@absl@@0@Z
    ??$swap@PAPAUPrefixCrc@CrcCordState@crc_internal@absl@@@__Cr@std@@YAXAAPAPAUPrefixCrc@CrcCordState@crc_internal@absl@@0@Z
    ??$swap@PAPAVCommandLineFlag@absl@@@__Cr@std@@YAXAAPAPAVCommandLineFlag@absl@@0@Z
    ??$swap@PAPAVCordzHandle@cord_internal@absl@@@__Cr@std@@YAXAAPAPAVCordzHandle@cord_internal@absl@@0@Z
    ??$swap@PAPAVLogSink@absl@@@__Cr@std@@YAXAAPAPAVLogSink@absl@@0@Z
    ??$swap@PAPBVCommandLineFlag@absl@@@__Cr@std@@YAXAAPAPBVCommandLineFlag@absl@@0@Z
    ??$swap@PAPBVCordzHandle@cord_internal@absl@@@__Cr@std@@YAXAAPAPBVCordzHandle@cord_internal@absl@@0@Z
    ??$swap@PAUConversionItem@ParsedFormatBase@str_format_internal@absl@@@__Cr@std@@YAXAAPAUConversionItem@ParsedFormatBase@str_format_internal@absl@@0@Z
    ??$swap@PAUTransition@cctz@time_internal@absl@@@__Cr@std@@YAXAAPAUTransition@cctz@time_internal@absl@@0@Z
    ??$swap@PAUTransitionType@cctz@time_internal@absl@@@__Cr@std@@YAXAAPAUTransitionType@cctz@time_internal@absl@@0@Z
    ??$swap@PAUUnrecognizedFlag@absl@@@__Cr@std@@YAXAAPAUUnrecognizedFlag@absl@@0@Z
    ??$swap@PAUViableSubstitution@strings_internal@absl@@@__Cr@std@@YAXAAPAUViableSubstitution@strings_internal@absl@@0@Z
    ??$swap@PAV?$unique_ptr@VFlagStateInterface@flags_internal@absl@@U?$default_delete@VFlagStateInterface@flags_internal@absl@@@__Cr@std@@@__Cr@std@@@__Cr@std@@YAXAAPAV?$unique_ptr@VFlagStateInterface@flags_internal@absl@@U?$default_delete@VFlagStateInterface@flags_internal@absl@@@__Cr@std@@@01@0@Z
    ??$swap@PAVCommandLineFlag@absl@@@__Cr@std@@YAXAAPAVCommandLineFlag@absl@@0@Z
    ??$swap@PBV?$InlinedVector@UPayload@status_internal@absl@@$00V?$allocator@UPayload@status_internal@absl@@@__Cr@std@@@absl@@@__Cr@std@@YAXAAPBV?$InlinedVector@UPayload@status_internal@absl@@$00V?$allocator@UPayload@status_internal@absl@@@__Cr@std@@@absl@@0@Z
    ??$swap@PBVCommandLineFlag@absl@@@__Cr@std@@YAXAAPBVCommandLineFlag@absl@@0@Z
    ??$swap@PBW4ctrl_t@container_internal@absl@@@__Cr@std@@YAXAAPBW4ctrl_t@container_internal@absl@@0@Z
    ??$swap@UUnrecognizedFlag@absl@@V?$allocator@UUnrecognizedFlag@absl@@@__Cr@std@@@__Cr@std@@YAXAAV?$vector@UUnrecognizedFlag@absl@@V?$allocator@UUnrecognizedFlag@absl@@@__Cr@std@@@01@0@Z
    ??$swap@UViableSubstitution@strings_internal@absl@@@__Cr@std@@YAXAAUViableSubstitution@strings_internal@absl@@0@Z
    ??$tie@PAVCommandLineFlag@absl@@_N@__Cr@std@@YA?AV?$tuple@AAPAVCommandLineFlag@absl@@AA_N@01@AAPAVCommandLineFlag@absl@@AA_N@Z
    ??$transfer@V?$allocator@U?$pair@$$CBV?$basic_string_view@DU?$char_traits@D@__Cr@std@@@__Cr@std@@PAVCommandLineFlag@absl@@@__Cr@std@@@__Cr@std@@@?$FlatHashMapPolicy@V?$basic_string_view@DU?$char_traits@D@__Cr@std@@@__Cr@std@@PAVCommandLineFlag@absl@@@container_internal@absl@@SA?A_PPAV?$allocator@U?$pair@$$CBV?$basic_string_view@DU?$char_traits@D@__Cr@std@@@__Cr@std@@PAVCommandLineFlag@absl@@@__Cr@std@@@__Cr@std@@PAT?$map_slot_type@V?$basic_string_view@DU?$char_traits@D@__Cr@std@@@__Cr@std@@PAVCommandLineFlag@absl@@@12@1@Z
    ??$transfer@V?$allocator@U?$pair@$$CBV?$basic_string_view@DU?$char_traits@D@__Cr@std@@@__Cr@std@@PAVCommandLineFlag@absl@@@__Cr@std@@@__Cr@std@@@?$common_policy_traits@U?$FlatHashMapPolicy@V?$basic_string_view@DU?$char_traits@D@__Cr@std@@@__Cr@std@@PAVCommandLineFlag@absl@@@container_internal@absl@@X@container_internal@absl@@SAXPAV?$allocator@U?$pair@$$CBV?$basic_string_view@DU?$char_traits@D@__Cr@std@@@__Cr@std@@PAVCommandLineFlag@absl@@@__Cr@std@@@__Cr@std@@PAT?$map_slot_type@V?$basic_string_view@DU?$char_traits@D@__Cr@std@@@__Cr@std@@PAVCommandLineFlag@absl@@@12@1@Z
    ??$transfer@V?$allocator@U?$pair@$$CBV?$basic_string_view@DU?$char_traits@D@__Cr@std@@@__Cr@std@@PAVCommandLineFlag@absl@@@__Cr@std@@@__Cr@std@@@?$map_slot_policy@V?$basic_string_view@DU?$char_traits@D@__Cr@std@@@__Cr@std@@PAVCommandLineFlag@absl@@@container_internal@absl@@SA?A_PPAV?$allocator@U?$pair@$$CBV?$basic_string_view@DU?$char_traits@D@__Cr@std@@@__Cr@std@@PAVCommandLineFlag@absl@@@__Cr@std@@@__Cr@std@@PAT?$map_slot_type@V?$basic_string_view@DU?$char_traits@D@__Cr@std@@@__Cr@std@@PAVCommandLineFlag@absl@@@12@1@Z
    ??$transfer_impl@V?$allocator@U?$pair@$$CBV?$basic_string_view@DU?$char_traits@D@__Cr@std@@@__Cr@std@@PAVCommandLineFlag@absl@@@__Cr@std@@@__Cr@std@@U?$FlatHashMapPolicy@V?$basic_string_view@DU?$char_traits@D@__Cr@std@@@__Cr@std@@PAVCommandLineFlag@absl@@@container_internal@absl@@@?$common_policy_traits@U?$FlatHashMapPolicy@V?$basic_string_view@DU?$char_traits@D@__Cr@std@@@__Cr@std@@PAVCommandLineFlag@absl@@@container_internal@absl@@X@container_internal@absl@@CA?AU?$integral_constant@_N$00@__Cr@std@@PAV?$allocator@U?$pair@$$CBV?$basic_string_view@DU?$char_traits@D@__Cr@std@@@__Cr@std@@PAVCommandLineFlag@absl@@@__Cr@std@@@45@PAT?$map_slot_type@V?$basic_string_view@DU?$char_traits@D@__Cr@std@@@__Cr@std@@PAVCommandLineFlag@absl@@@12@1URank2@012@@Z
    ??$upper_bound@PBUTransition@cctz@time_internal@absl@@U1234@UByCivilTime@1234@@__Cr@std@@YAPBUTransition@cctz@time_internal@absl@@PBU2345@0ABU2345@UByCivilTime@2345@@Z
    ??$upper_bound@PBUTransition@cctz@time_internal@absl@@U1234@UByUnixTime@1234@@__Cr@std@@YAPBUTransition@cctz@time_internal@absl@@PBU2345@0ABU2345@UByUnixTime@2345@@Z
    ??$visit@UBufferSizeVisitor@?1??BufferSizeForStructuredProtoField@log_internal@absl@@YAIUStructuredProtoField@34@@Z@AAV?$variant@V?$variant@_K_JIH_N@__Cr@std@@V?$variant@_K_JN@23@V?$Span@$$CBD@absl@@V?$variant@IHM@23@@__Cr@std@@X@__Cr@std@@YA?A_T$$QAUBufferSizeVisitor@?1??BufferSizeForStructuredProtoField@log_internal@absl@@YAIUStructuredProtoField@45@@Z@AAV?$variant@V?$variant@_K_JIH_N@__Cr@std@@V?$variant@_K_JN@23@V?$Span@$$CBD@absl@@V?$variant@IHM@23@@01@@Z
    ??0?$AllocationTransaction@V?$allocator@PAUCordRep@cord_internal@absl@@@__Cr@std@@@inlined_vector_internal@absl@@QAE@AAV?$allocator@PAUCordRep@cord_internal@absl@@@__Cr@std@@@Z
    ??0?$AllocationTransaction@V?$allocator@PAVLogSink@absl@@@__Cr@std@@@inlined_vector_internal@absl@@QAE@AAV?$allocator@PAVLogSink@absl@@@__Cr@std@@@Z
    ??0?$AllocationTransaction@V?$allocator@UPayload@status_internal@absl@@@__Cr@std@@@inlined_vector_internal@absl@@QAE@AAV?$allocator@UPayload@status_internal@absl@@@__Cr@std@@@Z
    ??0?$BigUnsigned@$03@strings_internal@absl@@QAE@V?$basic_string_view@DU?$char_traits@D@__Cr@std@@@__Cr@std@@@Z
    ??0?$BigUnsigned@$03@strings_internal@absl@@QAE@XZ
    ??0?$BigUnsigned@$03@strings_internal@absl@@QAE@_K@Z
    ??0?$BigUnsigned@$0FE@@strings_internal@absl@@QAE@V?$basic_string_view@DU?$char_traits@D@__Cr@std@@@__Cr@std@@@Z
    ??0?$BigUnsigned@$0FE@@strings_internal@absl@@QAE@XZ
    ??0?$BigUnsigned@$0FE@@strings_internal@absl@@QAE@_K@Z
    ??0?$BitMask@G$0BA@$0A@$0A@@container_internal@absl@@QAE@G@Z
    ??0?$BitMask@_K$07$02$0A@@container_internal@absl@@QAE@_K@Z
    ??0?$BoundedUtf8LengthSequence@$0BAA@@debugging_internal@absl@@QAE@XZ
    ??0?$FixedArray@D$0PPPPPPPP@V?$allocator@D@__Cr@std@@@absl@@QAE@IABV?$allocator@D@__Cr@std@@@Z
    ??0?$FlagRegistrar@V?$vector@V?$basic_string@DU?$char_traits@D@__Cr@std@@V?$allocator@D@23@@__Cr@std@@V?$allocator@V?$basic_string@DU?$char_traits@D@__Cr@std@@V?$allocator@D@23@@__Cr@std@@@23@@__Cr@std@@$00@flags_internal@absl@@QAE@AAV?$Flag@V?$vector@V?$basic_string@DU?$char_traits@D@__Cr@std@@V?$allocator@D@23@@__Cr@std@@V?$allocator@V?$basic_string@DU?$char_traits@D@__Cr@std@@V?$allocator@D@23@@__Cr@std@@@23@@__Cr@std@@@12@PBD@Z
    ??0?$FormatSpecTemplate@$0BPPPL@$0JPPPL@$0JPPPL@$0JPPPL@$0JPPPL@$0JPPPL@$0JPPPL@$0JPPPL@$0IAAAE@$0JPPPL@$0EAAAE@$0IAAAE@@str_format_internal@absl@@QAE@PBD@Z
    ??0?$FormatSpecTemplate@$0BPPPL@$0JPPPL@$0JPPPL@$0JPPPL@@str_format_internal@absl@@QAE@PBD@Z
    ??0?$FormatSpecTemplate@$0JPPPL@$0JPOAA@@str_format_internal@absl@@QAE@PBD@Z
    ??0?$FormatSpecTemplate@$0JPPPL@@str_format_internal@absl@@QAE@PBD@Z
    ??0?$InlinedVector@PAUCordRep@cord_internal@absl@@$01V?$allocator@PAUCordRep@cord_internal@absl@@@__Cr@std@@@absl@@QAE@XZ
    ??0?$InlinedVector@PAVLogSink@absl@@$0BA@V?$allocator@PAVLogSink@absl@@@__Cr@std@@@absl@@QAE@XZ
    ??0?$InlinedVector@UPayload@status_internal@absl@@$00V?$allocator@UPayload@status_internal@absl@@@__Cr@std@@@absl@@QAE@ABV01@@Z
    ??0?$InlinedVector@UPayload@status_internal@absl@@$00V?$allocator@UPayload@status_internal@absl@@@__Cr@std@@@absl@@QAE@ABV01@ABV?$allocator@UPayload@status_internal@absl@@@__Cr@std@@@Z
    ??0?$InlinedVector@UPayload@status_internal@absl@@$00V?$allocator@UPayload@status_internal@absl@@@__Cr@std@@@absl@@QAE@XZ
    ??0?$IteratorValueAdapter@V?$allocator@PAUCordRep@cord_internal@absl@@@__Cr@std@@V?$move_iterator@PAPAUCordRep@cord_internal@absl@@@23@@inlined_vector_internal@absl@@QAE@ABV?$move_iterator@PAPAUCordRep@cord_internal@absl@@@__Cr@std@@@Z
    ??0?$IteratorValueAdapter@V?$allocator@PAVLogSink@absl@@@__Cr@std@@V?$move_iterator@PAPAVLogSink@absl@@@23@@inlined_vector_internal@absl@@QAE@ABV?$move_iterator@PAPAVLogSink@absl@@@__Cr@std@@@Z
    ??0?$IteratorValueAdapter@V?$allocator@UPayload@status_internal@absl@@@__Cr@std@@PBUPayload@status_internal@absl@@@inlined_vector_internal@absl@@QAE@ABQBUPayload@status_internal@2@@Z
    ??0?$IteratorValueAdapter@V?$allocator@UPayload@status_internal@absl@@@__Cr@std@@V?$move_iterator@PAUPayload@status_internal@absl@@@23@@inlined_vector_internal@absl@@QAE@ABV?$move_iterator@PAUPayload@status_internal@absl@@@__Cr@std@@@Z
    ??0?$IteratorValueAdapter@V?$allocator@VFormatArgImpl@str_format_internal@absl@@@__Cr@std@@PBVFormatArgImpl@str_format_internal@absl@@@inlined_vector_internal@absl@@QAE@ABQBVFormatArgImpl@str_format_internal@2@@Z
    ??0?$NonIterableBitMask@G$0BA@$0A@@container_internal@absl@@QAE@G@Z
    ??0?$NonIterableBitMask@_K$07$02@container_internal@absl@@QAE@_K@Z
    ??0?$ProbedItemImpl@I$0CA@@container_internal@absl@@QAE@EII@Z
    ??0?$ProbedItemImpl@_K$0EA@@container_internal@absl@@QAE@EII@Z
    ??0?$ProbedItemImpl@_K$0HK@@container_internal@absl@@QAE@EII@Z
    ??0?$Sample@UHashtablezInfo@container_internal@absl@@@profiling_internal@absl@@QAE@XZ
    ??0?$SampleRecorder@UHashtablezInfo@container_internal@absl@@@profiling_internal@absl@@QAE@XZ
    ??0?$Span@$$CBD@absl@@QAE@PBDI@Z
    ??0?$Span@$$CBD@absl@@QAE@XZ
    ??0?$Span@$$CBI@absl@@QAE@PBII@Z
    ??0?$Span@$$CBVFormatArgImpl@str_format_internal@absl@@@absl@@QAE@PBVFormatArgImpl@str_format_internal@1@I@Z
    ??0?$Span@D@absl@@QAE@PADI@Z
    ??0?$Span@D@absl@@QAE@XZ
    ??0?$Span@I@absl@@QAE@PAII@Z
    ??0?$Span@PAVLogSink@absl@@@absl@@QAE@PAPAVLogSink@1@I@Z
    ??0?$Span@QAUCordRep@cord_internal@absl@@@absl@@QAE@PBQAUCordRep@cord_internal@1@I@Z
    ??0?$Span@QAX@absl@@QAE@PBQAXI@Z
    ??0?$SplitIterator@V?$Splitter@VByAnyChar@absl@@UAllowEmpty@2@V?$basic_string_view@DU?$char_traits@D@__Cr@std@@@__Cr@std@@@strings_internal@absl@@@strings_internal@absl@@QAE@W4State@012@PBV?$Splitter@VByAnyChar@absl@@UAllowEmpty@2@V?$basic_string_view@DU?$char_traits@D@__Cr@std@@@__Cr@std@@@12@@Z
    ??0?$SplitIterator@V?$Splitter@VByAnyChar@absl@@USkipEmpty@2@V?$basic_string_view@DU?$char_traits@D@__Cr@std@@@__Cr@std@@@strings_internal@absl@@@strings_internal@absl@@QAE@W4State@012@PBV?$Splitter@VByAnyChar@absl@@USkipEmpty@2@V?$basic_string_view@DU?$char_traits@D@__Cr@std@@@__Cr@std@@@12@@Z
    ??0?$SplitIterator@V?$Splitter@VByChar@absl@@UAllowEmpty@2@V?$basic_string_view@DU?$char_traits@D@__Cr@std@@@__Cr@std@@@strings_internal@absl@@@strings_internal@absl@@QAE@W4State@012@PBV?$Splitter@VByChar@absl@@UAllowEmpty@2@V?$basic_string_view@DU?$char_traits@D@__Cr@std@@@__Cr@std@@@12@@Z
    ??0?$Splitter@VByAnyChar@absl@@UAllowEmpty@2@V?$basic_string_view@DU?$char_traits@D@__Cr@std@@@__Cr@std@@@strings_internal@absl@@QAE@V?$basic_string_view@DU?$char_traits@D@__Cr@std@@@__Cr@std@@VByAnyChar@2@UAllowEmpty@2@@Z
    ??0?$Splitter@VByAnyChar@absl@@USkipEmpty@2@V?$basic_string_view@DU?$char_traits@D@__Cr@std@@@__Cr@std@@@strings_internal@absl@@QAE@V?$basic_string_view@DU?$char_traits@D@__Cr@std@@@__Cr@std@@VByAnyChar@2@USkipEmpty@2@@Z
    ??0?$Splitter@VByChar@absl@@UAllowEmpty@2@V?$basic_string_view@DU?$char_traits@D@__Cr@std@@@__Cr@std@@@strings_internal@absl@@QAE@V?$basic_string_view@DU?$char_traits@D@__Cr@std@@@__Cr@std@@VByChar@2@UAllowEmpty@2@@Z
    ??0?$Storage@PAUCordRep@cord_internal@absl@@$01V?$allocator@PAUCordRep@cord_internal@absl@@@__Cr@std@@@inlined_vector_internal@absl@@QAE@XZ
    ??0?$Storage@PAVLogSink@absl@@$0BA@V?$allocator@PAVLogSink@absl@@@__Cr@std@@@inlined_vector_internal@absl@@QAE@XZ
    ??0?$Storage@UPayload@status_internal@absl@@$00V?$allocator@UPayload@status_internal@absl@@@__Cr@std@@@inlined_vector_internal@absl@@QAE@ABV?$allocator@UPayload@status_internal@absl@@@__Cr@std@@@Z
    ??0?$Storage@UPayload@status_internal@absl@@$00V?$allocator@UPayload@status_internal@absl@@@__Cr@std@@@inlined_vector_internal@absl@@QAE@XZ
    ??0?$Storage@VFormatArgImpl@str_format_internal@absl@@$03V?$allocator@VFormatArgImpl@str_format_internal@absl@@@__Cr@std@@@inlined_vector_internal@absl@@QAE@ABV?$allocator@VFormatArgImpl@str_format_internal@absl@@@__Cr@std@@@Z
    ??0?$_AllocatorDestroyRangeReverse@V?$allocator@UUnrecognizedFlag@absl@@@__Cr@std@@PAUUnrecognizedFlag@absl@@@__Cr@std@@QAE@AAV?$allocator@UUnrecognizedFlag@absl@@@12@AAPAUUnrecognizedFlag@absl@@1@Z
    ??0?$_CopySegment@V?$__deque_iterator@UPrefixCrc@CrcCordState@crc_internal@absl@@PBU1234@ABU1234@PBQBU1234@H$0A@@__Cr@std@@V?$__deque_iterator@UPrefixCrc@CrcCordState@crc_internal@absl@@PAU1234@AAU1234@PAPAU1234@H$0A@@23@@__copy_impl@__Cr@std@@QAE@AAV?$__deque_iterator@UPrefixCrc@CrcCordState@crc_internal@absl@@PAU1234@AAU1234@PAPAU1234@H$0A@@23@@Z
    ??0?$__allocator_destructor@V?$allocator@PBVImpl@time_zone@cctz@time_internal@absl@@@__Cr@std@@@__Cr@std@@QAE@AAV?$allocator@PBVImpl@time_zone@cctz@time_internal@absl@@@12@I@Z
    ??0?$__allocator_destructor@V?$allocator@UPrefixCrc@CrcCordState@crc_internal@absl@@@__Cr@std@@@__Cr@std@@QAE@AAV?$allocator@UPrefixCrc@CrcCordState@crc_internal@absl@@@12@I@Z
    ??0?$__atomic_base@P6AXABUHashtablezInfo@container_internal@absl@@@Z$0A@@__Cr@std@@QAE@P6AXABUHashtablezInfo@container_internal@absl@@@Z@Z
    ??0?$__atomic_base@PAUHashtablezInfo@container_internal@absl@@$0A@@__Cr@std@@QAE@PAUHashtablezInfo@container_internal@absl@@@Z
    ??0?$__atomic_base@PAVCordzHandle@cord_internal@absl@@$0A@@__Cr@std@@QAE@PAVCordzHandle@cord_internal@absl@@@Z
    ??0?$__atomic_base@PAVCordzInfo@cord_internal@absl@@$0A@@__Cr@std@@QAE@PAVCordzInfo@cord_internal@absl@@@Z
    ??0?$__bucket_list_deallocator@V?$allocator@PAU?$__hash_node_base@PAU?$__hash_node@PBUCordRep@cord_internal@absl@@PAX@__Cr@std@@@__Cr@std@@@__Cr@std@@@__Cr@std@@QAE@XZ
    ??0?$__bucket_list_deallocator@V?$allocator@PAU?$__hash_node_base@PAU?$__hash_node@U?$__hash_value_type@V?$basic_string@DU?$char_traits@D@__Cr@std@@V?$allocator@D@23@@__Cr@std@@PBVImpl@time_zone@cctz@time_internal@absl@@@__Cr@std@@PAX@__Cr@std@@@__Cr@std@@@__Cr@std@@@__Cr@std@@QAE@XZ
    ??0?$__cxx_atomic_base_impl@P6AXABUHashtablezInfo@container_internal@absl@@@Z@__Cr@std@@QAE@P6AXABUHashtablezInfo@container_internal@absl@@@Z@Z
    ??0?$__cxx_atomic_base_impl@PAUHashtablezInfo@container_internal@absl@@@__Cr@std@@QAE@PAUHashtablezInfo@container_internal@absl@@@Z
    ??0?$__cxx_atomic_base_impl@PAVCordzHandle@cord_internal@absl@@@__Cr@std@@QAE@PAVCordzHandle@cord_internal@absl@@@Z
    ??0?$__cxx_atomic_base_impl@PAVCordzInfo@cord_internal@absl@@@__Cr@std@@QAE@PAVCordzInfo@cord_internal@absl@@@Z
    ??0?$__cxx_atomic_impl@P6AXABUHashtablezInfo@container_internal@absl@@@ZU?$__cxx_atomic_base_impl@P6AXABUHashtablezInfo@container_internal@absl@@@Z@__Cr@std@@@__Cr@std@@QAE@P6AXABUHashtablezInfo@container_internal@absl@@@Z@Z
    ??0?$__cxx_atomic_impl@PAUHashtablezInfo@container_internal@absl@@U?$__cxx_atomic_base_impl@PAUHashtablezInfo@container_internal@absl@@@__Cr@std@@@__Cr@std@@QAE@PAUHashtablezInfo@container_internal@absl@@@Z
    ??0?$__cxx_atomic_impl@PAVCordzHandle@cord_internal@absl@@U?$__cxx_atomic_base_impl@PAVCordzHandle@cord_internal@absl@@@__Cr@std@@@__Cr@std@@QAE@PAVCordzHandle@cord_internal@absl@@@Z
    ??0?$__cxx_atomic_impl@PAVCordzInfo@cord_internal@absl@@U?$__cxx_atomic_base_impl@PAVCordzInfo@cord_internal@absl@@@__Cr@std@@@__Cr@std@@QAE@PAVCordzInfo@cord_internal@absl@@@Z
    ??0?$__default_alloc_func@V<lambda_1>@?0??SaveFromRegistry@FlagSaverImpl@flags_internal@absl@@QAEXXZ@$$A6AXAAVCommandLineFlag@5@@Z@__function@__Cr@std@@QAE@$$QAV<lambda_1>@?0??SaveFromRegistry@FlagSaverImpl@flags_internal@absl@@QAEXXZ@@Z
    ??0?$__deque_iterator@PBVImpl@time_zone@cctz@time_internal@absl@@PAPBV12345@AAPBV12345@PAPAPBV12345@H$0A@@__Cr@std@@AAE@PAPAPBVImpl@time_zone@cctz@time_internal@absl@@PAPBV34567@@Z
    ??0?$__deque_iterator@UPrefixCrc@CrcCordState@crc_internal@absl@@PAU1234@AAU1234@PAPAU1234@H$0A@@__Cr@std@@AAE@PAPAUPrefixCrc@CrcCordState@crc_internal@absl@@PAU3456@@Z
    ??0?$__deque_iterator@UPrefixCrc@CrcCordState@crc_internal@absl@@PBU1234@ABU1234@PBQBU1234@H$0A@@__Cr@std@@AAE@PBQBUPrefixCrc@CrcCordState@crc_internal@absl@@PBU3456@@Z
    ??0?$__exception_guard_noexceptions@V?$_AllocatorDestroyRangeReverse@V?$allocator@UUnrecognizedFlag@absl@@@__Cr@std@@PAUUnrecognizedFlag@absl@@@__Cr@std@@@__Cr@std@@QAE@V?$_AllocatorDestroyRangeReverse@V?$allocator@UUnrecognizedFlag@absl@@@__Cr@std@@PAUUnrecognizedFlag@absl@@@12@@Z
    ??0?$__hash_const_iterator@PAU?$__hash_node@PBUCordRep@cord_internal@absl@@PAX@__Cr@std@@@__Cr@std@@QAE@ABV?$__hash_iterator@PAU?$__hash_node@PBUCordRep@cord_internal@absl@@PAX@__Cr@std@@@12@@Z
    ??0?$__hash_const_iterator@PAU?$__hash_node@U?$__hash_value_type@V?$basic_string@DU?$char_traits@D@__Cr@std@@V?$allocator@D@23@@__Cr@std@@PBVImpl@time_zone@cctz@time_internal@absl@@@__Cr@std@@PAX@__Cr@std@@@__Cr@std@@QAE@ABV?$__hash_iterator@PAU?$__hash_node@U?$__hash_value_type@V?$basic_string@DU?$char_traits@D@__Cr@std@@V?$allocator@D@23@@__Cr@std@@PBVImpl@time_zone@cctz@time_internal@absl@@@__Cr@std@@PAX@__Cr@std@@@12@@Z
    ??0?$__hash_iterator@PAU?$__hash_node@PBUCordRep@cord_internal@absl@@PAX@__Cr@std@@@__Cr@std@@AAE@PAU?$__hash_node_base@PAU?$__hash_node@PBUCordRep@cord_internal@absl@@PAX@__Cr@std@@@12@@Z
    ??0?$__hash_iterator@PAU?$__hash_node@U?$__hash_value_type@V?$basic_string@DU?$char_traits@D@__Cr@std@@V?$allocator@D@23@@__Cr@std@@PBVImpl@time_zone@cctz@time_internal@absl@@@__Cr@std@@PAX@__Cr@std@@@__Cr@std@@AAE@PAU?$__hash_node_base@PAU?$__hash_node@U?$__hash_value_type@V?$basic_string@DU?$char_traits@D@__Cr@std@@V?$allocator@D@23@@__Cr@std@@PBVImpl@time_zone@cctz@time_internal@absl@@@__Cr@std@@PAX@__Cr@std@@@12@@Z
    ??0?$__hash_map_const_iterator@V?$__hash_const_iterator@PAU?$__hash_node@U?$__hash_value_type@V?$basic_string@DU?$char_traits@D@__Cr@std@@V?$allocator@D@23@@__Cr@std@@PBVImpl@time_zone@cctz@time_internal@absl@@@__Cr@std@@PAX@__Cr@std@@@__Cr@std@@@__Cr@std@@QAE@V?$__hash_map_iterator@V?$__hash_iterator@PAU?$__hash_node@U?$__hash_value_type@V?$basic_string@DU?$char_traits@D@__Cr@std@@V?$allocator@D@23@@__Cr@std@@PBVImpl@time_zone@cctz@time_internal@absl@@@__Cr@std@@PAX@__Cr@std@@@__Cr@std@@@12@@Z
    ??0?$__hash_map_iterator@V?$__hash_iterator@PAU?$__hash_node@U?$__hash_value_type@V?$basic_string@DU?$char_traits@D@__Cr@std@@V?$allocator@D@23@@__Cr@std@@PBVImpl@time_zone@cctz@time_internal@absl@@@__Cr@std@@PAX@__Cr@std@@@__Cr@std@@@__Cr@std@@QAE@V?$__hash_iterator@PAU?$__hash_node@U?$__hash_value_type@V?$basic_string@DU?$char_traits@D@__Cr@std@@V?$allocator@D@23@@__Cr@std@@PBVImpl@time_zone@cctz@time_internal@absl@@@__Cr@std@@PAX@__Cr@std@@@12@@Z
    ??0?$__hash_node@PBUCordRep@cord_internal@absl@@PAX@__Cr@std@@QAE@PAU?$__hash_node_base@PAU?$__hash_node@PBUCordRep@cord_internal@absl@@PAX@__Cr@std@@@12@I@Z
    ??0?$__hash_node@U?$__hash_value_type@V?$basic_string@DU?$char_traits@D@__Cr@std@@V?$allocator@D@23@@__Cr@std@@PBVImpl@time_zone@cctz@time_internal@absl@@@__Cr@std@@PAX@__Cr@std@@QAE@PAU?$__hash_node_base@PAU?$__hash_node@U?$__hash_value_type@V?$basic_string@DU?$char_traits@D@__Cr@std@@V?$allocator@D@23@@__Cr@std@@PBVImpl@time_zone@cctz@time_internal@absl@@@__Cr@std@@PAX@__Cr@std@@@12@I@Z
    ??0?$__hash_node_base@PAU?$__hash_node@PBUCordRep@cord_internal@absl@@PAX@__Cr@std@@@__Cr@std@@QAE@PAU012@@Z
    ??0?$__hash_node_base@PAU?$__hash_node@PBUCordRep@cord_internal@absl@@PAX@__Cr@std@@@__Cr@std@@QAE@XZ
    ??0?$__hash_node_base@PAU?$__hash_node@U?$__hash_value_type@V?$basic_string@DU?$char_traits@D@__Cr@std@@V?$allocator@D@23@@__Cr@std@@PBVImpl@time_zone@cctz@time_internal@absl@@@__Cr@std@@PAX@__Cr@std@@@__Cr@std@@QAE@PAU012@@Z
    ??0?$__hash_node_base@PAU?$__hash_node@U?$__hash_value_type@V?$basic_string@DU?$char_traits@D@__Cr@std@@V?$allocator@D@23@@__Cr@std@@PBVImpl@time_zone@cctz@time_internal@absl@@@__Cr@std@@PAX@__Cr@std@@@__Cr@std@@QAE@XZ
    ??0?$__hash_node_destructor@V?$allocator@U?$__hash_node@PBUCordRep@cord_internal@absl@@PAX@__Cr@std@@@__Cr@std@@@__Cr@std@@QAE@AAV?$allocator@U?$__hash_node@PBUCordRep@cord_internal@absl@@PAX@__Cr@std@@@12@_N@Z
    ??0?$__hash_node_destructor@V?$allocator@U?$__hash_node@U?$__hash_value_type@V?$basic_string@DU?$char_traits@D@__Cr@std@@V?$allocator@D@23@@__Cr@std@@PBVImpl@time_zone@cctz@time_internal@absl@@@__Cr@std@@PAX@__Cr@std@@@__Cr@std@@@__Cr@std@@QAE@AAV?$allocator@U?$__hash_node@U?$__hash_value_type@V?$basic_string@DU?$char_traits@D@__Cr@std@@V?$allocator@D@23@@__Cr@std@@PBVImpl@time_zone@cctz@time_internal@absl@@@__Cr@std@@PAX@__Cr@std@@@12@_N@Z
    ??0?$__hash_table@PBUCordRep@cord_internal@absl@@U?$hash@PBUCordRep@cord_internal@absl@@@__Cr@std@@U?$equal_to@PBUCordRep@cord_internal@absl@@@56@V?$allocator@PBUCordRep@cord_internal@absl@@@56@@__Cr@std@@QAE@XZ
    ??0?$__hash_table@U?$__hash_value_type@V?$basic_string@DU?$char_traits@D@__Cr@std@@V?$allocator@D@23@@__Cr@std@@PBVImpl@time_zone@cctz@time_internal@absl@@@__Cr@std@@V?$__unordered_map_hasher@V?$basic_string@DU?$char_traits@D@__Cr@std@@V?$allocator@D@23@@__Cr@std@@U?$__hash_value_type@V?$basic_string@DU?$char_traits@D@__Cr@std@@V?$allocator@D@23@@__Cr@std@@PBVImpl@time_zone@cctz@time_internal@absl@@@23@U?$hash@V?$basic_string@DU?$char_traits@D@__Cr@std@@V?$allocator@D@23@@__Cr@std@@@23@U?$equal_to@V?$basic_string@DU?$char_traits@D@__Cr@std@@V?$allocator@D@23@@__Cr@std@@@23@$00@23@V?$__unordered_map_equal@V?$basic_string@DU?$char_traits@D@__Cr@std@@V?$allocator@D@23@@__Cr@std@@U?$__hash_value_type@V?$basic_string@DU?$char_traits@D@__Cr@std@@V?$allocator@D@23@@__Cr@std@@PBVImpl@time_zone@cctz@time_internal@absl@@@23@U?$equal_to@V?$basic_string@DU?$char_traits@D@__Cr@std@@V?$allocator@D@23@@__Cr@std@@@23@U?$hash@V?$basic_string@DU?$char_traits@D@__Cr@std@@V?$allocator@D@23@@__Cr@std@@@23@$00@23@V?$allocator@U?$__hash_value_type@V?$basic_string@DU?$char_traits@D@__Cr@std@@V?$allocator@D@23@@__Cr@std@@PBVImpl@time_zone@cctz@time_internal@absl@@@__Cr@std@@@23@@__Cr@std@@QAE@XZ
    ??0?$__map_iterator@V?$__tree_iterator@U?$__value_type@V?$basic_string@DU?$char_traits@D@__Cr@std@@V?$allocator@D@23@@__Cr@std@@V?$map@V?$basic_string@DU?$char_traits@D@__Cr@std@@V?$allocator@D@23@@__Cr@std@@V?$vector@PBVCommandLineFlag@absl@@V?$allocator@PBVCommandLineFlag@absl@@@__Cr@std@@@23@U?$less@V?$basic_string@DU?$char_traits@D@__Cr@std@@V?$allocator@D@23@@__Cr@std@@@23@V?$allocator@U?$pair@$$CBV?$basic_string@DU?$char_traits@D@__Cr@std@@V?$allocator@D@23@@__Cr@std@@V?$vector@PBVCommandLineFlag@absl@@V?$allocator@PBVCommandLineFlag@absl@@@__Cr@std@@@23@@__Cr@std@@@23@@23@@__Cr@std@@PAV?$__tree_node@U?$__value_type@V?$basic_string@DU?$char_traits@D@__Cr@std@@V?$allocator@D@23@@__Cr@std@@V?$map@V?$basic_string@DU?$char_traits@D@__Cr@std@@V?$allocator@D@23@@__Cr@std@@V?$vector@PBVCommandLineFlag@absl@@V?$allocator@PBVCommandLineFlag@absl@@@__Cr@std@@@23@U?$less@V?$basic_string@DU?$char_traits@D@__Cr@std@@V?$allocator@D@23@@__Cr@std@@@23@V?$allocator@U?$pair@$$CBV?$basic_string@DU?$char_traits@D@__Cr@std@@V?$allocator@D@23@@__Cr@std@@V?$vector@PBVCommandLineFlag@absl@@V?$allocator@PBVCommandLineFlag@absl@@@__Cr@std@@@23@@__Cr@std@@@23@@23@@__Cr@std@@PAX@23@H@__Cr@std@@@__Cr@std@@QAE@V?$__tree_iterator@U?$__value_type@V?$basic_string@DU?$char_traits@D@__Cr@std@@V?$allocator@D@23@@__Cr@std@@V?$map@V?$basic_string@DU?$char_traits@D@__Cr@std@@V?$allocator@D@23@@__Cr@std@@V?$vector@PBVCommandLineFlag@absl@@V?$allocator@PBVCommandLineFlag@absl@@@__Cr@std@@@23@U?$less@V?$basic_string@DU?$char_traits@D@__Cr@std@@V?$allocator@D@23@@__Cr@std@@@23@V?$allocator@U?$pair@$$CBV?$basic_string@DU?$char_traits@D@__Cr@std@@V?$allocator@D@23@@__Cr@std@@V?$vector@PBVCommandLineFlag@absl@@V?$allocator@PBVCommandLineFlag@absl@@@__Cr@std@@@23@@__Cr@std@@@23@@23@@__Cr@std@@PAV?$__tree_node@U?$__value_type@V?$basic_string@DU?$char_traits@D@__Cr@std@@V?$allocator@D@23@@__Cr@std@@V?$map@V?$basic_string@DU?$char_traits@D@__Cr@std@@V?$allocator@D@23@@__Cr@std@@V?$vector@PBVCommandLineFlag@absl@@V?$allocator@PBVCommandLineFlag@absl@@@__Cr@std@@@23@U?$less@V?$basic_string@DU?$char_traits@D@__Cr@std@@V?$allocator@D@23@@__Cr@std@@@23@V?$allocator@U?$pair@$$CBV?$basic_string@DU?$char_traits@D@__Cr@std@@V?$allocator@D@23@@__Cr@std@@V?$vector@PBVCommandLineFlag@absl@@V?$allocator@PBVCommandLineFlag@absl@@@__Cr@std@@@23@@__Cr@std@@@23@@23@@__Cr@std@@PAX@23@H@12@@Z
    ??0?$__map_iterator@V?$__tree_iterator@U?$__value_type@V?$basic_string@DU?$char_traits@D@__Cr@std@@V?$allocator@D@23@@__Cr@std@@V?$vector@PBVCommandLineFlag@absl@@V?$allocator@PBVCommandLineFlag@absl@@@__Cr@std@@@23@@__Cr@std@@PAV?$__tree_node@U?$__value_type@V?$basic_string@DU?$char_traits@D@__Cr@std@@V?$allocator@D@23@@__Cr@std@@V?$vector@PBVCommandLineFlag@absl@@V?$allocator@PBVCommandLineFlag@absl@@@__Cr@std@@@23@@__Cr@std@@PAX@23@H@__Cr@std@@@__Cr@std@@QAE@V?$__tree_iterator@U?$__value_type@V?$basic_string@DU?$char_traits@D@__Cr@std@@V?$allocator@D@23@@__Cr@std@@V?$vector@PBVCommandLineFlag@absl@@V?$allocator@PBVCommandLineFlag@absl@@@__Cr@std@@@23@@__Cr@std@@PAV?$__tree_node@U?$__value_type@V?$basic_string@DU?$char_traits@D@__Cr@std@@V?$allocator@D@23@@__Cr@std@@V?$vector@PBVCommandLineFlag@absl@@V?$allocator@PBVCommandLineFlag@absl@@@__Cr@std@@@23@@__Cr@std@@PAX@23@H@12@@Z
    ??0?$__map_value_compare@V?$basic_string@DU?$char_traits@D@__Cr@std@@V?$allocator@D@23@@__Cr@std@@U?$__value_type@V?$basic_string@DU?$char_traits@D@__Cr@std@@V?$allocator@D@23@@__Cr@std@@V?$map@V?$basic_string@DU?$char_traits@D@__Cr@std@@V?$allocator@D@23@@__Cr@std@@V?$vector@PBVCommandLineFlag@absl@@V?$allocator@PBVCommandLineFlag@absl@@@__Cr@std@@@23@U?$less@V?$basic_string@DU?$char_traits@D@__Cr@std@@V?$allocator@D@23@@__Cr@std@@@23@V?$allocator@U?$pair@$$CBV?$basic_string@DU?$char_traits@D@__Cr@std@@V?$allocator@D@23@@__Cr@std@@V?$vector@PBVCommandLineFlag@absl@@V?$allocator@PBVCommandLineFlag@absl@@@__Cr@std@@@23@@__Cr@std@@@23@@23@@23@U?$less@V?$basic_string@DU?$char_traits@D@__Cr@std@@V?$allocator@D@23@@__Cr@std@@@23@$00@__Cr@std@@QAE@U?$less@V?$basic_string@DU?$char_traits@D@__Cr@std@@V?$allocator@D@23@@__Cr@std@@@12@@Z
    ??0?$__map_value_compare@V?$basic_string@DU?$char_traits@D@__Cr@std@@V?$allocator@D@23@@__Cr@std@@U?$__value_type@V?$basic_string@DU?$char_traits@D@__Cr@std@@V?$allocator@D@23@@__Cr@std@@V?$vector@PBVCommandLineFlag@absl@@V?$allocator@PBVCommandLineFlag@absl@@@__Cr@std@@@23@@23@U?$less@V?$basic_string@DU?$char_traits@D@__Cr@std@@V?$allocator@D@23@@__Cr@std@@@23@$00@__Cr@std@@QAE@U?$less@V?$basic_string@DU?$char_traits@D@__Cr@std@@V?$allocator@D@23@@__Cr@std@@@12@@Z
    ??0?$__non_trivial_if@$00V?$allocator@PAPBVImpl@time_zone@cctz@time_internal@absl@@@__Cr@std@@@__Cr@std@@QAE@XZ
    ??0?$__non_trivial_if@$00V?$allocator@PAU?$__hash_node_base@PAU?$__hash_node@PBUCordRep@cord_internal@absl@@PAX@__Cr@std@@@__Cr@std@@@__Cr@std@@@__Cr@std@@QAE@XZ
    ??0?$__non_trivial_if@$00V?$allocator@PAU?$__hash_node_base@PAU?$__hash_node@U?$__hash_value_type@V?$basic_string@DU?$char_traits@D@__Cr@std@@V?$allocator@D@23@@__Cr@std@@PBVImpl@time_zone@cctz@time_internal@absl@@@__Cr@std@@PAX@__Cr@std@@@__Cr@std@@@__Cr@std@@@__Cr@std@@QAE@XZ
    ??0?$__non_trivial_if@$00V?$allocator@PAUCordRep@cord_internal@absl@@@__Cr@std@@@__Cr@std@@QAE@XZ
    ??0?$__non_trivial_if@$00V?$allocator@PAUPrefixCrc@CrcCordState@crc_internal@absl@@@__Cr@std@@@__Cr@std@@QAE@XZ
    ??0?$__non_trivial_if@$00V?$allocator@PAVCommandLineFlag@absl@@@__Cr@std@@@__Cr@std@@QAE@XZ
    ??0?$__non_trivial_if@$00V?$allocator@PAVCordzHandle@cord_internal@absl@@@__Cr@std@@@__Cr@std@@QAE@XZ
    ??0?$__non_trivial_if@$00V?$allocator@PAVLogSink@absl@@@__Cr@std@@@__Cr@std@@QAE@XZ
    ??0?$__non_trivial_if@$00V?$allocator@PBVCommandLineFlag@absl@@@__Cr@std@@@__Cr@std@@QAE@XZ
    ??0?$__non_trivial_if@$00V?$allocator@PBVCordzHandle@cord_internal@absl@@@__Cr@std@@@__Cr@std@@QAE@XZ
    ??0?$__non_trivial_if@$00V?$allocator@PBVImpl@time_zone@cctz@time_internal@absl@@@__Cr@std@@@__Cr@std@@QAE@XZ
    ??0?$__non_trivial_if@$00V?$allocator@U?$AlignedType@$03@container_internal@absl@@@__Cr@std@@@__Cr@std@@QAE@XZ
    ??0?$__non_trivial_if@$00V?$allocator@U?$__hash_node@PBUCordRep@cord_internal@absl@@PAX@__Cr@std@@@__Cr@std@@@__Cr@std@@QAE@XZ
    ??0?$__non_trivial_if@$00V?$allocator@U?$__hash_node@U?$__hash_value_type@V?$basic_string@DU?$char_traits@D@__Cr@std@@V?$allocator@D@23@@__Cr@std@@PBVImpl@time_zone@cctz@time_internal@absl@@@__Cr@std@@PAX@__Cr@std@@@__Cr@std@@@__Cr@std@@QAE@XZ
    ??0?$__non_trivial_if@$00V?$allocator@U?$pair@$$CBV?$basic_string_view@DU?$char_traits@D@__Cr@std@@@__Cr@std@@PAVCommandLineFlag@absl@@@__Cr@std@@@__Cr@std@@@__Cr@std@@QAE@XZ
    ??0?$__non_trivial_if@$00V?$allocator@UAlignedSpace@?1???$FlagOps@V?$vector@V?$basic_string@DU?$char_traits@D@__Cr@std@@V?$allocator@D@23@@__Cr@std@@V?$allocator@V?$basic_string@DU?$char_traits@D@__Cr@std@@V?$allocator@D@23@@__Cr@std@@@23@@__Cr@std@@@flags_internal@absl@@YAPAXW4FlagOp@23@PBXPAX2@Z@@__Cr@std@@@__Cr@std@@QAE@XZ
    ??0?$__non_trivial_if@$00V?$allocator@UConversionItem@ParsedFormatBase@str_format_internal@absl@@@__Cr@std@@@__Cr@std@@QAE@XZ
    ??0?$__non_trivial_if@$00V?$allocator@UPayload@status_internal@absl@@@__Cr@std@@@__Cr@std@@QAE@XZ
    ??0?$__non_trivial_if@$00V?$allocator@UPrefixCrc@CrcCordState@crc_internal@absl@@@__Cr@std@@@__Cr@std@@QAE@XZ
    ??0?$__non_trivial_if@$00V?$allocator@UTransition@cctz@time_internal@absl@@@__Cr@std@@@__Cr@std@@QAE@XZ
    ??0?$__non_trivial_if@$00V?$allocator@UTransitionType@cctz@time_internal@absl@@@__Cr@std@@@__Cr@std@@QAE@XZ
    ??0?$__non_trivial_if@$00V?$allocator@UUnrecognizedFlag@absl@@@__Cr@std@@@__Cr@std@@QAE@XZ
    ??0?$__non_trivial_if@$00V?$allocator@UViableSubstitution@strings_internal@absl@@@__Cr@std@@@__Cr@std@@QAE@XZ
    ??0?$__non_trivial_if@$00V?$allocator@V?$__tree_node@U?$__value_type@V?$basic_string@DU?$char_traits@D@__Cr@std@@V?$allocator@D@23@@__Cr@std@@V?$map@V?$basic_string@DU?$char_traits@D@__Cr@std@@V?$allocator@D@23@@__Cr@std@@V?$vector@PBVCommandLineFlag@absl@@V?$allocator@PBVCommandLineFlag@absl@@@__Cr@std@@@23@U?$less@V?$basic_string@DU?$char_traits@D@__Cr@std@@V?$allocator@D@23@@__Cr@std@@@23@V?$allocator@U?$pair@$$CBV?$basic_string@DU?$char_traits@D@__Cr@std@@V?$allocator@D@23@@__Cr@std@@V?$vector@PBVCommandLineFlag@absl@@V?$allocator@PBVCommandLineFlag@absl@@@__Cr@std@@@23@@__Cr@std@@@23@@23@@__Cr@std@@PAX@__Cr@std@@@__Cr@std@@@__Cr@std@@QAE@XZ
    ??0?$__non_trivial_if@$00V?$allocator@V?$__tree_node@U?$__value_type@V?$basic_string@DU?$char_traits@D@__Cr@std@@V?$allocator@D@23@@__Cr@std@@V?$vector@PBVCommandLineFlag@absl@@V?$allocator@PBVCommandLineFlag@absl@@@__Cr@std@@@23@@__Cr@std@@PAX@__Cr@std@@@__Cr@std@@@__Cr@std@@QAE@XZ
    ??0?$__non_trivial_if@$00V?$allocator@V?$unique_ptr@VCRCImpl@crc_internal@absl@@U?$default_delete@VCRCImpl@crc_internal@absl@@@__Cr@std@@@__Cr@std@@@__Cr@std@@@__Cr@std@@QAE@XZ
    ??0?$__non_trivial_if@$00V?$allocator@V?$unique_ptr@VFlagStateInterface@flags_internal@absl@@U?$default_delete@VFlagStateInterface@flags_internal@absl@@@__Cr@std@@@__Cr@std@@@__Cr@std@@@__Cr@std@@QAE@XZ
    ??0?$__non_trivial_if@$00V?$allocator@VFormatArgImpl@str_format_internal@absl@@@__Cr@std@@@__Cr@std@@QAE@XZ
    ??0?$__optional_copy_assign_base@VCord@absl@@$0A@@__Cr@std@@QAE@XZ
    ??0?$__optional_copy_base@VCord@absl@@$0A@@__Cr@std@@QAE@XZ
    ??0?$__optional_destruct_base@VCord@absl@@$0A@@__Cr@std@@QAE@XZ
    ??0?$__optional_move_assign_base@VCord@absl@@$0A@@__Cr@std@@QAE@XZ
    ??0?$__optional_move_base@VCord@absl@@$0A@@__Cr@std@@QAE@XZ
    ??0?$__optional_storage_base@VCord@absl@@$0A@@__Cr@std@@QAE@XZ
    ??0?$__policy_invoker@$$A6A?AV?$unique_ptr@VZoneInfoSource@cctz@time_internal@absl@@U?$default_delete@VZoneInfoSource@cctz@time_internal@absl@@@__Cr@std@@@__Cr@std@@ABV?$basic_string@DU?$char_traits@D@__Cr@std@@V?$allocator@D@23@@23@@Z@__function@__Cr@std@@AAE@P6A?AV?$unique_ptr@VZoneInfoSource@cctz@time_internal@absl@@U?$default_delete@VZoneInfoSource@cctz@time_internal@absl@@@__Cr@std@@@23@PBT__policy_storage@123@ABV?$basic_string@DU?$char_traits@D@__Cr@std@@V?$allocator@D@23@@23@@Z@Z
    ??0?$__policy_invoker@$$A6A?AV?$unique_ptr@VZoneInfoSource@cctz@time_internal@absl@@U?$default_delete@VZoneInfoSource@cctz@time_internal@absl@@@__Cr@std@@@__Cr@std@@ABV?$basic_string@DU?$char_traits@D@__Cr@std@@V?$allocator@D@23@@23@@Z@__function@__Cr@std@@QAE@XZ
    ??0?$__policy_invoker@$$A6AXAAVCommandLineFlag@absl@@@Z@__function@__Cr@std@@AAE@P6AXPBT__policy_storage@123@AAVCommandLineFlag@absl@@@Z@Z
    ??0?$__policy_invoker@$$A6AXAAVCommandLineFlag@absl@@@Z@__function@__Cr@std@@QAE@XZ
    ??0?$__policy_invoker@$$A6A_NABVCommandLineFlag@absl@@@Z@__function@__Cr@std@@AAE@P6A_NPBT__policy_storage@123@ABVCommandLineFlag@absl@@@Z@Z
    ??0?$__policy_invoker@$$A6A_NABVCommandLineFlag@absl@@@Z@__function@__Cr@std@@QAE@XZ
    ??0?$__split_buffer@PAPBVImpl@time_zone@cctz@time_internal@absl@@AAV?$allocator@PAPBVImpl@time_zone@cctz@time_internal@absl@@@__Cr@std@@@__Cr@std@@QAE@IIAAV?$allocator@PAPBVImpl@time_zone@cctz@time_internal@absl@@@12@@Z
    ??0?$__split_buffer@PAPBVImpl@time_zone@cctz@time_internal@absl@@V?$allocator@PAPBVImpl@time_zone@cctz@time_internal@absl@@@__Cr@std@@@__Cr@std@@QAE@XZ
    ??0?$__split_buffer@PAUPrefixCrc@CrcCordState@crc_internal@absl@@AAV?$allocator@PAUPrefixCrc@CrcCordState@crc_internal@absl@@@__Cr@std@@@__Cr@std@@QAE@IIAAV?$allocator@PAUPrefixCrc@CrcCordState@crc_internal@absl@@@12@@Z
    ??0?$__split_buffer@PAUPrefixCrc@CrcCordState@crc_internal@absl@@V?$allocator@PAUPrefixCrc@CrcCordState@crc_internal@absl@@@__Cr@std@@@__Cr@std@@QAE@XZ
    ??0?$__split_buffer@PAVCommandLineFlag@absl@@AAV?$allocator@PAVCommandLineFlag@absl@@@__Cr@std@@@__Cr@std@@QAE@IIAAV?$allocator@PAVCommandLineFlag@absl@@@12@@Z
    ??0?$__split_buffer@PAVCordzHandle@cord_internal@absl@@AAV?$allocator@PAVCordzHandle@cord_internal@absl@@@__Cr@std@@@__Cr@std@@QAE@IIAAV?$allocator@PAVCordzHandle@cord_internal@absl@@@12@@Z
    ??0?$__split_buffer@PAVLogSink@absl@@AAV?$allocator@PAVLogSink@absl@@@__Cr@std@@@__Cr@std@@QAE@IIAAV?$allocator@PAVLogSink@absl@@@12@@Z
    ??0?$__split_buffer@PBVCommandLineFlag@absl@@AAV?$allocator@PBVCommandLineFlag@absl@@@__Cr@std@@@__Cr@std@@QAE@IIAAV?$allocator@PBVCommandLineFlag@absl@@@12@@Z
    ??0?$__split_buffer@PBVCordzHandle@cord_internal@absl@@AAV?$allocator@PBVCordzHandle@cord_internal@absl@@@__Cr@std@@@__Cr@std@@QAE@IIAAV?$allocator@PBVCordzHandle@cord_internal@absl@@@12@@Z
    ??0?$__split_buffer@UConversionItem@ParsedFormatBase@str_format_internal@absl@@AAV?$allocator@UConversionItem@ParsedFormatBase@str_format_internal@absl@@@__Cr@std@@@__Cr@std@@QAE@IIAAV?$allocator@UConversionItem@ParsedFormatBase@str_format_internal@absl@@@12@@Z
    ??0?$__split_buffer@UTransition@cctz@time_internal@absl@@AAV?$allocator@UTransition@cctz@time_internal@absl@@@__Cr@std@@@__Cr@std@@QAE@IIAAV?$allocator@UTransition@cctz@time_internal@absl@@@12@@Z
    ??0?$__split_buffer@UTransitionType@cctz@time_internal@absl@@AAV?$allocator@UTransitionType@cctz@time_internal@absl@@@__Cr@std@@@__Cr@std@@QAE@IIAAV?$allocator@UTransitionType@cctz@time_internal@absl@@@12@@Z
    ??0?$__split_buffer@UUnrecognizedFlag@absl@@AAV?$allocator@UUnrecognizedFlag@absl@@@__Cr@std@@@__Cr@std@@QAE@IIAAV?$allocator@UUnrecognizedFlag@absl@@@12@@Z
    ??0?$__split_buffer@UViableSubstitution@strings_internal@absl@@AAV?$allocator@UViableSubstitution@strings_internal@absl@@@__Cr@std@@@__Cr@std@@QAE@IIAAV?$allocator@UViableSubstitution@strings_internal@absl@@@12@@Z
    ??0?$__split_buffer@V?$unique_ptr@VFlagStateInterface@flags_internal@absl@@U?$default_delete@VFlagStateInterface@flags_internal@absl@@@__Cr@std@@@__Cr@std@@AAV?$allocator@V?$unique_ptr@VFlagStateInterface@flags_internal@absl@@U?$default_delete@VFlagStateInterface@flags_internal@absl@@@__Cr@std@@@__Cr@std@@@23@@__Cr@std@@QAE@IIAAV?$allocator@V?$unique_ptr@VFlagStateInterface@flags_internal@absl@@U?$default_delete@VFlagStateInterface@flags_internal@absl@@@__Cr@std@@@__Cr@std@@@12@@Z
    ??0?$__tree@U?$__value_type@V?$basic_string@DU?$char_traits@D@__Cr@std@@V?$allocator@D@23@@__Cr@std@@V?$map@V?$basic_string@DU?$char_traits@D@__Cr@std@@V?$allocator@D@23@@__Cr@std@@V?$vector@PBVCommandLineFlag@absl@@V?$allocator@PBVCommandLineFlag@absl@@@__Cr@std@@@23@U?$less@V?$basic_string@DU?$char_traits@D@__Cr@std@@V?$allocator@D@23@@__Cr@std@@@23@V?$allocator@U?$pair@$$CBV?$basic_string@DU?$char_traits@D@__Cr@std@@V?$allocator@D@23@@__Cr@std@@V?$vector@PBVCommandLineFlag@absl@@V?$allocator@PBVCommandLineFlag@absl@@@__Cr@std@@@23@@__Cr@std@@@23@@23@@__Cr@std@@V?$__map_value_compare@V?$basic_string@DU?$char_traits@D@__Cr@std@@V?$allocator@D@23@@__Cr@std@@U?$__value_type@V?$basic_string@DU?$char_traits@D@__Cr@std@@V?$allocator@D@23@@__Cr@std@@V?$map@V?$basic_string@DU?$char_traits@D@__Cr@std@@V?$allocator@D@23@@__Cr@std@@V?$vector@PBVCommandLineFlag@absl@@V?$allocator@PBVCommandLineFlag@absl@@@__Cr@std@@@23@U?$less@V?$basic_string@DU?$char_traits@D@__Cr@std@@V?$allocator@D@23@@__Cr@std@@@23@V?$allocator@U?$pair@$$CBV?$basic_string@DU?$char_traits@D@__Cr@std@@V?$allocator@D@23@@__Cr@std@@V?$vector@PBVCommandLineFlag@absl@@V?$allocator@PBVCommandLineFlag@absl@@@__Cr@std@@@23@@__Cr@std@@@23@@23@@23@U?$less@V?$basic_string@DU?$char_traits@D@__Cr@std@@V?$allocator@D@23@@__Cr@std@@@23@$00@23@V?$allocator@U?$__value_type@V?$basic_string@DU?$char_traits@D@__Cr@std@@V?$allocator@D@23@@__Cr@std@@V?$map@V?$basic_string@DU?$char_traits@D@__Cr@std@@V?$allocator@D@23@@__Cr@std@@V?$vector@PBVCommandLineFlag@absl@@V?$allocator@PBVCommandLineFlag@absl@@@__Cr@std@@@23@U?$less@V?$basic_string@DU?$char_traits@D@__Cr@std@@V?$allocator@D@23@@__Cr@std@@@23@V?$allocator@U?$pair@$$CBV?$basic_string@DU?$char_traits@D@__Cr@std@@V?$allocator@D@23@@__Cr@std@@V?$vector@PBVCommandLineFlag@absl@@V?$allocator@PBVCommandLineFlag@absl@@@__Cr@std@@@23@@__Cr@std@@@23@@23@@__Cr@std@@@23@@__Cr@std@@QAE@ABV?$__map_value_compare@V?$basic_string@DU?$char_traits@D@__Cr@std@@V?$allocator@D@23@@__Cr@std@@U?$__value_type@V?$basic_string@DU?$char_traits@D@__Cr@std@@V?$allocator@D@23@@__Cr@std@@V?$map@V?$basic_string@DU?$char_traits@D@__Cr@std@@V?$allocator@D@23@@__Cr@std@@V?$vector@PBVCommandLineFlag@absl@@V?$allocator@PBVCommandLineFlag@absl@@@__Cr@std@@@23@U?$less@V?$basic_string@DU?$char_traits@D@__Cr@std@@V?$allocator@D@23@@__Cr@std@@@23@V?$allocator@U?$pair@$$CBV?$basic_string@DU?$char_traits@D@__Cr@std@@V?$allocator@D@23@@__Cr@std@@V?$vector@PBVCommandLineFlag@absl@@V?$allocator@PBVCommandLineFlag@absl@@@__Cr@std@@@23@@__Cr@std@@@23@@23@@23@U?$less@V?$basic_string@DU?$char_traits@D@__Cr@std@@V?$allocator@D@23@@__Cr@std@@@23@$00@12@@Z
    ??0?$__tree@U?$__value_type@V?$basic_string@DU?$char_traits@D@__Cr@std@@V?$allocator@D@23@@__Cr@std@@V?$vector@PBVCommandLineFlag@absl@@V?$allocator@PBVCommandLineFlag@absl@@@__Cr@std@@@23@@__Cr@std@@V?$__map_value_compare@V?$basic_string@DU?$char_traits@D@__Cr@std@@V?$allocator@D@23@@__Cr@std@@U?$__value_type@V?$basic_string@DU?$char_traits@D@__Cr@std@@V?$allocator@D@23@@__Cr@std@@V?$vector@PBVCommandLineFlag@absl@@V?$allocator@PBVCommandLineFlag@absl@@@__Cr@std@@@23@@23@U?$less@V?$basic_string@DU?$char_traits@D@__Cr@std@@V?$allocator@D@23@@__Cr@std@@@23@$00@23@V?$allocator@U?$__value_type@V?$basic_string@DU?$char_traits@D@__Cr@std@@V?$allocator@D@23@@__Cr@std@@V?$vector@PBVCommandLineFlag@absl@@V?$allocator@PBVCommandLineFlag@absl@@@__Cr@std@@@23@@__Cr@std@@@23@@__Cr@std@@QAE@ABV?$__map_value_compare@V?$basic_string@DU?$char_traits@D@__Cr@std@@V?$allocator@D@23@@__Cr@std@@U?$__value_type@V?$basic_string@DU?$char_traits@D@__Cr@std@@V?$allocator@D@23@@__Cr@std@@V?$vector@PBVCommandLineFlag@absl@@V?$allocator@PBVCommandLineFlag@absl@@@__Cr@std@@@23@@23@U?$less@V?$basic_string@DU?$char_traits@D@__Cr@std@@V?$allocator@D@23@@__Cr@std@@@23@$00@12@@Z
    ??0?$__tree_iterator@U?$__value_type@V?$basic_string@DU?$char_traits@D@__Cr@std@@V?$allocator@D@23@@__Cr@std@@V?$map@V?$basic_string@DU?$char_traits@D@__Cr@std@@V?$allocator@D@23@@__Cr@std@@V?$vector@PBVCommandLineFlag@absl@@V?$allocator@PBVCommandLineFlag@absl@@@__Cr@std@@@23@U?$less@V?$basic_string@DU?$char_traits@D@__Cr@std@@V?$allocator@D@23@@__Cr@std@@@23@V?$allocator@U?$pair@$$CBV?$basic_string@DU?$char_traits@D@__Cr@std@@V?$allocator@D@23@@__Cr@std@@V?$vector@PBVCommandLineFlag@absl@@V?$allocator@PBVCommandLineFlag@absl@@@__Cr@std@@@23@@__Cr@std@@@23@@23@@__Cr@std@@PAV?$__tree_node@U?$__value_type@V?$basic_string@DU?$char_traits@D@__Cr@std@@V?$allocator@D@23@@__Cr@std@@V?$map@V?$basic_string@DU?$char_traits@D@__Cr@std@@V?$allocator@D@23@@__Cr@std@@V?$vector@PBVCommandLineFlag@absl@@V?$allocator@PBVCommandLineFlag@absl@@@__Cr@std@@@23@U?$less@V?$basic_string@DU?$char_traits@D@__Cr@std@@V?$allocator@D@23@@__Cr@std@@@23@V?$allocator@U?$pair@$$CBV?$basic_string@DU?$char_traits@D@__Cr@std@@V?$allocator@D@23@@__Cr@std@@V?$vector@PBVCommandLineFlag@absl@@V?$allocator@PBVCommandLineFlag@absl@@@__Cr@std@@@23@@__Cr@std@@@23@@23@@__Cr@std@@PAX@23@H@__Cr@std@@AAE@PAV?$__tree_end_node@PAV?$__tree_node_base@PAX@__Cr@std@@@12@@Z
    ??0?$__tree_iterator@U?$__value_type@V?$basic_string@DU?$char_traits@D@__Cr@std@@V?$allocator@D@23@@__Cr@std@@V?$map@V?$basic_string@DU?$char_traits@D@__Cr@std@@V?$allocator@D@23@@__Cr@std@@V?$vector@PBVCommandLineFlag@absl@@V?$allocator@PBVCommandLineFlag@absl@@@__Cr@std@@@23@U?$less@V?$basic_string@DU?$char_traits@D@__Cr@std@@V?$allocator@D@23@@__Cr@std@@@23@V?$allocator@U?$pair@$$CBV?$basic_string@DU?$char_traits@D@__Cr@std@@V?$allocator@D@23@@__Cr@std@@V?$vector@PBVCommandLineFlag@absl@@V?$allocator@PBVCommandLineFlag@absl@@@__Cr@std@@@23@@__Cr@std@@@23@@23@@__Cr@std@@PAV?$__tree_node@U?$__value_type@V?$basic_string@DU?$char_traits@D@__Cr@std@@V?$allocator@D@23@@__Cr@std@@V?$map@V?$basic_string@DU?$char_traits@D@__Cr@std@@V?$allocator@D@23@@__Cr@std@@V?$vector@PBVCommandLineFlag@absl@@V?$allocator@PBVCommandLineFlag@absl@@@__Cr@std@@@23@U?$less@V?$basic_string@DU?$char_traits@D@__Cr@std@@V?$allocator@D@23@@__Cr@std@@@23@V?$allocator@U?$pair@$$CBV?$basic_string@DU?$char_traits@D@__Cr@std@@V?$allocator@D@23@@__Cr@std@@V?$vector@PBVCommandLineFlag@absl@@V?$allocator@PBVCommandLineFlag@absl@@@__Cr@std@@@23@@__Cr@std@@@23@@23@@__Cr@std@@PAX@23@H@__Cr@std@@AAE@PAV?$__tree_node@U?$__value_type@V?$basic_string@DU?$char_traits@D@__Cr@std@@V?$allocator@D@23@@__Cr@std@@V?$map@V?$basic_string@DU?$char_traits@D@__Cr@std@@V?$allocator@D@23@@__Cr@std@@V?$vector@PBVCommandLineFlag@absl@@V?$allocator@PBVCommandLineFlag@absl@@@__Cr@std@@@23@U?$less@V?$basic_string@DU?$char_traits@D@__Cr@std@@V?$allocator@D@23@@__Cr@std@@@23@V?$allocator@U?$pair@$$CBV?$basic_string@DU?$char_traits@D@__Cr@std@@V?$allocator@D@23@@__Cr@std@@V?$vector@PBVCommandLineFlag@absl@@V?$allocator@PBVCommandLineFlag@absl@@@__Cr@std@@@23@@__Cr@std@@@23@@23@@__Cr@std@@PAX@12@@Z
    ??0?$__tree_iterator@U?$__value_type@V?$basic_string@DU?$char_traits@D@__Cr@std@@V?$allocator@D@23@@__Cr@std@@V?$vector@PBVCommandLineFlag@absl@@V?$allocator@PBVCommandLineFlag@absl@@@__Cr@std@@@23@@__Cr@std@@PAV?$__tree_node@U?$__value_type@V?$basic_string@DU?$char_traits@D@__Cr@std@@V?$allocator@D@23@@__Cr@std@@V?$vector@PBVCommandLineFlag@absl@@V?$allocator@PBVCommandLineFlag@absl@@@__Cr@std@@@23@@__Cr@std@@PAX@23@H@__Cr@std@@AAE@PAV?$__tree_end_node@PAV?$__tree_node_base@PAX@__Cr@std@@@12@@Z
    ??0?$__tree_iterator@U?$__value_type@V?$basic_string@DU?$char_traits@D@__Cr@std@@V?$allocator@D@23@@__Cr@std@@V?$vector@PBVCommandLineFlag@absl@@V?$allocator@PBVCommandLineFlag@absl@@@__Cr@std@@@23@@__Cr@std@@PAV?$__tree_node@U?$__value_type@V?$basic_string@DU?$char_traits@D@__Cr@std@@V?$allocator@D@23@@__Cr@std@@V?$vector@PBVCommandLineFlag@absl@@V?$allocator@PBVCommandLineFlag@absl@@@__Cr@std@@@23@@__Cr@std@@PAX@23@H@__Cr@std@@AAE@PAV?$__tree_node@U?$__value_type@V?$basic_string@DU?$char_traits@D@__Cr@std@@V?$allocator@D@23@@__Cr@std@@V?$vector@PBVCommandLineFlag@absl@@V?$allocator@PBVCommandLineFlag@absl@@@__Cr@std@@@23@@__Cr@std@@PAX@12@@Z
    ??0?$__tree_node_destructor@V?$allocator@V?$__tree_node@U?$__value_type@V?$basic_string@DU?$char_traits@D@__Cr@std@@V?$allocator@D@23@@__Cr@std@@V?$map@V?$basic_string@DU?$char_traits@D@__Cr@std@@V?$allocator@D@23@@__Cr@std@@V?$vector@PBVCommandLineFlag@absl@@V?$allocator@PBVCommandLineFlag@absl@@@__Cr@std@@@23@U?$less@V?$basic_string@DU?$char_traits@D@__Cr@std@@V?$allocator@D@23@@__Cr@std@@@23@V?$allocator@U?$pair@$$CBV?$basic_string@DU?$char_traits@D@__Cr@std@@V?$allocator@D@23@@__Cr@std@@V?$vector@PBVCommandLineFlag@absl@@V?$allocator@PBVCommandLineFlag@absl@@@__Cr@std@@@23@@__Cr@std@@@23@@23@@__Cr@std@@PAX@__Cr@std@@@__Cr@std@@@__Cr@std@@QAE@AAV?$allocator@V?$__tree_node@U?$__value_type@V?$basic_string@DU?$char_traits@D@__Cr@std@@V?$allocator@D@23@@__Cr@std@@V?$map@V?$basic_string@DU?$char_traits@D@__Cr@std@@V?$allocator@D@23@@__Cr@std@@V?$vector@PBVCommandLineFlag@absl@@V?$allocator@PBVCommandLineFlag@absl@@@__Cr@std@@@23@U?$less@V?$basic_string@DU?$char_traits@D@__Cr@std@@V?$allocator@D@23@@__Cr@std@@@23@V?$allocator@U?$pair@$$CBV?$basic_string@DU?$char_traits@D@__Cr@std@@V?$allocator@D@23@@__Cr@std@@V?$vector@PBVCommandLineFlag@absl@@V?$allocator@PBVCommandLineFlag@absl@@@__Cr@std@@@23@@__Cr@std@@@23@@23@@__Cr@std@@PAX@__Cr@std@@@12@_N@Z
    ??0?$__tree_node_destructor@V?$allocator@V?$__tree_node@U?$__value_type@V?$basic_string@DU?$char_traits@D@__Cr@std@@V?$allocator@D@23@@__Cr@std@@V?$vector@PBVCommandLineFlag@absl@@V?$allocator@PBVCommandLineFlag@absl@@@__Cr@std@@@23@@__Cr@std@@PAX@__Cr@std@@@__Cr@std@@@__Cr@std@@QAE@AAV?$allocator@V?$__tree_node@U?$__value_type@V?$basic_string@DU?$char_traits@D@__Cr@std@@V?$allocator@D@23@@__Cr@std@@V?$vector@PBVCommandLineFlag@absl@@V?$allocator@PBVCommandLineFlag@absl@@@__Cr@std@@@23@@__Cr@std@@PAX@__Cr@std@@@12@_N@Z
    ??0?$__unordered_map_equal@V?$basic_string@DU?$char_traits@D@__Cr@std@@V?$allocator@D@23@@__Cr@std@@U?$__hash_value_type@V?$basic_string@DU?$char_traits@D@__Cr@std@@V?$allocator@D@23@@__Cr@std@@PBVImpl@time_zone@cctz@time_internal@absl@@@23@U?$equal_to@V?$basic_string@DU?$char_traits@D@__Cr@std@@V?$allocator@D@23@@__Cr@std@@@23@U?$hash@V?$basic_string@DU?$char_traits@D@__Cr@std@@V?$allocator@D@23@@__Cr@std@@@23@$00@__Cr@std@@QAE@XZ
    ??0?$__unordered_map_hasher@V?$basic_string@DU?$char_traits@D@__Cr@std@@V?$allocator@D@23@@__Cr@std@@U?$__hash_value_type@V?$basic_string@DU?$char_traits@D@__Cr@std@@V?$allocator@D@23@@__Cr@std@@PBVImpl@time_zone@cctz@time_internal@absl@@@23@U?$hash@V?$basic_string@DU?$char_traits@D@__Cr@std@@V?$allocator@D@23@@__Cr@std@@@23@U?$equal_to@V?$basic_string@DU?$char_traits@D@__Cr@std@@V?$allocator@D@23@@__Cr@std@@@23@$00@__Cr@std@@QAE@XZ
    ??0?$__wrap_iter@PAPAVCommandLineFlag@absl@@@__Cr@std@@AAE@PAPAVCommandLineFlag@absl@@@Z
    ??0?$__wrap_iter@PAPAVCordzHandle@cord_internal@absl@@@__Cr@std@@AAE@PAPAVCordzHandle@cord_internal@absl@@@Z
    ??0?$__wrap_iter@PAPAVLogSink@absl@@@__Cr@std@@AAE@PAPAVLogSink@absl@@@Z
    ??0?$__wrap_iter@PAPBVCommandLineFlag@absl@@@__Cr@std@@AAE@PAPBVCommandLineFlag@absl@@@Z
    ??0?$__wrap_iter@PAUTransition@cctz@time_internal@absl@@@__Cr@std@@AAE@PAUTransition@cctz@time_internal@absl@@@Z
    ??0?$__wrap_iter@PAUTransitionType@cctz@time_internal@absl@@@__Cr@std@@AAE@PAUTransitionType@cctz@time_internal@absl@@@Z
    ??0?$__wrap_iter@PAUUnrecognizedFlag@absl@@@__Cr@std@@AAE@PAUUnrecognizedFlag@absl@@@Z
    ??0?$__wrap_iter@PAUraw_view@?1???R?$ConvertToContainer@V?$vector@V?$basic_string_view@DU?$char_traits@D@__Cr@std@@@__Cr@std@@V?$allocator@V?$basic_string_view@DU?$char_traits@D@__Cr@std@@@__Cr@std@@@23@@__Cr@std@@V?$basic_string_view@DU?$char_traits@D@__Cr@std@@@23@$0A@@?$Splitter@VByChar@absl@@UAllowEmpty@2@V?$basic_string_view@DU?$char_traits@D@__Cr@std@@@__Cr@std@@@strings_internal@absl@@QBE?AV?$vector@V?$basic_string_view@DU?$char_traits@D@__Cr@std@@@__Cr@std@@V?$allocator@V?$basic_string_view@DU?$char_traits@D@__Cr@std@@@__Cr@std@@@23@@__Cr@std@@ABV345@@Z@@__Cr@std@@AAE@PAUraw_view@?1???R?$ConvertToContainer@V?$vector@V?$basic_string_view@DU?$char_traits@D@__Cr@std@@@__Cr@std@@V?$allocator@V?$basic_string_view@DU?$char_traits@D@__Cr@std@@@__Cr@std@@@23@@__Cr@std@@V?$basic_string_view@DU?$char_traits@D@__Cr@std@@@23@$0A@@?$Splitter@VByChar@absl@@UAllowEmpty@2@V?$basic_string_view@DU?$char_traits@D@__Cr@std@@@__Cr@std@@@strings_internal@absl@@QBE?AV?$vector@V?$basic_string_view@DU?$char_traits@D@__Cr@std@@@__Cr@std@@V?$allocator@V?$basic_string_view@DU?$char_traits@D@__Cr@std@@@__Cr@std@@@23@@12@ABV567@@Z@@Z
    ??0?$__wrap_iter@PAV?$unique_ptr@VFlagStateInterface@flags_internal@absl@@U?$default_delete@VFlagStateInterface@flags_internal@absl@@@__Cr@std@@@__Cr@std@@@__Cr@std@@AAE@PAV?$unique_ptr@VFlagStateInterface@flags_internal@absl@@U?$default_delete@VFlagStateInterface@flags_internal@absl@@@__Cr@std@@@12@@Z
    ??0?$__wrap_iter@PBQAVLogSink@absl@@@__Cr@std@@AAE@PBQAVLogSink@absl@@@Z
    ??0?$__wrap_iter@PBUConversionItem@ParsedFormatBase@str_format_internal@absl@@@__Cr@std@@AAE@PBUConversionItem@ParsedFormatBase@str_format_internal@absl@@@Z
    ??0?$__wrap_iter@PBUUnrecognizedFlag@absl@@@__Cr@std@@AAE@PBUUnrecognizedFlag@absl@@@Z
    ??0?$allocator@PAPBVImpl@time_zone@cctz@time_internal@absl@@@__Cr@std@@QAE@XZ
    ??0?$allocator@PAU?$__hash_node_base@PAU?$__hash_node@PBUCordRep@cord_internal@absl@@PAX@__Cr@std@@@__Cr@std@@@__Cr@std@@QAE@XZ
    ??0?$allocator@PAU?$__hash_node_base@PAU?$__hash_node@U?$__hash_value_type@V?$basic_string@DU?$char_traits@D@__Cr@std@@V?$allocator@D@23@@__Cr@std@@PBVImpl@time_zone@cctz@time_internal@absl@@@__Cr@std@@PAX@__Cr@std@@@__Cr@std@@@__Cr@std@@QAE@XZ
    ??0?$allocator@PAUCordRep@cord_internal@absl@@@__Cr@std@@QAE@XZ
    ??0?$allocator@PAUPrefixCrc@CrcCordState@crc_internal@absl@@@__Cr@std@@QAE@XZ
    ??0?$allocator@PAVCommandLineFlag@absl@@@__Cr@std@@QAE@XZ
    ??0?$allocator@PAVCordzHandle@cord_internal@absl@@@__Cr@std@@QAE@XZ
    ??0?$allocator@PAVLogSink@absl@@@__Cr@std@@QAE@XZ
    ??0?$allocator@PBVCommandLineFlag@absl@@@__Cr@std@@QAE@XZ
    ??0?$allocator@PBVCordzHandle@cord_internal@absl@@@__Cr@std@@QAE@XZ
    ??0?$allocator@PBVImpl@time_zone@cctz@time_internal@absl@@@__Cr@std@@QAE@XZ
    ??0?$allocator@U?$__hash_node@PBUCordRep@cord_internal@absl@@PAX@__Cr@std@@@__Cr@std@@QAE@XZ
    ??0?$allocator@U?$__hash_node@U?$__hash_value_type@V?$basic_string@DU?$char_traits@D@__Cr@std@@V?$allocator@D@23@@__Cr@std@@PBVImpl@time_zone@cctz@time_internal@absl@@@__Cr@std@@PAX@__Cr@std@@@__Cr@std@@QAE@XZ
    ??0?$allocator@UAlignedSpace@?1???$FlagOps@V?$vector@V?$basic_string@DU?$char_traits@D@__Cr@std@@V?$allocator@D@23@@__Cr@std@@V?$allocator@V?$basic_string@DU?$char_traits@D@__Cr@std@@V?$allocator@D@23@@__Cr@std@@@23@@__Cr@std@@@flags_internal@absl@@YAPAXW4FlagOp@23@PBXPAX2@Z@@__Cr@std@@QAE@XZ
    ??0?$allocator@UConversionItem@ParsedFormatBase@str_format_internal@absl@@@__Cr@std@@QAE@XZ
    ??0?$allocator@UPayload@status_internal@absl@@@__Cr@std@@QAE@XZ
    ??0?$allocator@UPrefixCrc@CrcCordState@crc_internal@absl@@@__Cr@std@@QAE@XZ
    ??0?$allocator@UTransition@cctz@time_internal@absl@@@__Cr@std@@QAE@XZ
    ??0?$allocator@UTransitionType@cctz@time_internal@absl@@@__Cr@std@@QAE@XZ
    ??0?$allocator@UUnrecognizedFlag@absl@@@__Cr@std@@QAE@XZ
    ??0?$allocator@UViableSubstitution@strings_internal@absl@@@__Cr@std@@QAE@XZ
    ??0?$allocator@V?$__tree_node@U?$__value_type@V?$basic_string@DU?$char_traits@D@__Cr@std@@V?$allocator@D@23@@__Cr@std@@V?$map@V?$basic_string@DU?$char_traits@D@__Cr@std@@V?$allocator@D@23@@__Cr@std@@V?$vector@PBVCommandLineFlag@absl@@V?$allocator@PBVCommandLineFlag@absl@@@__Cr@std@@@23@U?$less@V?$basic_string@DU?$char_traits@D@__Cr@std@@V?$allocator@D@23@@__Cr@std@@@23@V?$allocator@U?$pair@$$CBV?$basic_string@DU?$char_traits@D@__Cr@std@@V?$allocator@D@23@@__Cr@std@@V?$vector@PBVCommandLineFlag@absl@@V?$allocator@PBVCommandLineFlag@absl@@@__Cr@std@@@23@@__Cr@std@@@23@@23@@__Cr@std@@PAX@__Cr@std@@@__Cr@std@@QAE@XZ
    ??0?$allocator@V?$__tree_node@U?$__value_type@V?$basic_string@DU?$char_traits@D@__Cr@std@@V?$allocator@D@23@@__Cr@std@@V?$vector@PBVCommandLineFlag@absl@@V?$allocator@PBVCommandLineFlag@absl@@@__Cr@std@@@23@@__Cr@std@@PAX@__Cr@std@@@__Cr@std@@QAE@XZ
    ??0?$allocator@V?$unique_ptr@VCRCImpl@crc_internal@absl@@U?$default_delete@VCRCImpl@crc_internal@absl@@@__Cr@std@@@__Cr@std@@@__Cr@std@@QAE@XZ
    ??0?$allocator@V?$unique_ptr@VFlagStateInterface@flags_internal@absl@@U?$default_delete@VFlagStateInterface@flags_internal@absl@@@__Cr@std@@@__Cr@std@@@__Cr@std@@QAE@XZ
    ??0?$allocator@VFormatArgImpl@str_format_internal@absl@@@__Cr@std@@QAE@XZ
    ??0?$atomic@P6AXABUHashtablezInfo@container_internal@absl@@@Z@__Cr@std@@QAE@P6AXABUHashtablezInfo@container_internal@absl@@@Z@Z
    ??0?$atomic@PAUHashtablezInfo@container_internal@absl@@@__Cr@std@@QAE@PAUHashtablezInfo@container_internal@absl@@@Z
    ??0?$atomic@PAVCordzHandle@cord_internal@absl@@@__Cr@std@@QAE@PAVCordzHandle@cord_internal@absl@@@Z
    ??0?$atomic@PAVCordzInfo@cord_internal@absl@@@__Cr@std@@QAE@PAVCordzInfo@cord_internal@absl@@@Z
    ??0?$civil_time@Uday_tag@detail@cctz@time_internal@absl@@@detail@cctz@time_internal@absl@@AAE@Ufields@1234@@Z
    ??0?$civil_time@Uday_tag@detail@cctz@time_internal@absl@@@detail@cctz@time_internal@absl@@QAE@_J00000@Z
    ??0?$civil_time@Uday_tag@time_internal@absl@@@detail@cctz@time_internal@absl@@AAE@Ufields@1234@@Z
    ??0?$civil_time@Uday_tag@time_internal@absl@@@detail@cctz@time_internal@absl@@QAE@XZ
    ??0?$civil_time@Uday_tag@time_internal@absl@@@detail@cctz@time_internal@absl@@QAE@_J00000@Z
    ??0?$civil_time@Uhour_tag@detail@cctz@time_internal@absl@@@detail@cctz@time_internal@absl@@AAE@Ufields@1234@@Z
    ??0?$civil_time@Uhour_tag@time_internal@absl@@@detail@cctz@time_internal@absl@@AAE@Ufields@1234@@Z
    ??0?$civil_time@Uhour_tag@time_internal@absl@@@detail@cctz@time_internal@absl@@QAE@XZ
    ??0?$civil_time@Uhour_tag@time_internal@absl@@@detail@cctz@time_internal@absl@@QAE@_J00000@Z
    ??0?$civil_time@Uminute_tag@detail@cctz@time_internal@absl@@@detail@cctz@time_internal@absl@@AAE@Ufields@1234@@Z
    ??0?$civil_time@Uminute_tag@time_internal@absl@@@detail@cctz@time_internal@absl@@AAE@Ufields@1234@@Z
    ??0?$civil_time@Uminute_tag@time_internal@absl@@@detail@cctz@time_internal@absl@@QAE@XZ
    ??0?$civil_time@Uminute_tag@time_internal@absl@@@detail@cctz@time_internal@absl@@QAE@_J00000@Z
    ??0?$civil_time@Umonth_tag@detail@cctz@time_internal@absl@@@detail@cctz@time_internal@absl@@AAE@Ufields@1234@@Z
    ??0?$civil_time@Umonth_tag@time_internal@absl@@@detail@cctz@time_internal@absl@@AAE@Ufields@1234@@Z
    ??0?$civil_time@Umonth_tag@time_internal@absl@@@detail@cctz@time_internal@absl@@QAE@XZ
    ??0?$civil_time@Umonth_tag@time_internal@absl@@@detail@cctz@time_internal@absl@@QAE@_J00000@Z
    ??0?$civil_time@Usecond_tag@detail@cctz@time_internal@absl@@@detail@cctz@time_internal@absl@@AAE@Ufields@1234@@Z
    ??0?$civil_time@Usecond_tag@detail@cctz@time_internal@absl@@@detail@cctz@time_internal@absl@@QAE@XZ
    ??0?$civil_time@Usecond_tag@detail@cctz@time_internal@absl@@@detail@cctz@time_internal@absl@@QAE@_J00000@Z
    ??0?$civil_time@Usecond_tag@time_internal@absl@@@detail@cctz@time_internal@absl@@AAE@Ufields@1234@@Z
