EXPORTS
    ?$TSS0@?1??CrcAndCopy@CrcMemcpy@crc_internal@absl@@SA?AVcrc32c_t@4@PIAXPIBXIV54@_N@Z@4HA
    ??$?0$$V$0A@@?$NoDestructor@V?$SampleRecorder@UHashtablezInfo@container_internal@absl@@@profiling_internal@absl@@@absl@@QAE@XZ
    ??$?0V?$allocator@D@__Cr@std@@@AlphaNum@absl@@QAE@ABV?$basic_string@DU?$char_traits@D@__Cr@std@@V?$allocator@D@23@@__Cr@std@@@Z
    ??$?0V?$basic_string@DU?$char_traits@D@__Cr@std@@V?$allocator@D@23@@__Cr@std@@$0A@@Cord@absl@@QAE@$$QAV?$basic_string@DU?$char_traits@D@__Cr@std@@V?$allocator@D@23@@__Cr@std@@@Z
    ??$?6C$0A@@LogMessage@log_internal@absl@@QAEAAV012@ABC@Z
    ??$?6D$0A@@LogMessage@log_internal@absl@@QAEAAV012@ABD@Z
    ??$?6E$0A@@LogMessage@log_internal@absl@@QAEAAV012@ABE@Z
    ??$?6F$0A@@LogMessage@log_internal@absl@@QAEAAV012@ABF@Z
    ??$?6G$0A@@LogMessage@log_internal@absl@@QAEAAV012@ABG@Z
    ??$?6H$0A@@LogMessage@log_internal@absl@@QAEAAV012@ABH@Z
    ??$?6I$0A@@LogMessage@log_internal@absl@@QAEAAV012@ABI@Z
    ??$?6J$0A@@LogMessage@log_internal@absl@@QAEAAV012@ABJ@Z
    ??$?6K$0A@@LogMessage@log_internal@absl@@QAEAAV012@ABK@Z
    ??$?6M$0A@@LogMessage@log_internal@absl@@QAEAAV012@ABM@Z
    ??$?6N$0A@@LogMessage@log_internal@absl@@QAEAAV012@ABN@Z
    ??$?6PAX$0A@@LogMessage@log_internal@absl@@QAEAAV012@ABQAX@Z
    ??$?6PBX$0A@@LogMessage@log_internal@absl@@QAEAAV012@ABQBX@Z
    ??$?6_J$0A@@LogMessage@log_internal@absl@@QAEAAV012@AB_J@Z
    ??$?6_K$0A@@LogMessage@log_internal@absl@@QAEAAV012@AB_K@Z
    ??$?6_N$0A@@LogMessage@log_internal@absl@@QAEAAV012@AB_N@Z
    ??$?MUsecond_tag@detail@cctz@time_internal@absl@@U01234@@detail@cctz@time_internal@absl@@YA_NABV?$civil_time@Usecond_tag@detail@cctz@time_internal@absl@@@0123@0@Z
    ??$?OUsecond_tag@detail@cctz@time_internal@absl@@U01234@@detail@cctz@time_internal@absl@@YA_NABV?$civil_time@Usecond_tag@detail@cctz@time_internal@absl@@@0123@0@Z
    ??$?RW4LogSeverity@absl@@ABQBDHAAY0CC@$$CBD@?$AtomicHook@P6AXW4LogSeverity@absl@@PBDHABV?$basic_string@DU?$char_traits@D@__Cr@std@@V?$allocator@D@23@@__Cr@std@@@Z@base_internal@absl@@QBEX$$QAW4LogSeverity@2@ABQBD$$QAHAAY0CC@$$CBD@Z
    ??$?RW4LogSeverity@absl@@ABQBDHAAY0CG@$$CBD@?$AtomicHook@P6AXW4LogSeverity@absl@@PBDHABV?$basic_string@DU?$char_traits@D@__Cr@std@@V?$allocator@D@23@@__Cr@std@@@Z@base_internal@absl@@QBEX$$QAW4LogSeverity@2@ABQBD$$QAHAAY0CG@$$CBD@Z
    ??$?RW4LogSeverity@absl@@ABQBDHAAY0CH@$$CBD@?$AtomicHook@P6AXW4LogSeverity@absl@@PBDHABV?$basic_string@DU?$char_traits@D@__Cr@std@@V?$allocator@D@23@@__Cr@std@@@Z@base_internal@absl@@QBEX$$QAW4LogSeverity@2@ABQBD$$QAHAAY0CH@$$CBD@Z
    ??$AbslHashValue@VMixingHashState@hash_internal@absl@@@hash_internal@absl@@YA?AVMixingHashState@01@V201@V?$basic_string_view@DU?$char_traits@D@__Cr@std@@@__Cr@std@@@Z
    ??$AbslStringify@VStringifySink@strings_internal@absl@@@absl@@YAXAAVStringifySink@strings_internal@0@UHex@0@@Z
    ??$AddCordRep@$00@CordRepBtree@cord_internal@absl@@CAPAV012@PAV012@PAUCordRep@12@@Z
    ??$AddCordRep@$0A@@CordRepBtree@cord_internal@absl@@CAPAV012@PAV012@PAUCordRep@12@@Z
    ??$AddData@$00@CordRepBtree@cord_internal@absl@@AAE?AV?$basic_string_view@DU?$char_traits@D@__Cr@std@@@__Cr@std@@V345@I@Z
    ??$AddData@$00@CordRepBtree@cord_internal@absl@@CAPAV012@PAV012@V?$basic_string_view@DU?$char_traits@D@__Cr@std@@@__Cr@std@@I@Z
    ??$AddData@$0A@@CordRepBtree@cord_internal@absl@@AAE?AV?$basic_string_view@DU?$char_traits@D@__Cr@std@@@__Cr@std@@V345@I@Z
    ??$AddData@$0A@@CordRepBtree@cord_internal@absl@@CAPAV012@PAV012@V?$basic_string_view@DU?$char_traits@D@__Cr@std@@@__Cr@std@@I@Z
    ??$Append@V?$basic_string@DU?$char_traits@D@__Cr@std@@V?$allocator@D@23@@__Cr@std@@$0A@@Cord@absl@@QAEX$$QAV?$basic_string@DU?$char_traits@D@__Cr@std@@V?$allocator@D@23@@__Cr@std@@@Z
    ??$AppendImpl@ABVCord@absl@@@Cord@absl@@AAEXABV01@@Z
    ??$AppendImpl@VCord@absl@@@Cord@absl@@AAEX$$QAV01@@Z
    ??$AsciiStrCaseFoldLong@$00@ascii_internal@absl@@YAXPADI@Z
    ??$AsciiStrCaseFoldLong@$0A@@ascii_internal@absl@@YAXPADI@Z
    ??$Base64EscapeInternal@V?$basic_string@DU?$char_traits@D@__Cr@std@@V?$allocator@D@23@@__Cr@std@@@strings_internal@absl@@YAXPBEIPAV?$basic_string@DU?$char_traits@D@__Cr@std@@V?$allocator@D@23@@__Cr@std@@_NPBD@Z
    ??$CallOnceImpl@A6AXXZ$$V@base_internal@absl@@YAXPAU?$atomic@I@__Cr@std@@W4SchedulingMode@01@A6AXXZ@Z
    ??$CallOnceImpl@P8FlagImpl@flags_internal@absl@@AEXXZPAV123@@base_internal@absl@@YAXPAU?$atomic@I@__Cr@std@@W4SchedulingMode@01@$$QAP8FlagImpl@flags_internal@1@AEXXZ$$QAPAV671@@Z
    ??$CastAndCallFunction@$$CBU?$atomic@_N@__Cr@std@@@Condition@absl@@CA_NPBV01@@Z
    ??$ConsumeConversion@$00@str_format_internal@absl@@YAPBDPBDQBDPAUUnboundConversion@01@PAH@Z
    ??$ConsumeConversion@$0A@@str_format_internal@absl@@YAPBDPBDQBDPAUUnboundConversion@01@PAH@Z
    ??$ConvertIntArg@C@str_format_internal@absl@@YA_NCVFormatConversionSpecImpl@01@PAVFormatSinkImpl@01@@Z
    ??$ConvertIntArg@D@str_format_internal@absl@@YA_NDVFormatConversionSpecImpl@01@PAVFormatSinkImpl@01@@Z
    ??$ConvertIntArg@E@str_format_internal@absl@@YA_NEVFormatConversionSpecImpl@01@PAVFormatSinkImpl@01@@Z
    ??$ConvertIntArg@F@str_format_internal@absl@@YA_NFVFormatConversionSpecImpl@01@PAVFormatSinkImpl@01@@Z
    ??$ConvertIntArg@G@str_format_internal@absl@@YA_NGVFormatConversionSpecImpl@01@PAVFormatSinkImpl@01@@Z
    ??$ConvertIntArg@H@str_format_internal@absl@@YA_NHVFormatConversionSpecImpl@01@PAVFormatSinkImpl@01@@Z
    ??$ConvertIntArg@I@str_format_internal@absl@@YA_NIVFormatConversionSpecImpl@01@PAVFormatSinkImpl@01@@Z
    ??$ConvertIntArg@J@str_format_internal@absl@@YA_NJVFormatConversionSpecImpl@01@PAVFormatSinkImpl@01@@Z
    ??$ConvertIntArg@K@str_format_internal@absl@@YA_NKVFormatConversionSpecImpl@01@PAVFormatSinkImpl@01@@Z
    ??$ConvertIntArg@Vint128@absl@@@str_format_internal@absl@@YA_NVint128@1@VFormatConversionSpecImpl@01@PAVFormatSinkImpl@01@@Z
    ??$ConvertIntArg@Vuint128@absl@@@str_format_internal@absl@@YA_NVuint128@1@VFormatConversionSpecImpl@01@PAVFormatSinkImpl@01@@Z
    ??$ConvertIntArg@_J@str_format_internal@absl@@YA_N_JVFormatConversionSpecImpl@01@PAVFormatSinkImpl@01@@Z
    ??$ConvertIntArg@_K@str_format_internal@absl@@YA_N_KVFormatConversionSpecImpl@01@PAVFormatSinkImpl@01@@Z
    ??$ConvertIntArg@_W@str_format_internal@absl@@YA_N_WVFormatConversionSpecImpl@01@PAVFormatSinkImpl@01@@Z
    ??$CopyToEncodedBuffer@$00@LogMessage@log_internal@absl@@AAEXDI@Z
    ??$CopyToEncodedBuffer@$00@LogMessage@log_internal@absl@@AAEXV?$basic_string_view@DU?$char_traits@D@__Cr@std@@@__Cr@std@@@Z
    ??$CopyToEncodedBuffer@$0A@@LogMessage@log_internal@absl@@AAEXDI@Z
    ??$CopyToEncodedBuffer@$0A@@LogMessage@log_internal@absl@@AAEXV?$basic_string_view@DU?$char_traits@D@__Cr@std@@@__Cr@std@@@Z
    ??$DeallocateStandard@$03@container_internal@absl@@YAXAAVCommonFields@01@ABUPolicyFunctions@01@@Z
    ??$Dispatch@C@FormatArgImpl@str_format_internal@absl@@CA_NTData@012@VFormatConversionSpecImpl@12@PAX@Z
    ??$Dispatch@D@FormatArgImpl@str_format_internal@absl@@CA_NTData@012@VFormatConversionSpecImpl@12@PAX@Z
    ??$Dispatch@E@FormatArgImpl@str_format_internal@absl@@CA_NTData@012@VFormatConversionSpecImpl@12@PAX@Z
    ??$Dispatch@F@FormatArgImpl@str_format_internal@absl@@CA_NTData@012@VFormatConversionSpecImpl@12@PAX@Z
    ??$Dispatch@G@FormatArgImpl@str_format_internal@absl@@CA_NTData@012@VFormatConversionSpecImpl@12@PAX@Z
    ??$Dispatch@H@FormatArgImpl@str_format_internal@absl@@CA_NTData@012@VFormatConversionSpecImpl@12@PAX@Z
    ??$Dispatch@I@FormatArgImpl@str_format_internal@absl@@CA_NTData@012@VFormatConversionSpecImpl@12@PAX@Z
    ??$Dispatch@J@FormatArgImpl@str_format_internal@absl@@CA_NTData@012@VFormatConversionSpecImpl@12@PAX@Z
    ??$Dispatch@K@FormatArgImpl@str_format_internal@absl@@CA_NTData@012@VFormatConversionSpecImpl@12@PAX@Z
    ??$Dispatch@M@FormatArgImpl@str_format_internal@absl@@CA_NTData@012@VFormatConversionSpecImpl@12@PAX@Z
    ??$Dispatch@N@FormatArgImpl@str_format_internal@absl@@CA_NTData@012@VFormatConversionSpecImpl@12@PAX@Z
    ??$Dispatch@O@FormatArgImpl@str_format_internal@absl@@CA_NTData@012@VFormatConversionSpecImpl@12@PAX@Z
    ??$Dispatch@PBD@FormatArgImpl@str_format_internal@absl@@CA_NTData@012@VFormatConversionSpecImpl@12@PAX@Z
    ??$Dispatch@PB_W@FormatArgImpl@str_format_internal@absl@@CA_NTData@012@VFormatConversionSpecImpl@12@PAX@Z
    ??$Dispatch@UVoidPtr@str_format_internal@absl@@@FormatArgImpl@str_format_internal@absl@@CA_NTData@012@VFormatConversionSpecImpl@12@PAX@Z
    ??$Dispatch@V?$basic_string@DU?$char_traits@D@__Cr@std@@V?$allocator@D@23@@__Cr@std@@@FormatArgImpl@str_format_internal@absl@@CA_NTData@012@VFormatConversionSpecImpl@12@PAX@Z
    ??$Dispatch@V?$basic_string@_WU?$char_traits@_W@__Cr@std@@V?$allocator@_W@23@@__Cr@std@@@FormatArgImpl@str_format_internal@absl@@CA_NTData@012@VFormatConversionSpecImpl@12@PAX@Z
    ??$Dispatch@V?$basic_string_view@DU?$char_traits@D@__Cr@std@@@__Cr@std@@@FormatArgImpl@str_format_internal@absl@@CA_NTData@012@VFormatConversionSpecImpl@12@PAX@Z
    ??$Dispatch@V?$basic_string_view@_WU?$char_traits@_W@__Cr@std@@@__Cr@std@@@FormatArgImpl@str_format_internal@absl@@CA_NTData@012@VFormatConversionSpecImpl@12@PAX@Z
    ??$Dispatch@Vint128@absl@@@FormatArgImpl@str_format_internal@absl@@CA_NTData@012@VFormatConversionSpecImpl@12@PAX@Z
    ??$Dispatch@Vuint128@absl@@@FormatArgImpl@str_format_internal@absl@@CA_NTData@012@VFormatConversionSpecImpl@12@PAX@Z
    ??$Dispatch@_J@FormatArgImpl@str_format_internal@absl@@CA_NTData@012@VFormatConversionSpecImpl@12@PAX@Z
    ??$Dispatch@_K@FormatArgImpl@str_format_internal@absl@@CA_NTData@012@VFormatConversionSpecImpl@12@PAX@Z
    ??$Dispatch@_N@FormatArgImpl@str_format_internal@absl@@CA_NTData@012@VFormatConversionSpecImpl@12@PAX@Z
    ??$EmplaceBackSlow@ABQAVLogSink@absl@@@?$Storage@PAVLogSink@absl@@$0BA@V?$allocator@PAVLogSink@absl@@@__Cr@std@@@inlined_vector_internal@absl@@AAEAAPAVLogSink@2@ABQAV32@@Z
    ??$EmplaceBackSlow@UPayload@status_internal@absl@@@?$Storage@UPayload@status_internal@absl@@$00V?$allocator@UPayload@status_internal@absl@@@__Cr@std@@@inlined_vector_internal@absl@@AAEAAUPayload@status_internal@2@$$QAU342@@Z
    ??$FindSubstitutions@V?$initializer_list@U?$pair@V?$basic_string_view@DU?$char_traits@D@__Cr@std@@@__Cr@std@@V123@@__Cr@std@@@std@@@strings_internal@absl@@YA?AV?$vector@UViableSubstitution@strings_internal@absl@@V?$allocator@UViableSubstitution@strings_internal@absl@@@__Cr@std@@@__Cr@std@@V?$basic_string_view@DU?$char_traits@D@__Cr@std@@@34@ABV?$initializer_list@U?$pair@V?$basic_string_view@DU?$char_traits@D@__Cr@std@@@__Cr@std@@V123@@__Cr@std@@@4@@Z
    ??$FlagOps@V?$vector@V?$basic_string@DU?$char_traits@D@__Cr@std@@V?$allocator@D@23@@__Cr@std@@V?$allocator@V?$basic_string@DU?$char_traits@D@__Cr@std@@V?$allocator@D@23@@__Cr@std@@@23@@__Cr@std@@@flags_internal@absl@@YAPAXW4FlagOp@01@PBXPAX2@Z
    ??$Flush@V?$basic_ostream@DU?$char_traits@D@__Cr@std@@@__Cr@std@@@FormatRawSinkImpl@str_format_internal@absl@@CAXPAXV?$basic_string_view@DU?$char_traits@D@__Cr@std@@@__Cr@std@@@Z
    ??$Flush@V?$basic_string@DU?$char_traits@D@__Cr@std@@V?$allocator@D@23@@__Cr@std@@@FormatRawSinkImpl@str_format_internal@absl@@CAXPAXV?$basic_string_view@DU?$char_traits@D@__Cr@std@@@__Cr@std@@@Z
    ??$Flush@VBufferRawSink@str_format_internal@absl@@@FormatRawSinkImpl@str_format_internal@absl@@CAXPAXV?$basic_string_view@DU?$char_traits@D@__Cr@std@@@__Cr@std@@@Z
    ??$Flush@VFILERawSink@str_format_internal@absl@@@FormatRawSinkImpl@str_format_internal@absl@@CAXPAXV?$basic_string_view@DU?$char_traits@D@__Cr@std@@@__Cr@std@@@Z
    ??$GenRuntimeTypeId@V?$vector@V?$basic_string@DU?$char_traits@D@__Cr@std@@V?$allocator@D@23@@__Cr@std@@V?$allocator@V?$basic_string@DU?$char_traits@D@__Cr@std@@V?$allocator@D@23@@__Cr@std@@@23@@__Cr@std@@@flags_internal@absl@@YAPBVtype_info@@XZ
    ??$GenericCompare@HVCord@absl@@@absl@@YAHABVCord@0@0I@Z
    ??$GenericCompare@_NVCord@absl@@@absl@@YA_NABVCord@0@0I@Z
    ??$InitializeSlots@V?$allocator@D@__Cr@std@@$0M@$00$0A@$03@HashSetResizeHelper@container_internal@absl@@QAE_NAAVCommonFields@12@V?$allocator@D@__Cr@std@@W4ctrl_t@12@II@Z
    ??$IntegerToString@H@strings_internal@absl@@YA?AV?$basic_string@DU?$char_traits@D@__Cr@std@@V?$allocator@D@23@@__Cr@std@@H@Z
    ??$IntegerToString@I@strings_internal@absl@@YA?AV?$basic_string@DU?$char_traits@D@__Cr@std@@V?$allocator@D@23@@__Cr@std@@I@Z
    ??$IntegerToString@J@strings_internal@absl@@YA?AV?$basic_string@DU?$char_traits@D@__Cr@std@@V?$allocator@D@23@@__Cr@std@@J@Z
    ??$IntegerToString@K@strings_internal@absl@@YA?AV?$basic_string@DU?$char_traits@D@__Cr@std@@V?$allocator@D@23@@__Cr@std@@K@Z
    ??$IntegerToString@_J@strings_internal@absl@@YA?AV?$basic_string@DU?$char_traits@D@__Cr@std@@V?$allocator@D@23@@__Cr@std@@_J@Z
    ??$IntegerToString@_K@strings_internal@absl@@YA?AV?$basic_string@DU?$char_traits@D@__Cr@std@@V?$allocator@D@23@@__Cr@std@@_K@Z
    ??$JoinAlgorithm@V?$__wrap_iter@PBV?$basic_string@DU?$char_traits@D@__Cr@std@@V?$allocator@D@23@@__Cr@std@@@__Cr@std@@X@strings_internal@absl@@YA?AV?$basic_string@DU?$char_traits@D@__Cr@std@@V?$allocator@D@23@@__Cr@std@@V?$__wrap_iter@PBV?$basic_string@DU?$char_traits@D@__Cr@std@@V?$allocator@D@23@@__Cr@std@@@34@0V?$basic_string_view@DU?$char_traits@D@__Cr@std@@@34@UNoFormatter@01@@Z
    ??$MakeCheckOpString@ABV?$basic_string@DU?$char_traits@D@__Cr@std@@V?$allocator@D@23@@__Cr@std@@ABV123@@log_internal@absl@@YAPAV?$basic_string@DU?$char_traits@D@__Cr@std@@V?$allocator@D@23@@__Cr@std@@ABV234@0PBD@Z
    ??$MakeCheckOpString@ABV?$basic_string_view@DU?$char_traits@D@__Cr@std@@@__Cr@std@@ABV123@@log_internal@absl@@YAPAV?$basic_string@DU?$char_traits@D@__Cr@std@@V?$allocator@D@23@@__Cr@std@@ABV?$basic_string_view@DU?$char_traits@D@__Cr@std@@@34@0PBD@Z
    ??$MakeCheckOpString@DD@log_internal@absl@@YAPAV?$basic_string@DU?$char_traits@D@__Cr@std@@V?$allocator@D@23@@__Cr@std@@DDPBD@Z
    ??$MakeCheckOpString@EE@log_internal@absl@@YAPAV?$basic_string@DU?$char_traits@D@__Cr@std@@V?$allocator@D@23@@__Cr@std@@EEPBD@Z
    ??$MakeCheckOpString@MM@log_internal@absl@@YAPAV?$basic_string@DU?$char_traits@D@__Cr@std@@V?$allocator@D@23@@__Cr@std@@MMPBD@Z
    ??$MakeCheckOpString@NN@log_internal@absl@@YAPAV?$basic_string@DU?$char_traits@D@__Cr@std@@V?$allocator@D@23@@__Cr@std@@NNPBD@Z
    ??$MakeCheckOpString@PBCPBC@log_internal@absl@@YAPAV?$basic_string@DU?$char_traits@D@__Cr@std@@V?$allocator@D@23@@__Cr@std@@PBC0PBD@Z
    ??$MakeCheckOpString@PBDPBD@log_internal@absl@@YAPAV?$basic_string@DU?$char_traits@D@__Cr@std@@V?$allocator@D@23@@__Cr@std@@PBD00@Z
    ??$MakeCheckOpString@PBEPBE@log_internal@absl@@YAPAV?$basic_string@DU?$char_traits@D@__Cr@std@@V?$allocator@D@23@@__Cr@std@@PBE0PBD@Z
    ??$MakeCheckOpString@PBXPBX@log_internal@absl@@YAPAV?$basic_string@DU?$char_traits@D@__Cr@std@@V?$allocator@D@23@@__Cr@std@@PBX0PBD@Z
    ??$MakeCheckOpString@_J_J@log_internal@absl@@YAPAV?$basic_string@DU?$char_traits@D@__Cr@std@@V?$allocator@D@23@@__Cr@std@@_J0PBD@Z
    ??$MakeCheckOpString@_K_K@log_internal@absl@@YAPAV?$basic_string@DU?$char_traits@D@__Cr@std@@V?$allocator@D@23@@__Cr@std@@_K0PBD@Z
    ??$MakeCheckOpString@_N_N@log_internal@absl@@YAPAV?$basic_string@DU?$char_traits@D@__Cr@std@@V?$allocator@D@23@@__Cr@std@@_N0PBD@Z
    ??$Merge@$00@CordRepBtree@cord_internal@absl@@CAPAV012@PAV012@0@Z
    ??$Merge@$0A@@CordRepBtree@cord_internal@absl@@CAPAV012@PAV012@0@Z
    ??$NewLeaf@$00@CordRepBtree@cord_internal@absl@@CAPAV012@V?$basic_string_view@DU?$char_traits@D@__Cr@std@@@__Cr@std@@I@Z
    ??$NewLeaf@$0A@@CordRepBtree@cord_internal@absl@@CAPAV012@V?$basic_string_view@DU?$char_traits@D@__Cr@std@@@__Cr@std@@I@Z
    ??$ParseFlagImpl@H@flags_internal@absl@@YA_NV?$basic_string_view@DU?$char_traits@D@__Cr@std@@@__Cr@std@@AAH@Z
    ??$ParseFlagImpl@I@flags_internal@absl@@YA_NV?$basic_string_view@DU?$char_traits@D@__Cr@std@@@__Cr@std@@AAI@Z
    ??$ParseFlagImpl@J@flags_internal@absl@@YA_NV?$basic_string_view@DU?$char_traits@D@__Cr@std@@@__Cr@std@@AAJ@Z
    ??$ParseFlagImpl@K@flags_internal@absl@@YA_NV?$basic_string_view@DU?$char_traits@D@__Cr@std@@@__Cr@std@@AAK@Z
    ??$ParseFlagImpl@_J@flags_internal@absl@@YA_NV?$basic_string_view@DU?$char_traits@D@__Cr@std@@@__Cr@std@@AA_J@Z
    ??$ParseFlagImpl@_K@flags_internal@absl@@YA_NV?$basic_string_view@DU?$char_traits@D@__Cr@std@@@__Cr@std@@AA_K@Z
    ??$ParseFloat@$09@strings_internal@absl@@YA?AUParsedFloat@01@PBD0W4chars_format@1@@Z
    ??$ParseFloat@$0BA@@strings_internal@absl@@YA?AUParsedFloat@01@PBD0W4chars_format@1@@Z
    ??$ParseFormatString@UParsedFormatConsumer@ParsedFormatBase@str_format_internal@absl@@@str_format_internal@absl@@YA_NV?$basic_string_view@DU?$char_traits@D@__Cr@std@@@__Cr@std@@UParsedFormatConsumer@ParsedFormatBase@01@@Z
    ??$PopDead@_JIIIG@?$SampleRecorder@UHashtablezInfo@container_internal@absl@@@profiling_internal@absl@@AAEPAUHashtablezInfo@container_internal@2@_JIIIG@Z
    ??$Prepend@V?$basic_string@DU?$char_traits@D@__Cr@std@@V?$allocator@D@23@@__Cr@std@@$0A@@Cord@absl@@QAEX$$QAV?$basic_string@DU?$char_traits@D@__Cr@std@@V?$allocator@D@23@@__Cr@std@@@Z
    ??$Register@AB_JAAIAAIAAIAAG@?$SampleRecorder@UHashtablezInfo@container_internal@absl@@@profiling_internal@absl@@QAEPAUHashtablezInfo@container_internal@2@AB_JAAI11AAG@Z
    ??$SNPrintF@DHHH@absl@@YAHPADIABV?$FormatSpecTemplate@$0BPPPL@$0JPPPL@$0JPPPL@$0JPPPL@@str_format_internal@0@ABDABH33@Z
    ??$StrCat@PBD@absl@@YA?AV?$basic_string@DU?$char_traits@D@__Cr@std@@V?$allocator@D@23@@__Cr@std@@ABVAlphaNum@0@0000ABQBD@Z
    ??$StrCat@V?$basic_string@DU?$char_traits@D@__Cr@std@@V?$allocator@D@23@@__Cr@std@@$$BY02D@absl@@YA?AV?$basic_string@DU?$char_traits@D@__Cr@std@@V?$allocator@D@23@@__Cr@std@@ABVAlphaNum@0@0000ABV123@AAY02$$CBD@Z
    ??$StrCat@V?$basic_string@DU?$char_traits@D@__Cr@std@@V?$allocator@D@23@@__Cr@std@@$$BY03D@absl@@YA?AV?$basic_string@DU?$char_traits@D@__Cr@std@@V?$allocator@D@23@@__Cr@std@@ABVAlphaNum@0@0000ABV123@AAY03$$CBD@Z
    ??$StrCat@V?$basic_string@DU?$char_traits@D@__Cr@std@@V?$allocator@D@23@@__Cr@std@@$$BY0BO@DV123@@absl@@YA?AV?$basic_string@DU?$char_traits@D@__Cr@std@@V?$allocator@D@23@@__Cr@std@@ABVAlphaNum@0@0000ABV123@AAY0BO@$$CBD1@Z
    ??$StrCat@V?$basic_string@DU?$char_traits@D@__Cr@std@@V?$allocator@D@23@@__Cr@std@@$$BY0LD@D@absl@@YA?AV?$basic_string@DU?$char_traits@D@__Cr@std@@V?$allocator@D@23@@__Cr@std@@ABVAlphaNum@0@0000ABV123@AAY0LD@$$CBD@Z
    ??$StrReplaceAll@V?$initializer_list@U?$pair@V?$basic_string_view@DU?$char_traits@D@__Cr@std@@@__Cr@std@@V123@@__Cr@std@@@std@@@absl@@YA?AV?$basic_string@DU?$char_traits@D@__Cr@std@@V?$allocator@D@23@@__Cr@std@@V?$basic_string_view@DU?$char_traits@D@__Cr@std@@@23@ABV?$initializer_list@U?$pair@V?$basic_string_view@DU?$char_traits@D@__Cr@std@@@__Cr@std@@V123@@__Cr@std@@@3@@Z
    ??$StrReplaceAll@V?$initializer_list@U?$pair@V?$basic_string_view@DU?$char_traits@D@__Cr@std@@@__Cr@std@@V123@@__Cr@std@@@std@@@absl@@YAHABV?$initializer_list@U?$pair@V?$basic_string_view@DU?$char_traits@D@__Cr@std@@@__Cr@std@@V123@@__Cr@std@@@std@@PAV?$basic_string@DU?$char_traits@D@__Cr@std@@V?$allocator@D@23@@__Cr@2@@Z
    ??$StrSplit@VByAnyChar@absl@@@absl@@YA?AV?$Splitter@VByAnyChar@absl@@UAllowEmpty@2@V?$basic_string_view@DU?$char_traits@D@__Cr@std@@@__Cr@std@@@strings_internal@0@VConvertibleToStringView@20@VByAnyChar@0@@Z
    ??$StrSplit@VByAnyChar@absl@@USkipEmpty@2@@absl@@YA?AV?$Splitter@VByAnyChar@absl@@USkipEmpty@2@V?$basic_string_view@DU?$char_traits@D@__Cr@std@@@__Cr@std@@@strings_internal@0@VConvertibleToStringView@20@VByAnyChar@0@USkipEmpty@0@@Z
    ??$TransferRelocatable@$0M@@container_internal@absl@@YAXPAX00@Z
    ??$TypeErasedApplyToSlotFn@UStringHash@container_internal@absl@@V?$basic_string_view@DU?$char_traits@D@__Cr@std@@@__Cr@std@@@container_internal@absl@@YAIPBXPAX@Z
    ??$UnparseFloatingPointVal@M@flags_internal@absl@@YA?AV?$basic_string@DU?$char_traits@D@__Cr@std@@V?$allocator@D@23@@__Cr@std@@M@Z
    ??$UnparseFloatingPointVal@N@flags_internal@absl@@YA?AV?$basic_string@DU?$char_traits@D@__Cr@std@@V?$allocator@D@23@@__Cr@std@@N@Z
    ??$__append_with_size@V?$__deque_iterator@UPrefixCrc@CrcCordState@crc_internal@absl@@PBU1234@ABU1234@PBQBU1234@H$0A@@__Cr@std@@@?$deque@UPrefixCrc@CrcCordState@crc_internal@absl@@V?$allocator@UPrefixCrc@CrcCordState@crc_internal@absl@@@__Cr@std@@@__Cr@std@@AAEXV?$__deque_iterator@UPrefixCrc@CrcCordState@crc_internal@absl@@PBU1234@ABU1234@PBQBU1234@H$0A@@12@I@Z
    ??$__assign_with_size_random_access@V?$__deque_iterator@UPrefixCrc@CrcCordState@crc_internal@absl@@PBU1234@ABU1234@PBQBU1234@H$0A@@__Cr@std@@@?$deque@UPrefixCrc@CrcCordState@crc_internal@absl@@V?$allocator@UPrefixCrc@CrcCordState@crc_internal@absl@@@__Cr@std@@@__Cr@std@@AAEXV?$__deque_iterator@UPrefixCrc@CrcCordState@crc_internal@absl@@PBU1234@ABU1234@PBQBU1234@H$0A@@12@H@Z
    ??$__call_impl@V?$__default_alloc_func@V<lambda_1>@?0??SaveFromRegistry@FlagSaverImpl@flags_internal@absl@@QAEXXZ@$$A6AXAAVCommandLineFlag@5@@Z@__function@__Cr@std@@@?$__policy_invoker@$$A6AXAAVCommandLineFlag@absl@@@Z@__function@__Cr@std@@CAXPBT__policy_storage@123@AAVCommandLineFlag@absl@@@Z
    ??$__do_rehash@$00@?$__hash_table@PBUCordRep@cord_internal@absl@@U?$hash@PBUCordRep@cord_internal@absl@@@__Cr@std@@U?$equal_to@PBUCordRep@cord_internal@absl@@@56@V?$allocator@PBUCordRep@cord_internal@absl@@@56@@__Cr@std@@AAEXI@Z
    ??$__do_rehash@$00@?$__hash_table@U?$__hash_value_type@V?$basic_string@DU?$char_traits@D@__Cr@std@@V?$allocator@D@23@@__Cr@std@@PBVImpl@time_zone@cctz@time_internal@absl@@@__Cr@std@@V?$__unordered_map_hasher@V?$basic_string@DU?$char_traits@D@__Cr@std@@V?$allocator@D@23@@__Cr@std@@U?$__hash_value_type@V?$basic_string@DU?$char_traits@D@__Cr@std@@V?$allocator@D@23@@__Cr@std@@PBVImpl@time_zone@cctz@time_internal@absl@@@23@U?$hash@V?$basic_string@DU?$char_traits@D@__Cr@std@@V?$allocator@D@23@@__Cr@std@@@23@U?$equal_to@V?$basic_string@DU?$char_traits@D@__Cr@std@@V?$allocator@D@23@@__Cr@std@@@23@$00@23@V?$__unordered_map_equal@V?$basic_string@DU?$char_traits@D@__Cr@std@@V?$allocator@D@23@@__Cr@std@@U?$__hash_value_type@V?$basic_string@DU?$char_traits@D@__Cr@std@@V?$allocator@D@23@@__Cr@std@@PBVImpl@time_zone@cctz@time_internal@absl@@@23@U?$equal_to@V?$basic_string@DU?$char_traits@D@__Cr@std@@V?$allocator@D@23@@__Cr@std@@@23@U?$hash@V?$basic_string@DU?$char_traits@D@__Cr@std@@V?$allocator@D@23@@__Cr@std@@@23@$00@23@V?$allocator@U?$__hash_value_type@V?$basic_string@DU?$char_traits@D@__Cr@std@@V?$allocator@D@23@@__Cr@std@@PBVImpl@time_zone@cctz@time_internal@absl@@@__Cr@std@@@23@@__Cr@std@@AAEXI@Z
    ??$__emplace_back_slow_path@AAV?$basic_string_view@DU?$char_traits@D@__Cr@std@@@__Cr@std@@ABV123@AAI@?$vector@UViableSubstitution@strings_internal@absl@@V?$allocator@UViableSubstitution@strings_internal@absl@@@__Cr@std@@@__Cr@std@@AAEPAUViableSubstitution@strings_internal@absl@@AAV?$basic_string_view@DU?$char_traits@D@__Cr@std@@@12@ABV612@AAI@Z
    ??$__emplace_back_slow_path@W4Source@UnrecognizedFlag@absl@@AAV?$basic_string_view@DU?$char_traits@D@__Cr@std@@@__Cr@std@@@?$vector@UUnrecognizedFlag@absl@@V?$allocator@UUnrecognizedFlag@absl@@@__Cr@std@@@__Cr@std@@AAEPAUUnrecognizedFlag@absl@@$$QAW4Source@34@AAV?$basic_string_view@DU?$char_traits@D@__Cr@std@@@12@@Z
    ??$__emplace_unique_key_args@PBUCordRep@cord_internal@absl@@ABQBU123@@?$__hash_table@PBUCordRep@cord_internal@absl@@U?$hash@PBUCordRep@cord_internal@absl@@@__Cr@std@@U?$equal_to@PBUCordRep@cord_internal@absl@@@56@V?$allocator@PBUCordRep@cord_internal@absl@@@56@@__Cr@std@@QAE?AU?$pair@V?$__hash_iterator@PAU?$__hash_node@PBUCordRep@cord_internal@absl@@PAX@__Cr@std@@@__Cr@std@@_N@12@ABQBUCordRep@cord_internal@absl@@0@Z
    ??$__emplace_unique_key_args@V?$basic_string@DU?$char_traits@D@__Cr@std@@V?$allocator@D@23@@__Cr@std@@ABUpiecewise_construct_t@23@V?$tuple@$$QAV?$basic_string@DU?$char_traits@D@__Cr@std@@V?$allocator@D@23@@__Cr@std@@@23@V?$tuple@$$V@23@@?$__tree@U?$__value_type@V?$basic_string@DU?$char_traits@D@__Cr@std@@V?$allocator@D@23@@__Cr@std@@V?$map@V?$basic_string@DU?$char_traits@D@__Cr@std@@V?$allocator@D@23@@__Cr@std@@V?$vector@PBVCommandLineFlag@absl@@V?$allocator@PBVCommandLineFlag@absl@@@__Cr@std@@@23@U?$less@V?$basic_string@DU?$char_traits@D@__Cr@std@@V?$allocator@D@23@@__Cr@std@@@23@V?$allocator@U?$pair@$$CBV?$basic_string@DU?$char_traits@D@__Cr@std@@V?$allocator@D@23@@__Cr@std@@V?$vector@PBVCommandLineFlag@absl@@V?$allocator@PBVCommandLineFlag@absl@@@__Cr@std@@@23@@__Cr@std@@@23@@23@@__Cr@std@@V?$__map_value_compare@V?$basic_string@DU?$char_traits@D@__Cr@std@@V?$allocator@D@23@@__Cr@std@@U?$__value_type@V?$basic_string@DU?$char_traits@D@__Cr@std@@V?$allocator@D@23@@__Cr@std@@V?$map@V?$basic_string@DU?$char_traits@D@__Cr@std@@V?$allocator@D@23@@__Cr@std@@V?$vector@PBVCommandLineFlag@absl@@V?$allocator@PBVCommandLineFlag@absl@@@__Cr@std@@@23@U?$less@V?$basic_string@DU?$char_traits@D@__Cr@std@@V?$allocator@D@23@@__Cr@std@@@23@V?$allocator@U?$pair@$$CBV?$basic_string@DU?$char_traits@D@__Cr@std@@V?$allocator@D@23@@__Cr@std@@V?$vector@PBVCommandLineFlag@absl@@V?$allocator@PBVCommandLineFlag@absl@@@__Cr@std@@@23@@__Cr@std@@@23@@23@@23@U?$less@V?$basic_string@DU?$char_traits@D@__Cr@std@@V?$allocator@D@23@@__Cr@std@@@23@$00@23@V?$allocator@U?$__value_type@V?$basic_string@DU?$char_traits@D@__Cr@std@@V?$allocator@D@23@@__Cr@std@@V?$map@V?$basic_string@DU?$char_traits@D@__Cr@std@@V?$allocator@D@23@@__Cr@std@@V?$vector@PBVCommandLineFlag@absl@@V?$allocator@PBVCommandLineFlag@absl@@@__Cr@std@@@23@U?$less@V?$basic_string@DU?$char_traits@D@__Cr@std@@V?$allocator@D@23@@__Cr@std@@@23@V?$allocator@U?$pair@$$CBV?$basic_string@DU?$char_traits@D@__Cr@std@@V?$allocator@D@23@@__Cr@std@@V?$vector@PBVCommandLineFlag@absl@@V?$allocator@PBVCommandLineFlag@absl@@@__Cr@std@@@23@@__Cr@std@@@23@@23@@__Cr@std@@@23@@__Cr@std@@QAE?AU?$pair@V?$__tree_iterator@U?$__value_type@V?$basic_string@DU?$char_traits@D@__Cr@std@@V?$allocator@D@23@@__Cr@std@@V?$map@V?$basic_string@DU?$char_traits@D@__Cr@std@@V?$allocator@D@23@@__Cr@std@@V?$vector@PBVCommandLineFlag@absl@@V?$allocator@PBVCommandLineFlag@absl@@@__Cr@std@@@23@U?$less@V?$basic_string@DU?$char_traits@D@__Cr@std@@V?$allocator@D@23@@__Cr@std@@@23@V?$allocator@U?$pair@$$CBV?$basic_string@DU?$char_traits@D@__Cr@std@@V?$allocator@D@23@@__Cr@std@@V?$vector@PBVCommandLineFlag@absl@@V?$allocator@PBVCommandLineFlag@absl@@@__Cr@std@@@23@@__Cr@std@@@23@@23@@__Cr@std@@PAV?$__tree_node@U?$__value_type@V?$basic_string@DU?$char_traits@D@__Cr@std@@V?$allocator@D@23@@__Cr@std@@V?$map@V?$basic_string@DU?$char_traits@D@__Cr@std@@V?$allocator@D@23@@__Cr@std@@V?$vector@PBVCommandLineFlag@absl@@V?$allocator@PBVCommandLineFlag@absl@@@__Cr@std@@@23@U?$less@V?$basic_string@DU?$char_traits@D@__Cr@std@@V?$allocator@D@23@@__Cr@std@@@23@V?$allocator@U?$pair@$$CBV?$basic_string@DU?$char_traits@D@__Cr@std@@V?$allocator@D@23@@__Cr@std@@V?$vector@PBVCommandLineFlag@absl@@V?$allocator@PBVCommandLineFlag@absl@@@__Cr@std@@@23@@__Cr@std@@@23@@23@@__Cr@std@@PAX@23@H@__Cr@std@@_N@12@ABV?$basic_string@DU?$char_traits@D@__Cr@std@@V?$allocator@D@23@@12@ABUpiecewise_construct_t@12@$$QAV?$tuple@$$QAV?$basic_string@DU?$char_traits@D@__Cr@std@@V?$allocator@D@23@@__Cr@std@@@12@$$QAV?$tuple@$$V@12@@Z
    ??$__emplace_unique_key_args@V?$basic_string@DU?$char_traits@D@__Cr@std@@V?$allocator@D@23@@__Cr@std@@ABUpiecewise_construct_t@23@V?$tuple@ABV?$basic_string@DU?$char_traits@D@__Cr@std@@V?$allocator@D@23@@__Cr@std@@@23@V?$tuple@$$V@23@@?$__hash_table@U?$__hash_value_type@V?$basic_string@DU?$char_traits@D@__Cr@std@@V?$allocator@D@23@@__Cr@std@@PBVImpl@time_zone@cctz@time_internal@absl@@@__Cr@std@@V?$__unordered_map_hasher@V?$basic_string@DU?$char_traits@D@__Cr@std@@V?$allocator@D@23@@__Cr@std@@U?$__hash_value_type@V?$basic_string@DU?$char_traits@D@__Cr@std@@V?$allocator@D@23@@__Cr@std@@PBVImpl@time_zone@cctz@time_internal@absl@@@23@U?$hash@V?$basic_string@DU?$char_traits@D@__Cr@std@@V?$allocator@D@23@@__Cr@std@@@23@U?$equal_to@V?$basic_string@DU?$char_traits@D@__Cr@std@@V?$allocator@D@23@@__Cr@std@@@23@$00@23@V?$__unordered_map_equal@V?$basic_string@DU?$char_traits@D@__Cr@std@@V?$allocator@D@23@@__Cr@std@@U?$__hash_value_type@V?$basic_string@DU?$char_traits@D@__Cr@std@@V?$allocator@D@23@@__Cr@std@@PBVImpl@time_zone@cctz@time_internal@absl@@@23@U?$equal_to@V?$basic_string@DU?$char_traits@D@__Cr@std@@V?$allocator@D@23@@__Cr@std@@@23@U?$hash@V?$basic_string@DU?$char_traits@D@__Cr@std@@V?$allocator@D@23@@__Cr@std@@@23@$00@23@V?$allocator@U?$__hash_value_type@V?$basic_string@DU?$char_traits@D@__Cr@std@@V?$allocator@D@23@@__Cr@std@@PBVImpl@time_zone@cctz@time_internal@absl@@@__Cr@std@@@23@@__Cr@std@@QAE?AU?$pair@V?$__hash_iterator@PAU?$__hash_node@U?$__hash_value_type@V?$basic_string@DU?$char_traits@D@__Cr@std@@V?$allocator@D@23@@__Cr@std@@PBVImpl@time_zone@cctz@time_internal@absl@@@__Cr@std@@PAX@__Cr@std@@@__Cr@std@@_N@12@ABV?$basic_string@DU?$char_traits@D@__Cr@std@@V?$allocator@D@23@@12@ABUpiecewise_construct_t@12@$$QAV?$tuple@ABV?$basic_string@DU?$char_traits@D@__Cr@std@@V?$allocator@D@23@@__Cr@std@@@12@$$QAV?$tuple@$$V@12@@Z
    ??$__emplace_unique_key_args@V?$basic_string@DU?$char_traits@D@__Cr@std@@V?$allocator@D@23@@__Cr@std@@ABUpiecewise_construct_t@23@V?$tuple@ABV?$basic_string@DU?$char_traits@D@__Cr@std@@V?$allocator@D@23@@__Cr@std@@@23@V?$tuple@$$V@23@@?$__tree@U?$__value_type@V?$basic_string@DU?$char_traits@D@__Cr@std@@V?$allocator@D@23@@__Cr@std@@V?$vector@PBVCommandLineFlag@absl@@V?$allocator@PBVCommandLineFlag@absl@@@__Cr@std@@@23@@__Cr@std@@V?$__map_value_compare@V?$basic_string@DU?$char_traits@D@__Cr@std@@V?$allocator@D@23@@__Cr@std@@U?$__value_type@V?$basic_string@DU?$char_traits@D@__Cr@std@@V?$allocator@D@23@@__Cr@std@@V?$vector@PBVCommandLineFlag@absl@@V?$allocator@PBVCommandLineFlag@absl@@@__Cr@std@@@23@@23@U?$less@V?$basic_string@DU?$char_traits@D@__Cr@std@@V?$allocator@D@23@@__Cr@std@@@23@$00@23@V?$allocator@U?$__value_type@V?$basic_string@DU?$char_traits@D@__Cr@std@@V?$allocator@D@23@@__Cr@std@@V?$vector@PBVCommandLineFlag@absl@@V?$allocator@PBVCommandLineFlag@absl@@@__Cr@std@@@23@@__Cr@std@@@23@@__Cr@std@@QAE?AU?$pair@V?$__tree_iterator@U?$__value_type@V?$basic_string@DU?$char_traits@D@__Cr@std@@V?$allocator@D@23@@__Cr@std@@V?$vector@PBVCommandLineFlag@absl@@V?$allocator@PBVCommandLineFlag@absl@@@__Cr@std@@@23@@__Cr@std@@PAV?$__tree_node@U?$__value_type@V?$basic_string@DU?$char_traits@D@__Cr@std@@V?$allocator@D@23@@__Cr@std@@V?$vector@PBVCommandLineFlag@absl@@V?$allocator@PBVCommandLineFlag@absl@@@__Cr@std@@@23@@__Cr@std@@PAX@23@H@__Cr@std@@_N@12@ABV?$basic_string@DU?$char_traits@D@__Cr@std@@V?$allocator@D@23@@12@ABUpiecewise_construct_t@12@$$QAV?$tuple@ABV?$basic_string@DU?$char_traits@D@__Cr@std@@V?$allocator@D@23@@__Cr@std@@@12@$$QAV?$tuple@$$V@12@@Z
    ??$__for_each_segment@V?$__deque_iterator@UPrefixCrc@CrcCordState@crc_internal@absl@@PBU1234@ABU1234@PBQBU1234@H$0A@@__Cr@std@@U?$_CopySegment@V?$__deque_iterator@UPrefixCrc@CrcCordState@crc_internal@absl@@PBU1234@ABU1234@PBQBU1234@H$0A@@__Cr@std@@V?$__deque_iterator@UPrefixCrc@CrcCordState@crc_internal@absl@@PAU1234@AAU1234@PAPAU1234@H$0A@@23@@?$__copy_impl@U_ClassicAlgPolicy@__Cr@std@@@23@@__Cr@std@@YAXV?$__deque_iterator@UPrefixCrc@CrcCordState@crc_internal@absl@@PBU1234@ABU1234@PBQBU1234@H$0A@@01@0U?$_CopySegment@V?$__deque_iterator@UPrefixCrc@CrcCordState@crc_internal@absl@@PBU1234@ABU1234@PBQBU1234@H$0A@@__Cr@std@@V?$__deque_iterator@UPrefixCrc@CrcCordState@crc_internal@absl@@PAU1234@AAU1234@PAPAU1234@H$0A@@23@@?$__copy_impl@U_ClassicAlgPolicy@__Cr@std@@@01@@Z
    ??$__insert_with_size@V?$__wrap_iter@PAUraw_view@?1???R?$ConvertToContainer@V?$vector@V?$basic_string_view@DU?$char_traits@D@__Cr@std@@@__Cr@std@@V?$allocator@V?$basic_string_view@DU?$char_traits@D@__Cr@std@@@__Cr@std@@@23@@__Cr@std@@V?$basic_string_view@DU?$char_traits@D@__Cr@std@@@23@$0A@@?$Splitter@VByChar@absl@@UAllowEmpty@2@V?$basic_string_view@DU?$char_traits@D@__Cr@std@@@__Cr@std@@@strings_internal@absl@@QBE?AV?$vector@V?$basic_string_view@DU?$char_traits@D@__Cr@std@@@__Cr@std@@V?$allocator@V?$basic_string_view@DU?$char_traits@D@__Cr@std@@@__Cr@std@@@23@@__Cr@std@@ABV345@@Z@@__Cr@std@@V123@@?$vector@V?$basic_string_view@DU?$char_traits@D@__Cr@std@@@__Cr@std@@V?$allocator@V?$basic_string_view@DU?$char_traits@D@__Cr@std@@@__Cr@std@@@23@@__Cr@std@@AAE?AV?$__wrap_iter@PAV?$basic_string_view@DU?$char_traits@D@__Cr@std@@@__Cr@std@@@12@V?$__wrap_iter@PBV?$basic_string_view@DU?$char_traits@D@__Cr@std@@@__Cr@std@@@12@V?$__wrap_iter@PAUraw_view@?1???R?$ConvertToContainer@V?$vector@V?$basic_string_view@DU?$char_traits@D@__Cr@std@@@__Cr@std@@V?$allocator@V?$basic_string_view@DU?$char_traits@D@__Cr@std@@@__Cr@std@@@23@@__Cr@std@@V?$basic_string_view@DU?$char_traits@D@__Cr@std@@@23@$0A@@?$Splitter@VByChar@absl@@UAllowEmpty@2@V?$basic_string_view@DU?$char_traits@D@__Cr@std@@@__Cr@std@@@strings_internal@absl@@QBE?AV?$vector@V?$basic_string_view@DU?$char_traits@D@__Cr@std@@@__Cr@std@@V?$allocator@V?$basic_string_view@DU?$char_traits@D@__Cr@std@@@__Cr@std@@@23@@__Cr@std@@ABV345@@Z@@12@1H@Z
    ??$__push_back_slow_path@ABUUnrecognizedFlag@absl@@@?$vector@UUnrecognizedFlag@absl@@V?$allocator@UUnrecognizedFlag@absl@@@__Cr@std@@@__Cr@std@@AAEPAUUnrecognizedFlag@absl@@ABU34@@Z
    ??$emplace@$$V@?$vector@UTransition@cctz@time_internal@absl@@V?$allocator@UTransition@cctz@time_internal@absl@@@__Cr@std@@@__Cr@std@@QAE?AV?$__wrap_iter@PAUTransition@cctz@time_internal@absl@@@12@V?$__wrap_iter@PBUTransition@cctz@time_internal@absl@@@12@@Z
    ??$emplace@$$V@?$vector@UTransitionType@cctz@time_internal@absl@@V?$allocator@UTransitionType@cctz@time_internal@absl@@@__Cr@std@@@__Cr@std@@QAE?AV?$__wrap_iter@PAUTransitionType@cctz@time_internal@absl@@@12@V?$__wrap_iter@PBUTransitionType@cctz@time_internal@absl@@@12@@Z
    ??$emplace_back@$$V@?$__split_buffer@UTransition@cctz@time_internal@absl@@AAV?$allocator@UTransition@cctz@time_internal@absl@@@__Cr@std@@@__Cr@std@@QAEXXZ
    ??$emplace_back@$$V@?$__split_buffer@UTransitionType@cctz@time_internal@absl@@AAV?$allocator@UTransitionType@cctz@time_internal@absl@@@__Cr@std@@@__Cr@std@@QAEXXZ
    ??$emplace_back@HVcrc32c_t@absl@@@?$deque@UPrefixCrc@CrcCordState@crc_internal@absl@@V?$allocator@UPrefixCrc@CrcCordState@crc_internal@absl@@@__Cr@std@@@__Cr@std@@QAEAAUPrefixCrc@CrcCordState@crc_internal@absl@@$$QAH$$QAVcrc32c_t@6@@Z
    ??$emplace_back@V?$unique_ptr@VFlagStateInterface@flags_internal@absl@@U?$default_delete@VFlagStateInterface@flags_internal@absl@@@__Cr@std@@@__Cr@std@@@?$vector@V?$unique_ptr@VFlagStateInterface@flags_internal@absl@@U?$default_delete@VFlagStateInterface@flags_internal@absl@@@__Cr@std@@@__Cr@std@@V?$allocator@V?$unique_ptr@VFlagStateInterface@flags_internal@absl@@U?$default_delete@VFlagStateInterface@flags_internal@absl@@@__Cr@std@@@__Cr@std@@@23@@__Cr@std@@QAEAAV?$unique_ptr@VFlagStateInterface@flags_internal@absl@@U?$default_delete@VFlagStateInterface@flags_internal@absl@@@__Cr@std@@@12@$$QAV312@@Z
    ??$find@V?$basic_string@DU?$char_traits@D@__Cr@std@@V?$allocator@D@23@@__Cr@std@@@?$__hash_table@U?$__hash_value_type@V?$basic_string@DU?$char_traits@D@__Cr@std@@V?$allocator@D@23@@__Cr@std@@PBVImpl@time_zone@cctz@time_internal@absl@@@__Cr@std@@V?$__unordered_map_hasher@V?$basic_string@DU?$char_traits@D@__Cr@std@@V?$allocator@D@23@@__Cr@std@@U?$__hash_value_type@V?$basic_string@DU?$char_traits@D@__Cr@std@@V?$allocator@D@23@@__Cr@std@@PBVImpl@time_zone@cctz@time_internal@absl@@@23@U?$hash@V?$basic_string@DU?$char_traits@D@__Cr@std@@V?$allocator@D@23@@__Cr@std@@@23@U?$equal_to@V?$basic_string@DU?$char_traits@D@__Cr@std@@V?$allocator@D@23@@__Cr@std@@@23@$00@23@V?$__unordered_map_equal@V?$basic_string@DU?$char_traits@D@__Cr@std@@V?$allocator@D@23@@__Cr@std@@U?$__hash_value_type@V?$basic_string@DU?$char_traits@D@__Cr@std@@V?$allocator@D@23@@__Cr@std@@PBVImpl@time_zone@cctz@time_internal@absl@@@23@U?$equal_to@V?$basic_string@DU?$char_traits@D@__Cr@std@@V?$allocator@D@23@@__Cr@std@@@23@U?$hash@V?$basic_string@DU?$char_traits@D@__Cr@std@@V?$allocator@D@23@@__Cr@std@@@23@$00@23@V?$allocator@U?$__hash_value_type@V?$basic_string@DU?$char_traits@D@__Cr@std@@V?$allocator@D@23@@__Cr@std@@PBVImpl@time_zone@cctz@time_internal@absl@@@__Cr@std@@@23@@__Cr@std@@QAE?AV?$__hash_iterator@PAU?$__hash_node@U?$__hash_value_type@V?$basic_string@DU?$char_traits@D@__Cr@std@@V?$allocator@D@23@@__Cr@std@@PBVImpl@time_zone@cctz@time_internal@absl@@@__Cr@std@@PAX@__Cr@std@@@12@ABV?$basic_string@DU?$char_traits@D@__Cr@std@@V?$allocator@D@23@@12@@Z
    ??$find@V?$basic_string_view@DU?$char_traits@D@__Cr@std@@@__Cr@std@@@?$raw_hash_set@U?$FlatHashMapPolicy@V?$basic_string_view@DU?$char_traits@D@__Cr@std@@@__Cr@std@@PAVCommandLineFlag@absl@@@container_internal@absl@@UStringHash@23@UStringEq@23@V?$allocator@U?$pair@$$CBV?$basic_string_view@DU?$char_traits@D@__Cr@std@@@__Cr@std@@PAVCommandLineFlag@absl@@@__Cr@std@@@__Cr@std@@@container_internal@absl@@QAE?AViterator@012@ABV?$basic_string_view@DU?$char_traits@D@__Cr@std@@@__Cr@std@@@Z
    ??$find_first_non_full@X@container_internal@absl@@YA?AUFindInfo@01@ABVCommonFields@01@I@Z
    ??$find_or_prepare_insert_non_soo@V?$basic_string_view@DU?$char_traits@D@__Cr@std@@@__Cr@std@@@?$raw_hash_set@U?$FlatHashMapPolicy@V?$basic_string_view@DU?$char_traits@D@__Cr@std@@@__Cr@std@@PAVCommandLineFlag@absl@@@container_internal@absl@@UStringHash@23@UStringEq@23@V?$allocator@U?$pair@$$CBV?$basic_string_view@DU?$char_traits@D@__Cr@std@@@__Cr@std@@PAVCommandLineFlag@absl@@@__Cr@std@@@__Cr@std@@@container_internal@absl@@AAE?AU?$pair@Viterator@?$raw_hash_set@U?$FlatHashMapPolicy@V?$basic_string_view@DU?$char_traits@D@__Cr@std@@@__Cr@std@@PAVCommandLineFlag@absl@@@container_internal@absl@@UStringHash@23@UStringEq@23@V?$allocator@U?$pair@$$CBV?$basic_string_view@DU?$char_traits@D@__Cr@std@@@__Cr@std@@PAVCommandLineFlag@absl@@@__Cr@std@@@__Cr@std@@@container_internal@absl@@_N@__Cr@std@@ABV?$basic_string_view@DU?$char_traits@D@__Cr@std@@@45@@Z
    ??0?$BigUnsigned@$03@strings_internal@absl@@QAE@V?$basic_string_view@DU?$char_traits@D@__Cr@std@@@__Cr@std@@@Z
    ??0?$BigUnsigned@$03@strings_internal@absl@@QAE@XZ
    ??0?$BigUnsigned@$03@strings_internal@absl@@QAE@_K@Z
    ??0?$BigUnsigned@$0FE@@strings_internal@absl@@QAE@V?$basic_string_view@DU?$char_traits@D@__Cr@std@@@__Cr@std@@@Z
    ??0?$BigUnsigned@$0FE@@strings_internal@absl@@QAE@XZ
    ??0?$BigUnsigned@$0FE@@strings_internal@absl@@QAE@_K@Z
    ??0?$RandenPool@E@random_internal@absl@@QAE@XZ
    ??0?$RandenPool@G@random_internal@absl@@QAE@XZ
    ??0?$RandenPool@I@random_internal@absl@@QAE@XZ
    ??0?$RandenPool@_K@random_internal@absl@@QAE@XZ
    ??0AlphaNum@absl@@QAE@H@Z
    ??0AlphaNum@absl@@QAE@I@Z
    ??0AlphaNum@absl@@QAE@PBD@Z
    ??0Arena@LowLevelAlloc@base_internal@absl@@QAE@I@Z
    ??0Arg@substitute_internal@absl@@QAE@PBX@Z
    ??0Arg@substitute_internal@absl@@QAE@UDec@2@@Z
    ??0Arg@substitute_internal@absl@@QAE@UHex@2@@Z
    ??0BadStatusOrAccess@absl@@QAE@$$QAV01@@Z
    ??0BadStatusOrAccess@absl@@QAE@ABV01@@Z
    ??0BadStatusOrAccess@absl@@QAE@VStatus@1@@Z
    ??0BlockingCounter@absl@@QAE@H@Z
    ??0ByAnyChar@absl@@QAE@V?$basic_string_view@DU?$char_traits@D@__Cr@std@@@__Cr@std@@@Z
    ??0ByLength@absl@@QAE@H@Z
    ??0ByString@absl@@QAE@V?$basic_string_view@DU?$char_traits@D@__Cr@std@@@__Cr@std@@@Z
    ??0CRC@crc_internal@absl@@IAE@XZ
    ??0CheckOpMessageBuilder@log_internal@absl@@QAE@PBD@Z
    ??0Condition@absl@@QAE@P6A_NPAX@Z0@Z
    ??0Condition@absl@@QAE@PB_N@Z
    ??0Cord@absl@@AAE@V?$basic_string_view@DU?$char_traits@D@__Cr@std@@@__Cr@std@@W4MethodIdentifier@CordzUpdateTracker@cord_internal@1@@Z
    ??0Cord@absl@@QAE@ABV01@@Z
    ??0CordzHandle@cord_internal@absl@@IAE@_N@Z
    ??0CordzInfo@cord_internal@absl@@AAE@PAUCordRep@12@PBV012@W4MethodIdentifier@CordzUpdateTracker@12@_J@Z
    ??0CrcCordState@crc_internal@absl@@QAE@$$QAV012@@Z
    ??0CrcCordState@crc_internal@absl@@QAE@ABV012@@Z
    ??0CrcCordState@crc_internal@absl@@QAE@XZ
    ??0DynValueDeleter@flags_internal@absl@@QAE@P6APAXW4FlagOp@12@PBXPAX2@Z@Z
    ??0FlagSaver@absl@@QAE@XZ
    ??0GraphCycles@synchronization_internal@absl@@QAE@XZ
    ??0HashtablezInfo@container_internal@absl@@QAE@XZ
    ??0Impl@time_zone@cctz@time_internal@absl@@AAE@ABV?$basic_string@DU?$char_traits@D@__Cr@std@@V?$allocator@D@23@@__Cr@std@@@Z
    ??0Impl@time_zone@cctz@time_internal@absl@@AAE@XZ
    ??0KernelTimeout@synchronization_internal@absl@@QAE@VDuration@2@@Z
    ??0KernelTimeout@synchronization_internal@absl@@QAE@VTime@2@@Z
    ??0LogMessage@log_internal@absl@@QAE@PBDHUErrorTag@012@@Z
    ??0LogMessage@log_internal@absl@@QAE@PBDHUInfoTag@012@@Z
    ??0LogMessage@log_internal@absl@@QAE@PBDHUWarningTag@012@@Z
    ??0LogMessage@log_internal@absl@@QAE@PBDHW4LogSeverity@2@@Z
    ??0LogMessageData@LogMessage@log_internal@absl@@QAE@PBDHW4LogSeverity@3@VTime@3@@Z
    ??0LogMessageDebugFatal@log_internal@absl@@QAE@PBDH@Z
    ??0LogMessageFatal@log_internal@absl@@QAE@PBDH@Z
    ??0LogMessageFatal@log_internal@absl@@QAE@PBDHV?$basic_string_view@DU?$char_traits@D@__Cr@std@@@__Cr@std@@@Z
    ??0LogMessageQuietlyDebugFatal@log_internal@absl@@QAE@PBDH@Z
    ??0LogMessageQuietlyFatal@log_internal@absl@@QAE@PBDH@Z
    ??0LogMessageQuietlyFatal@log_internal@absl@@QAE@PBDHV?$basic_string_view@DU?$char_traits@D@__Cr@std@@@__Cr@std@@@Z
    ??0OstreamView@LogMessage@log_internal@absl@@QAE@AAULogMessageData@123@@Z
    ??0ParsedFormatBase@str_format_internal@absl@@QAE@V?$basic_string_view@DU?$char_traits@D@__Cr@std@@@__Cr@std@@_NV?$initializer_list@W4FormatConversionCharSet@absl@@@5@@Z
    ??0Randen@random_internal@absl@@QAE@XZ
    ??0ScopedMinLogLevel@log_internal@absl@@QAE@W4LogSeverityAtLeast@2@@Z
    ??0ScopedStderrThreshold@absl@@QAE@W4LogSeverityAtLeast@1@@Z
    ??0SpinLock@base_internal@absl@@QAE@W4SchedulingMode@12@@Z
    ??0Status@absl@@QAE@W4StatusCode@1@V?$basic_string_view@DU?$char_traits@D@__Cr@std@@@__Cr@std@@@Z
    ??0StdcppWaiter@synchronization_internal@absl@@QAE@XZ
    ??0TimeZoneLibC@cctz@time_internal@absl@@AAE@ABV?$basic_string@DU?$char_traits@D@__Cr@std@@V?$allocator@D@23@@__Cr@std@@@Z
    ??0Win32Waiter@synchronization_internal@absl@@QAE@XZ
    ??0int128@absl@@QAE@M@Z
    ??0int128@absl@@QAE@N@Z
    ??0int128@absl@@QAE@O@Z
    ??0uint128@absl@@QAE@M@Z
    ??0uint128@absl@@QAE@N@Z
    ??0uint128@absl@@QAE@O@Z
    ??1?$deque@UPrefixCrc@CrcCordState@crc_internal@absl@@V?$allocator@UPrefixCrc@CrcCordState@crc_internal@absl@@@__Cr@std@@@__Cr@std@@QAE@XZ
    ??1?$unique_ptr@ULogMessageData@LogMessage@log_internal@absl@@U?$default_delete@ULogMessageData@LogMessage@log_internal@absl@@@__Cr@std@@@__Cr@std@@QAE@XZ
    ??1CRC@crc_internal@absl@@UAE@XZ
    ??1Cord@absl@@QAE@XZ
    ??1CordzHandle@cord_internal@absl@@MAE@XZ
    ??1CordzInfo@cord_internal@absl@@EAE@XZ
    ??1CrcCordState@crc_internal@absl@@QAE@XZ
    ??1FlagSaver@absl@@QAE@XZ
    ??1FlagStateInterface@flags_internal@absl@@UAE@XZ
    ??1GraphCycles@synchronization_internal@absl@@QAE@XZ
    ??1HashtablezInfo@container_internal@absl@@QAE@XZ
    ??1LogMessage@log_internal@absl@@QAE@XZ
    ??1LogMessageDebugFatal@log_internal@absl@@QAE@XZ
    ??1LogMessageFatal@log_internal@absl@@QAE@XZ
    ??1LogMessageQuietlyDebugFatal@log_internal@absl@@QAE@XZ
    ??1LogMessageQuietlyFatal@log_internal@absl@@QAE@XZ
    ??1Mutex@absl@@QAE@XZ
    ??1Notification@absl@@QAE@XZ
    ??1OstreamView@LogMessage@log_internal@absl@@UAE@XZ
    ??1ScopedMinLogLevel@log_internal@absl@@QAE@XZ
    ??1ScopedStderrThreshold@absl@@QAE@XZ
    ??1SeedGenException@absl@@UAE@XZ
    ??1TimeZoneIf@cctz@time_internal@absl@@UAE@XZ
    ??1TimeZoneInfo@cctz@time_internal@absl@@UAE@XZ
    ??1ZoneInfoSource@cctz@time_internal@absl@@UAE@XZ
    ??1bad_variant_access@absl@@UAE@XZ
    ??4BadStatusOrAccess@absl@@QAEAAV01@$$QAV01@@Z
    ??4BadStatusOrAccess@absl@@QAEAAV01@ABV01@@Z
    ??4Cord@absl@@QAEAAV01@V?$basic_string_view@DU?$char_traits@D@__Cr@std@@@__Cr@std@@@Z
    ??4CrcCordState@crc_internal@absl@@QAEAAV012@$$QAV012@@Z
    ??4CrcCordState@crc_internal@absl@@QAEAAV012@ABV012@@Z
    ??4FlagsUsageConfig@absl@@QAEAAU01@ABU01@@Z
    ??6LogMessage@log_internal@absl@@QAEAAV012@ABV?$basic_string@DU?$char_traits@D@__Cr@std@@V?$allocator@D@23@@__Cr@std@@@Z
    ??6LogMessage@log_internal@absl@@QAEAAV012@P6AAAV?$basic_ostream@DU?$char_traits@D@__Cr@std@@@__Cr@std@@AAV345@@Z@Z
    ??6LogMessage@log_internal@absl@@QAEAAV012@P6AAAVios_base@__Cr@std@@AAV345@@Z@Z
    ??6LogMessage@log_internal@absl@@QAEAAV012@V?$basic_string_view@DU?$char_traits@D@__Cr@std@@@__Cr@std@@@Z
    ??6absl@@YAAAV?$basic_ostream@DU?$char_traits@D@__Cr@std@@@__Cr@std@@AAV123@ABVCord@0@@Z
    ??6absl@@YAAAV?$basic_ostream@DU?$char_traits@D@__Cr@std@@@__Cr@std@@AAV123@ABVStatus@0@@Z
    ??6absl@@YAAAV?$basic_ostream@DU?$char_traits@D@__Cr@std@@@__Cr@std@@AAV123@Vint128@0@@Z
    ??6absl@@YAAAV?$basic_ostream@DU?$char_traits@D@__Cr@std@@@__Cr@std@@AAV123@Vuint128@0@@Z
    ??6absl@@YAAAV?$basic_ostream@DU?$char_traits@D@__Cr@std@@@__Cr@std@@AAV123@W4LogSeverity@0@@Z
    ??6absl@@YAAAV?$basic_ostream@DU?$char_traits@D@__Cr@std@@@__Cr@std@@AAV123@W4LogSeverityAtLeast@0@@Z
    ??6absl@@YAAAV?$basic_ostream@DU?$char_traits@D@__Cr@std@@@__Cr@std@@AAV123@W4LogSeverityAtMost@0@@Z
    ??6absl@@YAAAV?$basic_ostream@DU?$char_traits@D@__Cr@std@@@__Cr@std@@AAV123@W4StatusCode@0@@Z
    ??6detail@cctz@time_internal@absl@@YAAAV?$basic_ostream@DU?$char_traits@D@__Cr@std@@@__Cr@std@@AAV456@ABV?$civil_time@Uday_tag@detail@cctz@time_internal@absl@@@0123@@Z
    ??6detail@cctz@time_internal@absl@@YAAAV?$basic_ostream@DU?$char_traits@D@__Cr@std@@@__Cr@std@@AAV456@ABV?$civil_time@Uhour_tag@detail@cctz@time_internal@absl@@@0123@@Z
    ??6detail@cctz@time_internal@absl@@YAAAV?$basic_ostream@DU?$char_traits@D@__Cr@std@@@__Cr@std@@AAV456@ABV?$civil_time@Uminute_tag@detail@cctz@time_internal@absl@@@0123@@Z
    ??6detail@cctz@time_internal@absl@@YAAAV?$basic_ostream@DU?$char_traits@D@__Cr@std@@@__Cr@std@@AAV456@ABV?$civil_time@Umonth_tag@detail@cctz@time_internal@absl@@@0123@@Z
    ??6detail@cctz@time_internal@absl@@YAAAV?$basic_ostream@DU?$char_traits@D@__Cr@std@@@__Cr@std@@AAV456@ABV?$civil_time@Usecond_tag@detail@cctz@time_internal@absl@@@0123@@Z
    ??6detail@cctz@time_internal@absl@@YAAAV?$basic_ostream@DU?$char_traits@D@__Cr@std@@@__Cr@std@@AAV456@ABV?$civil_time@Uyear_tag@detail@cctz@time_internal@absl@@@0123@@Z
    ??6detail@cctz@time_internal@absl@@YAAAV?$basic_ostream@DU?$char_traits@D@__Cr@std@@@__Cr@std@@AAV456@W4weekday@0123@@Z
    ??6time_internal@absl@@YAAAV?$basic_ostream@DU?$char_traits@D@__Cr@std@@@__Cr@std@@AAV234@V?$civil_time@Uday_tag@time_internal@absl@@@detail@cctz@01@@Z
    ??6time_internal@absl@@YAAAV?$basic_ostream@DU?$char_traits@D@__Cr@std@@@__Cr@std@@AAV234@V?$civil_time@Uhour_tag@time_internal@absl@@@detail@cctz@01@@Z
    ??6time_internal@absl@@YAAAV?$basic_ostream@DU?$char_traits@D@__Cr@std@@@__Cr@std@@AAV234@V?$civil_time@Uminute_tag@time_internal@absl@@@detail@cctz@01@@Z
    ??6time_internal@absl@@YAAAV?$basic_ostream@DU?$char_traits@D@__Cr@std@@@__Cr@std@@AAV234@V?$civil_time@Umonth_tag@time_internal@absl@@@detail@cctz@01@@Z
    ??6time_internal@absl@@YAAAV?$basic_ostream@DU?$char_traits@D@__Cr@std@@@__Cr@std@@AAV234@V?$civil_time@Usecond_tag@time_internal@absl@@@detail@cctz@01@@Z
    ??6time_internal@absl@@YAAAV?$basic_ostream@DU?$char_traits@D@__Cr@std@@@__Cr@std@@AAV234@V?$civil_time@Uyear_tag@time_internal@absl@@@detail@cctz@01@@Z
    ??8StatusRep@status_internal@absl@@QBE_NABV012@@Z
    ??ACord@absl@@QBEDI@Z
    ??BCord@absl@@QBE?AV?$basic_string@DU?$char_traits@D@__Cr@std@@V?$allocator@D@23@@__Cr@std@@XZ
    ??Bint128@absl@@QBENXZ
    ??E?$SplitIterator@V?$Splitter@VByAnyChar@absl@@UAllowEmpty@2@V?$basic_string_view@DU?$char_traits@D@__Cr@std@@@__Cr@std@@@strings_internal@absl@@@strings_internal@absl@@QAEAAV012@XZ
    ??E?$SplitIterator@V?$Splitter@VByAnyChar@absl@@USkipEmpty@2@V?$basic_string_view@DU?$char_traits@D@__Cr@std@@@__Cr@std@@@strings_internal@absl@@@strings_internal@absl@@QAEAAV012@XZ
    ??E?$SplitIterator@V?$Splitter@VByChar@absl@@UAllowEmpty@2@V?$basic_string_view@DU?$char_traits@D@__Cr@std@@@__Cr@std@@@strings_internal@absl@@@strings_internal@absl@@QAEAAV012@XZ
    ??Eiterator@?$raw_hash_set@U?$FlatHashMapPolicy@V?$basic_string_view@DU?$char_traits@D@__Cr@std@@@__Cr@std@@PAVCommandLineFlag@absl@@@container_internal@absl@@UStringHash@23@UStringEq@23@V?$allocator@U?$pair@$$CBV?$basic_string_view@DU?$char_traits@D@__Cr@std@@@__Cr@std@@PAVCommandLineFlag@absl@@@__Cr@std@@@__Cr@std@@@container_internal@absl@@QAEAAV0123@XZ
    ??Gdetail@cctz@time_internal@absl@@YA?AV?$civil_time@Usecond_tag@detail@cctz@time_internal@absl@@@0123@V40123@_J@Z
    ??Kabsl@@YA?AVint128@0@V10@0@Z
    ??Kabsl@@YA?AVuint128@0@V10@0@Z
    ??Labsl@@YA?AVint128@0@V10@0@Z
    ??Labsl@@YA?AVuint128@0@V10@0@Z
    ??R?$ConvertToContainer@V?$vector@V?$basic_string@DU?$char_traits@D@__Cr@std@@V?$allocator@D@23@@__Cr@std@@V?$allocator@V?$basic_string@DU?$char_traits@D@__Cr@std@@V?$allocator@D@23@@__Cr@std@@@23@@__Cr@std@@V?$basic_string@DU?$char_traits@D@__Cr@std@@V?$allocator@D@23@@23@$0A@@?$Splitter@VByChar@absl@@UAllowEmpty@2@V?$basic_string_view@DU?$char_traits@D@__Cr@std@@@__Cr@std@@@strings_internal@absl@@QBE?AV?$vector@V?$basic_string@DU?$char_traits@D@__Cr@std@@V?$allocator@D@23@@__Cr@std@@V?$allocator@V?$basic_string@DU?$char_traits@D@__Cr@std@@V?$allocator@D@23@@__Cr@std@@@23@@__Cr@std@@ABV123@@Z
    ??R?$ConvertToContainer@V?$vector@V?$basic_string_view@DU?$char_traits@D@__Cr@std@@@__Cr@std@@V?$allocator@V?$basic_string_view@DU?$char_traits@D@__Cr@std@@@__Cr@std@@@23@@__Cr@std@@V?$basic_string_view@DU?$char_traits@D@__Cr@std@@@23@$0A@@?$Splitter@VByChar@absl@@UAllowEmpty@2@V?$basic_string_view@DU?$char_traits@D@__Cr@std@@@__Cr@std@@@strings_internal@absl@@QBE?AV?$vector@V?$basic_string_view@DU?$char_traits@D@__Cr@std@@@__Cr@std@@V?$allocator@V?$basic_string_view@DU?$char_traits@D@__Cr@std@@@__Cr@std@@@23@@__Cr@std@@ABV123@@Z
    ??R?$RandenPool@E@random_internal@absl@@QAEEXZ
    ??R?$RandenPool@G@random_internal@absl@@QAEGXZ
    ??R?$RandenPool@I@random_internal@absl@@QAEIXZ
    ??R?$RandenPool@_K@random_internal@absl@@QAE_KXZ
    ??RByCivilTime@Transition@cctz@time_internal@absl@@QBE_NABU1234@0@Z
    ??RDynValueDeleter@flags_internal@absl@@QBEXPAX@Z
    ??XDuration@absl@@QAEAAV01@N@Z
    ??XDuration@absl@@QAEAAV01@_J@Z
    ??YDuration@absl@@QAEAAV01@V01@@Z
    ??ZDuration@absl@@QAEAAV01@V01@@Z
    ??_0Duration@absl@@QAEAAV01@N@Z
    ??_0Duration@absl@@QAEAAV01@_J@Z
    ??_1Duration@absl@@QAEAAV01@V01@@Z
    ?AbortedError@absl@@YA?AVStatus@1@V?$basic_string_view@DU?$char_traits@D@__Cr@std@@@__Cr@std@@@Z
    ?AbslParseFlag@absl@@YA_NV?$basic_string_view@DU?$char_traits@D@__Cr@std@@@__Cr@std@@PAVDuration@1@PAV?$basic_string@DU?$char_traits@D@__Cr@std@@V?$allocator@D@23@@34@@Z
    ?AbslParseFlag@absl@@YA_NV?$basic_string_view@DU?$char_traits@D@__Cr@std@@@__Cr@std@@PAVTime@1@PAV?$basic_string@DU?$char_traits@D@__Cr@std@@V?$allocator@D@23@@34@@Z
    ?AbslParseFlag@absl@@YA_NV?$basic_string_view@DU?$char_traits@D@__Cr@std@@@__Cr@std@@PAW4LogSeverity@1@PAV?$basic_string@DU?$char_traits@D@__Cr@std@@V?$allocator@D@23@@34@@Z
    ?AbslParseFlag@flags_internal@absl@@YA_NV?$basic_string_view@DU?$char_traits@D@__Cr@std@@@__Cr@std@@PAFPAV?$basic_string@DU?$char_traits@D@__Cr@std@@V?$allocator@D@23@@45@@Z
    ?AbslParseFlag@flags_internal@absl@@YA_NV?$basic_string_view@DU?$char_traits@D@__Cr@std@@@__Cr@std@@PAGPAV?$basic_string@DU?$char_traits@D@__Cr@std@@V?$allocator@D@23@@45@@Z
    ?AbslParseFlag@flags_internal@absl@@YA_NV?$basic_string_view@DU?$char_traits@D@__Cr@std@@@__Cr@std@@PAHPAV?$basic_string@DU?$char_traits@D@__Cr@std@@V?$allocator@D@23@@45@@Z
    ?AbslParseFlag@flags_internal@absl@@YA_NV?$basic_string_view@DU?$char_traits@D@__Cr@std@@@__Cr@std@@PAIPAV?$basic_string@DU?$char_traits@D@__Cr@std@@V?$allocator@D@23@@45@@Z
    ?AbslParseFlag@flags_internal@absl@@YA_NV?$basic_string_view@DU?$char_traits@D@__Cr@std@@@__Cr@std@@PAJPAV?$basic_string@DU?$char_traits@D@__Cr@std@@V?$allocator@D@23@@45@@Z
    ?AbslParseFlag@flags_internal@absl@@YA_NV?$basic_string_view@DU?$char_traits@D@__Cr@std@@@__Cr@std@@PAKPAV?$basic_string@DU?$char_traits@D@__Cr@std@@V?$allocator@D@23@@45@@Z
    ?AbslParseFlag@flags_internal@absl@@YA_NV?$basic_string_view@DU?$char_traits@D@__Cr@std@@@__Cr@std@@PAMPAV?$basic_string@DU?$char_traits@D@__Cr@std@@V?$allocator@D@23@@45@@Z
    ?AbslParseFlag@flags_internal@absl@@YA_NV?$basic_string_view@DU?$char_traits@D@__Cr@std@@@__Cr@std@@PANPAV?$basic_string@DU?$char_traits@D@__Cr@std@@V?$allocator@D@23@@45@@Z
    ?AbslParseFlag@flags_internal@absl@@YA_NV?$basic_string_view@DU?$char_traits@D@__Cr@std@@@__Cr@std@@PAV?$basic_string@DU?$char_traits@D@__Cr@std@@V?$allocator@D@23@@45@1@Z
    ?AbslParseFlag@flags_internal@absl@@YA_NV?$basic_string_view@DU?$char_traits@D@__Cr@std@@@__Cr@std@@PAV?$vector@V?$basic_string@DU?$char_traits@D@__Cr@std@@V?$allocator@D@23@@__Cr@std@@V?$allocator@V?$basic_string@DU?$char_traits@D@__Cr@std@@V?$allocator@D@23@@__Cr@std@@@23@@45@PAV?$basic_string@DU?$char_traits@D@__Cr@std@@V?$allocator@D@23@@45@@Z
    ?AbslParseFlag@flags_internal@absl@@YA_NV?$basic_string_view@DU?$char_traits@D@__Cr@std@@@__Cr@std@@PAVint128@2@PAV?$basic_string@DU?$char_traits@D@__Cr@std@@V?$allocator@D@23@@45@@Z
    ?AbslParseFlag@flags_internal@absl@@YA_NV?$basic_string_view@DU?$char_traits@D@__Cr@std@@@__Cr@std@@PAVuint128@2@PAV?$basic_string@DU?$char_traits@D@__Cr@std@@V?$allocator@D@23@@45@@Z
    ?AbslParseFlag@flags_internal@absl@@YA_NV?$basic_string_view@DU?$char_traits@D@__Cr@std@@@__Cr@std@@PA_JPAV?$basic_string@DU?$char_traits@D@__Cr@std@@V?$allocator@D@23@@45@@Z
    ?AbslParseFlag@flags_internal@absl@@YA_NV?$basic_string_view@DU?$char_traits@D@__Cr@std@@@__Cr@std@@PA_KPAV?$basic_string@DU?$char_traits@D@__Cr@std@@V?$allocator@D@23@@45@@Z
    ?AbslParseFlag@flags_internal@absl@@YA_NV?$basic_string_view@DU?$char_traits@D@__Cr@std@@@__Cr@std@@PA_NPAV?$basic_string@DU?$char_traits@D@__Cr@std@@V?$allocator@D@23@@45@@Z
    ?AbslParseFlag@time_internal@absl@@YA_NV?$basic_string_view@DU?$char_traits@D@__Cr@std@@@__Cr@std@@PAV?$civil_time@Uday_tag@time_internal@absl@@@detail@cctz@12@PAV?$basic_string@DU?$char_traits@D@__Cr@std@@V?$allocator@D@23@@45@@Z
    ?AbslParseFlag@time_internal@absl@@YA_NV?$basic_string_view@DU?$char_traits@D@__Cr@std@@@__Cr@std@@PAV?$civil_time@Uhour_tag@time_internal@absl@@@detail@cctz@12@PAV?$basic_string@DU?$char_traits@D@__Cr@std@@V?$allocator@D@23@@45@@Z
    ?AbslParseFlag@time_internal@absl@@YA_NV?$basic_string_view@DU?$char_traits@D@__Cr@std@@@__Cr@std@@PAV?$civil_time@Uminute_tag@time_internal@absl@@@detail@cctz@12@PAV?$basic_string@DU?$char_traits@D@__Cr@std@@V?$allocator@D@23@@45@@Z
    ?AbslParseFlag@time_internal@absl@@YA_NV?$basic_string_view@DU?$char_traits@D@__Cr@std@@@__Cr@std@@PAV?$civil_time@Umonth_tag@time_internal@absl@@@detail@cctz@12@PAV?$basic_string@DU?$char_traits@D@__Cr@std@@V?$allocator@D@23@@45@@Z
    ?AbslParseFlag@time_internal@absl@@YA_NV?$basic_string_view@DU?$char_traits@D@__Cr@std@@@__Cr@std@@PAV?$civil_time@Usecond_tag@time_internal@absl@@@detail@cctz@12@PAV?$basic_string@DU?$char_traits@D@__Cr@std@@V?$allocator@D@23@@45@@Z
    ?AbslParseFlag@time_internal@absl@@YA_NV?$basic_string_view@DU?$char_traits@D@__Cr@std@@@__Cr@std@@PAV?$civil_time@Uyear_tag@time_internal@absl@@@detail@cctz@12@PAV?$basic_string@DU?$char_traits@D@__Cr@std@@V?$allocator@D@23@@45@@Z
    ?AbslUnparseFlag@absl@@YA?AV?$basic_string@DU?$char_traits@D@__Cr@std@@V?$allocator@D@23@@__Cr@std@@VDuration@1@@Z
    ?AbslUnparseFlag@absl@@YA?AV?$basic_string@DU?$char_traits@D@__Cr@std@@V?$allocator@D@23@@__Cr@std@@VTime@1@@Z
    ?AbslUnparseFlag@absl@@YA?AV?$basic_string@DU?$char_traits@D@__Cr@std@@V?$allocator@D@23@@__Cr@std@@W4LogSeverity@1@@Z
    ?AbslUnparseFlag@flags_internal@absl@@YA?AV?$basic_string@DU?$char_traits@D@__Cr@std@@V?$allocator@D@23@@__Cr@std@@ABV?$vector@V?$basic_string@DU?$char_traits@D@__Cr@std@@V?$allocator@D@23@@__Cr@std@@V?$allocator@V?$basic_string@DU?$char_traits@D@__Cr@std@@V?$allocator@D@23@@__Cr@std@@@23@@45@@Z
    ?AbslUnparseFlag@flags_internal@absl@@YA?AV?$basic_string@DU?$char_traits@D@__Cr@std@@V?$allocator@D@23@@__Cr@std@@V?$basic_string_view@DU?$char_traits@D@__Cr@std@@@45@@Z
    ?AbslUnparseFlag@time_internal@absl@@YA?AV?$basic_string@DU?$char_traits@D@__Cr@std@@V?$allocator@D@23@@__Cr@std@@V?$civil_time@Uday_tag@time_internal@absl@@@detail@cctz@12@@Z
    ?AbslUnparseFlag@time_internal@absl@@YA?AV?$basic_string@DU?$char_traits@D@__Cr@std@@V?$allocator@D@23@@__Cr@std@@V?$civil_time@Uhour_tag@time_internal@absl@@@detail@cctz@12@@Z
    ?AbslUnparseFlag@time_internal@absl@@YA?AV?$basic_string@DU?$char_traits@D@__Cr@std@@V?$allocator@D@23@@__Cr@std@@V?$civil_time@Uminute_tag@time_internal@absl@@@detail@cctz@12@@Z
    ?AbslUnparseFlag@time_internal@absl@@YA?AV?$basic_string@DU?$char_traits@D@__Cr@std@@V?$allocator@D@23@@__Cr@std@@V?$civil_time@Umonth_tag@time_internal@absl@@@detail@cctz@12@@Z
    ?AbslUnparseFlag@time_internal@absl@@YA?AV?$basic_string@DU?$char_traits@D@__Cr@std@@V?$allocator@D@23@@__Cr@std@@V?$civil_time@Usecond_tag@time_internal@absl@@@detail@cctz@12@@Z
    ?AbslUnparseFlag@time_internal@absl@@YA?AV?$basic_string@DU?$char_traits@D@__Cr@std@@V?$allocator@D@23@@__Cr@std@@V?$civil_time@Uyear_tag@time_internal@absl@@@detail@cctz@12@@Z
    ?Absorb@RandenHwAes@random_internal@absl@@SAXPBXPAX@Z
    ?Absorb@RandenSlow@random_internal@absl@@SAXPBXPAX@Z
    ?AddHint@BestHints@flags_internal@absl@@QAE_NV?$basic_string_view@DU?$char_traits@D@__Cr@std@@@__Cr@std@@E@Z
    ?AddLogSink@log_internal@absl@@YAXPAVLogSink@2@@Z
    ?AddWithCarry@?$BigUnsigned@$03@strings_internal@absl@@AAEXHI@Z
    ?AddWithCarry@?$BigUnsigned@$03@strings_internal@absl@@AAEXH_K@Z
    ?AddWithCarry@?$BigUnsigned@$0FE@@strings_internal@absl@@AAEXHI@Z
    ?AddWithCarry@?$BigUnsigned@$0FE@@strings_internal@absl@@AAEXH_K@Z
    ?AddressIsReadable@debugging_internal@absl@@YA_NPBX@Z
    ?AdvanceAndReadBytes@ChunkIterator@Cord@absl@@AAE?AV23@I@Z
    ?AdvanceBytesBtree@ChunkIterator@Cord@absl@@AAEXI@Z
    ?AlignedBufferValue@FlagImpl@flags_internal@absl@@ABEPAXXZ
    ?AllocWithArena@LowLevelAlloc@base_internal@absl@@SAPAXIPAUArena@123@@Z
    ?AlreadyExistsError@absl@@YA?AVStatus@1@V?$basic_string_view@DU?$char_traits@D@__Cr@std@@@__Cr@std@@@Z
    ?AlwaysTrue@Condition@absl@@CA_NPBV12@@Z
    ?Append@Cord@absl@@QAEX$$QAV12@@Z
    ?Append@Cord@absl@@QAEXABV12@@Z
    ?Append@CordRepBtree@cord_internal@absl@@SAPAV123@PAV123@V?$basic_string_view@DU?$char_traits@D@__Cr@std@@@__Cr@std@@I@Z
    ?Append@StringifySink@strings_internal@absl@@QAEXID@Z
    ?Append@StringifySink@strings_internal@absl@@QAEXV?$basic_string_view@DU?$char_traits@D@__Cr@std@@@__Cr@std@@@Z
    ?AppendArray@InlineRep@Cord@absl@@QAEXV?$basic_string_view@DU?$char_traits@D@__Cr@std@@@__Cr@std@@W4MethodIdentifier@CordzUpdateTracker@cord_internal@3@@Z
    ?AppendPack@str_format_internal@absl@@YAAAV?$basic_string@DU?$char_traits@D@__Cr@std@@V?$allocator@D@23@@__Cr@std@@PAV345@VUntypedFormatSpecImpl@12@V?$Span@$$CBVFormatArgImpl@str_format_internal@absl@@@2@@Z
    ?AppendPieces@strings_internal@absl@@YAXPAV?$basic_string@DU?$char_traits@D@__Cr@std@@V?$allocator@D@23@@__Cr@std@@V?$initializer_list@V?$basic_string_view@DU?$char_traits@D@__Cr@std@@@__Cr@std@@@5@@Z
    ?AppendPrecise@Cord@absl@@AAEXV?$basic_string_view@DU?$char_traits@D@__Cr@std@@@__Cr@std@@W4MethodIdentifier@CordzUpdateTracker@cord_internal@2@@Z
    ?AppendSlow@CordRepBtree@cord_internal@absl@@CAPAV123@PAV123@PAUCordRep@23@@Z
    ?AppendTree@InlineRep@Cord@absl@@QAEXPAUCordRep@cord_internal@3@W4MethodIdentifier@CordzUpdateTracker@53@@Z
    ?AppendTreeToInlined@InlineRep@Cord@absl@@QAEXPAUCordRep@cord_internal@3@W4MethodIdentifier@CordzUpdateTracker@53@@Z
    ?AppendTreeToTree@InlineRep@Cord@absl@@QAEXPAUCordRep@cord_internal@3@W4MethodIdentifier@CordzUpdateTracker@53@@Z
    ?ApplySubstitutions@strings_internal@absl@@YAHV?$basic_string_view@DU?$char_traits@D@__Cr@std@@@__Cr@std@@PAV?$vector@UViableSubstitution@strings_internal@absl@@V?$allocator@UViableSubstitution@strings_internal@absl@@@__Cr@std@@@45@PAV?$basic_string@DU?$char_traits@D@__Cr@std@@V?$allocator@D@23@@45@@Z
    ?AsciiStrToLower@absl@@YAXPAV?$basic_string@DU?$char_traits@D@__Cr@std@@V?$allocator@D@23@@__Cr@std@@@Z
    ?AsciiStrToUpper@absl@@YAXPAV?$basic_string@DU?$char_traits@D@__Cr@std@@V?$allocator@D@23@@__Cr@std@@@Z
    ?AssertHeld@Mutex@absl@@QBEXXZ
    ?AssertNotHeld@Mutex@absl@@QBEXXZ
    ?AssertReaderHeld@Mutex@absl@@QBEXXZ
    ?AssertValidType@FlagImpl@flags_internal@absl@@QBEXPBXP6APBVtype_info@@XZ@Z
    ?AssignLargeString@Cord@absl@@AAEAAV12@$$QAV?$basic_string@DU?$char_traits@D@__Cr@std@@V?$allocator@D@23@@__Cr@std@@@Z
    ?AssignSlow@InlineRep@Cord@absl@@AAEXABV123@@Z
    ?AsyncSignalSafeWriteError@raw_log_internal@absl@@YAXPBDI@Z
    ?At@TimeZone@absl@@QBE?AUCivilInfo@12@VTime@2@@Z
    ?At@TimeZone@absl@@QBE?AUTimeInfo@12@V?$civil_time@Usecond_tag@time_internal@absl@@@detail@cctz@time_internal@2@@Z
    ?AtLocation@LogMessage@log_internal@absl@@QAEAAV123@V?$basic_string_view@DU?$char_traits@D@__Cr@std@@@__Cr@std@@H@Z
    ?AtomicBufferValue@FlagImpl@flags_internal@absl@@ABEPAU?$atomic@_K@__Cr@std@@XZ
    ?AwaitCommon@Mutex@absl@@AAE_NABVCondition@2@VKernelTimeout@synchronization_internal@2@@Z
    ?Base64Escape@absl@@YA?AV?$basic_string@DU?$char_traits@D@__Cr@std@@V?$allocator@D@23@@__Cr@std@@V?$basic_string_view@DU?$char_traits@D@__Cr@std@@@34@@Z
    ?Base64Escape@absl@@YAXV?$basic_string_view@DU?$char_traits@D@__Cr@std@@@__Cr@std@@PAV?$basic_string@DU?$char_traits@D@__Cr@std@@V?$allocator@D@23@@34@@Z
    ?Base64EscapeInternal@strings_internal@absl@@YAIPBEIPADIPBD_N@Z
    ?Base64Unescape@absl@@YA_NV?$basic_string_view@DU?$char_traits@D@__Cr@std@@@__Cr@std@@PAV?$basic_string@DU?$char_traits@D@__Cr@std@@V?$allocator@D@23@@34@@Z
    ?BindWithPack@str_format_internal@absl@@YA_NPBUUnboundConversion@12@V?$Span@$$CBVFormatArgImpl@str_format_internal@absl@@@2@PAVBoundConversion@12@@Z
    ?Block@Barrier@absl@@QAE_NXZ
    ?Block@Mutex@absl@@AAEXPAUPerThreadSynch@base_internal@2@@Z
    ?BreakTime@TimeZoneInfo@cctz@time_internal@absl@@UBE?AUabsolute_lookup@time_zone@234@ABV?$time_point@Vsystem_clock@chrono@__Cr@std@@V?$duration@_JV?$ratio@$00$00@__Cr@std@@@234@@chrono@__Cr@std@@@Z
    ?BreakTime@TimeZoneLibC@cctz@time_internal@absl@@UBE?AUabsolute_lookup@time_zone@234@ABV?$time_point@Vsystem_clock@chrono@__Cr@std@@V?$duration@_JV?$ratio@$00$00@__Cr@std@@@234@@chrono@__Cr@std@@@Z
    ?BytesToHexString@absl@@YA?AV?$basic_string@DU?$char_traits@D@__Cr@std@@V?$allocator@D@23@@__Cr@std@@V?$basic_string_view@DU?$char_traits@D@__Cr@std@@@34@@Z
    ?CEscape@absl@@YA?AV?$basic_string@DU?$char_traits@D@__Cr@std@@V?$allocator@D@23@@__Cr@std@@V?$basic_string_view@DU?$char_traits@D@__Cr@std@@@34@@Z
    ?CHexEscape@absl@@YA?AV?$basic_string@DU?$char_traits@D@__Cr@std@@V?$allocator@D@23@@__Cr@std@@V?$basic_string_view@DU?$char_traits@D@__Cr@std@@@34@@Z
    ?CPUSupportsRandenHwAes@random_internal@absl@@YA_NXZ
    ?CUnescape@absl@@YA_NV?$basic_string_view@DU?$char_traits@D@__Cr@std@@@__Cr@std@@PAV?$basic_string@DU?$char_traits@D@__Cr@std@@V?$allocator@D@23@@34@1@Z
    ?CalculateBase64EscapedLenInternal@strings_internal@absl@@YAII_N@Z
    ?CallVoidPtrFunction@Condition@absl@@CA_NPBV12@@Z
    ?CancelledError@absl@@YA?AVStatus@1@V?$basic_string_view@DU?$char_traits@D@__Cr@std@@@__Cr@std@@@Z
    ?CappedDamerauLevenshteinDistance@strings_internal@absl@@YAEV?$basic_string_view@DU?$char_traits@D@__Cr@std@@@__Cr@std@@0E@Z
    ?CatPieces@strings_internal@absl@@YA?AV?$basic_string@DU?$char_traits@D@__Cr@std@@V?$allocator@D@23@@__Cr@std@@V?$initializer_list@V?$basic_string_view@DU?$char_traits@D@__Cr@std@@@__Cr@std@@@5@@Z
    ?Ceil@absl@@YA?AVDuration@1@V21@0@Z
    ?CheckDefaultValueParsingRoundtrip@FlagImpl@flags_internal@absl@@EBEXXZ
    ?CheckDefaultValueParsingRoundtrip@PrivateHandleAccessor@flags_internal@absl@@SAXABVCommandLineFlag@3@@Z
    ?CheckInvariants@GraphCycles@synchronization_internal@absl@@QBE_NXZ
    ?CheckstrcasecmpfalseImpl@log_internal@absl@@YAPAV?$basic_string@DU?$char_traits@D@__Cr@std@@V?$allocator@D@23@@__Cr@std@@PBD00@Z
    ?CheckstrcasecmptrueImpl@log_internal@absl@@YAPAV?$basic_string@DU?$char_traits@D@__Cr@std@@V?$allocator@D@23@@__Cr@std@@PBD00@Z
    ?CheckstrcmpfalseImpl@log_internal@absl@@YAPAV?$basic_string@DU?$char_traits@D@__Cr@std@@V?$allocator@D@23@@__Cr@std@@PBD00@Z
    ?CheckstrcmptrueImpl@log_internal@absl@@YAPAV?$basic_string@DU?$char_traits@D@__Cr@std@@V?$allocator@D@23@@__Cr@std@@PBD00@Z
    ?Checksum@CrcCordState@crc_internal@absl@@QBE?AVcrc32c_t@3@XZ
    ?CityHash32@hash_internal@absl@@YAIPBDI@Z
    ?CityHash64@hash_internal@absl@@YA_KPBDI@Z
    ?CityHash64WithSeed@hash_internal@absl@@YA_KPBDI_K@Z
    ?CityHash64WithSeeds@hash_internal@absl@@YA_KPBDI_K1@Z
    ?Clear@Cord@absl@@QAEXXZ
    ?ClearBackingArray@container_internal@absl@@YAXAAVCommonFields@12@ABUPolicyFunctions@12@_N2@Z
    ?ClearCurrentThreadIdentity@base_internal@absl@@YAXXZ
    ?ClearLogBacktraceLocation@absl@@YAXXZ
    ?ClearTimeZoneMapTestOnly@Impl@time_zone@cctz@time_internal@absl@@SAXXZ
    ?CloneAndUnref@StatusRep@status_internal@absl@@QBEPAV123@XZ
    ?CombineContiguousImpl@MixingHashState@hash_internal@absl@@CA_K_KPBEIU?$integral_constant@H$03@__Cr@std@@@Z
    ?CombineContiguousImpl@MixingHashState@hash_internal@absl@@CA_K_KPBEIU?$integral_constant@H$07@__Cr@std@@@Z
    ?CombineLargeContiguousImpl32@MixingHashState@hash_internal@absl@@CA_K_KPBEI@Z
    ?CombineLargeContiguousImpl64@MixingHashState@hash_internal@absl@@CA_K_KPBEI@Z
    ?Compare@Cord@absl@@QBEHV?$basic_string_view@DU?$char_traits@D@__Cr@std@@@__Cr@std@@@Z
    ?CompareImpl@Cord@absl@@ABEHABV12@@Z
    ?CompareSlowPath@Cord@absl@@ABEHABV12@II@Z
    ?CompareSlowPath@Cord@absl@@ABEHV?$basic_string_view@DU?$char_traits@D@__Cr@std@@@__Cr@std@@II@Z
    ?Compute@CrcNonTemporalMemcpyAVXEngine@crc_internal@absl@@UBE?AVcrc32c_t@3@PIAXPIBXIV43@@Z
    ?Compute@CrcNonTemporalMemcpyEngine@crc_internal@absl@@UBE?AVcrc32c_t@3@PIAXPIBXIV43@@Z
    ?Compute@FallbackCrcMemcpyEngine@crc_internal@absl@@UBE?AVcrc32c_t@3@PIAXPIBXIV43@@Z
    ?ComputeCrc32c@absl@@YA?AVcrc32c_t@1@V?$basic_string_view@DU?$char_traits@D@__Cr@std@@@__Cr@std@@@Z
    ?ConcatCrc32c@absl@@YA?AVcrc32c_t@1@V21@0I@Z
    ?Consume@cord_internal@absl@@YAXPAUCordRep@12@V?$FunctionRef@$$A6AXPAUCordRep@cord_internal@absl@@II@Z@2@@Z
    ?ConsumeBeginTo@CordRepBtree@cord_internal@absl@@CAPAV123@PAV123@II@Z
    ?ConsumeUnboundConversionNoInline@str_format_internal@absl@@YAPBDPBD0PAUUnboundConversion@12@PAH@Z
    ?Contains@Cord@absl@@QBE_NABV12@@Z
    ?Contains@Cord@absl@@QBE_NV?$basic_string_view@DU?$char_traits@D@__Cr@std@@@__Cr@std@@@Z
    ?ConvertBoolArg@str_format_internal@absl@@YA_N_NPAVFormatSinkImpl@12@@Z
    ?ConvertDateTime@absl@@YA?AUTimeConversion@1@_JHHHHHVTimeZone@1@@Z
    ?ConvertDeletedToEmptyAndFullToDeleted@container_internal@absl@@YAXPAW4ctrl_t@12@I@Z
    ?ConvertFloatImpl@str_format_internal@absl@@YA_NMABVFormatConversionSpecImpl@12@PAVFormatSinkImpl@12@@Z
    ?ConvertFloatImpl@str_format_internal@absl@@YA_NNABVFormatConversionSpecImpl@12@PAVFormatSinkImpl@12@@Z
    ?ConvertFloatImpl@str_format_internal@absl@@YA_NOABVFormatConversionSpecImpl@12@PAVFormatSinkImpl@12@@Z
    ?CopyCordToString@absl@@YAXABVCord@1@PAV?$basic_string@DU?$char_traits@D@__Cr@std@@V?$allocator@D@23@@__Cr@std@@@Z
    ?CopyPrefix@CordRepBtree@cord_internal@absl@@AAE?AUCopyResult@123@I_N@Z
    ?CopySuffix@CordRepBtree@cord_internal@absl@@AAE?AUCopyResult@123@I@Z
    ?CopyTo@InlineRep@Cord@absl@@QBEXPAV?$basic_string@DU?$char_traits@D@__Cr@std@@V?$allocator@D@23@@__Cr@std@@@Z
    ?CopyToArraySlowPath@Cord@absl@@ABEXPAD@Z
    ?Crash@Helper@internal_statusor@absl@@SAXABVStatus@3@@Z
    ?Crc32c@CRC@crc_internal@absl@@SAPAV123@XZ
    ?CreateSlow@CordRepBtree@cord_internal@absl@@CAPAV123@PAUCordRep@23@@Z
    ?CreateThreadIdentity@synchronization_internal@absl@@YAPAUThreadIdentity@base_internal@2@XZ
    ?CurrentThreadIdentityIfPresent@base_internal@absl@@YAPAUThreadIdentity@12@XZ
    ?CurrentValue@FlagImpl@flags_internal@absl@@EBE?AV?$basic_string@DU?$char_traits@D@__Cr@std@@V?$allocator@D@23@@__Cr@std@@XZ
    ?DataGuard@FlagImpl@flags_internal@absl@@ABEPAVMutex@3@XZ
    ?DataLossError@absl@@YA?AVStatus@1@V?$basic_string_view@DU?$char_traits@D@__Cr@std@@@__Cr@std@@@Z
    ?DeadlineExceededError@absl@@YA?AVStatus@1@V?$basic_string_view@DU?$char_traits@D@__Cr@std@@@__Cr@std@@@Z
    ?DecodeFrom@ProtoField@log_internal@absl@@QAE_NPAV?$Span@$$CBD@3@@Z
    ?DecodeWaitCycles@SpinLock@base_internal@absl@@KA_JI@Z
    ?DecrementCount@BlockingCounter@absl@@QAE_NXZ
    ?DecrementSynchSem@Mutex@absl@@CA_NPAV12@PAUPerThreadSynch@base_internal@2@VKernelTimeout@synchronization_internal@2@@Z
    ?DeduceUsageFlags@flags_internal@absl@@YA_NV?$basic_string_view@DU?$char_traits@D@__Cr@std@@@__Cr@std@@0@Z
    ?DefaultArena@LowLevelAlloc@base_internal@absl@@SAPAUArena@123@XZ
    ?DefaultStackUnwinder@absl@@YAHPAPAXPAHHHPBX1@Z
    ?DefaultValue@FlagImpl@flags_internal@absl@@EBE?AV?$basic_string@DU?$char_traits@D@__Cr@std@@V?$allocator@D@23@@__Cr@std@@XZ
    ?Delete@CordzHandle@cord_internal@absl@@SAXPAV123@@Z
    ?DeleteArena@LowLevelAlloc@base_internal@absl@@SA_NPAUArena@123@@Z
    ?Demangle@debugging_internal@absl@@YA_NPBDPADI@Z
    ?DemangleString@debugging_internal@absl@@YA?AV?$basic_string@DU?$char_traits@D@__Cr@std@@V?$allocator@D@23@@__Cr@std@@PBD@Z
    ?Description@TimeZoneInfo@cctz@time_internal@absl@@UBE?AV?$basic_string@DU?$char_traits@D@__Cr@std@@V?$allocator@D@23@@__Cr@std@@XZ
    ?Description@TimeZoneLibC@cctz@time_internal@absl@@UBE?AV?$basic_string@DU?$char_traits@D@__Cr@std@@V?$allocator@D@23@@__Cr@std@@XZ
    ?Destroy@CordRep@cord_internal@absl@@SAXPAU123@@Z
    ?Destroy@CordRepBtree@cord_internal@absl@@SAXPAV123@@Z
    ?Destroy@CordRepCrc@cord_internal@absl@@SAXPAU123@@Z
    ?DestroyContents@?$Storage@UPayload@status_internal@absl@@$00V?$allocator@UPayload@status_internal@absl@@@__Cr@std@@@inlined_vector_internal@absl@@AAEXXZ
    ?DestroyCordSlow@Cord@absl@@AAEXXZ
    ?DiagnosticsGetDeleteQueue@CordzHandle@cord_internal@absl@@SA?AV?$vector@PBVCordzHandle@cord_internal@absl@@V?$allocator@PBVCordzHandle@cord_internal@absl@@@__Cr@std@@@__Cr@std@@XZ
    ?DiagnosticsGetSafeToInspectDeletedHandles@CordzHandle@cord_internal@absl@@QAE?AV?$vector@PBVCordzHandle@cord_internal@absl@@V?$allocator@PBVCordzHandle@cord_internal@absl@@@__Cr@std@@@__Cr@std@@XZ
    ?DiagnosticsHandleIsSafeToInspect@CordzHandle@cord_internal@absl@@QBE_NPBV123@@Z
    ?Die@LogMessage@log_internal@absl@@AAEXXZ
    ?DieBecauseNull@log_internal@absl@@YAXPBDH0@Z
    ?Digits10@?$BigUnsigned@$03@strings_internal@absl@@SAHXZ
    ?Digits10@?$BigUnsigned@$0FE@@strings_internal@absl@@SAHXZ
    ?DropDeletesWithoutResize@container_internal@absl@@YAXAAVCommonFields@12@PBXABUPolicyFunctions@12@PAX@Z
    ?Dtor@Mutex@absl@@AAEXXZ
    ?DummyFunction@?$AtomicHook@P6A?AV?$optional@V?$basic_string@DU?$char_traits@D@__Cr@std@@V?$allocator@D@23@@__Cr@std@@@__Cr@std@@V?$basic_string_view@DU?$char_traits@D@__Cr@std@@@23@ABVCord@absl@@@Z@base_internal@absl@@CA?AV?$optional@V?$basic_string@DU?$char_traits@D@__Cr@std@@V?$allocator@D@23@@__Cr@std@@@__Cr@std@@V?$basic_string_view@DU?$char_traits@D@__Cr@std@@@56@ABVCord@3@@Z
    ?DummyFunction@?$AtomicHook@P6AXPBDH000@Z@base_internal@absl@@CAXPBDH000@Z
    ?DummyFunction@?$AtomicHook@P6AXPBDPBX@Z@base_internal@absl@@CAXPBDPBX@Z
    ?DummyFunction@?$AtomicHook@P6AXPBDPBX_J@Z@base_internal@absl@@CAXPBDPBX_J@Z
    ?DummyFunction@?$AtomicHook@P6AXPBX_J@Z@base_internal@absl@@CAXPBX_J@Z
    ?DummyFunction@?$AtomicHook@P6AXXZ@base_internal@absl@@CAXXZ
    ?DummyFunction@?$AtomicHook@P6AX_J@Z@base_internal@absl@@CAX_J@Z
    ?Dump@CordRepBtree@cord_internal@absl@@SAXPBUCordRep@23@AAV?$basic_ostream@DU?$char_traits@D@__Cr@std@@@__Cr@std@@@Z
    ?Dump@CordRepBtree@cord_internal@absl@@SAXPBUCordRep@23@V?$basic_string_view@DU?$char_traits@D@__Cr@std@@@__Cr@std@@AAV?$basic_ostream@DU?$char_traits@D@__Cr@std@@@67@@Z
    ?Dump@CordRepBtree@cord_internal@absl@@SAXPBUCordRep@23@V?$basic_string_view@DU?$char_traits@D@__Cr@std@@@__Cr@std@@_NAAV?$basic_ostream@DU?$char_traits@D@__Cr@std@@@67@@Z
    ?DumpPCAndFrameSizesAndStackTrace@debugging_internal@absl@@YAXQAXQBQAXQAHHH_NP6AXPBDPAX@Z5@Z
    ?DumpStackTrace@debugging_internal@absl@@YAXHH_NP6AXPBDPAX@Z2@Z
    ?DurationFromTimespec@absl@@YA?AVDuration@1@Utimespec@@@Z
    ?DurationFromTimeval@absl@@YA?AVDuration@1@Utimeval@@@Z
    ?EmptyGeneration@container_internal@absl@@YAPAEXZ
    ?EmptyString@Status@absl@@CAPBV?$basic_string@DU?$char_traits@D@__Cr@std@@V?$allocator@D@23@@__Cr@std@@XZ
    ?EnableDebugLog@CondVar@absl@@QAEXPBD@Z
    ?EnableDebugLog@Mutex@absl@@QAEXPBD@Z
    ?EnableInvariantDebugging@Mutex@absl@@QAEXP6AXPAX@Z0@Z
    ?EnableLogPrefix@absl@@YAX_N@Z
    ?EnableMutexInvariantDebugging@absl@@YAX_N@Z
    ?EnableSymbolizeLogStackTrace@log_internal@absl@@YAX_N@Z
    ?Encode32Bit@log_internal@absl@@YA_N_KIPAV?$Span@D@2@@Z
    ?Encode64Bit@log_internal@absl@@YA_N_K0PAV?$Span@D@2@@Z
    ?EncodeBytes@log_internal@absl@@YA_N_KV?$Span@$$CBD@2@PAV?$Span@D@2@@Z
    ?EncodeBytesTruncate@log_internal@absl@@YA_N_KV?$Span@$$CBD@2@PAV?$Span@D@2@@Z
    ?EncodeMessageLength@log_internal@absl@@YAXV?$Span@D@2@PBV32@@Z
    ?EncodeMessageStart@log_internal@absl@@YA?AV?$Span@D@2@_K0PAV32@@Z
    ?EncodeUTF8Char@strings_internal@absl@@YAIPAD_U@Z
    ?EncodeVarint@log_internal@absl@@YA_N_K0PAV?$Span@D@2@@Z
    ?EncodeWaitCycles@SpinLock@base_internal@absl@@KAI_J0@Z
    ?EndsWith@Cord@absl@@QBE_NABV12@@Z
    ?EndsWith@Cord@absl@@QBE_NV?$basic_string_view@DU?$char_traits@D@__Cr@std@@@__Cr@std@@@Z
    ?EndsWithIgnoreCase@absl@@YA_NV?$basic_string_view@DU?$char_traits@D@__Cr@std@@@__Cr@std@@0@Z
    ?EqualsIgnoreCase@absl@@YA_NV?$basic_string_view@DU?$char_traits@D@__Cr@std@@@__Cr@std@@0@Z
    ?EqualsImpl@Cord@absl@@ABE_NABV12@I@Z
    ?EqualsImpl@Cord@absl@@ABE_NV?$basic_string_view@DU?$char_traits@D@__Cr@std@@@__Cr@std@@I@Z
    ?EquivTransitions@TimeZoneInfo@cctz@time_internal@absl@@ABE_NEE@Z
    ?Erase@?$Storage@UPayload@status_internal@absl@@$00V?$allocator@UPayload@status_internal@absl@@@__Cr@std@@@inlined_vector_internal@absl@@QAEPAUPayload@status_internal@3@PBU453@0@Z
    ?EraseMetaOnly@container_internal@absl@@YAXAAVCommonFields@12@II@Z
    ?ErasePayload@StatusRep@status_internal@absl@@QAE?AUEraseResult@123@V?$basic_string_view@DU?$char_traits@D@__Cr@std@@@__Cr@std@@@Z
    ?ErrnoToStatus@absl@@YA?AVStatus@1@HV?$basic_string_view@DU?$char_traits@D@__Cr@std@@@__Cr@std@@@Z
    ?ErrnoToStatusCode@absl@@YA?AW4StatusCode@1@H@Z
    ?Eval@Condition@absl@@QBE_NXZ
    ?ExitOnDFatal@log_internal@absl@@YA_NXZ
    ?ExpectedChecksum@Cord@absl@@QBE?AV?$optional@I@__Cr@std@@XZ
    ?Extend@CRC32@crc_internal@absl@@UBEXPAIPBXI@Z
    ?ExtendByZeroes@CRC32@crc_internal@absl@@UBEXPAII@Z
    ?ExtendByZeroesImpl@CRC32@crc_internal@absl@@CAXPAIIQBI1@Z
    ?ExtendCrc32cByZeroes@absl@@YA?AVcrc32c_t@1@V21@I@Z
    ?ExtendCrc32cInternal@crc_internal@absl@@YA?AVcrc32c_t@2@V32@V?$basic_string_view@DU?$char_traits@D@__Cr@std@@@__Cr@std@@@Z
    ?ExtendTransitions@TimeZoneInfo@cctz@time_internal@absl@@AAE_NXZ
    ?ExtractAppendBuffer@CordRepBtree@cord_internal@absl@@SA?AUExtractResult@CordRep@23@PAV123@I@Z
    ?ExtractFront@CordRepBtree@cord_internal@absl@@CAPAUCordRep@23@PAV123@@Z
    ?FDivDuration@absl@@YANVDuration@1@0@Z
    ?FLAGS_noflagfile@@3UFlagRegistrarEmpty@flags_internal@absl@@A
    ?FLAGS_nofromenv@@3UFlagRegistrarEmpty@flags_internal@absl@@A
    ?FLAGS_notryfromenv@@3UFlagRegistrarEmpty@flags_internal@absl@@A
    ?FLAGS_noundefok@@3UFlagRegistrarEmpty@flags_internal@absl@@A
    ?FNMatch@log_internal@absl@@YA_NV?$basic_string_view@DU?$char_traits@D@__Cr@std@@@__Cr@std@@0@Z
    ?FailQuietly@LogMessage@log_internal@absl@@KAXXZ
    ?FailWithoutStackTrace@LogMessage@log_internal@absl@@KAXXZ
    ?FailedPreconditionError@absl@@YA?AVStatus@1@V?$basic_string_view@DU?$char_traits@D@__Cr@std@@@__Cr@std@@@Z
    ?FailureSignalToString@debugging_internal@absl@@YAPBDH@Z
    ?FastIntToBuffer@numbers_internal@absl@@YAPADHPAD@Z
    ?FastIntToBuffer@numbers_internal@absl@@YAPADIPAD@Z
    ?FastIntToBuffer@numbers_internal@absl@@YAPAD_JPAD@Z
    ?FastIntToBuffer@numbers_internal@absl@@YAPAD_KPAD@Z
    ?Fer@Mutex@absl@@AAEXPAUPerThreadSynch@base_internal@2@@Z
    ?Filename@FlagImpl@flags_internal@absl@@EBE?AV?$basic_string@DU?$char_traits@D@__Cr@std@@V?$allocator@D@23@@__Cr@std@@XZ
    ?Fill@?$RandenPool@E@random_internal@absl@@SAXV?$Span@E@3@@Z
    ?Fill@?$RandenPool@G@random_internal@absl@@SAXV?$Span@G@3@@Z
    ?Fill@?$RandenPool@I@random_internal@absl@@SAXV?$Span@I@3@@Z
    ?Fill@?$RandenPool@_K@random_internal@absl@@SAXV?$Span@_K@3@@Z
    ?FillParentStack@CordzInfo@cord_internal@absl@@CAIPBV123@PAPAX@Z
    ?FillWordTable@CRCImpl@crc_internal@absl@@SAXIIHPAY0BAA@I@Z
    ?FillZeroesTable@CRCImpl@crc_internal@absl@@SAHIPAY0BAA@I@Z
    ?FinalizeEncodingAndFormat@LogMessageData@LogMessage@log_internal@absl@@QAEXXZ
    ?FinalizeRegistry@flags_internal@absl@@YAXXZ
    ?Find@ByAnyChar@absl@@QBE?AV?$basic_string_view@DU?$char_traits@D@__Cr@std@@@__Cr@std@@V345@I@Z
    ?Find@ByAsciiWhitespace@absl@@QBE?AV?$basic_string_view@DU?$char_traits@D@__Cr@std@@@__Cr@std@@V345@I@Z
    ?Find@ByChar@absl@@QBE?AV?$basic_string_view@DU?$char_traits@D@__Cr@std@@@__Cr@std@@V345@I@Z
    ?Find@ByLength@absl@@QBE?AV?$basic_string_view@DU?$char_traits@D@__Cr@std@@@__Cr@std@@V345@I@Z
    ?Find@ByString@absl@@QBE?AV?$basic_string_view@DU?$char_traits@D@__Cr@std@@@__Cr@std@@V345@I@Z
    ?Find@Cord@absl@@QBE?AVCharIterator@12@ABV12@@Z
    ?Find@Cord@absl@@QBE?AVCharIterator@12@V?$basic_string_view@DU?$char_traits@D@__Cr@std@@@__Cr@std@@@Z
    ?FindCommandLineFlag@absl@@YAPAVCommandLineFlag@1@V?$basic_string_view@DU?$char_traits@D@__Cr@std@@@__Cr@std@@@Z
    ?FindFirstNonFullAfterResize@HashSetResizeHelper@container_internal@absl@@SA?AUFindInfo@23@ABVCommonFields@23@II@Z
    ?FindFlag@FlagRegistry@flags_internal@absl@@QAEPAVCommandLineFlag@3@V?$basic_string_view@DU?$char_traits@D@__Cr@std@@@__Cr@std@@@Z
    ?FindFlatStartPiece@InlineRep@Cord@absl@@QBE?AV?$basic_string_view@DU?$char_traits@D@__Cr@std@@@__Cr@std@@XZ
    ?FindImpl@Cord@absl@@ABE?AVCharIterator@12@V312@V?$basic_string_view@DU?$char_traits@D@__Cr@std@@@__Cr@std@@@Z
    ?FindLongestCommonPrefix@absl@@YA?AV?$basic_string_view@DU?$char_traits@D@__Cr@std@@@__Cr@std@@V234@0@Z
    ?FindLongestCommonSuffix@absl@@YA?AV?$basic_string_view@DU?$char_traits@D@__Cr@std@@@__Cr@std@@V234@0@Z
    ?FindPath@GraphCycles@synchronization_internal@absl@@QBEHUGraphId@23@0HQAU423@@Z
    ?FiveToTheNth@?$BigUnsigned@$03@strings_internal@absl@@SA?AV123@H@Z
    ?FiveToTheNth@?$BigUnsigned@$0FE@@strings_internal@absl@@SA?AV123@H@Z
    ?FixedOffsetFromName@cctz@time_internal@absl@@YA_NABV?$basic_string@DU?$char_traits@D@__Cr@std@@V?$allocator@D@23@@__Cr@std@@PAV?$duration@_JV?$ratio@$00$00@__Cr@std@@@chrono@56@@Z
    ?FixedOffsetToAbbr@cctz@time_internal@absl@@YA?AV?$basic_string@DU?$char_traits@D@__Cr@std@@V?$allocator@D@23@@__Cr@std@@ABV?$duration@_JV?$ratio@$00$00@__Cr@std@@@chrono@56@@Z
    ?FixedOffsetToName@cctz@time_internal@absl@@YA?AV?$basic_string@DU?$char_traits@D@__Cr@std@@V?$allocator@D@23@@__Cr@std@@ABV?$duration@_JV?$ratio@$00$00@__Cr@std@@@chrono@56@@Z
    ?FlagHelp@flags_internal@absl@@YAXAAV?$basic_ostream@DU?$char_traits@D@__Cr@std@@@__Cr@std@@ABVCommandLineFlag@2@W4HelpFormat@12@@Z
    ?FlagsHelp@flags_internal@absl@@YAXAAV?$basic_ostream@DU?$char_traits@D@__Cr@std@@@__Cr@std@@V?$basic_string_view@DU?$char_traits@D@__Cr@std@@@45@W4HelpFormat@12@1@Z
    ?FlagsToString@str_format_internal@absl@@YA?AV?$basic_string@DU?$char_traits@D@__Cr@std@@V?$allocator@D@23@@__Cr@std@@W4Flags@12@@Z
    ?FlatOverhead@CordTestAccess@strings_internal@absl@@SAIXZ
    ?FlatTagToLength@CordTestAccess@strings_internal@absl@@SAIE@Z
    ?FlattenSlowPath@Cord@absl@@AAE?AV?$basic_string_view@DU?$char_traits@D@__Cr@std@@@__Cr@std@@XZ
    ?Floor@absl@@YA?AVDuration@1@V21@0@Z
    ?Flush@LogMessage@log_internal@absl@@IAEXXZ
    ?Flush@LogSink@absl@@UAEXXZ
    ?FlushLogSinks@log_internal@absl@@YAXXZ
    ?ForEachChunkAux@Cord@absl@@CAXPAUCordRep@cord_internal@2@V?$FunctionRef@$$A6AXV?$basic_string_view@DU?$char_traits@D@__Cr@std@@@__Cr@std@@@Z@2@@Z
    ?ForEachFlag@flags_internal@absl@@YAXV?$function@$$A6AXAAVCommandLineFlag@absl@@@Z@__Cr@std@@@Z
    ?ForEachPayload@StatusRep@status_internal@absl@@QBEXV?$FunctionRef@$$A6AXV?$basic_string_view@DU?$char_traits@D@__Cr@std@@@__Cr@std@@ABVCord@absl@@@Z@3@@Z
    ?ForVar2@CheckOpMessageBuilder@log_internal@absl@@QAEAAV?$basic_ostream@DU?$char_traits@D@__Cr@std@@@__Cr@std@@XZ
    ?ForgetDeadlockInfo@Mutex@absl@@QAEXXZ
    ?FormatCivilTime@absl@@YA?AV?$basic_string@DU?$char_traits@D@__Cr@std@@V?$allocator@D@23@@__Cr@std@@V?$civil_time@Uday_tag@time_internal@absl@@@detail@cctz@time_internal@1@@Z
    ?FormatCivilTime@absl@@YA?AV?$basic_string@DU?$char_traits@D@__Cr@std@@V?$allocator@D@23@@__Cr@std@@V?$civil_time@Uhour_tag@time_internal@absl@@@detail@cctz@time_internal@1@@Z
    ?FormatCivilTime@absl@@YA?AV?$basic_string@DU?$char_traits@D@__Cr@std@@V?$allocator@D@23@@__Cr@std@@V?$civil_time@Uminute_tag@time_internal@absl@@@detail@cctz@time_internal@1@@Z
    ?FormatCivilTime@absl@@YA?AV?$basic_string@DU?$char_traits@D@__Cr@std@@V?$allocator@D@23@@__Cr@std@@V?$civil_time@Umonth_tag@time_internal@absl@@@detail@cctz@time_internal@1@@Z
    ?FormatCivilTime@absl@@YA?AV?$basic_string@DU?$char_traits@D@__Cr@std@@V?$allocator@D@23@@__Cr@std@@V?$civil_time@Usecond_tag@time_internal@absl@@@detail@cctz@time_internal@1@@Z
    ?FormatCivilTime@absl@@YA?AV?$basic_string@DU?$char_traits@D@__Cr@std@@V?$allocator@D@23@@__Cr@std@@V?$civil_time@Uyear_tag@time_internal@absl@@@detail@cctz@time_internal@1@@Z
    ?FormatConversionCharToConvInt@str_format_internal@absl@@YA_KD@Z
    ?FormatConvertImpl@str_format_internal@absl@@YA?AU?$ArgConvertResult@$0BPPPL@@12@DVFormatConversionSpecImpl@12@PAVFormatSinkImpl@12@@Z
    ?FormatConvertImpl@str_format_internal@absl@@YA?AU?$ArgConvertResult@$0BPPPL@@12@_WVFormatConversionSpecImpl@12@PAVFormatSinkImpl@12@@Z
    ?FormatConvertImpl@str_format_internal@absl@@YA?AU?$ArgConvertResult@$0EAAAA@@12@UVoidPtr@12@VFormatConversionSpecImpl@12@PAVFormatSinkImpl@12@@Z
    ?FormatConvertImpl@str_format_internal@absl@@YA?AU?$ArgConvertResult@$0EAAAE@@12@$$TVFormatConversionSpecImpl@12@PAVFormatSinkImpl@12@@Z
    ?FormatConvertImpl@str_format_internal@absl@@YA?AU?$ArgConvertResult@$0EAAAE@@12@PBDVFormatConversionSpecImpl@12@PAVFormatSinkImpl@12@@Z
    ?FormatConvertImpl@str_format_internal@absl@@YA?AU?$ArgConvertResult@$0EAAAE@@12@PB_WVFormatConversionSpecImpl@12@PAVFormatSinkImpl@12@@Z
    ?FormatConvertImpl@str_format_internal@absl@@YA?AU?$ArgConvertResult@$0IAAAE@@12@ABV?$basic_string@DU?$char_traits@D@__Cr@std@@V?$allocator@D@23@@__Cr@std@@VFormatConversionSpecImpl@12@PAVFormatSinkImpl@12@@Z
    ?FormatConvertImpl@str_format_internal@absl@@YA?AU?$ArgConvertResult@$0IAAAE@@12@ABV?$basic_string@_WU?$char_traits@_W@__Cr@std@@V?$allocator@_W@23@@__Cr@std@@VFormatConversionSpecImpl@12@PAVFormatSinkImpl@12@@Z
    ?FormatConvertImpl@str_format_internal@absl@@YA?AU?$ArgConvertResult@$0IAAAE@@12@V?$basic_string_view@DU?$char_traits@D@__Cr@std@@@__Cr@std@@VFormatConversionSpecImpl@12@PAVFormatSinkImpl@12@@Z
    ?FormatConvertImpl@str_format_internal@absl@@YA?AU?$ArgConvertResult@$0IAAAE@@12@V?$basic_string_view@_WU?$char_traits@_W@__Cr@std@@@__Cr@std@@VFormatConversionSpecImpl@12@PAVFormatSinkImpl@12@@Z
    ?FormatConvertImpl@str_format_internal@absl@@YA?AU?$ArgConvertResult@$0JPOAA@@12@MVFormatConversionSpecImpl@12@PAVFormatSinkImpl@12@@Z
    ?FormatConvertImpl@str_format_internal@absl@@YA?AU?$ArgConvertResult@$0JPOAA@@12@NVFormatConversionSpecImpl@12@PAVFormatSinkImpl@12@@Z
    ?FormatConvertImpl@str_format_internal@absl@@YA?AU?$ArgConvertResult@$0JPOAA@@12@OVFormatConversionSpecImpl@12@PAVFormatSinkImpl@12@@Z
    ?FormatConvertImpl@str_format_internal@absl@@YA?AU?$ArgConvertResult@$0JPPPL@@12@CVFormatConversionSpecImpl@12@PAVFormatSinkImpl@12@@Z
    ?FormatConvertImpl@str_format_internal@absl@@YA?AU?$ArgConvertResult@$0JPPPL@@12@EVFormatConversionSpecImpl@12@PAVFormatSinkImpl@12@@Z
    ?FormatConvertImpl@str_format_internal@absl@@YA?AU?$ArgConvertResult@$0JPPPL@@12@FVFormatConversionSpecImpl@12@PAVFormatSinkImpl@12@@Z
    ?FormatConvertImpl@str_format_internal@absl@@YA?AU?$ArgConvertResult@$0JPPPL@@12@GVFormatConversionSpecImpl@12@PAVFormatSinkImpl@12@@Z
    ?FormatConvertImpl@str_format_internal@absl@@YA?AU?$ArgConvertResult@$0JPPPL@@12@HVFormatConversionSpecImpl@12@PAVFormatSinkImpl@12@@Z
    ?FormatConvertImpl@str_format_internal@absl@@YA?AU?$ArgConvertResult@$0JPPPL@@12@IVFormatConversionSpecImpl@12@PAVFormatSinkImpl@12@@Z
    ?FormatConvertImpl@str_format_internal@absl@@YA?AU?$ArgConvertResult@$0JPPPL@@12@JVFormatConversionSpecImpl@12@PAVFormatSinkImpl@12@@Z
    ?FormatConvertImpl@str_format_internal@absl@@YA?AU?$ArgConvertResult@$0JPPPL@@12@KVFormatConversionSpecImpl@12@PAVFormatSinkImpl@12@@Z
    ?FormatConvertImpl@str_format_internal@absl@@YA?AU?$ArgConvertResult@$0JPPPL@@12@Vint128@2@VFormatConversionSpecImpl@12@PAVFormatSinkImpl@12@@Z
    ?FormatConvertImpl@str_format_internal@absl@@YA?AU?$ArgConvertResult@$0JPPPL@@12@Vuint128@2@VFormatConversionSpecImpl@12@PAVFormatSinkImpl@12@@Z
    ?FormatConvertImpl@str_format_internal@absl@@YA?AU?$ArgConvertResult@$0JPPPL@@12@_JVFormatConversionSpecImpl@12@PAVFormatSinkImpl@12@@Z
    ?FormatConvertImpl@str_format_internal@absl@@YA?AU?$ArgConvertResult@$0JPPPL@@12@_KVFormatConversionSpecImpl@12@PAVFormatSinkImpl@12@@Z
    ?FormatDuration@absl@@YA?AV?$basic_string@DU?$char_traits@D@__Cr@std@@V?$allocator@D@23@@__Cr@std@@VDuration@1@@Z
    ?FormatLogMessage@log_internal@absl@@YA?AV?$basic_string@DU?$char_traits@D@__Cr@std@@V?$allocator@D@23@@__Cr@std@@W4LogSeverity@2@V?$civil_time@Usecond_tag@time_internal@absl@@@detail@cctz@time_internal@2@VDuration@2@IV?$basic_string_view@DU?$char_traits@D@__Cr@std@@@45@HW4PrefixFormat@12@3@Z
    ?FormatLogPrefix@log_internal@absl@@YAIW4LogSeverity@2@VTime@2@IV?$basic_string_view@DU?$char_traits@D@__Cr@std@@@__Cr@std@@HW4PrefixFormat@12@AAV?$Span@D@2@@Z
    ?FormatPack@str_format_internal@absl@@YA?AV?$basic_string@DU?$char_traits@D@__Cr@std@@V?$allocator@D@23@@__Cr@std@@VUntypedFormatSpecImpl@12@V?$Span@$$CBVFormatArgImpl@str_format_internal@absl@@@2@@Z
    ?FormatTime@absl@@YA?AV?$basic_string@DU?$char_traits@D@__Cr@std@@V?$allocator@D@23@@__Cr@std@@V?$basic_string_view@DU?$char_traits@D@__Cr@std@@@34@VTime@1@VTimeZone@1@@Z
    ?FormatTime@absl@@YA?AV?$basic_string@DU?$char_traits@D@__Cr@std@@V?$allocator@D@23@@__Cr@std@@VTime@1@@Z
    ?FormatTime@absl@@YA?AV?$basic_string@DU?$char_traits@D@__Cr@std@@V?$allocator@D@23@@__Cr@std@@VTime@1@VTimeZone@1@@Z
    ?FormatUntyped@str_format_internal@absl@@YA_NVFormatRawSinkImpl@12@VUntypedFormatSpecImpl@12@V?$Span@$$CBVFormatArgImpl@str_format_internal@absl@@@2@@Z
    ?FprintF@str_format_internal@absl@@YAHPAU_iobuf@@VUntypedFormatSpecImpl@12@V?$Span@$$CBVFormatArgImpl@str_format_internal@absl@@@2@@Z
    ?Frequency@UnscaledCycleClock@base_internal@absl@@CANXZ
    ?FromChrono@absl@@YA?AVTime@1@ABV?$time_point@Vsystem_clock@chrono@__Cr@std@@V?$duration@_JV?$ratio@$00$0PECEA@@__Cr@std@@@234@@chrono@__Cr@std@@@Z
    ?FromTM@absl@@YA?AVTime@1@ABUtm@@VTimeZone@1@@Z
    ?FromUDate@absl@@YA?AVTime@1@N@Z
    ?FromUniversal@absl@@YA?AVTime@1@_J@Z
    ?Generate@?$RandenPool@E@random_internal@absl@@KAEXZ
    ?Generate@?$RandenPool@G@random_internal@absl@@KAGXZ
    ?Generate@?$RandenPool@I@random_internal@absl@@KAIXZ
    ?Generate@?$RandenPool@_K@random_internal@absl@@KA_KXZ
    ?Generate@RandenHwAes@random_internal@absl@@SAXPBXPAX@Z
    ?Generate@RandenSlow@random_internal@absl@@SAXPBXPAX@Z
    ?GetAllFlags@absl@@YA?AV?$flat_hash_map@V?$basic_string_view@DU?$char_traits@D@__Cr@std@@@__Cr@std@@PAVCommandLineFlag@absl@@UStringHash@container_internal@5@UStringEq@75@V?$allocator@U?$pair@$$CBV?$basic_string_view@DU?$char_traits@D@__Cr@std@@@__Cr@std@@PAVCommandLineFlag@absl@@@__Cr@std@@@23@@1@XZ
    ?GetAndroidNativeTag@log_internal@absl@@YAPBDXZ
    ?GetAppendBuffer@CordRepBtree@cord_internal@absl@@QAE?AV?$Span@D@3@I@Z
    ?GetAppendBufferSlow@CordRepBtree@cord_internal@absl@@AAE?AV?$Span@D@3@I@Z
    ?GetAppendBufferSlowPath@Cord@absl@@AAE?AVCordBuffer@2@III@Z
    ?GetArchSpecificEngines@CrcMemcpy@crc_internal@absl@@CA?AUArchSpecificEngines@123@XZ
    ?GetCachedTID@base_internal@absl@@YAIXZ
    ?GetCharacter@CordRepBtree@cord_internal@absl@@QBEDI@Z
    ?GetCordzStatistics@CordzInfo@cord_internal@absl@@QBE?AUCordzStatistics@23@XZ
    ?GetCpuType@crc_internal@absl@@YA?AW4CpuType@12@XZ
    ?GetCurrentTimeNanos@absl@@YA_JXZ
    ?GetDebugStackTraceHook@debugging_internal@absl@@YAP6AXQBQAXHP6AXPBDPAX@Z2@ZXZ
    ?GetEstimatedFairShareMemoryUsage@cord_internal@absl@@YAIPBUCordRep@12@@Z
    ?GetEstimatedMemoryUsage@cord_internal@absl@@YAIPBUCordRep@12@@Z
    ?GetFlagsHelpFormat@flags_internal@absl@@YA?AW4HelpFormat@12@XZ
    ?GetFlagsHelpMatchSubstr@flags_internal@absl@@YA?AV?$basic_string@DU?$char_traits@D@__Cr@std@@V?$allocator@D@23@@__Cr@std@@XZ
    ?GetFlagsHelpMode@flags_internal@absl@@YA?AW4HelpMode@12@XZ
    ?GetFlatAux@Cord@absl@@CA_NPAUCordRep@cord_internal@2@PAV?$basic_string_view@DU?$char_traits@D@__Cr@std@@@__Cr@std@@@Z
    ?GetHashtablezMaxSamples@container_internal@absl@@YAIXZ
    ?GetHashtablezSampleParameter@container_internal@absl@@YAHXZ
    ?GetId@GraphCycles@synchronization_internal@absl@@QAE?AUGraphId@23@PAX@Z
    ?GetKeys@RandenHwAes@random_internal@absl@@SAPBXXZ
    ?GetKeys@RandenSlow@random_internal@absl@@SAPBXXZ
    ?GetMisspellingHints@flags_internal@absl@@YA?AV?$vector@V?$basic_string@DU?$char_traits@D@__Cr@std@@V?$allocator@D@23@@__Cr@std@@V?$allocator@V?$basic_string@DU?$char_traits@D@__Cr@std@@V?$allocator@D@23@@__Cr@std@@@23@@__Cr@std@@V?$basic_string_view@DU?$char_traits@D@__Cr@std@@@45@@Z
    ?GetMorePreciseMemoryUsage@cord_internal@absl@@YAIPBUCordRep@12@@Z
    ?GetParentMethod@CordzInfo@cord_internal@absl@@CA?AW4MethodIdentifier@CordzUpdateTracker@23@PBV123@@Z
    ?GetParentStack@CordzInfo@cord_internal@absl@@QBE?AV?$Span@QAX@3@XZ
    ?GetPayload@StatusRep@status_internal@absl@@QBE?AV?$optional@VCord@absl@@@__Cr@std@@V?$basic_string_view@DU?$char_traits@D@__Cr@std@@@56@@Z
    ?GetProgramCounter@debugging_internal@absl@@YAPAXQAX@Z
    ?GetSaltMaterial@random_internal@absl@@YA?AV?$optional@I@__Cr@std@@XZ
    ?GetSkipCount@ExponentialBiased@profiling_internal@absl@@QAE_J_J@Z
    ?GetStack@CordzInfo@cord_internal@absl@@QBE?AV?$Span@QAX@3@XZ
    ?GetStackFrames@absl@@YAHPAPAXPAHHH@Z
    ?GetStackFramesWithContext@absl@@YAHPAPAXPAHHHPBX1@Z
    ?GetStackTrace@GraphCycles@synchronization_internal@absl@@QAEHUGraphId@23@PAPAPAX@Z
    ?GetStackTrace@absl@@YAHPAPAXHH@Z
    ?GetStackTraceWithContext@absl@@YAHPAPAXHHPBXPAH@Z
    ?GetStatusPayloadPrinter@status_internal@absl@@YAP6A?AV?$optional@V?$basic_string@DU?$char_traits@D@__Cr@std@@V?$allocator@D@23@@__Cr@std@@@__Cr@std@@V?$basic_string_view@DU?$char_traits@D@__Cr@std@@@45@ABVCord@2@@ZXZ
    ?GetStride@ExponentialBiased@profiling_internal@absl@@QAE_J_J@Z
    ?GetTID@base_internal@absl@@YAIXZ
    ?GetTestEngine@CrcMemcpy@crc_internal@absl@@SA?AV?$unique_ptr@VCrcMemcpyEngine@crc_internal@absl@@U?$default_delete@VCrcMemcpyEngine@crc_internal@absl@@@__Cr@std@@@__Cr@std@@HH@Z
    ?GetThreadBlockedCounter@PerThreadSem@synchronization_internal@absl@@SAPAU?$atomic@H@__Cr@std@@XZ
    ?GetTransitionType@TimeZoneInfo@cctz@time_internal@absl@@AAE_NH_NABV?$basic_string@DU?$char_traits@D@__Cr@std@@V?$allocator@D@23@@__Cr@std@@PAE@Z
    ?GetUsageConfig@flags_internal@absl@@YA?AUFlagsUsageConfig@2@XZ
    ?GetWord@?$BigUnsigned@$03@strings_internal@absl@@QBEIH@Z
    ?GetWord@?$BigUnsigned@$0FE@@strings_internal@absl@@QBEIH@Z
    ?GlobalHashtablezSampler@container_internal@absl@@YAAAV?$SampleRecorder@UHashtablezInfo@container_internal@absl@@@profiling_internal@2@XZ
    ?GlobalRegistry@FlagRegistry@flags_internal@absl@@SAAAV123@XZ
    ?GrowIntoSingleGroupShuffleControlBytes@HashSetResizeHelper@container_internal@absl@@ABEXPAW4ctrl_t@23@I@Z
    ?GrowIntoSingleGroupShuffleTransferableSlots@HashSetResizeHelper@container_internal@absl@@ABEXPAXI@Z
    ?GrowSizeIntoSingleGroupTransferable@HashSetResizeHelper@container_internal@absl@@AAEXAAVCommonFields@23@I@Z
    ?GuaranteedEqual@Condition@absl@@SA_NPBV12@0@Z
    ?HandleInvalidStatusCtorArg@Helper@internal_statusor@absl@@SAXPAVStatus@3@@Z
    ?HandleUsageFlags@flags_internal@absl@@YA?AW4HelpMode@12@AAV?$basic_ostream@DU?$char_traits@D@__Cr@std@@@__Cr@std@@V?$basic_string_view@DU?$char_traits@D@__Cr@std@@@56@@Z
    ?HasBeenNotifiedInternal@Notification@absl@@CA_NPBU?$atomic@_N@__Cr@std@@@Z
    ?HasEdge@GraphCycles@synchronization_internal@absl@@QBE_NUGraphId@23@0@Z
    ?HasNode@GraphCycles@synchronization_internal@absl@@QAE_NUGraphId@23@@Z
    ?HasRandenHwAesImplementation@random_internal@absl@@YA_NXZ
    ?Head@CordzInfo@cord_internal@absl@@SAPAV123@ABVCordzSnapshot@23@@Z
    ?Help@FlagImpl@flags_internal@absl@@EBE?AV?$basic_string@DU?$char_traits@D@__Cr@std@@V?$allocator@D@23@@__Cr@std@@XZ
    ?HexStringToBytes@absl@@YA?AV?$basic_string@DU?$char_traits@D@__Cr@std@@V?$allocator@D@23@@__Cr@std@@V?$basic_string_view@DU?$char_traits@D@__Cr@std@@@34@@Z
    ?HexStringToBytes@absl@@YA_NV?$basic_string_view@DU?$char_traits@D@__Cr@std@@@__Cr@std@@PAV?$basic_string@DU?$char_traits@D@__Cr@std@@V?$allocator@D@23@@34@@Z
    ?IDivDuration@absl@@YA_JVDuration@1@0PAV21@@Z
    ?In@Time@absl@@QBE?AUBreakdown@12@VTimeZone@2@@Z
    ?InMillisecondsFromNow@KernelTimeout@synchronization_internal@absl@@QBEKXZ
    ?InNanosecondsFromNow@KernelTimeout@synchronization_internal@absl@@ABE_JXZ
    ?IncrementSynchSem@Mutex@absl@@CAXPAV12@PAUPerThreadSynch@base_internal@2@@Z
    ?Init@CordRepBtreeReader@cord_internal@absl@@QAE?AV?$basic_string_view@DU?$char_traits@D@__Cr@std@@@__Cr@std@@PAVCordRepBtree@23@@Z
    ?Init@FlagImpl@flags_internal@absl@@AAEXXZ
    ?InitControlBytesAfterSoo@HashSetResizeHelper@container_internal@absl@@AAEXPAW4ctrl_t@23@W4423@I@Z
    ?InitDiscreteDistribution@random_internal@absl@@YA?AV?$vector@U?$pair@NI@__Cr@std@@V?$allocator@U?$pair@NI@__Cr@std@@@23@@__Cr@std@@PAV?$vector@NV?$allocator@N@__Cr@std@@@45@@Z
    ?InitFrom@?$Storage@UPayload@status_internal@absl@@$00V?$allocator@UPayload@status_internal@absl@@@__Cr@std@@@inlined_vector_internal@absl@@QAEXABV123@@Z
    ?InitTables@CRC32@crc_internal@absl@@UAEXXZ
    ?InitTree@ChunkIterator@Cord@absl@@AAEXPAUCordRep@cord_internal@3@@Z
    ?InitWhat@BadStatusOrAccess@absl@@ABEXXZ
    ?Initialize@ExponentialBiased@profiling_internal@absl@@AAEXXZ
    ?InitializeCordRepExternal@cord_internal@absl@@YAXV?$basic_string_view@DU?$char_traits@D@__Cr@std@@@__Cr@std@@PAUCordRepExternal@12@@Z
    ?InitializeLog@absl@@YAXXZ
    ?InitializeSymbolizer@absl@@YAXPBD@Z
    ?InsertEdge@GraphCycles@synchronization_internal@absl@@QAE_NUGraphId@23@0@Z
    ?InstallFailureSignalHandler@absl@@YAXABUFailureSignalHandlerOptions@1@@Z
    ?InternalAttemptToUseMutexInFatalSignalHandler@Mutex@absl@@SAXXZ
    ?InternalCondVarPoke@StdcppWaiter@synchronization_internal@absl@@AAEXXZ
    ?InternalCondVarPoke@Win32Waiter@synchronization_internal@absl@@AAEXXZ
    ?InternalError@absl@@YA?AVStatus@1@V?$basic_string_view@DU?$char_traits@D@__Cr@std@@@__Cr@std@@@Z
    ?InvalidArgumentError@absl@@YA?AVStatus@1@V?$basic_string_view@DU?$char_traits@D@__Cr@std@@@__Cr@std@@@Z
    ?InvokeCallback@FlagImpl@flags_internal@absl@@QBEXXZ
    ?IsAborted@absl@@YA_NABVStatus@1@@Z
    ?IsAlreadyExists@absl@@YA_NABVStatus@1@@Z
    ?IsCancelled@absl@@YA_NABVStatus@1@@Z
    ?IsCordBtreeExhaustiveValidationEnabled@cord_internal@absl@@YA_NXZ
    ?IsDataLoss@absl@@YA_NABVStatus@1@@Z
    ?IsDeadlineExceeded@absl@@YA_NABVStatus@1@@Z
    ?IsFailedPrecondition@absl@@YA_NABVStatus@1@@Z
    ?IsFatal@LogMessage@log_internal@absl@@ABE_NXZ
    ?IsFlat@CordRepBtree@cord_internal@absl@@QBE_NIIPAV?$basic_string_view@DU?$char_traits@D@__Cr@std@@@__Cr@std@@@Z
    ?IsFlat@CordRepBtree@cord_internal@absl@@QBE_NPAV?$basic_string_view@DU?$char_traits@D@__Cr@std@@@__Cr@std@@@Z
    ?IsHashtablezEnabled@container_internal@absl@@YA_NXZ
    ?IsInitialized@log_internal@absl@@YA_NXZ
    ?IsInternal@absl@@YA_NABVStatus@1@@Z
    ?IsInvalidArgument@absl@@YA_NABVStatus@1@@Z
    ?IsNotFound@absl@@YA_NABVStatus@1@@Z
    ?IsOutOfRange@absl@@YA_NABVStatus@1@@Z
    ?IsPermissionDenied@absl@@YA_NABVStatus@1@@Z
    ?IsReachable@GraphCycles@synchronization_internal@absl@@QBE_NUGraphId@23@0@Z
    ?IsResourceExhausted@absl@@YA_NABVStatus@1@@Z
    ?IsRetired@CommandLineFlag@absl@@UBE_NXZ
    ?IsSpecifiedOnCommandLine@FlagImpl@flags_internal@absl@@EBE_NXZ
    ?IsSpecifiedOnCommandLine@PrivateHandleAccessor@flags_internal@absl@@SA_NABVCommandLineFlag@3@@Z
    ?IsUnauthenticated@absl@@YA_NABVStatus@1@@Z
    ?IsUnavailable@absl@@YA_NABVStatus@1@@Z
    ?IsUnimplemented@absl@@YA_NABVStatus@1@@Z
    ?IsUnknown@absl@@YA_NABVStatus@1@@Z
    ?IsValid@CordRepBtree@cord_internal@absl@@SA_NPBV123@_N@Z
    ?KeyFunction@LogSink@absl@@EBEXXZ
    ?LengthModToString@str_format_internal@absl@@YA?AV?$basic_string@DU?$char_traits@D@__Cr@std@@V?$allocator@D@23@@__Cr@std@@W4LengthMod@2@@Z
    ?LengthToTag@CordTestAccess@strings_internal@absl@@SAEI@Z
    ?Load@TimeZoneInfo@cctz@time_internal@absl@@AAE_NABV?$basic_string@DU?$char_traits@D@__Cr@std@@V?$allocator@D@23@@__Cr@std@@@Z
    ?Load@TimeZoneInfo@cctz@time_internal@absl@@AAE_NPAVZoneInfoSource@234@@Z
    ?LoadTimeZone@Impl@time_zone@cctz@time_internal@absl@@SA_NABV?$basic_string@DU?$char_traits@D@__Cr@std@@V?$allocator@D@23@@__Cr@std@@PAV2345@@Z
    ?LocalTime@TimeZoneInfo@cctz@time_internal@absl@@ABE?AUabsolute_lookup@time_zone@234@_JABUTransition@234@@Z
    ?LocalTime@TimeZoneInfo@cctz@time_internal@absl@@ABE?AUabsolute_lookup@time_zone@234@_JABUTransitionType@234@@Z
    ?Lock@CordzInfo@cord_internal@absl@@QAEXW4MethodIdentifier@CordzUpdateTracker@23@@Z
    ?Lock@Mutex@absl@@QAEXXZ
    ?LockSlow@Mutex@absl@@AAEXPBUMuHowS@2@PBVCondition@2@H@Z
    ?LockSlowLoop@Mutex@absl@@AAEXPAUSynchWaitParams@2@H@Z
    ?LockSlowWithDeadline@Mutex@absl@@AAE_NPBUMuHowS@2@PBVCondition@2@VKernelTimeout@synchronization_internal@2@H@Z
    ?LockWhenCommon@Mutex@absl@@AAE_NABVCondition@2@VKernelTimeout@synchronization_internal@2@_N@Z
    ?LogBacktraceIfNeeded@LogMessage@log_internal@absl@@AAEXXZ
    ?LogFatalNodeType@cord_internal@absl@@YAXPAUCordRep@12@@Z
    ?LogToSinks@log_internal@absl@@YAXABVLogEntry@2@V?$Span@PAVLogSink@absl@@@2@_N@Z
    ?LowLevelHash@hash_internal@absl@@YA_KPBXI_KQB_K@Z
    ?LowLevelHashImpl@MixingHashState@hash_internal@absl@@CA_KPBEI@Z
    ?LowLevelHashLenGt16@hash_internal@absl@@YA_KPBXI_KQB_K@Z
    ?Make@TimeZoneIf@cctz@time_internal@absl@@SA?AV?$unique_ptr@VTimeZoneIf@cctz@time_internal@absl@@U?$default_delete@VTimeZoneIf@cctz@time_internal@absl@@@__Cr@std@@@__Cr@std@@ABV?$basic_string@DU?$char_traits@D@__Cr@std@@V?$allocator@D@23@@67@@Z
    ?Make@TimeZoneInfo@cctz@time_internal@absl@@SA?AV?$unique_ptr@VTimeZoneInfo@cctz@time_internal@absl@@U?$default_delete@VTimeZoneInfo@cctz@time_internal@absl@@@__Cr@std@@@__Cr@std@@ABV?$basic_string@DU?$char_traits@D@__Cr@std@@V?$allocator@D@23@@67@@Z
    ?Make@TimeZoneLibC@cctz@time_internal@absl@@SA?AV?$unique_ptr@VTimeZoneLibC@cctz@time_internal@absl@@U?$default_delete@VTimeZoneLibC@cctz@time_internal@absl@@@__Cr@std@@@__Cr@std@@ABV?$basic_string@DU?$char_traits@D@__Cr@std@@V?$allocator@D@23@@67@@Z
    ?MakeAbsNanos@KernelTimeout@synchronization_internal@absl@@QBE_JXZ
    ?MakeAbsTimespec@KernelTimeout@synchronization_internal@absl@@QBE?AUtimespec@@XZ
    ?MakeCheckFailString@status_internal@absl@@YAPAV?$basic_string@DU?$char_traits@D@__Cr@std@@V?$allocator@D@23@@__Cr@std@@PBVStatus@2@PBD@Z
    ?MakeCheckOpValueString@log_internal@absl@@YAXAAV?$basic_ostream@DU?$char_traits@D@__Cr@std@@@__Cr@std@@C@Z
    ?MakeCheckOpValueString@log_internal@absl@@YAXAAV?$basic_ostream@DU?$char_traits@D@__Cr@std@@@__Cr@std@@D@Z
    ?MakeCheckOpValueString@log_internal@absl@@YAXAAV?$basic_ostream@DU?$char_traits@D@__Cr@std@@@__Cr@std@@E@Z
    ?MakeCheckOpValueString@log_internal@absl@@YAXAAV?$basic_ostream@DU?$char_traits@D@__Cr@std@@@__Cr@std@@PBX@Z
    ?MakeInitValue@FlagImpl@flags_internal@absl@@ABE?AV?$unique_ptr@XUDynValueDeleter@flags_internal@absl@@@__Cr@std@@XZ
    ?MakeRelativeTimespec@KernelTimeout@synchronization_internal@absl@@QBE?AUtimespec@@XZ
    ?MakeSeedSeq@absl@@YA?AV?$SaltedSeedSeq@Vseed_seq@__Cr@std@@@random_internal@1@XZ
    ?MakeTime@TimeZoneInfo@cctz@time_internal@absl@@UBE?AUcivil_lookup@time_zone@234@ABV?$civil_time@Usecond_tag@detail@cctz@time_internal@absl@@@detail@234@@Z
    ?MakeTime@TimeZoneLibC@cctz@time_internal@absl@@UBE?AUcivil_lookup@time_zone@234@ABV?$civil_time@Usecond_tag@detail@cctz@time_internal@absl@@@detail@234@@Z
    ?MapToLocalCode@status_internal@absl@@YA?AW4StatusCode@2@H@Z
    ?MatchesConversions@ParsedFormatBase@str_format_internal@absl@@ABE_N_NV?$initializer_list@W4FormatConversionCharSet@absl@@@std@@@Z
    ?MaxFlatLength@CordTestAccess@strings_internal@absl@@SAIXZ
    ?MaxFramesInLogStackTrace@log_internal@absl@@YAHXZ
    ?MaybeBecomeIdle@WaiterBase@synchronization_internal@absl@@KAXXZ
    ?MaybeExit@flags_internal@absl@@YAXW4HelpMode@12@@Z
    ?MaybeGetCrcCordState@Cord@absl@@ABEPBVCrcCordState@crc_internal@2@XZ
    ?MaybeTrackCordImpl@CordzInfo@cord_internal@absl@@CAXAAVInlineData@23@ABV423@W4MethodIdentifier@CordzUpdateTracker@23@@Z
    ?MemcpyCrc32c@absl@@YA?AVcrc32c_t@1@PAXPBXIV21@@Z
    ?MergeTrees@CordRepBtree@cord_internal@absl@@CAPAV123@PAV123@0@Z
    ?MinLogLevel@absl@@YA?AW4LogSeverityAtLeast@1@XZ
    ?MixIntoSeedMaterial@random_internal@absl@@YAXV?$Span@$$CBI@2@V?$Span@I@2@@Z
    ?ModificationCount@FlagImpl@flags_internal@absl@@ABE_JXZ
    ?MovedFromString@Status@absl@@CAPBV?$basic_string@DU?$char_traits@D@__Cr@std@@V?$allocator@D@23@@__Cr@std@@XZ
    ?MultiplyBy@?$BigUnsigned@$03@strings_internal@absl@@AAEXHPBI@Z
    ?MultiplyBy@?$BigUnsigned@$03@strings_internal@absl@@QAEXI@Z
    ?MultiplyBy@?$BigUnsigned@$03@strings_internal@absl@@QAEX_K@Z
    ?MultiplyBy@?$BigUnsigned@$0FE@@strings_internal@absl@@AAEXHPBI@Z
    ?MultiplyBy@?$BigUnsigned@$0FE@@strings_internal@absl@@QAEXI@Z
    ?MultiplyBy@?$BigUnsigned@$0FE@@strings_internal@absl@@QAEX_K@Z
    ?MultiplyByFiveToTheNth@?$BigUnsigned@$03@strings_internal@absl@@QAEXH@Z
    ?MultiplyByFiveToTheNth@?$BigUnsigned@$0FE@@strings_internal@absl@@QAEXH@Z
    ?MultiplyByTenToTheNth@?$BigUnsigned@$03@strings_internal@absl@@QAEXH@Z
    ?MultiplyByTenToTheNth@?$BigUnsigned@$0FE@@strings_internal@absl@@QAEXH@Z
    ?MultiplyStep@?$BigUnsigned@$03@strings_internal@absl@@AAEXHPBIHH@Z
    ?MultiplyStep@?$BigUnsigned@$0FE@@strings_internal@absl@@AAEXHPBIHH@Z
    ?MutexDelay@synchronization_internal@absl@@YAHHH@Z
    ?Name@FlagImpl@flags_internal@absl@@EBE?AV?$basic_string_view@DU?$char_traits@D@__Cr@std@@@__Cr@std@@XZ
    ?New@CordRepCrc@cord_internal@absl@@SAPAU123@PAUCordRep@23@VCrcCordState@crc_internal@3@@Z
    ?NewArena@LowLevelAlloc@base_internal@absl@@SAPAUArena@123@I@Z
    ?NewCRC32AcceleratedX86ARMCombinedAll@crc_internal@absl@@YA?AV?$vector@V?$unique_ptr@VCRCImpl@crc_internal@absl@@U?$default_delete@VCRCImpl@crc_internal@absl@@@__Cr@std@@@__Cr@std@@V?$allocator@V?$unique_ptr@VCRCImpl@crc_internal@absl@@U?$default_delete@VCRCImpl@crc_internal@absl@@@__Cr@std@@@__Cr@std@@@23@@__Cr@std@@XZ
    ?NewInternal@CRCImpl@crc_internal@absl@@SAPAV123@XZ
    ?NewString@CheckOpMessageBuilder@log_internal@absl@@QAEPAV?$basic_string@DU?$char_traits@D@__Cr@std@@V?$allocator@D@23@@__Cr@std@@XZ
    ?Next@CordRepBtreeReader@cord_internal@absl@@QAE?AV?$basic_string_view@DU?$char_traits@D@__Cr@std@@@__Cr@std@@XZ
    ?Next@CordzInfo@cord_internal@absl@@QBEPAV123@ABVCordzSnapshot@23@@Z
    ?NextTransition@TimeZone@absl@@QBE_NVTime@2@PAUCivilTransition@12@@Z
    ?NextTransition@TimeZoneInfo@cctz@time_internal@absl@@UBE_NABV?$time_point@Vsystem_clock@chrono@__Cr@std@@V?$duration@_JV?$ratio@$00$00@__Cr@std@@@234@@chrono@__Cr@std@@PAUcivil_transition@time_zone@234@@Z
    ?NextTransition@TimeZoneLibC@cctz@time_internal@absl@@UBE_NABV?$time_point@Vsystem_clock@chrono@__Cr@std@@V?$duration@_JV?$ratio@$00$00@__Cr@std@@@234@@chrono@__Cr@std@@PAUcivil_transition@time_zone@234@@Z
    ?NoPrefix@LogMessage@log_internal@absl@@QAEAAV123@XZ
    ?NominalCPUFrequency@base_internal@absl@@YANXZ
    ?Normalize@CrcCordState@crc_internal@absl@@QAEXXZ
    ?NormalizedPrefixCrcAtNthChunk@CrcCordState@crc_internal@absl@@QBE?AUPrefixCrc@123@I@Z
    ?NotFoundError@absl@@YA?AVStatus@1@V?$basic_string_view@DU?$char_traits@D@__Cr@std@@@__Cr@std@@@Z
    ?Notify@Notification@absl@@QAEXXZ
    ?Now@CycleClock@base_internal@absl@@SA_JXZ
    ?Now@UnscaledCycleClock@base_internal@absl@@CA_JXZ
    ?Now@absl@@YA?AVTime@1@XZ
    ?NumCPUs@base_internal@absl@@YAHXZ
    ?OnVLogVerbosityUpdate@log_internal@absl@@YAXV?$function@$$A6AXXZ@__Cr@std@@@Z
    ?OneTimeInitThreadIdentity@synchronization_internal@absl@@YAXPAUThreadIdentity@base_internal@2@@Z
    ?OneWordValue@FlagImpl@flags_internal@absl@@ABEAAU?$atomic@_J@__Cr@std@@XZ
    ?OutOfRangeError@absl@@YA?AVStatus@1@V?$basic_string_view@DU?$char_traits@D@__Cr@std@@@__Cr@std@@@Z
    ?ParseAbseilFlagsOnly@absl@@YAXHQAPADAAV?$vector@PADV?$allocator@PAD@__Cr@std@@@__Cr@std@@AAV?$vector@UUnrecognizedFlag@absl@@V?$allocator@UUnrecognizedFlag@absl@@@__Cr@std@@@34@@Z
    ?ParseAbseilFlagsOnlyImpl@flags_internal@absl@@YA?AW4HelpMode@12@HQAPADAAV?$vector@PADV?$allocator@PAD@__Cr@std@@@__Cr@std@@AAV?$vector@UUnrecognizedFlag@absl@@V?$allocator@UUnrecognizedFlag@absl@@@__Cr@std@@@56@W4UsageFlagsAction@12@@Z
    ?ParseCivilTime@absl@@YA_NV?$basic_string_view@DU?$char_traits@D@__Cr@std@@@__Cr@std@@PAV?$civil_time@Uday_tag@time_internal@absl@@@detail@cctz@time_internal@1@@Z
    ?ParseCivilTime@absl@@YA_NV?$basic_string_view@DU?$char_traits@D@__Cr@std@@@__Cr@std@@PAV?$civil_time@Uhour_tag@time_internal@absl@@@detail@cctz@time_internal@1@@Z
    ?ParseCivilTime@absl@@YA_NV?$basic_string_view@DU?$char_traits@D@__Cr@std@@@__Cr@std@@PAV?$civil_time@Uminute_tag@time_internal@absl@@@detail@cctz@time_internal@1@@Z
    ?ParseCivilTime@absl@@YA_NV?$basic_string_view@DU?$char_traits@D@__Cr@std@@@__Cr@std@@PAV?$civil_time@Umonth_tag@time_internal@absl@@@detail@cctz@time_internal@1@@Z
    ?ParseCivilTime@absl@@YA_NV?$basic_string_view@DU?$char_traits@D@__Cr@std@@@__Cr@std@@PAV?$civil_time@Usecond_tag@time_internal@absl@@@detail@cctz@time_internal@1@@Z
    ?ParseCivilTime@absl@@YA_NV?$basic_string_view@DU?$char_traits@D@__Cr@std@@@__Cr@std@@PAV?$civil_time@Uyear_tag@time_internal@absl@@@detail@cctz@time_internal@1@@Z
    ?ParseCommandLine@absl@@YA?AV?$vector@PADV?$allocator@PAD@__Cr@std@@@__Cr@std@@HQAPAD@Z
    ?ParseCommandLineImpl@flags_internal@absl@@YA?AV?$vector@PADV?$allocator@PAD@__Cr@std@@@__Cr@std@@HQAPADW4UsageFlagsAction@12@W4OnUndefinedFlag@12@AAV?$basic_ostream@DU?$char_traits@D@__Cr@std@@@45@@Z
    ?ParseDigits@str_format_internal@absl@@YAHAADAAPBDQBD@Z
    ?ParseDuration@absl@@YA_NV?$basic_string_view@DU?$char_traits@D@__Cr@std@@@__Cr@std@@PAVDuration@1@@Z
    ?ParseFlag@absl@@YA_NABV?$basic_string@DU?$char_traits@D@__Cr@std@@V?$allocator@D@23@@__Cr@std@@PAVDuration@1@PAV234@@Z
    ?ParseFlag@absl@@YA_NABV?$basic_string@DU?$char_traits@D@__Cr@std@@V?$allocator@D@23@@__Cr@std@@PAVTime@1@PAV234@@Z
    ?ParseFrom@CommandLineFlag@absl@@QAE_NV?$basic_string_view@DU?$char_traits@D@__Cr@std@@@__Cr@std@@PAV?$basic_string@DU?$char_traits@D@__Cr@std@@V?$allocator@D@23@@45@@Z
    ?ParseFrom@FlagImpl@flags_internal@absl@@EAE_NV?$basic_string_view@DU?$char_traits@D@__Cr@std@@@__Cr@std@@W4FlagSettingMode@23@W4ValueSource@23@AAV?$basic_string@DU?$char_traits@D@__Cr@std@@V?$allocator@D@23@@56@@Z
    ?ParseFrom@PrivateHandleAccessor@flags_internal@absl@@SA_NAAVCommandLineFlag@3@V?$basic_string_view@DU?$char_traits@D@__Cr@std@@@__Cr@std@@W4FlagSettingMode@23@W4ValueSource@23@AAV?$basic_string@DU?$char_traits@D@__Cr@std@@V?$allocator@D@23@@67@@Z
    ?ParseLenientCivilTime@absl@@YA_NV?$basic_string_view@DU?$char_traits@D@__Cr@std@@@__Cr@std@@PAV?$civil_time@Uday_tag@time_internal@absl@@@detail@cctz@time_internal@1@@Z
    ?ParseLenientCivilTime@absl@@YA_NV?$basic_string_view@DU?$char_traits@D@__Cr@std@@@__Cr@std@@PAV?$civil_time@Uhour_tag@time_internal@absl@@@detail@cctz@time_internal@1@@Z
    ?ParseLenientCivilTime@absl@@YA_NV?$basic_string_view@DU?$char_traits@D@__Cr@std@@@__Cr@std@@PAV?$civil_time@Uminute_tag@time_internal@absl@@@detail@cctz@time_internal@1@@Z
    ?ParseLenientCivilTime@absl@@YA_NV?$basic_string_view@DU?$char_traits@D@__Cr@std@@@__Cr@std@@PAV?$civil_time@Umonth_tag@time_internal@absl@@@detail@cctz@time_internal@1@@Z
    ?ParseLenientCivilTime@absl@@YA_NV?$basic_string_view@DU?$char_traits@D@__Cr@std@@@__Cr@std@@PAV?$civil_time@Usecond_tag@time_internal@absl@@@detail@cctz@time_internal@1@@Z
    ?ParseLenientCivilTime@absl@@YA_NV?$basic_string_view@DU?$char_traits@D@__Cr@std@@@__Cr@std@@PAV?$civil_time@Uyear_tag@time_internal@absl@@@detail@cctz@time_internal@1@@Z
    ?ParsePosixSpec@cctz@time_internal@absl@@YA_NABV?$basic_string@DU?$char_traits@D@__Cr@std@@V?$allocator@D@23@@__Cr@std@@PAUPosixTimeZone@123@@Z
    ?ParseTime@absl@@YA_NV?$basic_string_view@DU?$char_traits@D@__Cr@std@@@__Cr@std@@0PAVTime@1@PAV?$basic_string@DU?$char_traits@D@__Cr@std@@V?$allocator@D@23@@34@@Z
    ?ParseTime@absl@@YA_NV?$basic_string_view@DU?$char_traits@D@__Cr@std@@@__Cr@std@@0VTimeZone@1@PAVTime@1@PAV?$basic_string@DU?$char_traits@D@__Cr@std@@V?$allocator@D@23@@34@@Z
    ?PermissionDeniedError@absl@@YA?AVStatus@1@V?$basic_string_view@DU?$char_traits@D@__Cr@std@@@__Cr@std@@@Z
    ?Poison@CrcCordState@crc_internal@absl@@QAEXXZ
    ?Poke@StdcppWaiter@synchronization_internal@absl@@QAEXXZ
    ?Poke@Win32Waiter@synchronization_internal@absl@@QAEXXZ
    ?Post@StdcppWaiter@synchronization_internal@absl@@QAEXXZ
    ?Post@Win32Waiter@synchronization_internal@absl@@QAEXXZ
    ?PrepareForSampling@HashtablezInfo@container_internal@absl@@QAEX_JIIIG@Z
    ?PrepareInsertAfterSoo@container_internal@absl@@YAIIIAAVCommonFields@12@@Z
    ?PrepareToDie@LogMessage@log_internal@absl@@AAEXXZ
    ?PrepareToModify@Status@absl@@CAPAVStatusRep@status_internal@2@I@Z
    ?Prepend@Cord@absl@@QAEXABV12@@Z
    ?Prepend@CordRepBtree@cord_internal@absl@@SAPAV123@PAV123@V?$basic_string_view@DU?$char_traits@D@__Cr@std@@@__Cr@std@@I@Z
    ?PrependArray@Cord@absl@@AAEXV?$basic_string_view@DU?$char_traits@D@__Cr@std@@@__Cr@std@@W4MethodIdentifier@CordzUpdateTracker@cord_internal@2@@Z
    ?PrependPrecise@Cord@absl@@AAEXV?$basic_string_view@DU?$char_traits@D@__Cr@std@@@__Cr@std@@W4MethodIdentifier@CordzUpdateTracker@cord_internal@2@@Z
    ?PrependSlow@CordRepBtree@cord_internal@absl@@CAPAV123@PAV123@PAUCordRep@23@@Z
    ?PrependTree@InlineRep@Cord@absl@@QAEXPAUCordRep@cord_internal@3@W4MethodIdentifier@CordzUpdateTracker@53@@Z
    ?PrependTreeToInlined@InlineRep@Cord@absl@@QAEXPAUCordRep@cord_internal@3@W4MethodIdentifier@CordzUpdateTracker@53@@Z
    ?PrependTreeToTree@InlineRep@Cord@absl@@QAEXPAUCordRep@cord_internal@3@W4MethodIdentifier@CordzUpdateTracker@53@@Z
    ?PrependVModule@log_internal@absl@@YAHV?$basic_string_view@DU?$char_traits@D@__Cr@std@@@__Cr@std@@H@Z
    ?PrevTransition@TimeZone@absl@@QBE_NVTime@2@PAUCivilTransition@12@@Z
    ?PrevTransition@TimeZoneInfo@cctz@time_internal@absl@@UBE_NABV?$time_point@Vsystem_clock@chrono@__Cr@std@@V?$duration@_JV?$ratio@$00$00@__Cr@std@@@234@@chrono@__Cr@std@@PAUcivil_transition@time_zone@234@@Z
    ?PrevTransition@TimeZoneLibC@cctz@time_internal@absl@@UBE_NABV?$time_point@Vsystem_clock@chrono@__Cr@std@@V?$duration@_JV?$ratio@$00$00@__Cr@std@@@234@@chrono@__Cr@std@@PAUcivil_transition@time_zone@234@@Z
    ?Print@Streamable@str_format_internal@absl@@QBEAAV?$basic_ostream@DU?$char_traits@D@__Cr@std@@@__Cr@std@@AAV456@@Z
    ?ProgramInvocationName@flags_internal@absl@@YA?AV?$basic_string@DU?$char_traits@D@__Cr@std@@V?$allocator@D@23@@__Cr@std@@XZ
    ?ProgramUsageMessage@absl@@YA?AV?$basic_string_view@DU?$char_traits@D@__Cr@std@@@__Cr@std@@XZ
    ?Ptr@GraphCycles@synchronization_internal@absl@@QAEPAXUGraphId@23@@Z
    ?PutPaddedString@FormatSinkImpl@str_format_internal@absl@@QAE_NV?$basic_string_view@DU?$char_traits@D@__Cr@std@@@__Cr@std@@HH_N@Z
    ?PutTwoDigits@numbers_internal@absl@@YAXIPAD@Z
    ?RawEnableLogPrefix@log_internal@absl@@YAX_N@Z
    ?RawLog@raw_log_internal@absl@@YAXW4LogSeverity@2@PBDH1ZZ
    ?RawLoggingFullySupported@raw_log_internal@absl@@YA_NXZ
    ?RawSetMinLogLevel@log_internal@absl@@YAXW4LogSeverityAtLeast@2@@Z
    ?RawSetStderrThreshold@log_internal@absl@@YAXW4LogSeverityAtLeast@2@@Z
    ?Read@CordRepBtreeNavigator@cord_internal@absl@@QAE?AUReadResult@123@II@Z
    ?Read@CordRepBtreeReader@cord_internal@absl@@QAE?AV?$basic_string_view@DU?$char_traits@D@__Cr@std@@@__Cr@std@@IIAAPAUCordRep@23@@Z
    ?Read@FlagImpl@flags_internal@absl@@UBEXPAX@Z
    ?ReadDigits@?$BigUnsigned@$03@strings_internal@absl@@AAEHPBD0H@Z
    ?ReadDigits@?$BigUnsigned@$0FE@@strings_internal@absl@@AAEHPBD0H@Z
    ?ReadFloatMantissa@?$BigUnsigned@$03@strings_internal@absl@@QAEHABUParsedFloat@23@H@Z
    ?ReadFloatMantissa@?$BigUnsigned@$0FE@@strings_internal@absl@@QAEHABUParsedFloat@23@H@Z
    ?ReadOneBool@FlagImpl@flags_internal@absl@@QBE_NXZ
    ?ReadOneWord@FlagImpl@flags_internal@absl@@QBE_JXZ
    ?ReadSeedMaterialFromOSEntropy@random_internal@absl@@YA_NV?$Span@I@2@@Z
    ?ReadSequenceLockedData@FlagImpl@flags_internal@absl@@ABEXPAX@Z
    ?ReaderLock@Mutex@absl@@QAEXXZ
    ?ReaderTryLock@Mutex@absl@@QAE_NXZ
    ?ReaderTryLockSlow@Mutex@absl@@AAE_NXZ
    ?ReaderUnlock@Mutex@absl@@QAEXXZ
    ?Rebuild@CordRepBtree@cord_internal@absl@@CAXPAPAV123@PAV123@_N@Z
    ?Rebuild@CordRepBtree@cord_internal@absl@@SAPAV123@PAV123@@Z
    ?RecordClearedReservationSlow@container_internal@absl@@YAXPAUHashtablezInfo@12@@Z
    ?RecordEraseSlow@container_internal@absl@@YAXPAUHashtablezInfo@12@@Z
    ?RecordInsertSlow@container_internal@absl@@YAXPAUHashtablezInfo@12@II@Z
    ?RecordRehashSlow@container_internal@absl@@YAXPAUHashtablezInfo@12@I@Z
    ?RecordReservationSlow@container_internal@absl@@YAXPAUHashtablezInfo@12@I@Z
    ?RecordStorageChangedSlow@container_internal@absl@@YAXPAUHashtablezInfo@12@II@Z
    ?RefSharedEmptyRep@CrcCordState@crc_internal@absl@@CAPAURefcountedRep@123@XZ
    ?Register@CycleClockSource@base_internal@absl@@CAXP6A_JXZ@Z
    ?RegisterAbortHook@raw_log_internal@absl@@YAXP6AXPBDH000@Z@Z
    ?RegisterAndInitialize@log_internal@absl@@YAHPAVVLogSite@12@@Z
    ?RegisterCommandLineFlag@flags_internal@absl@@YA_NAAVCommandLineFlag@2@PBD@Z
    ?RegisterCondVarTracer@absl@@YAXP6AXPBDPBX@Z@Z
    ?RegisterDebugStackTraceHook@debugging_internal@absl@@YAXP6AXQBQAXHP6AXPBDPAX@Z2@Z@Z
    ?RegisterFlag@FlagRegistry@flags_internal@absl@@QAEXAAVCommandLineFlag@3@PBD@Z
    ?RegisterInternalLogFunction@raw_log_internal@absl@@YAXP6AXW4LogSeverity@2@PBDHABV?$basic_string@DU?$char_traits@D@__Cr@std@@V?$allocator@D@23@@__Cr@std@@@Z@Z
    ?RegisterLogFilterAndPrefixHook@raw_log_internal@absl@@YAXP6A_NW4LogSeverity@2@PBDHPAPADPAH@Z@Z
    ?RegisterMutexProfiler@absl@@YAXP6AX_J@Z@Z
    ?RegisterMutexTracer@absl@@YAXP6AXPBDPBX_J@Z@Z
    ?RegisterSpinLockProfiler@base_internal@absl@@YAXP6AXPBX_J@Z@Z
    ?Release@ReleasableMutexLock@absl@@QAEXXZ
    ?Remove@CondVar@absl@@AAEXPAUPerThreadSynch@base_internal@2@@Z
    ?RemoveCrc32cPrefix@absl@@YA?AVcrc32c_t@1@V21@0I@Z
    ?RemoveCrc32cSuffix@absl@@YA?AVcrc32c_t@1@V21@0I@Z
    ?RemoveEdge@GraphCycles@synchronization_internal@absl@@QAEXUGraphId@23@0@Z
    ?RemoveExtraAsciiWhitespace@absl@@YAXPAV?$basic_string@DU?$char_traits@D@__Cr@std@@V?$allocator@D@23@@__Cr@std@@@Z
    ?RemoveLogSink@log_internal@absl@@YAXPAVLogSink@2@@Z
    ?RemoveNode@GraphCycles@synchronization_internal@absl@@QAEXPAX@Z
    ?RemovePrefix@Cord@absl@@QAEXI@Z
    ?RemoveSuffix@Cord@absl@@QAEXI@Z
    ?RemoveSuffix@CordRepBtree@cord_internal@absl@@SAPAUCordRep@23@PAV123@I@Z
    ?ReportUnrecognizedFlags@absl@@YAXABV?$vector@UUnrecognizedFlag@absl@@V?$allocator@UUnrecognizedFlag@absl@@@__Cr@std@@@__Cr@std@@@Z
    ?ReportUsageError@flags_internal@absl@@YAXV?$basic_string_view@DU?$char_traits@D@__Cr@std@@@__Cr@std@@_N@Z
    ?ResetToBuiltinUTC@TimeZoneInfo@cctz@time_internal@absl@@AAE_NABV?$duration@_JV?$ratio@$00$00@__Cr@std@@@chrono@__Cr@std@@@Z
    ?ResourceExhaustedError@absl@@YA?AVStatus@1@V?$basic_string_view@DU?$char_traits@D@__Cr@std@@@__Cr@std@@@Z
    ?Restore@FlagState@flags_internal@absl@@EBEXXZ
    ?RestoreState@FlagImpl@flags_internal@absl@@AAE_NABVFlagState@23@@Z
    ?Rethrow@variant_internal@absl@@YAXXZ
    ?Retire@flags_internal@absl@@YAXPBDPBXPAD@Z
    ?ReverseConsume@cord_internal@absl@@YAXPAUCordRep@12@V?$FunctionRef@$$A6AXPAUCordRep@cord_internal@absl@@II@Z@2@@Z
    ?SafeToDelete@CordzHandle@cord_internal@absl@@QBE_NXZ
    ?SampleSlow@container_internal@absl@@YAPAUHashtablezInfo@12@AAUSamplingState@12@IIIG@Z
    ?SaveFromRegistry@FlagSaverImpl@flags_internal@absl@@QAEXXZ
    ?SaveState@FlagImpl@flags_internal@absl@@EAE?AV?$unique_ptr@VFlagStateInterface@flags_internal@absl@@U?$default_delete@VFlagStateInterface@flags_internal@absl@@@__Cr@std@@@__Cr@std@@XZ
    ?SaveState@PrivateHandleAccessor@flags_internal@absl@@SA?AV?$unique_ptr@VFlagStateInterface@flags_internal@absl@@U?$default_delete@VFlagStateInterface@flags_internal@absl@@@__Cr@std@@@__Cr@std@@AAVCommandLineFlag@3@@Z
    ?Scramble@CRC32@crc_internal@absl@@UBEXPAI@Z
    ?Seek@CordRepBtreeReader@cord_internal@absl@@QAE?AV?$basic_string_view@DU?$char_traits@D@__Cr@std@@@__Cr@std@@I@Z
    ?SendToLog@LogMessage@log_internal@absl@@AAEXXZ
    ?SetAndroidNativeTag@absl@@YAXPBD@Z
    ?SetCallback@FlagImpl@flags_internal@absl@@QAEXQ6AXXZ@Z
    ?SetCordBtreeExhaustiveValidation@cord_internal@absl@@YAX_N@Z
    ?SetCrcCordState@Cord@absl@@AAEXVCrcCordState@crc_internal@2@@Z
    ?SetCurrentThreadIdentity@base_internal@absl@@YAXPAUThreadIdentity@12@P6AXPAX@Z@Z
    ?SetExitOnDFatal@log_internal@absl@@YAX_N@Z
    ?SetExpectedChecksum@Cord@absl@@QAEXI@Z
    ?SetFailQuietly@LogMessage@log_internal@absl@@IAEXXZ
    ?SetFlagsHelpFormat@flags_internal@absl@@YAXW4HelpFormat@12@@Z
    ?SetFlagsHelpMatchSubstr@flags_internal@absl@@YAXV?$basic_string_view@DU?$char_traits@D@__Cr@std@@@__Cr@std@@@Z
    ?SetFlagsHelpMode@flags_internal@absl@@YAXW4HelpMode@12@@Z
    ?SetFlagsUsageConfig@absl@@YAXUFlagsUsageConfig@1@@Z
    ?SetHashtablezConfigListener@container_internal@absl@@YAXP6AXXZ@Z
    ?SetHashtablezEnabled@container_internal@absl@@YAX_N@Z
    ?SetHashtablezEnabledInternal@container_internal@absl@@YAX_N@Z
    ?SetHashtablezMaxSamples@container_internal@absl@@YAXI@Z
    ?SetHashtablezMaxSamplesInternal@container_internal@absl@@YAXI@Z
    ?SetHashtablezSampleParameter@container_internal@absl@@YAXH@Z
    ?SetHashtablezSampleParameterInternal@container_internal@absl@@YAXH@Z
    ?SetInitialized@log_internal@absl@@YAXXZ
    ?SetLogBacktraceLocation@absl@@YAXV?$basic_string_view@DU?$char_traits@D@__Cr@std@@@__Cr@std@@H@Z
    ?SetLoggingGlobalsListener@log_internal@absl@@YAXP6AXXZ@Z
    ?SetMaxFramesInLogStackTrace@log_internal@absl@@YAXH@Z
    ?SetMinLogLevel@absl@@YAXW4LogSeverityAtLeast@1@@Z
    ?SetMutexDeadlockDetectionMode@absl@@YAXW4OnDeadlockCycle@1@@Z
    ?SetPayload@StatusRep@status_internal@absl@@QAEXV?$basic_string_view@DU?$char_traits@D@__Cr@std@@@__Cr@std@@VCord@3@@Z
    ?SetProgramInvocationName@flags_internal@absl@@YAXV?$basic_string_view@DU?$char_traits@D@__Cr@std@@@__Cr@std@@@Z
    ?SetProgramUsageMessage@absl@@YAXV?$basic_string_view@DU?$char_traits@D@__Cr@std@@@__Cr@std@@@Z
    ?SetStackUnwinder@absl@@YAXP6AHPAPAXPAHHHPBX1@Z@Z
    ?SetStatusPayloadPrinter@status_internal@absl@@YAXP6A?AV?$optional@V?$basic_string@DU?$char_traits@D@__Cr@std@@V?$allocator@D@23@@__Cr@std@@@__Cr@std@@V?$basic_string_view@DU?$char_traits@D@__Cr@std@@@45@ABVCord@2@@Z@Z
    ?SetStderrThreshold@absl@@YAXW4LogSeverityAtLeast@1@@Z
    ?SetSuppressSigabortTrace@log_internal@absl@@YA_N_N@Z
    ?SetThreadBlockedCounter@PerThreadSem@synchronization_internal@absl@@SAXPAU?$atomic@H@__Cr@std@@@Z
    ?SetTimeZone@log_internal@absl@@YAXVTimeZone@2@@Z
    ?SetToZero@?$BigUnsigned@$03@strings_internal@absl@@QAEXXZ
    ?SetToZero@?$BigUnsigned@$0FE@@strings_internal@absl@@QAEXXZ
    ?SetVModuleListHeadForTestOnly@log_internal@absl@@YAPAVVLogSite@12@PAV312@@Z
    ?ShiftLeft@?$BigUnsigned@$03@strings_internal@absl@@QAEXH@Z
    ?ShiftLeft@?$BigUnsigned@$0FE@@strings_internal@absl@@QAEXH@Z
    ?ShortProgramInvocationName@flags_internal@absl@@YA?AV?$basic_string@DU?$char_traits@D@__Cr@std@@V?$allocator@D@23@@__Cr@std@@XZ
    ?ShouldInsertBackwardsForDebug@container_internal@absl@@YA_NIIPBW4ctrl_t@12@@Z
    ?ShouldLog@LogEveryNSecState@log_internal@absl@@QAE_NN@Z
    ?ShouldLog@LogEveryNState@log_internal@absl@@QAE_NH@Z
    ?ShouldLog@LogEveryPow2State@log_internal@absl@@QAE_NXZ
    ?ShouldLog@LogFirstNState@log_internal@absl@@QAE_NH@Z
    ?ShouldLogBacktraceAt@log_internal@absl@@YA_NV?$basic_string_view@DU?$char_traits@D@__Cr@std@@@__Cr@std@@H@Z
    ?ShouldPrependLogPrefix@absl@@YA_NXZ
    ?ShouldSymbolizeLogStackTrace@log_internal@absl@@YA_NXZ
    ?Signal@CondVar@absl@@QAEXXZ
    ?SignalAll@CondVar@absl@@QAEXXZ
    ?SimpleAtob@absl@@YA_NV?$basic_string_view@DU?$char_traits@D@__Cr@std@@@__Cr@std@@PA_N@Z
    ?SimpleAtod@absl@@YA_NV?$basic_string_view@DU?$char_traits@D@__Cr@std@@@__Cr@std@@PAN@Z
    ?SimpleAtof@absl@@YA_NV?$basic_string_view@DU?$char_traits@D@__Cr@std@@@__Cr@std@@PAM@Z
    ?SixDigitsToBuffer@numbers_internal@absl@@YAINPAD@Z
    ?SizeofCordRepExternal@CordTestAccess@strings_internal@absl@@SAIXZ
    ?SizeofCordRepSubstring@CordTestAccess@strings_internal@absl@@SAIXZ
    ?Skip@CordRepBtreeNavigator@cord_internal@absl@@QAE?AUPosition@123@I@Z
    ?SlowIsEnabled0@VLogSite@log_internal@absl@@AAE_NH@Z
    ?SlowIsEnabled1@VLogSite@log_internal@absl@@AAE_NH@Z
    ?SlowIsEnabled2@VLogSite@log_internal@absl@@AAE_NH@Z
    ?SlowIsEnabled3@VLogSite@log_internal@absl@@AAE_NH@Z
    ?SlowIsEnabled4@VLogSite@log_internal@absl@@AAE_NH@Z
    ?SlowIsEnabled5@VLogSite@log_internal@absl@@AAE_NH@Z
    ?SlowIsEnabled@VLogSite@log_internal@absl@@AAE_NHH@Z
    ?SlowLock@SpinLock@base_internal@absl@@AAEXXZ
    ?SlowUnlock@SpinLock@base_internal@absl@@AAEXI@Z
    ?SnprintF@str_format_internal@absl@@YAHPADIVUntypedFormatSpecImpl@12@V?$Span@$$CBVFormatArgImpl@str_format_internal@absl@@@2@@Z
    ?SpinLockSuggestedDelayNS@base_internal@absl@@YAHH@Z
    ?SpinLockWait@base_internal@absl@@YAIPAU?$atomic@I@__Cr@std@@HQBUSpinLockWaitTransition@12@W4SchedulingMode@12@@Z
    ?SpinLoop@SpinLock@base_internal@absl@@AAEIXZ
    ?StackTraceWorksForTest@debugging_internal@absl@@YA_NXZ
    ?StartsWithIgnoreCase@absl@@YA_NV?$basic_string_view@DU?$char_traits@D@__Cr@std@@@__Cr@std@@0@Z
    ?StatusCodeToString@absl@@YA?AV?$basic_string@DU?$char_traits@D@__Cr@std@@V?$allocator@D@23@@__Cr@std@@W4StatusCode@1@@Z
    ?StatusMessageAsCStr@absl@@YAPBDABVStatus@1@@Z
    ?StderrThreshold@absl@@YA?AW4LogSeverityAtLeast@1@XZ
    ?SteadyClockNow@KernelTimeout@synchronization_internal@absl@@CA_JXZ
    ?StoreValue@FlagImpl@flags_internal@absl@@AAEXPBX@Z
    ?StrAppend@absl@@YAXPAV?$basic_string@DU?$char_traits@D@__Cr@std@@V?$allocator@D@23@@__Cr@std@@ABVAlphaNum@1@111@Z
    ?StrAppend@absl@@YAXPAV?$basic_string@DU?$char_traits@D@__Cr@std@@V?$allocator@D@23@@__Cr@std@@ABVAlphaNum@1@11@Z
    ?StrAppend@absl@@YAXPAV?$basic_string@DU?$char_traits@D@__Cr@std@@V?$allocator@D@23@@__Cr@std@@ABVAlphaNum@1@1@Z
    ?StrAppend@absl@@YAXPAV?$basic_string@DU?$char_traits@D@__Cr@std@@V?$allocator@D@23@@__Cr@std@@ABVAlphaNum@1@@Z
    ?StrCat@absl@@YA?AV?$basic_string@DU?$char_traits@D@__Cr@std@@V?$allocator@D@23@@__Cr@std@@ABVAlphaNum@1@000@Z
    ?StrCat@absl@@YA?AV?$basic_string@DU?$char_traits@D@__Cr@std@@V?$allocator@D@23@@__Cr@std@@ABVAlphaNum@1@00@Z
    ?StrCat@absl@@YA?AV?$basic_string@DU?$char_traits@D@__Cr@std@@V?$allocator@D@23@@__Cr@std@@ABVAlphaNum@1@0@Z
    ?StrContainsIgnoreCase@absl@@YA_NV?$basic_string_view@DU?$char_traits@D@__Cr@std@@@__Cr@std@@0@Z
    ?StrContainsIgnoreCase@absl@@YA_NV?$basic_string_view@DU?$char_traits@D@__Cr@std@@@__Cr@std@@D@Z
    ?StrError@base_internal@absl@@YA?AV?$basic_string@DU?$char_traits@D@__Cr@std@@V?$allocator@D@23@@__Cr@std@@H@Z
    ?StrReplaceAll@absl@@YA?AV?$basic_string@DU?$char_traits@D@__Cr@std@@V?$allocator@D@23@@__Cr@std@@V?$basic_string_view@DU?$char_traits@D@__Cr@std@@@34@V?$initializer_list@U?$pair@V?$basic_string_view@DU?$char_traits@D@__Cr@std@@@__Cr@std@@V123@@__Cr@std@@@4@@Z
    ?StrReplaceAll@absl@@YAHV?$initializer_list@U?$pair@V?$basic_string_view@DU?$char_traits@D@__Cr@std@@@__Cr@std@@V123@@__Cr@std@@@std@@PAV?$basic_string@DU?$char_traits@D@__Cr@std@@V?$allocator@D@23@@__Cr@3@@Z
    ?SubTree@CordRepBtree@cord_internal@absl@@QAEPAUCordRep@23@II@Z
    ?Subcord@Cord@absl@@QBE?AV12@II@Z
    ?SubstituteAndAppendArray@substitute_internal@absl@@YAXPAV?$basic_string@DU?$char_traits@D@__Cr@std@@V?$allocator@D@23@@__Cr@std@@V?$basic_string_view@DU?$char_traits@D@__Cr@std@@@45@PBV645@I@Z
    ?Summarize@str_format_internal@absl@@YA?AV?$basic_string@DU?$char_traits@D@__Cr@std@@V?$allocator@D@23@@__Cr@std@@VUntypedFormatSpecImpl@12@V?$Span@$$CBVFormatArgImpl@str_format_internal@absl@@@2@@Z
    ?SupportsArmCRC32PMULL@crc_internal@absl@@YA_NXZ
    ?SuppressSigabortTrace@log_internal@absl@@YA_NXZ
    ?Symbolize@absl@@YA_NPBXPADH@Z
    ?ThreadIsLoggingToLogSink@log_internal@absl@@YA_NXZ
    ?ThrowBadStatusOrAccess@internal_statusor@absl@@YAXVStatus@2@@Z
    ?ThrowBadVariantAccess@variant_internal@absl@@YAXXZ
    ?ThrowSeedGenException@random_internal@absl@@YAXXZ
    ?ThrowStdBadAlloc@base_internal@absl@@YAXXZ
    ?ThrowStdBadFunctionCall@base_internal@absl@@YAXXZ
    ?ThrowStdDomainError@base_internal@absl@@YAXABV?$basic_string@DU?$char_traits@D@__Cr@std@@V?$allocator@D@23@@__Cr@std@@@Z
    ?ThrowStdDomainError@base_internal@absl@@YAXPBD@Z
    ?ThrowStdInvalidArgument@base_internal@absl@@YAXABV?$basic_string@DU?$char_traits@D@__Cr@std@@V?$allocator@D@23@@__Cr@std@@@Z
    ?ThrowStdInvalidArgument@base_internal@absl@@YAXPBD@Z
    ?ThrowStdLengthError@base_internal@absl@@YAXABV?$basic_string@DU?$char_traits@D@__Cr@std@@V?$allocator@D@23@@__Cr@std@@@Z
    ?ThrowStdLengthError@base_internal@absl@@YAXPBD@Z
    ?ThrowStdLogicError@base_internal@absl@@YAXABV?$basic_string@DU?$char_traits@D@__Cr@std@@V?$allocator@D@23@@__Cr@std@@@Z
    ?ThrowStdLogicError@base_internal@absl@@YAXPBD@Z
    ?ThrowStdOutOfRange@base_internal@absl@@YAXABV?$basic_string@DU?$char_traits@D@__Cr@std@@V?$allocator@D@23@@__Cr@std@@@Z
    ?ThrowStdOutOfRange@base_internal@absl@@YAXPBD@Z
    ?ThrowStdOverflowError@base_internal@absl@@YAXABV?$basic_string@DU?$char_traits@D@__Cr@std@@V?$allocator@D@23@@__Cr@std@@@Z
    ?ThrowStdOverflowError@base_internal@absl@@YAXPBD@Z
    ?ThrowStdRangeError@base_internal@absl@@YAXABV?$basic_string@DU?$char_traits@D@__Cr@std@@V?$allocator@D@23@@__Cr@std@@@Z
    ?ThrowStdRangeError@base_internal@absl@@YAXPBD@Z
    ?ThrowStdRuntimeError@base_internal@absl@@YAXABV?$basic_string@DU?$char_traits@D@__Cr@std@@V?$allocator@D@23@@__Cr@std@@@Z
    ?ThrowStdRuntimeError@base_internal@absl@@YAXPBD@Z
    ?ThrowStdUnderflowError@base_internal@absl@@YAXABV?$basic_string@DU?$char_traits@D@__Cr@std@@V?$allocator@D@23@@__Cr@std@@@Z
    ?ThrowStdUnderflowError@base_internal@absl@@YAXPBD@Z
    ?Tick@PerThreadSem@synchronization_internal@absl@@SAXPAUThreadIdentity@base_internal@3@@Z
    ?TimeFromTimespec@absl@@YA?AVTime@1@Utimespec@@@Z
    ?TimeFromTimeval@absl@@YA?AVTime@1@Utimeval@@@Z
    ?TimeLocal@TimeZoneInfo@cctz@time_internal@absl@@ABE?AUcivil_lookup@time_zone@234@ABV?$civil_time@Usecond_tag@detail@cctz@time_internal@absl@@@detail@234@_J@Z
    ?TimeZone@log_internal@absl@@YAPBV02@XZ
    ?ToChronoDuration@KernelTimeout@synchronization_internal@absl@@QBE?AV?$duration@_JV?$ratio@$00$0DLJKMKAA@@__Cr@std@@@chrono@__Cr@std@@XZ
    ?ToChronoHours@absl@@YA?AV?$duration@JV?$ratio@$0OBA@$00@__Cr@std@@@chrono@__Cr@std@@VDuration@1@@Z
    ?ToChronoMicroseconds@absl@@YA?AV?$duration@_JV?$ratio@$00$0PECEA@@__Cr@std@@@chrono@__Cr@std@@VDuration@1@@Z
    ?ToChronoMilliseconds@absl@@YA?AV?$duration@_JV?$ratio@$00$0DOI@@__Cr@std@@@chrono@__Cr@std@@VDuration@1@@Z
    ?ToChronoMinutes@absl@@YA?AV?$duration@JV?$ratio@$0DM@$00@__Cr@std@@@chrono@__Cr@std@@VDuration@1@@Z
    ?ToChronoNanoseconds@absl@@YA?AV?$duration@_JV?$ratio@$00$0DLJKMKAA@@__Cr@std@@@chrono@__Cr@std@@VDuration@1@@Z
    ?ToChronoSeconds@absl@@YA?AV?$duration@_JV?$ratio@$00$00@__Cr@std@@@chrono@__Cr@std@@VDuration@1@@Z
    ?ToChronoTime@absl@@YA?AV?$time_point@Vsystem_clock@chrono@__Cr@std@@V?$duration@_JV?$ratio@$00$0PECEA@@__Cr@std@@@234@@chrono@__Cr@std@@VTime@1@@Z
    ?ToChronoTimePoint@KernelTimeout@synchronization_internal@absl@@QBE?AV?$time_point@Vsystem_clock@chrono@__Cr@std@@V?$duration@_JV?$ratio@$00$0PECEA@@__Cr@std@@@234@@chrono@__Cr@std@@XZ
    ?ToDoubleHours@absl@@YANVDuration@1@@Z
    ?ToDoubleMicroseconds@absl@@YANVDuration@1@@Z
    ?ToDoubleMilliseconds@absl@@YANVDuration@1@@Z
    ?ToDoubleMinutes@absl@@YANVDuration@1@@Z
    ?ToDoubleNanoseconds@absl@@YANVDuration@1@@Z
    ?ToDoubleSeconds@absl@@YANVDuration@1@@Z
    ?ToInt64Hours@absl@@YA_JVDuration@1@@Z
    ?ToInt64Microseconds@absl@@YA_JVDuration@1@@Z
    ?ToInt64Milliseconds@absl@@YA_JVDuration@1@@Z
    ?ToInt64Minutes@absl@@YA_JVDuration@1@@Z
    ?ToInt64Nanoseconds@absl@@YA_JVDuration@1@@Z
    ?ToInt64Seconds@absl@@YA_JVDuration@1@@Z
    ?ToSinkAlso@LogMessage@log_internal@absl@@QAEAAV123@PAVLogSink@3@@Z
    ?ToSinkOnly@LogMessage@log_internal@absl@@QAEAAV123@PAVLogSink@3@@Z
    ?ToString@?$BigUnsigned@$03@strings_internal@absl@@QBE?AV?$basic_string@DU?$char_traits@D@__Cr@std@@V?$allocator@D@23@@__Cr@std@@XZ
    ?ToString@?$BigUnsigned@$0FE@@strings_internal@absl@@QBE?AV?$basic_string@DU?$char_traits@D@__Cr@std@@V?$allocator@D@23@@__Cr@std@@XZ
    ?ToString@Status@absl@@QBE?AV?$basic_string@DU?$char_traits@D@__Cr@std@@V?$allocator@D@23@@__Cr@std@@W4StatusToStringMode@2@@Z
    ?ToString@StatusRep@status_internal@absl@@QBE?AV?$basic_string@DU?$char_traits@D@__Cr@std@@V?$allocator@D@23@@__Cr@std@@W4StatusToStringMode@3@@Z
    ?ToString@int128@absl@@ABE?AV?$basic_string@DU?$char_traits@D@__Cr@std@@V?$allocator@D@23@@__Cr@std@@XZ
    ?ToString@uint128@absl@@ABE?AV?$basic_string@DU?$char_traits@D@__Cr@std@@V?$allocator@D@23@@__Cr@std@@XZ
    ?ToStringSlow@Status@absl@@CA?AV?$basic_string@DU?$char_traits@D@__Cr@std@@V?$allocator@D@23@@__Cr@std@@IW4StatusToStringMode@2@@Z
    ?ToTM@absl@@YA?AUtm@@VTime@1@VTimeZone@1@@Z
    ?ToTimeT@absl@@YA_JVTime@1@@Z
    ?ToTimespec@absl@@YA?AUtimespec@@VDuration@1@@Z
    ?ToTimespec@absl@@YA?AUtimespec@@VTime@1@@Z
    ?ToTimeval@absl@@YA?AUtimeval@@VDuration@1@@Z
    ?ToTimeval@absl@@YA?AUtimeval@@VTime@1@@Z
    ?ToUDate@absl@@YANVTime@1@@Z
    ?ToUniversal@absl@@YA_JVTime@1@@Z
    ?ToUnixMicros@absl@@YA_JVTime@1@@Z
    ?ToUnixMillis@absl@@YA_JVTime@1@@Z
    ?ToUnixNanos@absl@@YA_JVTime@1@@Z
    ?ToUnixSeconds@absl@@YA_JVTime@1@@Z
    ?Track@CordzInfo@cord_internal@absl@@AAEXXZ
    ?TrackCord@CordzInfo@cord_internal@absl@@SAXAAVInlineData@23@ABV423@W4MethodIdentifier@CordzUpdateTracker@23@@Z
    ?TrackCord@CordzInfo@cord_internal@absl@@SAXAAVInlineData@23@W4MethodIdentifier@CordzUpdateTracker@23@_J@Z
    ?Trans@Mutex@absl@@AAEXPBUMuHowS@2@@Z
    ?TransferSlotAfterSoo@HashSetResizeHelper@container_internal@absl@@AAEXAAVCommonFields@23@I@Z
    ?Trunc@absl@@YA?AVDuration@1@V21@0@Z
    ?TryLock@Mutex@absl@@QAE_NXZ
    ?TryLockSlow@Mutex@absl@@AAE_NXZ
    ?TryNewCRC32AcceleratedX86ARMCombined@crc_internal@absl@@YAPAVCRCImpl@12@XZ
    ?TryParse@FlagImpl@flags_internal@absl@@ABE?AV?$unique_ptr@XUDynValueDeleter@flags_internal@absl@@@__Cr@std@@V?$basic_string_view@DU?$char_traits@D@__Cr@std@@@56@AAV?$basic_string@DU?$char_traits@D@__Cr@std@@V?$allocator@D@23@@56@@Z
    ?TryRead@SequenceLock@flags_internal@absl@@QBE_NPAXPBU?$atomic@_K@__Cr@std@@I@Z
    ?TryRemove@Mutex@absl@@AAEXPAUPerThreadSynch@base_internal@2@@Z
    ?TypeId@FlagImpl@flags_internal@absl@@EBEPBXXZ
    ?TypeId@PrivateHandleAccessor@flags_internal@absl@@SAPBXABVCommandLineFlag@3@@Z
    ?UTC@Impl@time_zone@cctz@time_internal@absl@@SA?AV2345@XZ
    ?UTC@TimeZoneIf@cctz@time_internal@absl@@SA?AV?$unique_ptr@VTimeZoneIf@cctz@time_internal@absl@@U?$default_delete@VTimeZoneIf@cctz@time_internal@absl@@@__Cr@std@@@__Cr@std@@XZ
    ?UTC@TimeZoneInfo@cctz@time_internal@absl@@SA?AV?$unique_ptr@VTimeZoneInfo@cctz@time_internal@absl@@U?$default_delete@VTimeZoneInfo@cctz@time_internal@absl@@@__Cr@std@@@__Cr@std@@XZ
    ?UTCImpl@Impl@time_zone@cctz@time_internal@absl@@CAPBV12345@XZ
    ?UnauthenticatedError@absl@@YA?AVStatus@1@V?$basic_string_view@DU?$char_traits@D@__Cr@std@@@__Cr@std@@@Z
    ?UnavailableError@absl@@YA?AVStatus@1@V?$basic_string_view@DU?$char_traits@D@__Cr@std@@@__Cr@std@@@Z
    ?UnextendByZeroes@CRC32@crc_internal@absl@@UBEXPAII@Z
    ?UnextendCrc32cByZeroes@crc_internal@absl@@YA?AVcrc32c_t@2@V32@I@Z
    ?UnimplementedError@absl@@YA?AVStatus@1@V?$basic_string_view@DU?$char_traits@D@__Cr@std@@@__Cr@std@@@Z
    ?UnknownError@absl@@YA?AVStatus@1@V?$basic_string_view@DU?$char_traits@D@__Cr@std@@@__Cr@std@@@Z
    ?Unlock@CordzInfo@cord_internal@absl@@QAEXXZ
    ?Unlock@Mutex@absl@@QAEXXZ
    ?UnlockSlow@Mutex@absl@@AAEXPAUSynchWaitParams@2@@Z
    ?Unparse@flags_internal@absl@@YA?AV?$basic_string@DU?$char_traits@D@__Cr@std@@V?$allocator@D@23@@__Cr@std@@F@Z
    ?Unparse@flags_internal@absl@@YA?AV?$basic_string@DU?$char_traits@D@__Cr@std@@V?$allocator@D@23@@__Cr@std@@G@Z
    ?Unparse@flags_internal@absl@@YA?AV?$basic_string@DU?$char_traits@D@__Cr@std@@V?$allocator@D@23@@__Cr@std@@H@Z
    ?Unparse@flags_internal@absl@@YA?AV?$basic_string@DU?$char_traits@D@__Cr@std@@V?$allocator@D@23@@__Cr@std@@I@Z
    ?Unparse@flags_internal@absl@@YA?AV?$basic_string@DU?$char_traits@D@__Cr@std@@V?$allocator@D@23@@__Cr@std@@J@Z
    ?Unparse@flags_internal@absl@@YA?AV?$basic_string@DU?$char_traits@D@__Cr@std@@V?$allocator@D@23@@__Cr@std@@K@Z
    ?Unparse@flags_internal@absl@@YA?AV?$basic_string@DU?$char_traits@D@__Cr@std@@V?$allocator@D@23@@__Cr@std@@M@Z
    ?Unparse@flags_internal@absl@@YA?AV?$basic_string@DU?$char_traits@D@__Cr@std@@V?$allocator@D@23@@__Cr@std@@N@Z
    ?Unparse@flags_internal@absl@@YA?AV?$basic_string@DU?$char_traits@D@__Cr@std@@V?$allocator@D@23@@__Cr@std@@Vint128@2@@Z
    ?Unparse@flags_internal@absl@@YA?AV?$basic_string@DU?$char_traits@D@__Cr@std@@V?$allocator@D@23@@__Cr@std@@Vuint128@2@@Z
    ?Unparse@flags_internal@absl@@YA?AV?$basic_string@DU?$char_traits@D@__Cr@std@@V?$allocator@D@23@@__Cr@std@@_J@Z
    ?Unparse@flags_internal@absl@@YA?AV?$basic_string@DU?$char_traits@D@__Cr@std@@V?$allocator@D@23@@__Cr@std@@_K@Z
    ?Unparse@flags_internal@absl@@YA?AV?$basic_string@DU?$char_traits@D@__Cr@std@@V?$allocator@D@23@@__Cr@std@@_N@Z
    ?UnparseFlag@absl@@YA?AV?$basic_string@DU?$char_traits@D@__Cr@std@@V?$allocator@D@23@@__Cr@std@@VDuration@1@@Z
    ?UnparseFlag@absl@@YA?AV?$basic_string@DU?$char_traits@D@__Cr@std@@V?$allocator@D@23@@__Cr@std@@VTime@1@@Z
    ?Unref@StatusRep@status_internal@absl@@QBEXXZ
    ?UnrefTree@InlineRep@Cord@absl@@AAEXXZ
    ?UnsampleSlow@container_internal@absl@@YAXPAUHashtablezInfo@12@@Z
    ?Unscramble@CRC32@crc_internal@absl@@UBEXPAI@Z
    ?Untrack@CordzInfo@cord_internal@absl@@QAEXXZ
    ?UpdateGlobalVLogLevel@log_internal@absl@@YAHH@Z
    ?UpdateStackTrace@GraphCycles@synchronization_internal@absl@@QAEXUGraphId@23@HP6AHPAPAXH@Z@Z
    ?UpdateVLogSites@log_internal@absl@@YAXXZ
    ?UpdateVModule@log_internal@absl@@YAXV?$basic_string_view@DU?$char_traits@D@__Cr@std@@@__Cr@std@@@Z
    ?Utf8SafeCEscape@absl@@YA?AV?$basic_string@DU?$char_traits@D@__Cr@std@@V?$allocator@D@23@@__Cr@std@@V?$basic_string_view@DU?$char_traits@D@__Cr@std@@@34@@Z
    ?Utf8SafeCHexEscape@absl@@YA?AV?$basic_string@DU?$char_traits@D@__Cr@std@@V?$allocator@D@23@@__Cr@std@@V?$basic_string_view@DU?$char_traits@D@__Cr@std@@@34@@Z
    ?VLogLevel@log_internal@absl@@YAHV?$basic_string_view@DU?$char_traits@D@__Cr@std@@@__Cr@std@@@Z
    ?ValidateInputValue@FlagImpl@flags_internal@absl@@EBE_NV?$basic_string_view@DU?$char_traits@D@__Cr@std@@@__Cr@std@@@Z
    ?ValidateInputValue@PrivateHandleAccessor@flags_internal@absl@@SA_NABVCommandLineFlag@3@V?$basic_string_view@DU?$char_traits@D@__Cr@std@@@__Cr@std@@@Z
    ?Version@TimeZoneInfo@cctz@time_internal@absl@@UBE?AV?$basic_string@DU?$char_traits@D@__Cr@std@@V?$allocator@D@23@@__Cr@std@@XZ
    ?Version@TimeZoneLibC@cctz@time_internal@absl@@UBE?AV?$basic_string@DU?$char_traits@D@__Cr@std@@V?$allocator@D@23@@__Cr@std@@XZ
    ?Version@ZoneInfoSource@cctz@time_internal@absl@@UBE?AV?$basic_string@DU?$char_traits@D@__Cr@std@@V?$allocator@D@23@@__Cr@std@@XZ
    ?Wait@BlockingCounter@absl@@QAEXXZ
    ?Wait@StdcppWaiter@synchronization_internal@absl@@QAE_NVKernelTimeout@23@@Z
    ?Wait@Win32Waiter@synchronization_internal@absl@@QAE_NVKernelTimeout@23@@Z
    ?WaitCommon@CondVar@absl@@AAE_NPAVMutex@2@VKernelTimeout@synchronization_internal@2@@Z
    ?WaitForNotification@Notification@absl@@QBEXXZ
    ?WaitForNotificationWithDeadline@Notification@absl@@QBE_NVTime@2@@Z
    ?WaitForNotificationWithTimeout@Notification@absl@@QBE_NVDuration@2@@Z
    ?Wakeup@Mutex@absl@@AAEPAUPerThreadSynch@base_internal@2@PAU342@@Z
    ?WasPresentOnCommandLine@flags_internal@absl@@YA_NV?$basic_string_view@DU?$char_traits@D@__Cr@std@@@__Cr@std@@@Z
    ?WebSafeBase64Escape@absl@@YA?AV?$basic_string@DU?$char_traits@D@__Cr@std@@V?$allocator@D@23@@__Cr@std@@V?$basic_string_view@DU?$char_traits@D@__Cr@std@@@34@@Z
    ?WebSafeBase64Escape@absl@@YAXV?$basic_string_view@DU?$char_traits@D@__Cr@std@@@__Cr@std@@PAV?$basic_string@DU?$char_traits@D@__Cr@std@@V?$allocator@D@23@@34@@Z
    ?WebSafeBase64Unescape@absl@@YA_NV?$basic_string_view@DU?$char_traits@D@__Cr@std@@@__Cr@std@@PAV?$basic_string@DU?$char_traits@D@__Cr@std@@V?$allocator@D@23@@34@@Z
    ?WithMetadataFrom@LogMessage@log_internal@absl@@QAEAAV123@ABVLogEntry@3@@Z
    ?WithPerror@LogMessage@log_internal@absl@@QAEAAV123@XZ
    ?WithThreadID@LogMessage@log_internal@absl@@QAEAAV123@I@Z
    ?WithTimestamp@LogMessage@log_internal@absl@@QAEAAV123@VTime@3@@Z
    ?WithVerbosity@LogMessage@log_internal@absl@@QAEAAV123@H@Z
    ?Write@BufferRawSink@str_format_internal@absl@@QAEXV?$basic_string_view@DU?$char_traits@D@__Cr@std@@@__Cr@std@@@Z
    ?Write@FILERawSink@str_format_internal@absl@@QAEXV?$basic_string_view@DU?$char_traits@D@__Cr@std@@@__Cr@std@@@Z
    ?Write@FlagImpl@flags_internal@absl@@QAEXPBX@Z
    ?WriteToStderr@log_internal@absl@@YAXV?$basic_string_view@DU?$char_traits@D@__Cr@std@@@__Cr@std@@W4LogSeverity@2@@Z
    ?__add_back_capacity@?$deque@PBVImpl@time_zone@cctz@time_internal@absl@@V?$allocator@PBVImpl@time_zone@cctz@time_internal@absl@@@__Cr@std@@@__Cr@std@@AAEXXZ
    ?__add_back_capacity@?$deque@UPrefixCrc@CrcCordState@crc_internal@absl@@V?$allocator@UPrefixCrc@CrcCordState@crc_internal@absl@@@__Cr@std@@@__Cr@std@@AAEXI@Z
    ?__add_back_capacity@?$deque@UPrefixCrc@CrcCordState@crc_internal@absl@@V?$allocator@UPrefixCrc@CrcCordState@crc_internal@absl@@@__Cr@std@@@__Cr@std@@AAEXXZ
    ?__append@?$vector@UTransition@cctz@time_internal@absl@@V?$allocator@UTransition@cctz@time_internal@absl@@@__Cr@std@@@__Cr@std@@AAEXI@Z
    ?__append@?$vector@UTransitionType@cctz@time_internal@absl@@V?$allocator@UTransitionType@cctz@time_internal@absl@@@__Cr@std@@@__Cr@std@@AAEXI@Z
    ?__erase_to_end@?$deque@UPrefixCrc@CrcCordState@crc_internal@absl@@V?$allocator@UPrefixCrc@CrcCordState@crc_internal@absl@@@__Cr@std@@@__Cr@std@@AAEXV?$__deque_iterator@UPrefixCrc@CrcCordState@crc_internal@absl@@PBU1234@ABU1234@PBQBU1234@H$0A@@23@@Z
    ?__throw_length_error@?$vector@PAVCommandLineFlag@absl@@V?$allocator@PAVCommandLineFlag@absl@@@__Cr@std@@@__Cr@std@@ABEXXZ
    ?__throw_length_error@?$vector@PAVCordzHandle@cord_internal@absl@@V?$allocator@PAVCordzHandle@cord_internal@absl@@@__Cr@std@@@__Cr@std@@ABEXXZ
    ?__throw_length_error@?$vector@PAVLogSink@absl@@V?$allocator@PAVLogSink@absl@@@__Cr@std@@@__Cr@std@@ABEXXZ
    ?__throw_length_error@?$vector@PBVCommandLineFlag@absl@@V?$allocator@PBVCommandLineFlag@absl@@@__Cr@std@@@__Cr@std@@ABEXXZ
    ?__throw_length_error@?$vector@PBVCordzHandle@cord_internal@absl@@V?$allocator@PBVCordzHandle@cord_internal@absl@@@__Cr@std@@@__Cr@std@@ABEXXZ
    ?__throw_length_error@?$vector@UConversionItem@ParsedFormatBase@str_format_internal@absl@@V?$allocator@UConversionItem@ParsedFormatBase@str_format_internal@absl@@@__Cr@std@@@__Cr@std@@ABEXXZ
    ?__throw_length_error@?$vector@UTransition@cctz@time_internal@absl@@V?$allocator@UTransition@cctz@time_internal@absl@@@__Cr@std@@@__Cr@std@@ABEXXZ
    ?__throw_length_error@?$vector@UTransitionType@cctz@time_internal@absl@@V?$allocator@UTransitionType@cctz@time_internal@absl@@@__Cr@std@@@__Cr@std@@ABEXXZ
    ?__throw_length_error@?$vector@UUnrecognizedFlag@absl@@V?$allocator@UUnrecognizedFlag@absl@@@__Cr@std@@@__Cr@std@@ABEXXZ
    ?__throw_length_error@?$vector@UViableSubstitution@strings_internal@absl@@V?$allocator@UViableSubstitution@strings_internal@absl@@@__Cr@std@@@__Cr@std@@ABEXXZ
    ?__throw_length_error@?$vector@V?$unique_ptr@VFlagStateInterface@flags_internal@absl@@U?$default_delete@VFlagStateInterface@flags_internal@absl@@@__Cr@std@@@__Cr@std@@V?$allocator@V?$unique_ptr@VFlagStateInterface@flags_internal@absl@@U?$default_delete@VFlagStateInterface@flags_internal@absl@@@__Cr@std@@@__Cr@std@@@23@@__Cr@std@@ABEXXZ
    ?cycle_clock_source_@CycleClock@base_internal@absl@@0U?$atomic@P6A_JXZ@__Cr@std@@A
    ?day_difference@impl@detail@cctz@time_internal@absl@@YA_J_JCC0CC@Z
    ?description@time_zone@cctz@time_internal@absl@@QBE?AV?$basic_string@DU?$char_traits@D@__Cr@std@@V?$allocator@D@23@@__Cr@std@@XZ
    ?destroy@?$__tree@U?$__value_type@V?$basic_string@DU?$char_traits@D@__Cr@std@@V?$allocator@D@23@@__Cr@std@@V?$map@V?$basic_string@DU?$char_traits@D@__Cr@std@@V?$allocator@D@23@@__Cr@std@@V?$vector@PBVCommandLineFlag@absl@@V?$allocator@PBVCommandLineFlag@absl@@@__Cr@std@@@23@U?$less@V?$basic_string@DU?$char_traits@D@__Cr@std@@V?$allocator@D@23@@__Cr@std@@@23@V?$allocator@U?$pair@$$CBV?$basic_string@DU?$char_traits@D@__Cr@std@@V?$allocator@D@23@@__Cr@std@@V?$vector@PBVCommandLineFlag@absl@@V?$allocator@PBVCommandLineFlag@absl@@@__Cr@std@@@23@@__Cr@std@@@23@@23@@__Cr@std@@V?$__map_value_compare@V?$basic_string@DU?$char_traits@D@__Cr@std@@V?$allocator@D@23@@__Cr@std@@U?$__value_type@V?$basic_string@DU?$char_traits@D@__Cr@std@@V?$allocator@D@23@@__Cr@std@@V?$map@V?$basic_string@DU?$char_traits@D@__Cr@std@@V?$allocator@D@23@@__Cr@std@@V?$vector@PBVCommandLineFlag@absl@@V?$allocator@PBVCommandLineFlag@absl@@@__Cr@std@@@23@U?$less@V?$basic_string@DU?$char_traits@D@__Cr@std@@V?$allocator@D@23@@__Cr@std@@@23@V?$allocator@U?$pair@$$CBV?$basic_string@DU?$char_traits@D@__Cr@std@@V?$allocator@D@23@@__Cr@std@@V?$vector@PBVCommandLineFlag@absl@@V?$allocator@PBVCommandLineFlag@absl@@@__Cr@std@@@23@@__Cr@std@@@23@@23@@23@U?$less@V?$basic_string@DU?$char_traits@D@__Cr@std@@V?$allocator@D@23@@__Cr@std@@@23@$00@23@V?$allocator@U?$__value_type@V?$basic_string@DU?$char_traits@D@__Cr@std@@V?$allocator@D@23@@__Cr@std@@V?$map@V?$basic_string@DU?$char_traits@D@__Cr@std@@V?$allocator@D@23@@__Cr@std@@V?$vector@PBVCommandLineFlag@absl@@V?$allocator@PBVCommandLineFlag@absl@@@__Cr@std@@@23@U?$less@V?$basic_string@DU?$char_traits@D@__Cr@std@@V?$allocator@D@23@@__Cr@std@@@23@V?$allocator@U?$pair@$$CBV?$basic_string@DU?$char_traits@D@__Cr@std@@V?$allocator@D@23@@__Cr@std@@V?$vector@PBVCommandLineFlag@absl@@V?$allocator@PBVCommandLineFlag@absl@@@__Cr@std@@@23@@__Cr@std@@@23@@23@@__Cr@std@@@23@@__Cr@std@@AAEXPAV?$__tree_node@U?$__value_type@V?$basic_string@DU?$char_traits@D@__Cr@std@@V?$allocator@D@23@@__Cr@std@@V?$map@V?$basic_string@DU?$char_traits@D@__Cr@std@@V?$allocator@D@23@@__Cr@std@@V?$vector@PBVCommandLineFlag@absl@@V?$allocator@PBVCommandLineFlag@absl@@@__Cr@std@@@23@U?$less@V?$basic_string@DU?$char_traits@D@__Cr@std@@V?$allocator@D@23@@__Cr@std@@@23@V?$allocator@U?$pair@$$CBV?$basic_string@DU?$char_traits@D@__Cr@std@@V?$allocator@D@23@@__Cr@std@@V?$vector@PBVCommandLineFlag@absl@@V?$allocator@PBVCommandLineFlag@absl@@@__Cr@std@@@23@@__Cr@std@@@23@@23@@__Cr@std@@PAX@23@@Z
    ?destroy@?$__tree@U?$__value_type@V?$basic_string@DU?$char_traits@D@__Cr@std@@V?$allocator@D@23@@__Cr@std@@V?$vector@PBVCommandLineFlag@absl@@V?$allocator@PBVCommandLineFlag@absl@@@__Cr@std@@@23@@__Cr@std@@V?$__map_value_compare@V?$basic_string@DU?$char_traits@D@__Cr@std@@V?$allocator@D@23@@__Cr@std@@U?$__value_type@V?$basic_string@DU?$char_traits@D@__Cr@std@@V?$allocator@D@23@@__Cr@std@@V?$vector@PBVCommandLineFlag@absl@@V?$allocator@PBVCommandLineFlag@absl@@@__Cr@std@@@23@@23@U?$less@V?$basic_string@DU?$char_traits@D@__Cr@std@@V?$allocator@D@23@@__Cr@std@@@23@$00@23@V?$allocator@U?$__value_type@V?$basic_string@DU?$char_traits@D@__Cr@std@@V?$allocator@D@23@@__Cr@std@@V?$vector@PBVCommandLineFlag@absl@@V?$allocator@PBVCommandLineFlag@absl@@@__Cr@std@@@23@@__Cr@std@@@23@@__Cr@std@@AAEXPAV?$__tree_node@U?$__value_type@V?$basic_string@DU?$char_traits@D@__Cr@std@@V?$allocator@D@23@@__Cr@std@@V?$vector@PBVCommandLineFlag@absl@@V?$allocator@PBVCommandLineFlag@absl@@@__Cr@std@@@23@@__Cr@std@@PAX@23@@Z
    ?effective_impl@time_zone@cctz@time_internal@absl@@ABEABVImpl@1234@XZ
    ?engines@?1??CrcAndCopy@CrcMemcpy@crc_internal@absl@@SA?AVcrc32c_t@4@PIAXPIBXIV54@_N@Z@4UArchSpecificEngines@234@B
    ?find_first_non_full_outofline@container_internal@absl@@YA?AUFindInfo@12@ABVCommonFields@12@I@Z
    ?fixed_time_zone@cctz@time_internal@absl@@YA?AVtime_zone@123@ABV?$duration@_JV?$ratio@$00$00@__Cr@std@@@chrono@__Cr@std@@@Z
    ?format@detail@cctz@time_internal@absl@@YA?AV?$basic_string@DU?$char_traits@D@__Cr@std@@V?$allocator@D@23@@__Cr@std@@ABV567@ABV?$time_point@Vsystem_clock@chrono@__Cr@std@@V?$duration@_JV?$ratio@$00$00@__Cr@std@@@234@@chrono@67@ABV?$duration@_JV?$ratio@$00$0DINHOKEMGIAAA@@__Cr@std@@@967@ABVtime_zone@234@@Z
    ?from_chars@absl@@YA?AUfrom_chars_result@1@PBD0AAMW4chars_format@1@@Z
    ?from_chars@absl@@YA?AUfrom_chars_result@1@PBD0AANW4chars_format@1@@Z
    ?get_cordz_mean_interval@cord_internal@absl@@YAHXZ
    ?get_weekday@detail@cctz@time_internal@absl@@YA?AW4weekday@1234@ABV?$civil_time@Usecond_tag@detail@cctz@time_internal@absl@@@1234@@Z
    ?load_time_zone@cctz@time_internal@absl@@YA_NABV?$basic_string@DU?$char_traits@D@__Cr@std@@V?$allocator@D@23@@__Cr@std@@PAVtime_zone@123@@Z
    ?local_time_zone@cctz@time_internal@absl@@YA?AVtime_zone@123@XZ
    ?lookup@time_zone@cctz@time_internal@absl@@QBE?AUabsolute_lookup@1234@ABV?$time_point@Vsystem_clock@chrono@__Cr@std@@V?$duration@_JV?$ratio@$00$00@__Cr@std@@@234@@chrono@__Cr@std@@@Z
    ?lookup@time_zone@cctz@time_internal@absl@@QBE?AUcivil_lookup@1234@ABV?$civil_time@Usecond_tag@detail@cctz@time_internal@absl@@@detail@234@@Z
    ?max@?$RandenPool@E@random_internal@absl@@SAEXZ
    ?max@?$RandenPool@G@random_internal@absl@@SAGXZ
    ?max@?$RandenPool@I@random_internal@absl@@SAIXZ
    ?max@?$RandenPool@_K@random_internal@absl@@SA_KXZ
    ?memcasecmp@strings_internal@absl@@YAHPBD0I@Z
    ?min@?$RandenPool@E@random_internal@absl@@SAEXZ
    ?min@?$RandenPool@G@random_internal@absl@@SAGXZ
    ?min@?$RandenPool@I@random_internal@absl@@SAIXZ
    ?min@?$RandenPool@_K@random_internal@absl@@SA_KXZ
    ?mutable_rep@CrcCordState@crc_internal@absl@@QAEPAURep@123@XZ
    ?n_day@impl@detail@cctz@time_internal@absl@@YA?AUfields@2345@_JC00CCC@Z
    ?n_sec@impl@detail@cctz@time_internal@absl@@YA?AUfields@2345@_J00000@Z
    ?name@time_zone@cctz@time_internal@absl@@QBE?AV?$basic_string@DU?$char_traits@D@__Cr@std@@V?$allocator@D@23@@__Cr@std@@XZ
    ?next_transition@time_zone@cctz@time_internal@absl@@QBE_NABV?$time_point@Vsystem_clock@chrono@__Cr@std@@V?$duration@_JV?$ratio@$00$00@__Cr@std@@@234@@chrono@__Cr@std@@PAUcivil_transition@1234@@Z
    ?non_temporal_store_memcpy_avx@crc_internal@absl@@YAPAXPIAXPIBXI@Z
    ?overflow@Streambuf@OStringStream@strings_internal@absl@@MAEHH@Z
    ?parse@detail@cctz@time_internal@absl@@YA_NABV?$basic_string@DU?$char_traits@D@__Cr@std@@V?$allocator@D@23@@__Cr@std@@0ABVtime_zone@234@PAV?$time_point@Vsystem_clock@chrono@__Cr@std@@V?$duration@_JV?$ratio@$00$00@__Cr@std@@@234@@chrono@67@PAV?$duration@_JV?$ratio@$00$0DINHOKEMGIAAA@@__Cr@std@@@chrono@67@PAV567@@Z
    ?prepare_insert@?$raw_hash_set@U?$FlatHashMapPolicy@V?$basic_string_view@DU?$char_traits@D@__Cr@std@@@__Cr@std@@PAVCommandLineFlag@absl@@@container_internal@absl@@UStringHash@23@UStringEq@23@V?$allocator@U?$pair@$$CBV?$basic_string_view@DU?$char_traits@D@__Cr@std@@@__Cr@std@@PAVCommandLineFlag@absl@@@__Cr@std@@@__Cr@std@@@container_internal@absl@@IAEIIUFindInfo@23@@Z
    ?prev_transition@time_zone@cctz@time_internal@absl@@QBE_NABV?$time_point@Vsystem_clock@chrono@__Cr@std@@V?$duration@_JV?$ratio@$00$00@__Cr@std@@@234@@chrono@__Cr@std@@PAUcivil_transition@1234@@Z
    ?push_back@?$__split_buffer@PAPBVImpl@time_zone@cctz@time_internal@absl@@AAV?$allocator@PAPBVImpl@time_zone@cctz@time_internal@absl@@@__Cr@std@@@__Cr@std@@QAEX$$QAPAPBVImpl@time_zone@cctz@time_internal@absl@@@Z
    ?push_back@?$__split_buffer@PAPBVImpl@time_zone@cctz@time_internal@absl@@V?$allocator@PAPBVImpl@time_zone@cctz@time_internal@absl@@@__Cr@std@@@__Cr@std@@QAEX$$QAPAPBVImpl@time_zone@cctz@time_internal@absl@@@Z
    ?push_back@?$__split_buffer@PAPBVImpl@time_zone@cctz@time_internal@absl@@V?$allocator@PAPBVImpl@time_zone@cctz@time_internal@absl@@@__Cr@std@@@__Cr@std@@QAEXABQAPBVImpl@time_zone@cctz@time_internal@absl@@@Z
    ?push_back@?$__split_buffer@PAUPrefixCrc@CrcCordState@crc_internal@absl@@AAV?$allocator@PAUPrefixCrc@CrcCordState@crc_internal@absl@@@__Cr@std@@@__Cr@std@@QAEX$$QAPAUPrefixCrc@CrcCordState@crc_internal@absl@@@Z
    ?push_back@?$__split_buffer@PAUPrefixCrc@CrcCordState@crc_internal@absl@@AAV?$allocator@PAUPrefixCrc@CrcCordState@crc_internal@absl@@@__Cr@std@@@__Cr@std@@QAEXABQAUPrefixCrc@CrcCordState@crc_internal@absl@@@Z
    ?push_back@?$__split_buffer@PAUPrefixCrc@CrcCordState@crc_internal@absl@@V?$allocator@PAUPrefixCrc@CrcCordState@crc_internal@absl@@@__Cr@std@@@__Cr@std@@QAEX$$QAPAUPrefixCrc@CrcCordState@crc_internal@absl@@@Z
    ?push_back@?$__split_buffer@PAUPrefixCrc@CrcCordState@crc_internal@absl@@V?$allocator@PAUPrefixCrc@CrcCordState@crc_internal@absl@@@__Cr@std@@@__Cr@std@@QAEXABQAUPrefixCrc@CrcCordState@crc_internal@absl@@@Z
    ?push_back@?$vector@PAVCommandLineFlag@absl@@V?$allocator@PAVCommandLineFlag@absl@@@__Cr@std@@@__Cr@std@@QAEXABQAVCommandLineFlag@absl@@@Z
    ?push_back@?$vector@PAVCordzHandle@cord_internal@absl@@V?$allocator@PAVCordzHandle@cord_internal@absl@@@__Cr@std@@@__Cr@std@@QAEXABQAVCordzHandle@cord_internal@absl@@@Z
    ?push_back@?$vector@PAVLogSink@absl@@V?$allocator@PAVLogSink@absl@@@__Cr@std@@@__Cr@std@@QAEXABQAVLogSink@absl@@@Z
    ?push_back@?$vector@PBVCommandLineFlag@absl@@V?$allocator@PBVCommandLineFlag@absl@@@__Cr@std@@@__Cr@std@@QAEX$$QAPBVCommandLineFlag@absl@@@Z
    ?push_back@?$vector@PBVCommandLineFlag@absl@@V?$allocator@PBVCommandLineFlag@absl@@@__Cr@std@@@__Cr@std@@QAEXABQBVCommandLineFlag@absl@@@Z
    ?push_back@?$vector@PBVCordzHandle@cord_internal@absl@@V?$allocator@PBVCordzHandle@cord_internal@absl@@@__Cr@std@@@__Cr@std@@QAEXABQBVCordzHandle@cord_internal@absl@@@Z
    ?push_back@?$vector@UConversionItem@ParsedFormatBase@str_format_internal@absl@@V?$allocator@UConversionItem@ParsedFormatBase@str_format_internal@absl@@@__Cr@std@@@__Cr@std@@QAEX$$QAUConversionItem@ParsedFormatBase@str_format_internal@absl@@@Z
    ?push_back@?$vector@UTransition@cctz@time_internal@absl@@V?$allocator@UTransition@cctz@time_internal@absl@@@__Cr@std@@@__Cr@std@@QAEXABUTransition@cctz@time_internal@absl@@@Z
    ?push_front@?$__split_buffer@PAPBVImpl@time_zone@cctz@time_internal@absl@@AAV?$allocator@PAPBVImpl@time_zone@cctz@time_internal@absl@@@__Cr@std@@@__Cr@std@@QAEXABQAPBVImpl@time_zone@cctz@time_internal@absl@@@Z
    ?push_front@?$__split_buffer@PAPBVImpl@time_zone@cctz@time_internal@absl@@V?$allocator@PAPBVImpl@time_zone@cctz@time_internal@absl@@@__Cr@std@@@__Cr@std@@QAEX$$QAPAPBVImpl@time_zone@cctz@time_internal@absl@@@Z
    ?push_front@?$__split_buffer@PAUPrefixCrc@CrcCordState@crc_internal@absl@@AAV?$allocator@PAUPrefixCrc@CrcCordState@crc_internal@absl@@@__Cr@std@@@__Cr@std@@QAEXABQAUPrefixCrc@CrcCordState@crc_internal@absl@@@Z
    ?push_front@?$__split_buffer@PAUPrefixCrc@CrcCordState@crc_internal@absl@@V?$allocator@PAUPrefixCrc@CrcCordState@crc_internal@absl@@@__Cr@std@@@__Cr@std@@QAEX$$QAPAUPrefixCrc@CrcCordState@crc_internal@absl@@@Z
    ?rehash_and_grow_if_necessary@?$raw_hash_set@U?$FlatHashMapPolicy@V?$basic_string_view@DU?$char_traits@D@__Cr@std@@@__Cr@std@@PAVCommandLineFlag@absl@@@container_internal@absl@@UStringHash@23@UStringEq@23@V?$allocator@U?$pair@$$CBV?$basic_string_view@DU?$char_traits@D@__Cr@std@@@__Cr@std@@PAVCommandLineFlag@absl@@@__Cr@std@@@__Cr@std@@@container_internal@absl@@AAEXXZ
    ?reserve@?$vector@UTransition@cctz@time_internal@absl@@V?$allocator@UTransition@cctz@time_internal@absl@@@__Cr@std@@@__Cr@std@@QAEXI@Z
    ?reserve@?$vector@UTransitionType@cctz@time_internal@absl@@V?$allocator@UTransitionType@cctz@time_internal@absl@@@__Cr@std@@@__Cr@std@@QAEXI@Z
    ?reserve@?$vector@UUnrecognizedFlag@absl@@V?$allocator@UUnrecognizedFlag@absl@@@__Cr@std@@@__Cr@std@@QAEXI@Z
    ?resize@?$vector@UTransition@cctz@time_internal@absl@@V?$allocator@UTransition@cctz@time_internal@absl@@@__Cr@std@@@__Cr@std@@QAEXI@Z
    ?resize@?$vector@UTransitionType@cctz@time_internal@absl@@V?$allocator@UTransitionType@cctz@time_internal@absl@@@__Cr@std@@@__Cr@std@@QAEXI@Z
    ?resize_impl@?$raw_hash_set@U?$FlatHashMapPolicy@V?$basic_string_view@DU?$char_traits@D@__Cr@std@@@__Cr@std@@PAVCommandLineFlag@absl@@@container_internal@absl@@UStringHash@23@UStringEq@23@V?$allocator@U?$pair@$$CBV?$basic_string_view@DU?$char_traits@D@__Cr@std@@@__Cr@std@@PAVCommandLineFlag@absl@@@__Cr@std@@@__Cr@std@@@container_internal@absl@@AAEXIVHashtablezInfoHandle@23@@Z
    ?safe_strto128_base@numbers_internal@absl@@YA_NV?$basic_string_view@DU?$char_traits@D@__Cr@std@@@__Cr@std@@PAVint128@2@H@Z
    ?safe_strto32_base@numbers_internal@absl@@YA_NV?$basic_string_view@DU?$char_traits@D@__Cr@std@@@__Cr@std@@PAHH@Z
    ?safe_strto64_base@numbers_internal@absl@@YA_NV?$basic_string_view@DU?$char_traits@D@__Cr@std@@@__Cr@std@@PA_JH@Z
    ?safe_strtou128_base@numbers_internal@absl@@YA_NV?$basic_string_view@DU?$char_traits@D@__Cr@std@@@__Cr@std@@PAVuint128@2@H@Z
    ?safe_strtou32_base@numbers_internal@absl@@YA_NV?$basic_string_view@DU?$char_traits@D@__Cr@std@@@__Cr@std@@PAIH@Z
    ?safe_strtou64_base@numbers_internal@absl@@YA_NV?$basic_string_view@DU?$char_traits@D@__Cr@std@@@__Cr@std@@PA_KH@Z
    ?set_cordz_mean_interval@cord_internal@absl@@YAXH@Z
    ?shallow_subcords_enabled@cord_internal@absl@@3U?$atomic@_N@__Cr@std@@A
    ?should_rehash_for_bug_detection_on_insert@CommonFieldsGenerationInfoEnabled@container_internal@absl@@QBE_NPBW4ctrl_t@23@I@Z
    ?should_rehash_for_bug_detection_on_move@CommonFieldsGenerationInfoEnabled@container_internal@absl@@QBE_NPBW4ctrl_t@23@I@Z
    ?shrink_to_fit@?$vector@UTransition@cctz@time_internal@absl@@V?$allocator@UTransition@cctz@time_internal@absl@@@__Cr@std@@@__Cr@std@@QAEXXZ
    ?size@?$BigUnsigned@$03@strings_internal@absl@@QBEHXZ
    ?size@?$BigUnsigned@$0FE@@strings_internal@absl@@QBEHXZ
    ?size@Cord@absl@@QBEIXZ
    ?status@BadStatusOrAccess@absl@@QBEABVStatus@2@XZ
    ?stream@OstreamView@LogMessage@log_internal@absl@@QAEAAV?$basic_ostream@DU?$char_traits@D@__Cr@std@@@__Cr@std@@XZ
    ?utc_time_zone@cctz@time_internal@absl@@YA?AVtime_zone@123@XZ
    ?version@time_zone@cctz@time_internal@absl@@QBE?AV?$basic_string@DU?$char_traits@D@__Cr@std@@V?$allocator@D@23@@__Cr@std@@XZ
    ?what@BadStatusOrAccess@absl@@UBEPBDXZ
    ?what@SeedGenException@absl@@UBEPBDXZ
    ?what@bad_variant_access@absl@@UBEPBDXZ
    ?words@?$BigUnsigned@$03@strings_internal@absl@@QBEPBIXZ
    ?words@?$BigUnsigned@$0FE@@strings_internal@absl@@QBEPBIXZ
    ?xsputn@Streambuf@OStringStream@strings_internal@absl@@MAEHPBDH@Z
    AbslInternalSpinLockDelay
    AbslInternalSpinLockWake
