EXPORTS
    ?$TSS0@?1??CrcAndCopy@CrcMemcpy@crc_internal@absl@@SA?AVcrc32c_t@4@PEIAXPEIBX_KV54@_N@Z@4HA
    ??$?0$$CBD$0A@@VoidPtr@str_format_internal@absl@@QEAA@PEBD@Z
    ??$?0$$CBU?$atomic@_N@__Cr@std@@@Condition@absl@@QEAA@P6A_NPEBU?$atomic@_N@__Cr@std@@@Z0@Z
    ??$?0$$CBUCordRep@cord_internal@absl@@@Hex@absl@@QEAA@PEBUCordRep@cord_internal@1@W4PadSpec@1@@Z
    ??$?0$$CBVFormatArgImpl@str_format_internal@absl@@$$CBV012@@?$Span@$$CBVFormatArgImpl@str_format_internal@absl@@@absl@@QEAA@V?$initializer_list@VFormatArgImpl@str_format_internal@absl@@@std@@@Z
    ??$?0$$CB_W$0A@@VoidPtr@str_format_internal@absl@@QEAA@PEB_W@Z
    ??$?0$$QEAV?$basic_string@DU?$char_traits@D@__Cr@std@@V?$allocator@D@23@@__Cr@std@@$$Z$$V$$Z$0A@$$Z$S@?$pair@$$CBV?$basic_string@DU?$char_traits@D@__Cr@std@@V?$allocator@D@23@@__Cr@std@@V?$map@V?$basic_string@DU?$char_traits@D@__Cr@std@@V?$allocator@D@23@@__Cr@std@@V?$vector@PEBVCommandLineFlag@absl@@V?$allocator@PEBVCommandLineFlag@absl@@@__Cr@std@@@23@U?$less@V?$basic_string@DU?$char_traits@D@__Cr@std@@V?$allocator@D@23@@__Cr@std@@@23@V?$allocator@U?$pair@$$CBV?$basic_string@DU?$char_traits@D@__Cr@std@@V?$allocator@D@23@@__Cr@std@@V?$vector@PEBVCommandLineFlag@absl@@V?$allocator@PEBVCommandLineFlag@absl@@@__Cr@std@@@23@@__Cr@std@@@23@@23@@__Cr@std@@AEAA@Upiecewise_construct_t@12@AEAV?$tuple@$$QEAV?$basic_string@DU?$char_traits@D@__Cr@std@@V?$allocator@D@23@@__Cr@std@@@12@AEAV?$tuple@$$V@12@U?$__tuple_indices@$0A@@12@U?$__tuple_indices@$S@12@@Z
    ??$?0$$QEAV?$basic_string@DU?$char_traits@D@__Cr@std@@V?$allocator@D@23@@__Cr@std@@$$Z$$V@?$pair@$$CBV?$basic_string@DU?$char_traits@D@__Cr@std@@V?$allocator@D@23@@__Cr@std@@V?$map@V?$basic_string@DU?$char_traits@D@__Cr@std@@V?$allocator@D@23@@__Cr@std@@V?$vector@PEBVCommandLineFlag@absl@@V?$allocator@PEBVCommandLineFlag@absl@@@__Cr@std@@@23@U?$less@V?$basic_string@DU?$char_traits@D@__Cr@std@@V?$allocator@D@23@@__Cr@std@@@23@V?$allocator@U?$pair@$$CBV?$basic_string@DU?$char_traits@D@__Cr@std@@V?$allocator@D@23@@__Cr@std@@V?$vector@PEBVCommandLineFlag@absl@@V?$allocator@PEBVCommandLineFlag@absl@@@__Cr@std@@@23@@__Cr@std@@@23@@23@@__Cr@std@@QEAA@Upiecewise_construct_t@12@V?$tuple@$$QEAV?$basic_string@DU?$char_traits@D@__Cr@std@@V?$allocator@D@23@@__Cr@std@@@12@V?$tuple@$$V@12@@Z
    ??$?0$$QEAV?$basic_string_view@DU?$char_traits@D@__Cr@std@@@__Cr@std@@$$Z$$QEAPEAVCommandLineFlag@absl@@$$Z$0A@$$Z$0A@@?$pair@V?$basic_string_view@DU?$char_traits@D@__Cr@std@@@__Cr@std@@PEAVCommandLineFlag@absl@@@__Cr@std@@AEAA@Upiecewise_construct_t@12@AEAV?$tuple@$$QEAV?$basic_string_view@DU?$char_traits@D@__Cr@std@@@__Cr@std@@@12@AEAV?$tuple@$$QEAPEAVCommandLineFlag@absl@@@12@U?$__tuple_indices@$0A@@12@3@Z
    ??$?0$$QEAV?$basic_string_view@DU?$char_traits@D@__Cr@std@@@__Cr@std@@$$Z$$QEAPEAVCommandLineFlag@absl@@$$Z$0A@$$Z$0A@@?$pair@V?$tuple@$$QEAV?$basic_string_view@DU?$char_traits@D@__Cr@std@@@__Cr@std@@@__Cr@std@@V?$tuple@$$QEAPEAVCommandLineFlag@absl@@@23@@__Cr@std@@AEAA@Upiecewise_construct_t@12@AEAV?$tuple@$$QEAV?$basic_string_view@DU?$char_traits@D@__Cr@std@@@__Cr@std@@@12@AEAV?$tuple@$$QEAPEAVCommandLineFlag@absl@@@12@U?$__tuple_indices@$0A@@12@3@Z
    ??$?0$$QEAV?$basic_string_view@DU?$char_traits@D@__Cr@std@@@__Cr@std@@$$Z$$QEAPEAVCommandLineFlag@absl@@@?$pair@V?$basic_string_view@DU?$char_traits@D@__Cr@std@@@__Cr@std@@PEAVCommandLineFlag@absl@@@__Cr@std@@QEAA@Upiecewise_construct_t@12@V?$tuple@$$QEAV?$basic_string_view@DU?$char_traits@D@__Cr@std@@@__Cr@std@@@12@V?$tuple@$$QEAPEAVCommandLineFlag@absl@@@12@@Z
    ??$?0$$QEAV?$basic_string_view@DU?$char_traits@D@__Cr@std@@@__Cr@std@@$$Z$$QEAPEAVCommandLineFlag@absl@@@?$pair@V?$tuple@$$QEAV?$basic_string_view@DU?$char_traits@D@__Cr@std@@@__Cr@std@@@__Cr@std@@V?$tuple@$$QEAPEAVCommandLineFlag@absl@@@23@@__Cr@std@@QEAA@Upiecewise_construct_t@12@V?$tuple@$$QEAV?$basic_string_view@DU?$char_traits@D@__Cr@std@@@__Cr@std@@@12@V?$tuple@$$QEAPEAVCommandLineFlag@absl@@@12@@Z
    ??$?0$$QEBV?$basic_string_view@DU?$char_traits@D@__Cr@std@@@__Cr@std@@$$Z$$QEAPEAVCommandLineFlag@absl@@$$Z$0A@$$Z$0A@@?$pair@V?$basic_string_view@DU?$char_traits@D@__Cr@std@@@__Cr@std@@PEAVCommandLineFlag@absl@@@__Cr@std@@AEAA@Upiecewise_construct_t@12@AEAV?$tuple@$$QEBV?$basic_string_view@DU?$char_traits@D@__Cr@std@@@__Cr@std@@@12@AEAV?$tuple@$$QEAPEAVCommandLineFlag@absl@@@12@U?$__tuple_indices@$0A@@12@3@Z
    ??$?0$$QEBV?$basic_string_view@DU?$char_traits@D@__Cr@std@@@__Cr@std@@$$Z$$QEAPEAVCommandLineFlag@absl@@$$Z$0A@$$Z$0A@@?$pair@V?$tuple@$$QEBV?$basic_string_view@DU?$char_traits@D@__Cr@std@@@__Cr@std@@@__Cr@std@@V?$tuple@$$QEAPEAVCommandLineFlag@absl@@@23@@__Cr@std@@AEAA@Upiecewise_construct_t@12@AEAV?$tuple@$$QEBV?$basic_string_view@DU?$char_traits@D@__Cr@std@@@__Cr@std@@@12@AEAV?$tuple@$$QEAPEAVCommandLineFlag@absl@@@12@U?$__tuple_indices@$0A@@12@3@Z
    ??$?0$$QEBV?$basic_string_view@DU?$char_traits@D@__Cr@std@@@__Cr@std@@$$Z$$QEAPEAVCommandLineFlag@absl@@@?$pair@V?$basic_string_view@DU?$char_traits@D@__Cr@std@@@__Cr@std@@PEAVCommandLineFlag@absl@@@__Cr@std@@QEAA@Upiecewise_construct_t@12@V?$tuple@$$QEBV?$basic_string_view@DU?$char_traits@D@__Cr@std@@@__Cr@std@@@12@V?$tuple@$$QEAPEAVCommandLineFlag@absl@@@12@@Z
    ??$?0$$QEBV?$basic_string_view@DU?$char_traits@D@__Cr@std@@@__Cr@std@@$$Z$$QEAPEAVCommandLineFlag@absl@@@?$pair@V?$tuple@$$QEBV?$basic_string_view@DU?$char_traits@D@__Cr@std@@@__Cr@std@@@__Cr@std@@V?$tuple@$$QEAPEAVCommandLineFlag@absl@@@23@@__Cr@std@@QEAA@Upiecewise_construct_t@12@V?$tuple@$$QEBV?$basic_string_view@DU?$char_traits@D@__Cr@std@@@__Cr@std@@@12@V?$tuple@$$QEAPEAVCommandLineFlag@absl@@@12@@Z
    ??$?0$$T@?$Storage@PEAPEAUCordRep@cord_internal@absl@@$00$0A@@internal_compressed_tuple@container_internal@absl@@QEAA@Uin_place_t@__Cr@std@@$$QEA$$T@Z
    ??$?0$$T@?$Storage@PEAPEAVLogSink@absl@@$00$0A@@internal_compressed_tuple@container_internal@absl@@QEAA@Uin_place_t@__Cr@std@@$$QEA$$T@Z
    ??$?0$$T@?$Storage@PEAUPayload@status_internal@absl@@$00$0A@@internal_compressed_tuple@container_internal@absl@@QEAA@Uin_place_t@__Cr@std@@$$QEA$$T@Z
    ??$?0$$V$0A@@?$NoDestructor@URefcountedRep@CrcCordState@crc_internal@absl@@@absl@@QEAA@XZ
    ??$?0$$V$0A@@?$NoDestructor@V?$SampleRecorder@UHashtablezInfo@container_internal@absl@@@profiling_internal@absl@@@absl@@QEAA@XZ
    ??$?0$$V$0A@@?$NoDestructor@V?$basic_string@DU?$char_traits@D@__Cr@std@@V?$allocator@D@23@@__Cr@std@@@absl@@QEAA@XZ
    ??$?0$$V$0A@@?$NoDestructor@VFlagRegistry@flags_internal@absl@@@absl@@QEAA@XZ
    ??$?0$$V$0A@@?$NoDestructor@VMutex@absl@@@absl@@QEAA@XZ
    ??$?0$$V@?$__temp_value@UTransition@cctz@time_internal@absl@@V?$allocator@UTransition@cctz@time_internal@absl@@@__Cr@std@@@__Cr@std@@QEAA@AEAV?$allocator@UTransition@cctz@time_internal@absl@@@12@@Z
    ??$?0$$V@?$__temp_value@UTransitionType@cctz@time_internal@absl@@V?$allocator@UTransitionType@cctz@time_internal@absl@@@__Cr@std@@@__Cr@std@@QEAA@AEAV?$allocator@UTransitionType@cctz@time_internal@absl@@@12@@Z
    ??$?0$$V@PlacementImpl@?$NoDestructor@URefcountedRep@CrcCordState@crc_internal@absl@@@absl@@QEAA@XZ
    ??$?0$$V@PlacementImpl@?$NoDestructor@V?$SampleRecorder@UHashtablezInfo@container_internal@absl@@@profiling_internal@absl@@@absl@@QEAA@XZ
    ??$?0$$V@PlacementImpl@?$NoDestructor@V?$basic_string@DU?$char_traits@D@__Cr@std@@V?$allocator@D@23@@__Cr@std@@@absl@@QEAA@XZ
    ??$?0$$V@PlacementImpl@?$NoDestructor@VFlagRegistry@flags_internal@absl@@@absl@@QEAA@XZ
    ??$?0$$V@PlacementImpl@?$NoDestructor@VMutex@absl@@@absl@@QEAA@XZ
    ??$?0$$Y_And@__Cr@std@@$0A@@?$tuple@AEAPEAVCommandLineFlag@absl@@AEA_N@__Cr@std@@QEAA@AEAPEAVCommandLineFlag@absl@@AEA_N@Z
    ??$?0$$Y_And@__Cr@std@@$0A@@?$tuple@AEBQEAVCommandLineFlag@absl@@@__Cr@std@@QEAA@AEBQEAVCommandLineFlag@absl@@@Z
    ??$?0$00X@?$unique_ptr@$$BY0A@PEAU?$__hash_node_base@PEAU?$__hash_node@PEBUCordRep@cord_internal@absl@@PEAX@__Cr@std@@@__Cr@std@@V?$__bucket_list_deallocator@V?$allocator@PEAU?$__hash_node_base@PEAU?$__hash_node@PEBUCordRep@cord_internal@absl@@PEAX@__Cr@std@@@__Cr@std@@@__Cr@std@@@23@@__Cr@std@@QEAA@XZ
    ??$?0$00X@?$unique_ptr@$$BY0A@PEAU?$__hash_node_base@PEAU?$__hash_node@U?$__hash_value_type@V?$basic_string@DU?$char_traits@D@__Cr@std@@V?$allocator@D@23@@__Cr@std@@PEBVImpl@time_zone@cctz@time_internal@absl@@@__Cr@std@@PEAX@__Cr@std@@@__Cr@std@@V?$__bucket_list_deallocator@V?$allocator@PEAU?$__hash_node_base@PEAU?$__hash_node@U?$__hash_value_type@V?$basic_string@DU?$char_traits@D@__Cr@std@@V?$allocator@D@23@@__Cr@std@@PEBVImpl@time_zone@cctz@time_internal@absl@@@__Cr@std@@PEAX@__Cr@std@@@__Cr@std@@@__Cr@std@@@23@@__Cr@std@@QEAA@XZ
    ??$?0$00X@?$unique_ptr@$$CBVImpl@time_zone@cctz@time_internal@absl@@U?$default_delete@$$CBVImpl@time_zone@cctz@time_internal@absl@@@__Cr@std@@@__Cr@std@@QEAA@PEBVImpl@time_zone@cctz@time_internal@absl@@@Z
    ??$?0$00X@?$unique_ptr@PEAPEBVImpl@time_zone@cctz@time_internal@absl@@V?$__allocator_destructor@V?$allocator@PEBVImpl@time_zone@cctz@time_internal@absl@@@__Cr@std@@@__Cr@std@@@__Cr@std@@QEAA@PEAPEBVImpl@time_zone@cctz@time_internal@absl@@$$QEAV?$__allocator_destructor@V?$allocator@PEBVImpl@time_zone@cctz@time_internal@absl@@@__Cr@std@@@12@@Z
    ??$?0$00X@?$unique_ptr@PEAUPrefixCrc@CrcCordState@crc_internal@absl@@V?$__allocator_destructor@V?$allocator@UPrefixCrc@CrcCordState@crc_internal@absl@@@__Cr@std@@@__Cr@std@@@__Cr@std@@QEAA@PEAUPrefixCrc@CrcCordState@crc_internal@absl@@$$QEAV?$__allocator_destructor@V?$allocator@UPrefixCrc@CrcCordState@crc_internal@absl@@@__Cr@std@@@12@@Z
    ??$?0$00X@?$unique_ptr@U?$__hash_node@PEBUCordRep@cord_internal@absl@@PEAX@__Cr@std@@V?$__hash_node_destructor@V?$allocator@U?$__hash_node@PEBUCordRep@cord_internal@absl@@PEAX@__Cr@std@@@__Cr@std@@@23@@__Cr@std@@QEAA@PEAU?$__hash_node@PEBUCordRep@cord_internal@absl@@PEAX@12@$$QEAV?$__hash_node_destructor@V?$allocator@U?$__hash_node@PEBUCordRep@cord_internal@absl@@PEAX@__Cr@std@@@__Cr@std@@@12@@Z
    ??$?0$00X@?$unique_ptr@U?$__hash_node@U?$__hash_value_type@V?$basic_string@DU?$char_traits@D@__Cr@std@@V?$allocator@D@23@@__Cr@std@@PEBVImpl@time_zone@cctz@time_internal@absl@@@__Cr@std@@PEAX@__Cr@std@@V?$__hash_node_destructor@V?$allocator@U?$__hash_node@U?$__hash_value_type@V?$basic_string@DU?$char_traits@D@__Cr@std@@V?$allocator@D@23@@__Cr@std@@PEBVImpl@time_zone@cctz@time_internal@absl@@@__Cr@std@@PEAX@__Cr@std@@@__Cr@std@@@23@@__Cr@std@@QEAA@PEAU?$__hash_node@U?$__hash_value_type@V?$basic_string@DU?$char_traits@D@__Cr@std@@V?$allocator@D@23@@__Cr@std@@PEBVImpl@time_zone@cctz@time_internal@absl@@@__Cr@std@@PEAX@12@$$QEAV?$__hash_node_destructor@V?$allocator@U?$__hash_node@U?$__hash_value_type@V?$basic_string@DU?$char_traits@D@__Cr@std@@V?$allocator@D@23@@__Cr@std@@PEBVImpl@time_zone@cctz@time_internal@absl@@@__Cr@std@@PEAX@__Cr@std@@@__Cr@std@@@12@@Z
    ??$?0$00X@?$unique_ptr@ULogMessageData@LogMessage@log_internal@absl@@U?$default_delete@ULogMessageData@LogMessage@log_internal@absl@@@__Cr@std@@@__Cr@std@@QEAA@PEAULogMessageData@LogMessage@log_internal@absl@@@Z
    ??$?0$00X@?$unique_ptr@UThreadIdentity@base_internal@absl@@P6AXPEAX@Z@__Cr@std@@QEAA@PEAUThreadIdentity@base_internal@absl@@AEBQ6AXPEAX@Z@Z
    ??$?0$00X@?$unique_ptr@V?$InlinedVector@UPayload@status_internal@absl@@$00V?$allocator@UPayload@status_internal@absl@@@__Cr@std@@@absl@@U?$default_delete@V?$InlinedVector@UPayload@status_internal@absl@@$00V?$allocator@UPayload@status_internal@absl@@@__Cr@std@@@absl@@@__Cr@std@@@__Cr@std@@QEAA@$$T@Z
    ??$?0$00X@?$unique_ptr@V?$InlinedVector@UPayload@status_internal@absl@@$00V?$allocator@UPayload@status_internal@absl@@@__Cr@std@@@absl@@U?$default_delete@V?$InlinedVector@UPayload@status_internal@absl@@$00V?$allocator@UPayload@status_internal@absl@@@__Cr@std@@@absl@@@__Cr@std@@@__Cr@std@@QEAA@PEAV?$InlinedVector@UPayload@status_internal@absl@@$00V?$allocator@UPayload@status_internal@absl@@@__Cr@std@@@absl@@@Z
    ??$?0$00X@?$unique_ptr@V?$InlinedVector@UPayload@status_internal@absl@@$00V?$allocator@UPayload@status_internal@absl@@@__Cr@std@@@absl@@U?$default_delete@V?$InlinedVector@UPayload@status_internal@absl@@$00V?$allocator@UPayload@status_internal@absl@@@__Cr@std@@@absl@@@__Cr@std@@@__Cr@std@@QEAA@XZ
    ??$?0$00X@?$unique_ptr@V?$__tree_node@U?$__value_type@V?$basic_string@DU?$char_traits@D@__Cr@std@@V?$allocator@D@23@@__Cr@std@@V?$map@V?$basic_string@DU?$char_traits@D@__Cr@std@@V?$allocator@D@23@@__Cr@std@@V?$vector@PEBVCommandLineFlag@absl@@V?$allocator@PEBVCommandLineFlag@absl@@@__Cr@std@@@23@U?$less@V?$basic_string@DU?$char_traits@D@__Cr@std@@V?$allocator@D@23@@__Cr@std@@@23@V?$allocator@U?$pair@$$CBV?$basic_string@DU?$char_traits@D@__Cr@std@@V?$allocator@D@23@@__Cr@std@@V?$vector@PEBVCommandLineFlag@absl@@V?$allocator@PEBVCommandLineFlag@absl@@@__Cr@std@@@23@@__Cr@std@@@23@@23@@__Cr@std@@PEAX@__Cr@std@@V?$__tree_node_destructor@V?$allocator@V?$__tree_node@U?$__value_type@V?$basic_string@DU?$char_traits@D@__Cr@std@@V?$allocator@D@23@@__Cr@std@@V?$map@V?$basic_string@DU?$char_traits@D@__Cr@std@@V?$allocator@D@23@@__Cr@std@@V?$vector@PEBVCommandLineFlag@absl@@V?$allocator@PEBVCommandLineFlag@absl@@@__Cr@std@@@23@U?$less@V?$basic_string@DU?$char_traits@D@__Cr@std@@V?$allocator@D@23@@__Cr@std@@@23@V?$allocator@U?$pair@$$CBV?$basic_string@DU?$char_traits@D@__Cr@std@@V?$allocator@D@23@@__Cr@std@@V?$vector@PEBVCommandLineFlag@absl@@V?$allocator@PEBVCommandLineFlag@absl@@@__Cr@std@@@23@@__Cr@std@@@23@@23@@__Cr@std@@PEAX@__Cr@std@@@__Cr@std@@@23@@__Cr@std@@QEAA@PEAV?$__tree_node@U?$__value_type@V?$basic_string@DU?$char_traits@D@__Cr@std@@V?$allocator@D@23@@__Cr@std@@V?$map@V?$basic_string@DU?$char_traits@D@__Cr@std@@V?$allocator@D@23@@__Cr@std@@V?$vector@PEBVCommandLineFlag@absl@@V?$allocator@PEBVCommandLineFlag@absl@@@__Cr@std@@@23@U?$less@V?$basic_string@DU?$char_traits@D@__Cr@std@@V?$allocator@D@23@@__Cr@std@@@23@V?$allocator@U?$pair@$$CBV?$basic_string@DU?$char_traits@D@__Cr@std@@V?$allocator@D@23@@__Cr@std@@V?$vector@PEBVCommandLineFlag@absl@@V?$allocator@PEBVCommandLineFlag@absl@@@__Cr@std@@@23@@__Cr@std@@@23@@23@@__Cr@std@@PEAX@12@$$QEAV?$__tree_node_destructor@V?$allocator@V?$__tree_node@U?$__value_type@V?$basic_string@DU?$char_traits@D@__Cr@std@@V?$allocator@D@23@@__Cr@std@@V?$map@V?$basic_string@DU?$char_traits@D@__Cr@std@@V?$allocator@D@23@@__Cr@std@@V?$vector@PEBVCommandLineFlag@absl@@V?$allocator@PEBVCommandLineFlag@absl@@@__Cr@std@@@23@U?$less@V?$basic_string@DU?$char_traits@D@__Cr@std@@V?$allocator@D@23@@__Cr@std@@@23@V?$allocator@U?$pair@$$CBV?$basic_string@DU?$char_traits@D@__Cr@std@@V?$allocator@D@23@@__Cr@std@@V?$vector@PEBVCommandLineFlag@absl@@V?$allocator@PEBVCommandLineFlag@absl@@@__Cr@std@@@23@@__Cr@std@@@23@@23@@__Cr@std@@PEAX@__Cr@std@@@__Cr@std@@@12@@Z
    ??$?0$00X@?$unique_ptr@V?$__tree_node@U?$__value_type@V?$basic_string@DU?$char_traits@D@__Cr@std@@V?$allocator@D@23@@__Cr@std@@V?$vector@PEBVCommandLineFlag@absl@@V?$allocator@PEBVCommandLineFlag@absl@@@__Cr@std@@@23@@__Cr@std@@PEAX@__Cr@std@@V?$__tree_node_destructor@V?$allocator@V?$__tree_node@U?$__value_type@V?$basic_string@DU?$char_traits@D@__Cr@std@@V?$allocator@D@23@@__Cr@std@@V?$vector@PEBVCommandLineFlag@absl@@V?$allocator@PEBVCommandLineFlag@absl@@@__Cr@std@@@23@@__Cr@std@@PEAX@__Cr@std@@@__Cr@std@@@23@@__Cr@std@@QEAA@PEAV?$__tree_node@U?$__value_type@V?$basic_string@DU?$char_traits@D@__Cr@std@@V?$allocator@D@23@@__Cr@std@@V?$vector@PEBVCommandLineFlag@absl@@V?$allocator@PEBVCommandLineFlag@absl@@@__Cr@std@@@23@@__Cr@std@@PEAX@12@$$QEAV?$__tree_node_destructor@V?$allocator@V?$__tree_node@U?$__value_type@V?$basic_string@DU?$char_traits@D@__Cr@std@@V?$allocator@D@23@@__Cr@std@@V?$vector@PEBVCommandLineFlag@absl@@V?$allocator@PEBVCommandLineFlag@absl@@@__Cr@std@@@23@@__Cr@std@@PEAX@__Cr@std@@@__Cr@std@@@12@@Z
    ??$?0$00X@?$unique_ptr@VFallbackCrcMemcpyEngine@crc_internal@absl@@U?$default_delete@VFallbackCrcMemcpyEngine@crc_internal@absl@@@__Cr@std@@@__Cr@std@@QEAA@PEAVFallbackCrcMemcpyEngine@crc_internal@absl@@@Z
    ??$?0$00X@?$unique_ptr@VFlagState@flags_internal@absl@@U?$default_delete@VFlagState@flags_internal@absl@@@__Cr@std@@@__Cr@std@@QEAA@PEAVFlagState@flags_internal@absl@@@Z
    ??$?0$00X@?$unique_ptr@VFlagStateInterface@flags_internal@absl@@U?$default_delete@VFlagStateInterface@flags_internal@absl@@@__Cr@std@@@__Cr@std@@QEAA@$$T@Z
    ??$?0$00X@?$unique_ptr@VTimeZoneInfo@cctz@time_internal@absl@@U?$default_delete@VTimeZoneInfo@cctz@time_internal@absl@@@__Cr@std@@@__Cr@std@@QEAA@PEAVTimeZoneInfo@cctz@time_internal@absl@@@Z
    ??$?0$00X@?$unique_ptr@VTimeZoneLibC@cctz@time_internal@absl@@U?$default_delete@VTimeZoneLibC@cctz@time_internal@absl@@@__Cr@std@@@__Cr@std@@QEAA@PEAVTimeZoneLibC@cctz@time_internal@absl@@@Z
    ??$?0$00X@?$unique_ptr@VZoneInfoSource@cctz@time_internal@absl@@U?$default_delete@VZoneInfoSource@cctz@time_internal@absl@@@__Cr@std@@@__Cr@std@@QEAA@$$T@Z
    ??$?0$00X@?$unique_ptr@VZoneInfoSource@cctz@time_internal@absl@@U?$default_delete@VZoneInfoSource@cctz@time_internal@absl@@@__Cr@std@@@__Cr@std@@QEAA@PEAVZoneInfoSource@cctz@time_internal@absl@@@Z
    ??$?0$00X@?$unique_ptr@XUDynValueDeleter@flags_internal@absl@@@__Cr@std@@QEAA@$$T@Z
    ??$?0$00X@?$unique_ptr@XUDynValueDeleter@flags_internal@absl@@@__Cr@std@@QEAA@PEAX$$QEAUDynValueDeleter@flags_internal@absl@@@Z
    ??$?0$0A@$$Z$$QEAPEAVCommandLineFlag@absl@@$$Z$S$$Z$$V$$ZPEAV01@@?$__tuple_impl@U?$__tuple_indices@$0A@@__Cr@std@@$$QEAPEAVCommandLineFlag@absl@@@__Cr@std@@QEAA@U?$__tuple_indices@$0A@@12@U?$__tuple_types@$$QEAPEAVCommandLineFlag@absl@@@12@U?$__tuple_indices@$S@12@U?$__tuple_types@$$V@12@$$QEAPEAVCommandLineFlag@absl@@@Z
    ??$?0$0A@$$ZAEBQEAVCommandLineFlag@absl@@$$Z$S$$Z$$V$$ZAEBQEAV01@@?$__tuple_impl@U?$__tuple_indices@$0A@@__Cr@std@@AEBQEAVCommandLineFlag@absl@@@__Cr@std@@QEAA@U?$__tuple_indices@$0A@@12@U?$__tuple_types@AEBQEAVCommandLineFlag@absl@@@12@U?$__tuple_indices@$S@12@U?$__tuple_types@$$V@12@AEBQEAVCommandLineFlag@absl@@@Z
    ??$?0$0A@$00$$ZAEAPEAVCommandLineFlag@absl@@AEA_N$$Z$S$$Z$$V$$ZAEAPEAV01@AEA_N@?$__tuple_impl@U?$__tuple_indices@$0A@$00@__Cr@std@@AEAPEAVCommandLineFlag@absl@@AEA_N@__Cr@std@@QEAA@U?$__tuple_indices@$0A@$00@12@U?$__tuple_types@AEAPEAVCommandLineFlag@absl@@AEA_N@12@U?$__tuple_indices@$S@12@U?$__tuple_types@$$V@12@AEAPEAVCommandLineFlag@absl@@AEA_N@Z
    ??$?0$0A@$00$$ZPEAVCommandLineFlag@absl@@_N$$Z$S$$Z$$V$$ZAEAPEAV01@AEA_N@?$__tuple_impl@U?$__tuple_indices@$0A@$00@__Cr@std@@PEAVCommandLineFlag@absl@@_N@__Cr@std@@QEAA@U?$__tuple_indices@$0A@$00@12@U?$__tuple_types@PEAVCommandLineFlag@absl@@_N@12@U?$__tuple_indices@$S@12@U?$__tuple_types@$$V@12@AEAPEAVCommandLineFlag@absl@@AEA_N@Z
    ??$?0AEAPEAPEAPEBVImpl@time_zone@cctz@time_internal@absl@@AEAPEAPEAPEBV01234@$0A@@?$pair@PEAPEAPEBVImpl@time_zone@cctz@time_internal@absl@@PEAPEAPEBV12345@@__Cr@std@@QEAA@AEAPEAPEAPEBVImpl@time_zone@cctz@time_internal@absl@@0@Z
    ??$?0AEAPEAPEAPEBVImpl@time_zone@cctz@time_internal@absl@@PEAPEAPEBV01234@$0A@@?$pair@PEAPEAPEBVImpl@time_zone@cctz@time_internal@absl@@PEAPEAPEBV12345@@__Cr@std@@QEAA@AEAPEAPEAPEBVImpl@time_zone@cctz@time_internal@absl@@$$QEAPEAPEAPEBV34567@@Z
    ??$?0AEAPEAPEAUPrefixCrc@CrcCordState@crc_internal@absl@@AEAPEAPEAU0123@$0A@@?$pair@PEAPEAUPrefixCrc@CrcCordState@crc_internal@absl@@PEAPEAU1234@@__Cr@std@@QEAA@AEAPEAPEAUPrefixCrc@CrcCordState@crc_internal@absl@@0@Z
    ??$?0AEAPEAPEAUPrefixCrc@CrcCordState@crc_internal@absl@@PEAPEAU0123@$0A@@?$pair@PEAPEAUPrefixCrc@CrcCordState@crc_internal@absl@@PEAPEAU1234@@__Cr@std@@QEAA@AEAPEAPEAUPrefixCrc@CrcCordState@crc_internal@absl@@$$QEAPEAPEAU3456@@Z
    ??$?0AEAPEAPEAVCommandLineFlag@absl@@AEA_N$0A@@?$pair@PEAPEAVCommandLineFlag@absl@@_N@__Cr@std@@QEAA@AEAPEAPEAVCommandLineFlag@absl@@AEA_N@Z
    ??$?0AEAPEAPEAVLogSink@absl@@PEAPEAV01@$0A@@?$pair@PEAPEAVLogSink@absl@@PEAPEAV12@@__Cr@std@@QEAA@AEAPEAPEAVLogSink@absl@@$$QEAPEAPEAV34@@Z
    ??$?0AEAPEAPEBVCommandLineFlag@absl@@AEA_N$0A@@?$pair@PEAPEBVCommandLineFlag@absl@@_N@__Cr@std@@QEAA@AEAPEAPEBVCommandLineFlag@absl@@AEA_N@Z
    ??$?0AEAPEAUTransition@cctz@time_internal@absl@@AEAPEAU0123@$0A@@?$pair@PEAUTransition@cctz@time_internal@absl@@PEAU1234@@__Cr@std@@QEAA@AEAPEAUTransition@cctz@time_internal@absl@@0@Z
    ??$?0AEAPEAUTransition@cctz@time_internal@absl@@PEAU0123@$0A@@?$pair@PEAUTransition@cctz@time_internal@absl@@PEAU1234@@__Cr@std@@QEAA@AEAPEAUTransition@cctz@time_internal@absl@@$$QEAPEAU3456@@Z
    ??$?0AEAPEAUTransitionType@cctz@time_internal@absl@@AEAPEAU0123@$0A@@?$pair@PEAUTransitionType@cctz@time_internal@absl@@PEAU1234@@__Cr@std@@QEAA@AEAPEAUTransitionType@cctz@time_internal@absl@@0@Z
    ??$?0AEAPEAUTransitionType@cctz@time_internal@absl@@PEAU0123@$0A@@?$pair@PEAUTransitionType@cctz@time_internal@absl@@PEAU1234@@__Cr@std@@QEAA@AEAPEAUTransitionType@cctz@time_internal@absl@@$$QEAPEAU3456@@Z
    ??$?0AEAPEAVCommandLineFlag@absl@@$0A@@?$__tuple_leaf@$0A@AEAPEAVCommandLineFlag@absl@@$0A@@__Cr@std@@QEAA@AEAPEAVCommandLineFlag@absl@@@Z
    ??$?0AEAPEAVCommandLineFlag@absl@@$0A@@?$__tuple_leaf@$0A@PEAVCommandLineFlag@absl@@$0A@@__Cr@std@@QEAA@AEAPEAVCommandLineFlag@absl@@@Z
    ??$?0AEAPEAVCommandLineFlag@absl@@AEA_N$0A@@?$tuple@PEAVCommandLineFlag@absl@@_N@__Cr@std@@QEAA@AEAPEAVCommandLineFlag@absl@@AEA_N@Z
    ??$?0AEAPEBUPrefixCrc@CrcCordState@crc_internal@absl@@PEAU0123@$0A@@?$pair@PEBUPrefixCrc@CrcCordState@crc_internal@absl@@PEAU1234@@__Cr@std@@QEAA@AEAPEBUPrefixCrc@CrcCordState@crc_internal@absl@@$$QEAPEAU3456@@Z
    ??$?0AEAUraw_view@?1???R?$ConvertToContainer@V?$vector@V?$basic_string_view@DU?$char_traits@D@__Cr@std@@@__Cr@std@@V?$allocator@V?$basic_string_view@DU?$char_traits@D@__Cr@std@@@__Cr@std@@@23@@__Cr@std@@V?$basic_string_view@DU?$char_traits@D@__Cr@std@@@23@$0A@@?$Splitter@VByChar@absl@@UAllowEmpty@2@V?$basic_string_view@DU?$char_traits@D@__Cr@std@@@__Cr@std@@@strings_internal@absl@@QEBA?AV?$vector@V?$basic_string_view@DU?$char_traits@D@__Cr@std@@@__Cr@std@@V?$allocator@V?$basic_string_view@DU?$char_traits@D@__Cr@std@@@__Cr@std@@@23@@__Cr@std@@AEBV234@@Z@@?$__temp_value@V?$basic_string_view@DU?$char_traits@D@__Cr@std@@@__Cr@std@@V?$allocator@V?$basic_string_view@DU?$char_traits@D@__Cr@std@@@__Cr@std@@@23@@__Cr@std@@QEAA@AEAV?$allocator@V?$basic_string_view@DU?$char_traits@D@__Cr@std@@@__Cr@std@@@12@AEAUraw_view@?1???R?$ConvertToContainer@V?$vector@V?$basic_string_view@DU?$char_traits@D@__Cr@std@@@__Cr@std@@V?$allocator@V?$basic_string_view@DU?$char_traits@D@__Cr@std@@@__Cr@std@@@23@@__Cr@std@@V?$basic_string_view@DU?$char_traits@D@__Cr@std@@@23@$0A@@?$Splitter@VByChar@absl@@UAllowEmpty@2@V?$basic_string_view@DU?$char_traits@D@__Cr@std@@@__Cr@std@@@strings_internal@absl@@QEBA?AV?$vector@V?$basic_string_view@DU?$char_traits@D@__Cr@std@@@__Cr@std@@V?$allocator@V?$basic_string_view@DU?$char_traits@D@__Cr@std@@@__Cr@std@@@23@@12@AEBV678@@Z@@Z
    ??$?0AEAV?$__deque_iterator@UPrefixCrc@CrcCordState@crc_internal@absl@@PEBU1234@AEBU1234@PEBQEBU1234@_J$0A@@__Cr@std@@V?$__deque_iterator@UPrefixCrc@CrcCordState@crc_internal@absl@@PEAU1234@AEAU1234@PEAPEAU1234@_J$0A@@12@$0A@@?$pair@V?$__deque_iterator@UPrefixCrc@CrcCordState@crc_internal@absl@@PEBU1234@AEBU1234@PEBQEBU1234@_J$0A@@__Cr@std@@V?$__deque_iterator@UPrefixCrc@CrcCordState@crc_internal@absl@@PEAU1234@AEAU1234@PEAPEAU1234@_J$0A@@23@@__Cr@std@@QEAA@AEAV?$__deque_iterator@UPrefixCrc@CrcCordState@crc_internal@absl@@PEBU1234@AEBU1234@PEBQEBU1234@_J$0A@@12@$$QEAV?$__deque_iterator@UPrefixCrc@CrcCordState@crc_internal@absl@@PEAU1234@AEAU1234@PEAPEAU1234@_J$0A@@12@@Z
    ??$?0AEAV?$allocator@PEAUCordRep@cord_internal@absl@@@__Cr@std@@$$T$00@?$CompressedTuple@V?$allocator@PEAUCordRep@cord_internal@absl@@@__Cr@std@@PEAPEAUCordRep@cord_internal@absl@@@container_internal@absl@@QEAA@AEAV?$allocator@PEAUCordRep@cord_internal@absl@@@__Cr@std@@$$QEA$$T@Z
    ??$?0AEAV?$allocator@PEAUCordRep@cord_internal@absl@@@__Cr@std@@$$T@?$CompressedTupleImpl@V?$CompressedTuple@V?$allocator@PEAUCordRep@cord_internal@absl@@@__Cr@std@@PEAPEAUCordRep@cord_internal@absl@@@container_internal@absl@@U?$integer_sequence@_K$0A@$00@__Cr@std@@$00@internal_compressed_tuple@container_internal@absl@@QEAA@Uin_place_t@__Cr@std@@AEAV?$allocator@PEAUCordRep@cord_internal@absl@@@56@$$QEA$$T@Z
    ??$?0AEAV?$allocator@PEAUCordRep@cord_internal@absl@@@__Cr@std@@@?$Storage@V?$allocator@PEAUCordRep@cord_internal@absl@@@__Cr@std@@$0A@$00@internal_compressed_tuple@container_internal@absl@@QEAA@Uin_place_t@__Cr@std@@AEAV?$allocator@PEAUCordRep@cord_internal@absl@@@56@@Z
    ??$?0AEAV?$allocator@PEAVLogSink@absl@@@__Cr@std@@$$T$00@?$CompressedTuple@V?$allocator@PEAVLogSink@absl@@@__Cr@std@@PEAPEAVLogSink@absl@@@container_internal@absl@@QEAA@AEAV?$allocator@PEAVLogSink@absl@@@__Cr@std@@$$QEA$$T@Z
    ??$?0AEAV?$allocator@PEAVLogSink@absl@@@__Cr@std@@$$T@?$CompressedTupleImpl@V?$CompressedTuple@V?$allocator@PEAVLogSink@absl@@@__Cr@std@@PEAPEAVLogSink@absl@@@container_internal@absl@@U?$integer_sequence@_K$0A@$00@__Cr@std@@$00@internal_compressed_tuple@container_internal@absl@@QEAA@Uin_place_t@__Cr@std@@AEAV?$allocator@PEAVLogSink@absl@@@56@$$QEA$$T@Z
    ??$?0AEAV?$allocator@PEAVLogSink@absl@@@__Cr@std@@@?$Storage@V?$allocator@PEAVLogSink@absl@@@__Cr@std@@$0A@$00@internal_compressed_tuple@container_internal@absl@@QEAA@Uin_place_t@__Cr@std@@AEAV?$allocator@PEAVLogSink@absl@@@56@@Z
    ??$?0AEAV?$allocator@UPayload@status_internal@absl@@@__Cr@std@@$$T$00@?$CompressedTuple@V?$allocator@UPayload@status_internal@absl@@@__Cr@std@@PEAUPayload@status_internal@absl@@@container_internal@absl@@QEAA@AEAV?$allocator@UPayload@status_internal@absl@@@__Cr@std@@$$QEA$$T@Z
    ??$?0AEAV?$allocator@UPayload@status_internal@absl@@@__Cr@std@@$$T@?$CompressedTupleImpl@V?$CompressedTuple@V?$allocator@UPayload@status_internal@absl@@@__Cr@std@@PEAUPayload@status_internal@absl@@@container_internal@absl@@U?$integer_sequence@_K$0A@$00@__Cr@std@@$00@internal_compressed_tuple@container_internal@absl@@QEAA@Uin_place_t@__Cr@std@@AEAV?$allocator@UPayload@status_internal@absl@@@56@$$QEA$$T@Z
    ??$?0AEAV?$allocator@UPayload@status_internal@absl@@@__Cr@std@@@?$Storage@V?$allocator@UPayload@status_internal@absl@@@__Cr@std@@$0A@$00@internal_compressed_tuple@container_internal@absl@@QEAA@Uin_place_t@__Cr@std@@AEAV?$allocator@UPayload@status_internal@absl@@@56@@Z
    ??$?0AEAVCord@absl@@$0A@@?$optional@VCord@absl@@@__Cr@std@@QEAA@AEAVCord@absl@@@Z
    ??$?0AEAVCord@absl@@@?$__optional_destruct_base@VCord@absl@@$0A@@__Cr@std@@QEAA@Uin_place_t@12@AEAVCord@absl@@@Z
    ??$?0AEAY0BM@$$CBD$0A@@?$NoDestructor@V?$basic_string@DU?$char_traits@D@__Cr@std@@V?$allocator@D@23@@__Cr@std@@@absl@@QEAA@AEAY0BM@$$CBD@Z
    ??$?0AEAY0BM@$$CBD@PlacementImpl@?$NoDestructor@V?$basic_string@DU?$char_traits@D@__Cr@std@@V?$allocator@D@23@@__Cr@std@@@absl@@QEAA@AEAY0BM@$$CBD@Z
    ??$?0AEA_K@?$Storage@_K$0A@$0A@@internal_compressed_tuple@container_internal@absl@@QEAA@Uin_place_t@__Cr@std@@AEA_K@Z
    ??$?0AEA_KAEBV?$allocator@D@__Cr@std@@$00@?$CompressedTuple@_KV?$allocator@D@__Cr@std@@@container_internal@absl@@QEAA@AEA_KAEBV?$allocator@D@__Cr@std@@@Z
    ??$?0AEA_KAEBV?$allocator@D@__Cr@std@@@?$CompressedTupleImpl@V?$CompressedTuple@_KV?$allocator@D@__Cr@std@@@container_internal@absl@@U?$integer_sequence@_K$0A@$00@__Cr@std@@$00@internal_compressed_tuple@container_internal@absl@@QEAA@Uin_place_t@__Cr@std@@AEA_KAEBV?$allocator@D@56@@Z
    ??$?0AEBQEAVCommandLineFlag@absl@@$0A@@?$__tuple_leaf@$0A@AEBQEAVCommandLineFlag@absl@@$0A@@__Cr@std@@QEAA@AEBQEAVCommandLineFlag@absl@@@Z
    ??$?0AEBV?$allocator@D@__Cr@std@@@?$Storage@V?$allocator@D@__Cr@std@@$00$00@internal_compressed_tuple@container_internal@absl@@QEAA@Uin_place_t@__Cr@std@@AEBV?$allocator@D@56@@Z
    ??$?0AEBV?$allocator@UPayload@status_internal@absl@@@__Cr@std@@@?$Storage@V?$allocator@UPayload@status_internal@absl@@@__Cr@std@@$0A@$00@internal_compressed_tuple@container_internal@absl@@QEAA@Uin_place_t@__Cr@std@@AEBV?$allocator@UPayload@status_internal@absl@@@56@@Z
    ??$?0AEBV?$allocator@UPayload@status_internal@absl@@@__Cr@std@@I$00@?$CompressedTuple@V?$allocator@UPayload@status_internal@absl@@@__Cr@std@@_K@container_internal@absl@@QEAA@AEBV?$allocator@UPayload@status_internal@absl@@@__Cr@std@@$$QEAI@Z
    ??$?0AEBV?$allocator@UPayload@status_internal@absl@@@__Cr@std@@I@?$CompressedTupleImpl@V?$CompressedTuple@V?$allocator@UPayload@status_internal@absl@@@__Cr@std@@_K@container_internal@absl@@U?$integer_sequence@_K$0A@$00@__Cr@std@@$00@internal_compressed_tuple@container_internal@absl@@QEAA@Uin_place_t@__Cr@std@@AEBV?$allocator@UPayload@status_internal@absl@@@56@$$QEAI@Z
    ??$?0AEBV?$allocator@VFormatArgImpl@str_format_internal@absl@@@__Cr@std@@@?$Storage@V?$allocator@VFormatArgImpl@str_format_internal@absl@@@__Cr@std@@$0A@$00@internal_compressed_tuple@container_internal@absl@@QEAA@Uin_place_t@__Cr@std@@AEBV?$allocator@VFormatArgImpl@str_format_internal@absl@@@56@@Z
    ??$?0AEBV?$allocator@VFormatArgImpl@str_format_internal@absl@@@__Cr@std@@I$00@?$CompressedTuple@V?$allocator@VFormatArgImpl@str_format_internal@absl@@@__Cr@std@@_K@container_internal@absl@@QEAA@AEBV?$allocator@VFormatArgImpl@str_format_internal@absl@@@__Cr@std@@$$QEAI@Z
    ??$?0AEBV?$allocator@VFormatArgImpl@str_format_internal@absl@@@__Cr@std@@I@?$CompressedTupleImpl@V?$CompressedTuple@V?$allocator@VFormatArgImpl@str_format_internal@absl@@@__Cr@std@@_K@container_internal@absl@@U?$integer_sequence@_K$0A@$00@__Cr@std@@$00@internal_compressed_tuple@container_internal@absl@@QEAA@Uin_place_t@__Cr@std@@AEBV?$allocator@VFormatArgImpl@str_format_internal@absl@@@56@$$QEAI@Z
    ??$?0AEBV?$basic_string@DU?$char_traits@D@__Cr@std@@V?$allocator@D@23@@__Cr@std@@$$Z$$V$$Z$0A@$$Z$S@?$pair@$$CBV?$basic_string@DU?$char_traits@D@__Cr@std@@V?$allocator@D@23@@__Cr@std@@PEBVImpl@time_zone@cctz@time_internal@absl@@@__Cr@std@@AEAA@Upiecewise_construct_t@12@AEAV?$tuple@AEBV?$basic_string@DU?$char_traits@D@__Cr@std@@V?$allocator@D@23@@__Cr@std@@@12@AEAV?$tuple@$$V@12@U?$__tuple_indices@$0A@@12@U?$__tuple_indices@$S@12@@Z
    ??$?0AEBV?$basic_string@DU?$char_traits@D@__Cr@std@@V?$allocator@D@23@@__Cr@std@@$$Z$$V$$Z$0A@$$Z$S@?$pair@$$CBV?$basic_string@DU?$char_traits@D@__Cr@std@@V?$allocator@D@23@@__Cr@std@@V?$vector@PEBVCommandLineFlag@absl@@V?$allocator@PEBVCommandLineFlag@absl@@@__Cr@std@@@23@@__Cr@std@@AEAA@Upiecewise_construct_t@12@AEAV?$tuple@AEBV?$basic_string@DU?$char_traits@D@__Cr@std@@V?$allocator@D@23@@__Cr@std@@@12@AEAV?$tuple@$$V@12@U?$__tuple_indices@$0A@@12@U?$__tuple_indices@$S@12@@Z
    ??$?0AEBV?$basic_string@DU?$char_traits@D@__Cr@std@@V?$allocator@D@23@@__Cr@std@@$$Z$$V@?$pair@$$CBV?$basic_string@DU?$char_traits@D@__Cr@std@@V?$allocator@D@23@@__Cr@std@@PEBVImpl@time_zone@cctz@time_internal@absl@@@__Cr@std@@QEAA@Upiecewise_construct_t@12@V?$tuple@AEBV?$basic_string@DU?$char_traits@D@__Cr@std@@V?$allocator@D@23@@__Cr@std@@@12@V?$tuple@$$V@12@@Z
    ??$?0AEBV?$basic_string@DU?$char_traits@D@__Cr@std@@V?$allocator@D@23@@__Cr@std@@$$Z$$V@?$pair@$$CBV?$basic_string@DU?$char_traits@D@__Cr@std@@V?$allocator@D@23@@__Cr@std@@V?$vector@PEBVCommandLineFlag@absl@@V?$allocator@PEBVCommandLineFlag@absl@@@__Cr@std@@@23@@__Cr@std@@QEAA@Upiecewise_construct_t@12@V?$tuple@AEBV?$basic_string@DU?$char_traits@D@__Cr@std@@V?$allocator@D@23@@__Cr@std@@@12@V?$tuple@$$V@12@@Z
    ??$?0AEBV?$basic_string_view@DU?$char_traits@D@__Cr@std@@@__Cr@std@@$$ZAEBQEAVCommandLineFlag@absl@@$$Z$0A@$$Z$0A@@?$pair@V?$tuple@AEBV?$basic_string_view@DU?$char_traits@D@__Cr@std@@@__Cr@std@@@__Cr@std@@V?$tuple@AEBQEAVCommandLineFlag@absl@@@23@@__Cr@std@@AEAA@Upiecewise_construct_t@12@AEAV?$tuple@AEBV?$basic_string_view@DU?$char_traits@D@__Cr@std@@@__Cr@std@@@12@AEAV?$tuple@AEBQEAVCommandLineFlag@absl@@@12@U?$__tuple_indices@$0A@@12@3@Z
    ??$?0AEBV?$basic_string_view@DU?$char_traits@D@__Cr@std@@@__Cr@std@@$$ZAEBQEAVCommandLineFlag@absl@@@?$pair@V?$tuple@AEBV?$basic_string_view@DU?$char_traits@D@__Cr@std@@@__Cr@std@@@__Cr@std@@V?$tuple@AEBQEAVCommandLineFlag@absl@@@23@@__Cr@std@@QEAA@Upiecewise_construct_t@12@V?$tuple@AEBV?$basic_string_view@DU?$char_traits@D@__Cr@std@@@__Cr@std@@@12@V?$tuple@AEBQEAVCommandLineFlag@absl@@@12@@Z
    ??$?0D@?$allocator@U?$AlignedType@$07@container_internal@absl@@@__Cr@std@@QEAA@AEBV?$allocator@D@12@@Z
    ??$?0D@?$allocator@U?$pair@$$CBV?$basic_string_view@DU?$char_traits@D@__Cr@std@@@__Cr@std@@PEAVCommandLineFlag@absl@@@__Cr@std@@@__Cr@std@@QEAA@AEBV?$allocator@D@12@@Z
    ??$?0D@FormatArgImpl@str_format_internal@absl@@QEAA@AEBD@Z
    ??$?0H@FormatArgImpl@str_format_internal@absl@@QEAA@AEBH@Z
    ??$?0I@?$Storage@_K$00$0A@@internal_compressed_tuple@container_internal@absl@@QEAA@Uin_place_t@__Cr@std@@$$QEAI@Z
    ??$?0I@FormatArgImpl@str_format_internal@absl@@QEAA@AEBI@Z
    ??$?0M@FormatArgImpl@str_format_internal@absl@@QEAA@AEBM@Z
    ??$?0N@FormatArgImpl@str_format_internal@absl@@QEAA@AEBN@Z
    ??$?0PEAI@?$SaltedSeedSeq@Vseed_seq@__Cr@std@@@random_internal@absl@@QEAA@PEAI0@Z
    ??$?0PEAPEAPEBVImpl@time_zone@cctz@time_internal@absl@@PEAPEAPEBV01234@$0A@@?$pair@PEAPEAPEBVImpl@time_zone@cctz@time_internal@absl@@PEAPEAPEBV12345@@__Cr@std@@QEAA@$$QEAPEAPEAPEBVImpl@time_zone@cctz@time_internal@absl@@0@Z
    ??$?0PEAPEAUPrefixCrc@CrcCordState@crc_internal@absl@@PEAPEAU0123@$0A@@?$pair@PEAPEAUPrefixCrc@CrcCordState@crc_internal@absl@@PEAPEAU1234@@__Cr@std@@QEAA@$$QEAPEAPEAUPrefixCrc@CrcCordState@crc_internal@absl@@0@Z
    ??$?0PEAPEAVLogSink@absl@@$0A@@?$__wrap_iter@PEBQEAVLogSink@absl@@@__Cr@std@@QEAA@AEBV?$__wrap_iter@PEAPEAVLogSink@absl@@@12@@Z
    ??$?0PEAPEAVLogSink@absl@@PEAPEAV01@$0A@@?$pair@PEAPEAVLogSink@absl@@PEAPEAV12@@__Cr@std@@QEAA@$$QEAPEAPEAVLogSink@absl@@0@Z
    ??$?0PEAUPrefixCrc@CrcCordState@crc_internal@absl@@AEAU0123@PEAPEAU0123@$0A@@?$__deque_iterator@UPrefixCrc@CrcCordState@crc_internal@absl@@PEBU1234@AEBU1234@PEBQEBU1234@_J$0A@@__Cr@std@@QEAA@AEBV?$__deque_iterator@UPrefixCrc@CrcCordState@crc_internal@absl@@PEAU1234@AEAU1234@PEAPEAU1234@_J$0A@@12@@Z
    ??$?0PEAUTransition@cctz@time_internal@absl@@$0A@@?$__wrap_iter@PEBUTransition@cctz@time_internal@absl@@@__Cr@std@@QEAA@AEBV?$__wrap_iter@PEAUTransition@cctz@time_internal@absl@@@12@@Z
    ??$?0PEAUTransition@cctz@time_internal@absl@@PEAU0123@$0A@@?$pair@PEAUTransition@cctz@time_internal@absl@@PEAU1234@@__Cr@std@@QEAA@$$QEAPEAUTransition@cctz@time_internal@absl@@0@Z
    ??$?0PEAUTransitionType@cctz@time_internal@absl@@$0A@@?$__wrap_iter@PEBUTransitionType@cctz@time_internal@absl@@@__Cr@std@@QEAA@AEBV?$__wrap_iter@PEAUTransitionType@cctz@time_internal@absl@@@12@@Z
    ??$?0PEAUTransitionType@cctz@time_internal@absl@@PEAU0123@$0A@@?$pair@PEAUTransitionType@cctz@time_internal@absl@@PEAU1234@@__Cr@std@@QEAA@$$QEAPEAUTransitionType@cctz@time_internal@absl@@0@Z
    ??$?0PEAUraw_view@?1???R?$ConvertToContainer@V?$vector@V?$basic_string_view@DU?$char_traits@D@__Cr@std@@@__Cr@std@@V?$allocator@V?$basic_string_view@DU?$char_traits@D@__Cr@std@@@__Cr@std@@@23@@__Cr@std@@V?$basic_string_view@DU?$char_traits@D@__Cr@std@@@23@$0A@@?$Splitter@VByChar@absl@@UAllowEmpty@2@V?$basic_string_view@DU?$char_traits@D@__Cr@std@@@__Cr@std@@@strings_internal@absl@@QEBA?AV?$vector@V?$basic_string_view@DU?$char_traits@D@__Cr@std@@@__Cr@std@@V?$allocator@V?$basic_string_view@DU?$char_traits@D@__Cr@std@@@__Cr@std@@@23@@__Cr@std@@AEBV234@@Z@PEAU0?1???R1234@QEBA?AV567@0@Z@$0A@@?$pair@PEAUraw_view@?1???R?$ConvertToContainer@V?$vector@V?$basic_string_view@DU?$char_traits@D@__Cr@std@@@__Cr@std@@V?$allocator@V?$basic_string_view@DU?$char_traits@D@__Cr@std@@@__Cr@std@@@23@@__Cr@std@@V?$basic_string_view@DU?$char_traits@D@__Cr@std@@@23@$0A@@?$Splitter@VByChar@absl@@UAllowEmpty@2@V?$basic_string_view@DU?$char_traits@D@__Cr@std@@@__Cr@std@@@strings_internal@absl@@QEBA?AV?$vector@V?$basic_string_view@DU?$char_traits@D@__Cr@std@@@__Cr@std@@V?$allocator@V?$basic_string_view@DU?$char_traits@D@__Cr@std@@@__Cr@std@@@23@@__Cr@std@@AEBV345@@Z@PEAU1?1???R2345@QEBA?AV678@0@Z@@__Cr@std@@QEAA@$$QEAPEAUraw_view@?1???R?$ConvertToContainer@V?$vector@V?$basic_string_view@DU?$char_traits@D@__Cr@std@@@__Cr@std@@V?$allocator@V?$basic_string_view@DU?$char_traits@D@__Cr@std@@@__Cr@std@@@23@@__Cr@std@@V?$basic_string_view@DU?$char_traits@D@__Cr@std@@@23@$0A@@?$Splitter@VByChar@absl@@UAllowEmpty@2@V?$basic_string_view@DU?$char_traits@D@__Cr@std@@@__Cr@std@@@strings_internal@absl@@QEBA?AV?$vector@V?$basic_string_view@DU?$char_traits@D@__Cr@std@@@__Cr@std@@V?$allocator@V?$basic_string_view@DU?$char_traits@D@__Cr@std@@@__Cr@std@@@23@@12@AEBV567@@Z@1@Z
    ??$?0PEAVCommandLineFlag@absl@@$0A@@?$__tuple_leaf@$0A@$$QEAPEAVCommandLineFlag@absl@@$0A@@__Cr@std@@QEAA@$$QEAPEAVCommandLineFlag@absl@@@Z
    ??$?0PEAVCommandLineFlag@absl@@$0A@@?$tuple@$$QEAPEAVCommandLineFlag@absl@@@__Cr@std@@QEAA@$$QEAPEAVCommandLineFlag@absl@@@Z
    ??$?0PEAX@FlagState@flags_internal@absl@@QEAA@AEAVFlagImpl@12@AEBQEAX_N2_J@Z
    ??$?0PEBD@FormatArgImpl@str_format_internal@absl@@QEAA@AEBQEBD@Z
    ??$?0PEBUPrefixCrc@CrcCordState@crc_internal@absl@@PEAU0123@$0A@@?$pair@PEBUPrefixCrc@CrcCordState@crc_internal@absl@@PEAU1234@@__Cr@std@@QEAA@$$QEAPEBUPrefixCrc@CrcCordState@crc_internal@absl@@$$QEAPEAU3456@@Z
    ??$?0PEBUPrefixCrc@CrcCordState@crc_internal@absl@@PEBU0123@$0A@@?$pair@PEBUPrefixCrc@CrcCordState@crc_internal@absl@@PEBU1234@@__Cr@std@@QEAA@$$QEAPEBUPrefixCrc@CrcCordState@crc_internal@absl@@0@Z
    ??$?0PEBUPrefixCrc@CrcCordState@crc_internal@absl@@V?$__deque_iterator@UPrefixCrc@CrcCordState@crc_internal@absl@@PEAU1234@AEAU1234@PEAPEAU1234@_J$0A@@__Cr@std@@$0A@@?$pair@PEBUPrefixCrc@CrcCordState@crc_internal@absl@@V?$__deque_iterator@UPrefixCrc@CrcCordState@crc_internal@absl@@PEAU1234@AEAU1234@PEAPEAU1234@_J$0A@@__Cr@std@@@__Cr@std@@QEAA@$$QEAPEBUPrefixCrc@CrcCordState@crc_internal@absl@@$$QEAV?$__deque_iterator@UPrefixCrc@CrcCordState@crc_internal@absl@@PEAU1234@AEAU1234@PEAPEAU1234@_J$0A@@12@@Z
    ??$?0PEBVFormatArgImpl@str_format_internal@absl@@$0A@@?$InlinedVector@VFormatArgImpl@str_format_internal@absl@@$03V?$allocator@VFormatArgImpl@str_format_internal@absl@@@__Cr@std@@@absl@@QEAA@PEBVFormatArgImpl@str_format_internal@1@0AEBV?$allocator@VFormatArgImpl@str_format_internal@absl@@@__Cr@std@@@Z
    ??$?0U?$array@D$0DKJI@@__Cr@std@@XU012@H@?$Span@D@absl@@QEAA@AEAU?$array@D$0DKJI@@__Cr@std@@@Z
    ??$?0UHex@absl@@X@AlphaNum@absl@@QEAA@AEBUHex@1@$$QEAVStringifySink@strings_internal@1@@Z
    ??$?0UStringEq@container_internal@absl@@@?$Storage@UStringEq@container_internal@absl@@$01$00@internal_compressed_tuple@container_internal@absl@@QEAA@Uin_place_t@__Cr@std@@$$QEAUStringEq@23@@Z
    ??$?0UStringHash@container_internal@absl@@@?$Storage@UStringHash@container_internal@absl@@$00$00@internal_compressed_tuple@container_internal@absl@@QEAA@Uin_place_t@__Cr@std@@$$QEAUStringHash@23@@Z
    ??$?0USynchEvent@absl@@@Condition@absl@@QEAA@P6A_NPEAUSynchEvent@1@@Z0@Z
    ??$?0Uday_tag@detail@cctz@time_internal@absl@@@?$civil_time@Umonth_tag@detail@cctz@time_internal@absl@@@detail@cctz@time_internal@absl@@QEAA@AEBV?$civil_time@Uday_tag@detail@cctz@time_internal@absl@@@1234@PEAX@Z
    ??$?0Uday_tag@detail@cctz@time_internal@absl@@@?$civil_time@Usecond_tag@detail@cctz@time_internal@absl@@@detail@cctz@time_internal@absl@@QEAA@AEBV?$civil_time@Uday_tag@detail@cctz@time_internal@absl@@@1234@PEAX@Z
    ??$?0Uday_tag@detail@cctz@time_internal@absl@@@?$civil_time@Uyear_tag@detail@cctz@time_internal@absl@@@detail@cctz@time_internal@absl@@QEAA@AEBV?$civil_time@Uday_tag@detail@cctz@time_internal@absl@@@1234@PEAX@Z
    ??$?0Uday_tag@time_internal@absl@@@?$civil_time@Uhour_tag@time_internal@absl@@@detail@cctz@time_internal@absl@@QEAA@AEBV?$civil_time@Uday_tag@time_internal@absl@@@1234@PEAX@Z
    ??$?0Uday_tag@time_internal@absl@@@?$civil_time@Uminute_tag@time_internal@absl@@@detail@cctz@time_internal@absl@@QEAA@AEBV?$civil_time@Uday_tag@time_internal@absl@@@1234@PEAX@Z
    ??$?0Uday_tag@time_internal@absl@@@?$civil_time@Umonth_tag@time_internal@absl@@@detail@cctz@time_internal@absl@@QEAA@AEBV?$civil_time@Uday_tag@time_internal@absl@@@1234@PEAX@Z
    ??$?0Uday_tag@time_internal@absl@@@?$civil_time@Usecond_tag@time_internal@absl@@@detail@cctz@time_internal@absl@@QEAA@AEBV?$civil_time@Uday_tag@time_internal@absl@@@1234@PEAX@Z
    ??$?0Uday_tag@time_internal@absl@@@?$civil_time@Uyear_tag@time_internal@absl@@@detail@cctz@time_internal@absl@@QEAA@AEBV?$civil_time@Uday_tag@time_internal@absl@@@1234@PEAX@Z
    ??$?0Uhour_tag@detail@cctz@time_internal@absl@@@?$civil_time@Uday_tag@detail@cctz@time_internal@absl@@@detail@cctz@time_internal@absl@@QEAA@AEBV?$civil_time@Uhour_tag@detail@cctz@time_internal@absl@@@1234@PEAX@Z
    ??$?0Uhour_tag@time_internal@absl@@@?$civil_time@Uday_tag@time_internal@absl@@@detail@cctz@time_internal@absl@@QEAA@AEBV?$civil_time@Uhour_tag@time_internal@absl@@@1234@PEAX@Z
    ??$?0Uhour_tag@time_internal@absl@@@?$civil_time@Uminute_tag@time_internal@absl@@@detail@cctz@time_internal@absl@@QEAA@AEBV?$civil_time@Uhour_tag@time_internal@absl@@@1234@PEAX@Z
    ??$?0Uhour_tag@time_internal@absl@@@?$civil_time@Umonth_tag@time_internal@absl@@@detail@cctz@time_internal@absl@@QEAA@AEBV?$civil_time@Uhour_tag@time_internal@absl@@@1234@PEAX@Z
    ??$?0Uhour_tag@time_internal@absl@@@?$civil_time@Usecond_tag@time_internal@absl@@@detail@cctz@time_internal@absl@@QEAA@AEBV?$civil_time@Uhour_tag@time_internal@absl@@@1234@PEAX@Z
    ??$?0Uhour_tag@time_internal@absl@@@?$civil_time@Uyear_tag@time_internal@absl@@@detail@cctz@time_internal@absl@@QEAA@AEBV?$civil_time@Uhour_tag@time_internal@absl@@@1234@PEAX@Z
    ??$?0Uminute_tag@detail@cctz@time_internal@absl@@@?$civil_time@Uhour_tag@detail@cctz@time_internal@absl@@@detail@cctz@time_internal@absl@@QEAA@AEBV?$civil_time@Uminute_tag@detail@cctz@time_internal@absl@@@1234@PEAX@Z
    ??$?0Uminute_tag@time_internal@absl@@@?$civil_time@Uday_tag@time_internal@absl@@@detail@cctz@time_internal@absl@@QEAA@AEBV?$civil_time@Uminute_tag@time_internal@absl@@@1234@PEAX@Z
    ??$?0Uminute_tag@time_internal@absl@@@?$civil_time@Uhour_tag@time_internal@absl@@@detail@cctz@time_internal@absl@@QEAA@AEBV?$civil_time@Uminute_tag@time_internal@absl@@@1234@PEAX@Z
    ??$?0Uminute_tag@time_internal@absl@@@?$civil_time@Umonth_tag@time_internal@absl@@@detail@cctz@time_internal@absl@@QEAA@AEBV?$civil_time@Uminute_tag@time_internal@absl@@@1234@PEAX@Z
    ??$?0Uminute_tag@time_internal@absl@@@?$civil_time@Usecond_tag@time_internal@absl@@@detail@cctz@time_internal@absl@@QEAA@AEBV?$civil_time@Uminute_tag@time_internal@absl@@@1234@PEAX@Z
    ??$?0Uminute_tag@time_internal@absl@@@?$civil_time@Uyear_tag@time_internal@absl@@@detail@cctz@time_internal@absl@@QEAA@AEBV?$civil_time@Uminute_tag@time_internal@absl@@@1234@PEAX@Z
    ??$?0Umonth_tag@detail@cctz@time_internal@absl@@@?$civil_time@Uyear_tag@detail@cctz@time_internal@absl@@@detail@cctz@time_internal@absl@@QEAA@AEBV?$civil_time@Umonth_tag@detail@cctz@time_internal@absl@@@1234@PEAX@Z
    ??$?0Umonth_tag@time_internal@absl@@@?$civil_time@Uday_tag@time_internal@absl@@@detail@cctz@time_internal@absl@@QEAA@AEBV?$civil_time@Umonth_tag@time_internal@absl@@@1234@PEAX@Z
    ??$?0Umonth_tag@time_internal@absl@@@?$civil_time@Uhour_tag@time_internal@absl@@@detail@cctz@time_internal@absl@@QEAA@AEBV?$civil_time@Umonth_tag@time_internal@absl@@@1234@PEAX@Z
    ??$?0Umonth_tag@time_internal@absl@@@?$civil_time@Uminute_tag@time_internal@absl@@@detail@cctz@time_internal@absl@@QEAA@AEBV?$civil_time@Umonth_tag@time_internal@absl@@@1234@PEAX@Z
    ??$?0Umonth_tag@time_internal@absl@@@?$civil_time@Usecond_tag@time_internal@absl@@@detail@cctz@time_internal@absl@@QEAA@AEBV?$civil_time@Umonth_tag@time_internal@absl@@@1234@PEAX@Z
    ??$?0Umonth_tag@time_internal@absl@@@?$civil_time@Uyear_tag@time_internal@absl@@@detail@cctz@time_internal@absl@@QEAA@AEBV?$civil_time@Umonth_tag@time_internal@absl@@@1234@PEAX@Z
    ??$?0Usecond_tag@detail@cctz@time_internal@absl@@@?$civil_time@Uday_tag@detail@cctz@time_internal@absl@@@detail@cctz@time_internal@absl@@QEAA@AEBV?$civil_time@Usecond_tag@detail@cctz@time_internal@absl@@@1234@PEAX@Z
    ??$?0Usecond_tag@detail@cctz@time_internal@absl@@@?$civil_time@Uminute_tag@detail@cctz@time_internal@absl@@@detail@cctz@time_internal@absl@@QEAA@AEBV?$civil_time@Usecond_tag@detail@cctz@time_internal@absl@@@1234@PEAX@Z
    ??$?0Usecond_tag@detail@cctz@time_internal@absl@@@?$civil_time@Usecond_tag@time_internal@absl@@@detail@cctz@time_internal@absl@@QEAA@AEBV?$civil_time@Usecond_tag@detail@cctz@time_internal@absl@@@1234@PEAX@Z
    ??$?0Usecond_tag@time_internal@absl@@@?$civil_time@Uday_tag@time_internal@absl@@@detail@cctz@time_internal@absl@@QEAA@AEBV?$civil_time@Usecond_tag@time_internal@absl@@@1234@PEAX@Z
    ??$?0Usecond_tag@time_internal@absl@@@?$civil_time@Uhour_tag@time_internal@absl@@@detail@cctz@time_internal@absl@@QEAA@AEBV?$civil_time@Usecond_tag@time_internal@absl@@@1234@PEAX@Z
    ??$?0Usecond_tag@time_internal@absl@@@?$civil_time@Uminute_tag@time_internal@absl@@@detail@cctz@time_internal@absl@@QEAA@AEBV?$civil_time@Usecond_tag@time_internal@absl@@@1234@PEAX@Z
    ??$?0Usecond_tag@time_internal@absl@@@?$civil_time@Umonth_tag@time_internal@absl@@@detail@cctz@time_internal@absl@@QEAA@AEBV?$civil_time@Usecond_tag@time_internal@absl@@@1234@PEAX@Z
    ??$?0Usecond_tag@time_internal@absl@@@?$civil_time@Usecond_tag@detail@cctz@time_internal@absl@@@detail@cctz@time_internal@absl@@QEAA@AEBV?$civil_time@Usecond_tag@time_internal@absl@@@1234@PEAX@Z
    ??$?0Usecond_tag@time_internal@absl@@@?$civil_time@Uyear_tag@time_internal@absl@@@detail@cctz@time_internal@absl@@QEAA@AEBV?$civil_time@Usecond_tag@time_internal@absl@@@1234@PEAX@Z
    ??$?0Uyear_tag@detail@cctz@time_internal@absl@@@?$civil_time@Uday_tag@detail@cctz@time_internal@absl@@@detail@cctz@time_internal@absl@@QEAA@AEBV?$civil_time@Uyear_tag@detail@cctz@time_internal@absl@@@1234@PEAX@Z
    ??$?0Uyear_tag@time_internal@absl@@@?$civil_time@Uday_tag@time_internal@absl@@@detail@cctz@time_internal@absl@@QEAA@AEBV?$civil_time@Uyear_tag@time_internal@absl@@@1234@PEAX@Z
    ??$?0Uyear_tag@time_internal@absl@@@?$civil_time@Uhour_tag@time_internal@absl@@@detail@cctz@time_internal@absl@@QEAA@AEBV?$civil_time@Uyear_tag@time_internal@absl@@@1234@PEAX@Z
    ??$?0Uyear_tag@time_internal@absl@@@?$civil_time@Uminute_tag@time_internal@absl@@@detail@cctz@time_internal@absl@@QEAA@AEBV?$civil_time@Uyear_tag@time_internal@absl@@@1234@PEAX@Z
    ??$?0Uyear_tag@time_internal@absl@@@?$civil_time@Umonth_tag@time_internal@absl@@@detail@cctz@time_internal@absl@@QEAA@AEBV?$civil_time@Uyear_tag@time_internal@absl@@@1234@PEAX@Z
    ??$?0Uyear_tag@time_internal@absl@@@?$civil_time@Usecond_tag@time_internal@absl@@@detail@cctz@time_internal@absl@@QEAA@AEBV?$civil_time@Uyear_tag@time_internal@absl@@@1234@PEAX@Z
    ??$?0V<lambda_1>@?0??SaveFromRegistry@FlagSaverImpl@flags_internal@absl@@QEAAXXZ@$0A@@?$__policy_func@$$A6AXAEAVCommandLineFlag@absl@@@Z@__function@__Cr@std@@QEAA@$$QEAV<lambda_1>@?0??SaveFromRegistry@FlagSaverImpl@flags_internal@absl@@QEAAXXZ@@Z
    ??$?0V<lambda_1>@?0??SaveFromRegistry@FlagSaverImpl@flags_internal@absl@@QEAAXXZ@X@?$function@$$A6AXAEAVCommandLineFlag@absl@@@Z@__Cr@std@@QEAA@V<lambda_1>@?0??SaveFromRegistry@FlagSaverImpl@flags_internal@absl@@QEAAXXZ@@Z
    ??$?0V?$InlinedVector@VFormatArgImpl@str_format_internal@absl@@$03V?$allocator@VFormatArgImpl@str_format_internal@absl@@@__Cr@std@@@absl@@XV01@H@?$Span@$$CBVFormatArgImpl@str_format_internal@absl@@@absl@@QEAA@AEBV?$InlinedVector@VFormatArgImpl@str_format_internal@absl@@$03V?$allocator@VFormatArgImpl@str_format_internal@absl@@@__Cr@std@@@1@@Z
    ??$?0V?$Span@D@absl@@XV01@$0A@@?$Span@$$CBD@absl@@QEAA@AEBV?$Span@D@1@@Z
    ??$?0V?$Span@D@absl@@XV01@$0A@@?$Span@D@absl@@QEAA@AEAV01@@Z
    ??$?0V?$Span@I@absl@@XV01@$0A@@?$Span@$$CBI@absl@@QEAA@AEBV?$Span@I@1@@Z
    ??$?0V?$Span@I@absl@@XV01@$0A@@?$Span@I@absl@@QEAA@AEAV01@@Z
    ??$?0V?$__deque_iterator@UPrefixCrc@CrcCordState@crc_internal@absl@@PEBU1234@AEBU1234@PEBQEBU1234@_J$0A@@__Cr@std@@V012@$0A@@?$pair@V?$__deque_iterator@UPrefixCrc@CrcCordState@crc_internal@absl@@PEBU1234@AEBU1234@PEBQEBU1234@_J$0A@@__Cr@std@@V123@@__Cr@std@@QEAA@$$QEAV?$__deque_iterator@UPrefixCrc@CrcCordState@crc_internal@absl@@PEBU1234@AEBU1234@PEBQEBU1234@_J$0A@@12@0@Z
    ??$?0V?$__deque_iterator@UPrefixCrc@CrcCordState@crc_internal@absl@@PEBU1234@AEBU1234@PEBQEBU1234@_J$0A@@__Cr@std@@V?$__deque_iterator@UPrefixCrc@CrcCordState@crc_internal@absl@@PEAU1234@AEAU1234@PEAPEAU1234@_J$0A@@12@$0A@@?$pair@V?$__deque_iterator@UPrefixCrc@CrcCordState@crc_internal@absl@@PEBU1234@AEBU1234@PEBQEBU1234@_J$0A@@__Cr@std@@V?$__deque_iterator@UPrefixCrc@CrcCordState@crc_internal@absl@@PEAU1234@AEAU1234@PEAPEAU1234@_J$0A@@23@@__Cr@std@@QEAA@$$QEAV?$__deque_iterator@UPrefixCrc@CrcCordState@crc_internal@absl@@PEBU1234@AEBU1234@PEBQEBU1234@_J$0A@@12@$$QEAV?$__deque_iterator@UPrefixCrc@CrcCordState@crc_internal@absl@@PEAU1234@AEAU1234@PEAPEAU1234@_J$0A@@12@@Z
    ??$?0V?$__hash_iterator@PEAU?$__hash_node@PEBUCordRep@cord_internal@absl@@PEAX@__Cr@std@@@__Cr@std@@AEA_N$0A@@?$pair@V?$__hash_iterator@PEAU?$__hash_node@PEBUCordRep@cord_internal@absl@@PEAX@__Cr@std@@@__Cr@std@@_N@__Cr@std@@QEAA@$$QEAV?$__hash_iterator@PEAU?$__hash_node@PEBUCordRep@cord_internal@absl@@PEAX@__Cr@std@@@12@AEA_N@Z
    ??$?0V?$__hash_iterator@PEAU?$__hash_node@PEBUCordRep@cord_internal@absl@@PEAX@__Cr@std@@@__Cr@std@@_N$0A@@?$pair@V?$__hash_const_iterator@PEAU?$__hash_node@PEBUCordRep@cord_internal@absl@@PEAX@__Cr@std@@@__Cr@std@@_N@__Cr@std@@QEAA@$$QEAU?$pair@V?$__hash_iterator@PEAU?$__hash_node@PEBUCordRep@cord_internal@absl@@PEAX@__Cr@std@@@__Cr@std@@_N@12@@Z
    ??$?0V?$__hash_iterator@PEAU?$__hash_node@U?$__hash_value_type@V?$basic_string@DU?$char_traits@D@__Cr@std@@V?$allocator@D@23@@__Cr@std@@PEBVImpl@time_zone@cctz@time_internal@absl@@@__Cr@std@@PEAX@__Cr@std@@@__Cr@std@@AEA_N$0A@@?$pair@V?$__hash_iterator@PEAU?$__hash_node@U?$__hash_value_type@V?$basic_string@DU?$char_traits@D@__Cr@std@@V?$allocator@D@23@@__Cr@std@@PEBVImpl@time_zone@cctz@time_internal@absl@@@__Cr@std@@PEAX@__Cr@std@@@__Cr@std@@_N@__Cr@std@@QEAA@$$QEAV?$__hash_iterator@PEAU?$__hash_node@U?$__hash_value_type@V?$basic_string@DU?$char_traits@D@__Cr@std@@V?$allocator@D@23@@__Cr@std@@PEBVImpl@time_zone@cctz@time_internal@absl@@@__Cr@std@@PEAX@__Cr@std@@@12@AEA_N@Z
    ??$?0V?$__tree_iterator@U?$__value_type@V?$basic_string@DU?$char_traits@D@__Cr@std@@V?$allocator@D@23@@__Cr@std@@V?$map@V?$basic_string@DU?$char_traits@D@__Cr@std@@V?$allocator@D@23@@__Cr@std@@V?$vector@PEBVCommandLineFlag@absl@@V?$allocator@PEBVCommandLineFlag@absl@@@__Cr@std@@@23@U?$less@V?$basic_string@DU?$char_traits@D@__Cr@std@@V?$allocator@D@23@@__Cr@std@@@23@V?$allocator@U?$pair@$$CBV?$basic_string@DU?$char_traits@D@__Cr@std@@V?$allocator@D@23@@__Cr@std@@V?$vector@PEBVCommandLineFlag@absl@@V?$allocator@PEBVCommandLineFlag@absl@@@__Cr@std@@@23@@__Cr@std@@@23@@23@@__Cr@std@@PEAV?$__tree_node@U?$__value_type@V?$basic_string@DU?$char_traits@D@__Cr@std@@V?$allocator@D@23@@__Cr@std@@V?$map@V?$basic_string@DU?$char_traits@D@__Cr@std@@V?$allocator@D@23@@__Cr@std@@V?$vector@PEBVCommandLineFlag@absl@@V?$allocator@PEBVCommandLineFlag@absl@@@__Cr@std@@@23@U?$less@V?$basic_string@DU?$char_traits@D@__Cr@std@@V?$allocator@D@23@@__Cr@std@@@23@V?$allocator@U?$pair@$$CBV?$basic_string@DU?$char_traits@D@__Cr@std@@V?$allocator@D@23@@__Cr@std@@V?$vector@PEBVCommandLineFlag@absl@@V?$allocator@PEBVCommandLineFlag@absl@@@__Cr@std@@@23@@__Cr@std@@@23@@23@@__Cr@std@@PEAX@23@_J@__Cr@std@@AEA_N$0A@@?$pair@V?$__tree_iterator@U?$__value_type@V?$basic_string@DU?$char_traits@D@__Cr@std@@V?$allocator@D@23@@__Cr@std@@V?$map@V?$basic_string@DU?$char_traits@D@__Cr@std@@V?$allocator@D@23@@__Cr@std@@V?$vector@PEBVCommandLineFlag@absl@@V?$allocator@PEBVCommandLineFlag@absl@@@__Cr@std@@@23@U?$less@V?$basic_string@DU?$char_traits@D@__Cr@std@@V?$allocator@D@23@@__Cr@std@@@23@V?$allocator@U?$pair@$$CBV?$basic_string@DU?$char_traits@D@__Cr@std@@V?$allocator@D@23@@__Cr@std@@V?$vector@PEBVCommandLineFlag@absl@@V?$allocator@PEBVCommandLineFlag@absl@@@__Cr@std@@@23@@__Cr@std@@@23@@23@@__Cr@std@@PEAV?$__tree_node@U?$__value_type@V?$basic_string@DU?$char_traits@D@__Cr@std@@V?$allocator@D@23@@__Cr@std@@V?$map@V?$basic_string@DU?$char_traits@D@__Cr@std@@V?$allocator@D@23@@__Cr@std@@V?$vector@PEBVCommandLineFlag@absl@@V?$allocator@PEBVCommandLineFlag@absl@@@__Cr@std@@@23@U?$less@V?$basic_string@DU?$char_traits@D@__Cr@std@@V?$allocator@D@23@@__Cr@std@@@23@V?$allocator@U?$pair@$$CBV?$basic_string@DU?$char_traits@D@__Cr@std@@V?$allocator@D@23@@__Cr@std@@V?$vector@PEBVCommandLineFlag@absl@@V?$allocator@PEBVCommandLineFlag@absl@@@__Cr@std@@@23@@__Cr@std@@@23@@23@@__Cr@std@@PEAX@23@_J@__Cr@std@@_N@__Cr@std@@QEAA@$$QEAV?$__tree_iterator@U?$__value_type@V?$basic_string@DU?$char_traits@D@__Cr@std@@V?$allocator@D@23@@__Cr@std@@V?$map@V?$basic_string@DU?$char_traits@D@__Cr@std@@V?$allocator@D@23@@__Cr@std@@V?$vector@PEBVCommandLineFlag@absl@@V?$allocator@PEBVCommandLineFlag@absl@@@__Cr@std@@@23@U?$less@V?$basic_string@DU?$char_traits@D@__Cr@std@@V?$allocator@D@23@@__Cr@std@@@23@V?$allocator@U?$pair@$$CBV?$basic_string@DU?$char_traits@D@__Cr@std@@V?$allocator@D@23@@__Cr@std@@V?$vector@PEBVCommandLineFlag@absl@@V?$allocator@PEBVCommandLineFlag@absl@@@__Cr@std@@@23@@__Cr@std@@@23@@23@@__Cr@std@@PEAV?$__tree_node@U?$__value_type@V?$basic_string@DU?$char_traits@D@__Cr@std@@V?$allocator@D@23@@__Cr@std@@V?$map@V?$basic_string@DU?$char_traits@D@__Cr@std@@V?$allocator@D@23@@__Cr@std@@V?$vector@PEBVCommandLineFlag@absl@@V?$allocator@PEBVCommandLineFlag@absl@@@__Cr@std@@@23@U?$less@V?$basic_string@DU?$char_traits@D@__Cr@std@@V?$allocator@D@23@@__Cr@std@@@23@V?$allocator@U?$pair@$$CBV?$basic_string@DU?$char_traits@D@__Cr@std@@V?$allocator@D@23@@__Cr@std@@V?$vector@PEBVCommandLineFlag@absl@@V?$allocator@PEBVCommandLineFlag@absl@@@__Cr@std@@@23@@__Cr@std@@@23@@23@@__Cr@std@@PEAX@23@_J@12@AEA_N@Z
    ??$?0V?$__tree_iterator@U?$__value_type@V?$basic_string@DU?$char_traits@D@__Cr@std@@V?$allocator@D@23@@__Cr@std@@V?$vector@PEBVCommandLineFlag@absl@@V?$allocator@PEBVCommandLineFlag@absl@@@__Cr@std@@@23@@__Cr@std@@PEAV?$__tree_node@U?$__value_type@V?$basic_string@DU?$char_traits@D@__Cr@std@@V?$allocator@D@23@@__Cr@std@@V?$vector@PEBVCommandLineFlag@absl@@V?$allocator@PEBVCommandLineFlag@absl@@@__Cr@std@@@23@@__Cr@std@@PEAX@23@_J@__Cr@std@@AEA_N$0A@@?$pair@V?$__tree_iterator@U?$__value_type@V?$basic_string@DU?$char_traits@D@__Cr@std@@V?$allocator@D@23@@__Cr@std@@V?$vector@PEBVCommandLineFlag@absl@@V?$allocator@PEBVCommandLineFlag@absl@@@__Cr@std@@@23@@__Cr@std@@PEAV?$__tree_node@U?$__value_type@V?$basic_string@DU?$char_traits@D@__Cr@std@@V?$allocator@D@23@@__Cr@std@@V?$vector@PEBVCommandLineFlag@absl@@V?$allocator@PEBVCommandLineFlag@absl@@@__Cr@std@@@23@@__Cr@std@@PEAX@23@_J@__Cr@std@@_N@__Cr@std@@QEAA@$$QEAV?$__tree_iterator@U?$__value_type@V?$basic_string@DU?$char_traits@D@__Cr@std@@V?$allocator@D@23@@__Cr@std@@V?$vector@PEBVCommandLineFlag@absl@@V?$allocator@PEBVCommandLineFlag@absl@@@__Cr@std@@@23@@__Cr@std@@PEAV?$__tree_node@U?$__value_type@V?$basic_string@DU?$char_traits@D@__Cr@std@@V?$allocator@D@23@@__Cr@std@@V?$vector@PEBVCommandLineFlag@absl@@V?$allocator@PEBVCommandLineFlag@absl@@@__Cr@std@@@23@@__Cr@std@@PEAX@23@_J@12@AEA_N@Z
    ??$?0V?$allocator@D@__Cr@std@@@?$Storage@V?$allocator@D@__Cr@std@@$02$00@internal_compressed_tuple@container_internal@absl@@QEAA@Uin_place_t@__Cr@std@@$$QEAV?$allocator@D@56@@Z
    ??$?0V?$allocator@D@__Cr@std@@@AlphaNum@absl@@QEAA@AEBV?$basic_string@DU?$char_traits@D@__Cr@std@@V?$allocator@D@23@@__Cr@std@@@Z
    ??$?0V?$allocator@PEAUCordRep@cord_internal@absl@@@__Cr@std@@@?$Storage@V?$allocator@PEAUCordRep@cord_internal@absl@@@__Cr@std@@$0A@$00@internal_compressed_tuple@container_internal@absl@@QEAA@Uin_place_t@__Cr@std@@$$QEAV?$allocator@PEAUCordRep@cord_internal@absl@@@56@@Z
    ??$?0V?$allocator@PEAUCordRep@cord_internal@absl@@@__Cr@std@@I$00@?$CompressedTuple@V?$allocator@PEAUCordRep@cord_internal@absl@@@__Cr@std@@_K@container_internal@absl@@QEAA@$$QEAV?$allocator@PEAUCordRep@cord_internal@absl@@@__Cr@std@@$$QEAI@Z
    ??$?0V?$allocator@PEAUCordRep@cord_internal@absl@@@__Cr@std@@I@?$CompressedTupleImpl@V?$CompressedTuple@V?$allocator@PEAUCordRep@cord_internal@absl@@@__Cr@std@@_K@container_internal@absl@@U?$integer_sequence@_K$0A@$00@__Cr@std@@$00@internal_compressed_tuple@container_internal@absl@@QEAA@Uin_place_t@__Cr@std@@$$QEAV?$allocator@PEAUCordRep@cord_internal@absl@@@56@$$QEAI@Z
    ??$?0V?$allocator@PEAVLogSink@absl@@@__Cr@std@@@?$Storage@V?$allocator@PEAVLogSink@absl@@@__Cr@std@@$0A@$00@internal_compressed_tuple@container_internal@absl@@QEAA@Uin_place_t@__Cr@std@@$$QEAV?$allocator@PEAVLogSink@absl@@@56@@Z
    ??$?0V?$allocator@PEAVLogSink@absl@@@__Cr@std@@I$00@?$CompressedTuple@V?$allocator@PEAVLogSink@absl@@@__Cr@std@@_K@container_internal@absl@@QEAA@$$QEAV?$allocator@PEAVLogSink@absl@@@__Cr@std@@$$QEAI@Z
    ??$?0V?$allocator@PEAVLogSink@absl@@@__Cr@std@@I@?$CompressedTupleImpl@V?$CompressedTuple@V?$allocator@PEAVLogSink@absl@@@__Cr@std@@_K@container_internal@absl@@U?$integer_sequence@_K$0A@$00@__Cr@std@@$00@internal_compressed_tuple@container_internal@absl@@QEAA@Uin_place_t@__Cr@std@@$$QEAV?$allocator@PEAVLogSink@absl@@@56@$$QEAI@Z
    ??$?0V?$allocator@UPayload@status_internal@absl@@@__Cr@std@@@?$Storage@V?$allocator@UPayload@status_internal@absl@@@__Cr@std@@$0A@$00@internal_compressed_tuple@container_internal@absl@@QEAA@Uin_place_t@__Cr@std@@$$QEAV?$allocator@UPayload@status_internal@absl@@@56@@Z
    ??$?0V?$allocator@UPayload@status_internal@absl@@@__Cr@std@@I$00@?$CompressedTuple@V?$allocator@UPayload@status_internal@absl@@@__Cr@std@@_K@container_internal@absl@@QEAA@$$QEAV?$allocator@UPayload@status_internal@absl@@@__Cr@std@@$$QEAI@Z
    ??$?0V?$allocator@UPayload@status_internal@absl@@@__Cr@std@@I@?$CompressedTupleImpl@V?$CompressedTuple@V?$allocator@UPayload@status_internal@absl@@@__Cr@std@@_K@container_internal@absl@@U?$integer_sequence@_K$0A@$00@__Cr@std@@$00@internal_compressed_tuple@container_internal@absl@@QEAA@Uin_place_t@__Cr@std@@$$QEAV?$allocator@UPayload@status_internal@absl@@@56@$$QEAI@Z
    ??$?0V?$basic_ostream@DU?$char_traits@D@__Cr@std@@@__Cr@std@@$0A@@FormatRawSinkImpl@str_format_internal@absl@@QEAA@PEAV?$basic_ostream@DU?$char_traits@D@__Cr@std@@@__Cr@std@@@Z
    ??$?0V?$basic_string@DU?$char_traits@D@__Cr@std@@V?$allocator@D@23@@__Cr@std@@$0A@@Cord@absl@@QEAA@$$QEAV?$basic_string@DU?$char_traits@D@__Cr@std@@V?$allocator@D@23@@__Cr@std@@@Z
    ??$?0V?$basic_string@DU?$char_traits@D@__Cr@std@@V?$allocator@D@23@@__Cr@std@@$0A@@FormatRawSinkImpl@str_format_internal@absl@@QEAA@PEAV?$basic_string@DU?$char_traits@D@__Cr@std@@V?$allocator@D@23@@__Cr@std@@@Z
    ??$?0V?$basic_string_view@DU?$char_traits@D@__Cr@std@@@__Cr@std@@@FormatArgImpl@str_format_internal@absl@@QEAA@AEBV?$basic_string_view@DU?$char_traits@D@__Cr@std@@@__Cr@std@@@Z
    ??$?0V?$basic_string_view@DU?$char_traits@D@__Cr@std@@@__Cr@std@@PEAVCommandLineFlag@absl@@$0A@@?$pair@$$CBV?$basic_string_view@DU?$char_traits@D@__Cr@std@@@__Cr@std@@PEAVCommandLineFlag@absl@@@__Cr@std@@QEAA@$$QEAV?$basic_string_view@DU?$char_traits@D@__Cr@std@@@12@$$QEAPEAVCommandLineFlag@absl@@@Z
    ??$?0V?$basic_string_view@DU?$char_traits@D@__Cr@std@@@__Cr@std@@PEAVCommandLineFlag@absl@@$0A@@?$pair@V?$basic_string_view@DU?$char_traits@D@__Cr@std@@@__Cr@std@@PEAVCommandLineFlag@absl@@@__Cr@std@@QEAA@$$QEAV?$basic_string_view@DU?$char_traits@D@__Cr@std@@@12@$$QEAPEAVCommandLineFlag@absl@@@Z
    ??$?0V?$basic_string_view@DU?$char_traits@D@__Cr@std@@@__Cr@std@@XV012@$0A@@?$Span@$$CBD@absl@@QEAA@AEBV?$basic_string_view@DU?$char_traits@D@__Cr@std@@@__Cr@std@@@Z
    ??$?0VBufferRawSink@str_format_internal@absl@@$0A@@FormatRawSinkImpl@str_format_internal@absl@@QEAA@PEAVBufferRawSink@12@@Z
    ??$?0VCommonFields@container_internal@absl@@@?$Storage@VCommonFields@container_internal@absl@@$0A@$0A@@internal_compressed_tuple@container_internal@absl@@QEAA@Uin_place_t@__Cr@std@@$$QEAVCommonFields@23@@Z
    ??$?0VCommonFields@container_internal@absl@@UStringHash@12@UStringEq@12@V?$allocator@D@__Cr@std@@$00@?$CompressedTuple@VCommonFields@container_internal@absl@@UStringHash@23@UStringEq@23@V?$allocator@D@__Cr@std@@@container_internal@absl@@QEAA@$$QEAVCommonFields@12@$$QEAUStringHash@12@$$QEAUStringEq@12@$$QEAV?$allocator@D@__Cr@std@@@Z
    ??$?0VCommonFields@container_internal@absl@@UStringHash@12@UStringEq@12@V?$allocator@D@__Cr@std@@@?$CompressedTupleImpl@V?$CompressedTuple@VCommonFields@container_internal@absl@@UStringHash@23@UStringEq@23@V?$allocator@D@__Cr@std@@@container_internal@absl@@U?$integer_sequence@_K$0A@$00$01$02@__Cr@std@@$00@internal_compressed_tuple@container_internal@absl@@QEAA@Uin_place_t@__Cr@std@@$$QEAVCommonFields@23@$$QEAUStringHash@23@$$QEAUStringEq@23@$$QEAV?$allocator@D@56@@Z
    ??$?0VFILERawSink@str_format_internal@absl@@$0A@@FormatRawSinkImpl@str_format_internal@absl@@QEAA@PEAVFILERawSink@12@@Z
    ??$?0VFallbackCrcMemcpyEngine@crc_internal@absl@@$0A@@?$default_delete@VCrcMemcpyEngine@crc_internal@absl@@@__Cr@std@@QEAA@AEBU?$default_delete@VFallbackCrcMemcpyEngine@crc_internal@absl@@@12@@Z
    ??$?0VFallbackCrcMemcpyEngine@crc_internal@absl@@U?$default_delete@VFallbackCrcMemcpyEngine@crc_internal@absl@@@__Cr@std@@XX@?$unique_ptr@VCrcMemcpyEngine@crc_internal@absl@@U?$default_delete@VCrcMemcpyEngine@crc_internal@absl@@@__Cr@std@@@__Cr@std@@QEAA@$$QEAV?$unique_ptr@VFallbackCrcMemcpyEngine@crc_internal@absl@@U?$default_delete@VFallbackCrcMemcpyEngine@crc_internal@absl@@@__Cr@std@@@12@@Z
    ??$?0VFlagState@flags_internal@absl@@$0A@@?$default_delete@VFlagStateInterface@flags_internal@absl@@@__Cr@std@@QEAA@AEBU?$default_delete@VFlagState@flags_internal@absl@@@12@@Z
    ??$?0VFlagState@flags_internal@absl@@U?$default_delete@VFlagState@flags_internal@absl@@@__Cr@std@@XX@?$unique_ptr@VFlagStateInterface@flags_internal@absl@@U?$default_delete@VFlagStateInterface@flags_internal@absl@@@__Cr@std@@@__Cr@std@@QEAA@$$QEAV?$unique_ptr@VFlagState@flags_internal@absl@@U?$default_delete@VFlagState@flags_internal@absl@@@__Cr@std@@@12@@Z
    ??$?0VTimeZoneInfo@cctz@time_internal@absl@@$0A@@?$default_delete@VTimeZoneIf@cctz@time_internal@absl@@@__Cr@std@@QEAA@AEBU?$default_delete@VTimeZoneInfo@cctz@time_internal@absl@@@12@@Z
    ??$?0VTimeZoneInfo@cctz@time_internal@absl@@U?$default_delete@VTimeZoneInfo@cctz@time_internal@absl@@@__Cr@std@@XX@?$unique_ptr@VTimeZoneIf@cctz@time_internal@absl@@U?$default_delete@VTimeZoneIf@cctz@time_internal@absl@@@__Cr@std@@@__Cr@std@@QEAA@$$QEAV?$unique_ptr@VTimeZoneInfo@cctz@time_internal@absl@@U?$default_delete@VTimeZoneInfo@cctz@time_internal@absl@@@__Cr@std@@@12@@Z
    ??$?0VTimeZoneLibC@cctz@time_internal@absl@@$0A@@?$default_delete@VTimeZoneIf@cctz@time_internal@absl@@@__Cr@std@@QEAA@AEBU?$default_delete@VTimeZoneLibC@cctz@time_internal@absl@@@12@@Z
    ??$?0VTimeZoneLibC@cctz@time_internal@absl@@U?$default_delete@VTimeZoneLibC@cctz@time_internal@absl@@@__Cr@std@@XX@?$unique_ptr@VTimeZoneIf@cctz@time_internal@absl@@U?$default_delete@VTimeZoneIf@cctz@time_internal@absl@@@__Cr@std@@@__Cr@std@@QEAA@$$QEAV?$unique_ptr@VTimeZoneLibC@cctz@time_internal@absl@@U?$default_delete@VTimeZoneLibC@cctz@time_internal@absl@@@__Cr@std@@@12@@Z
    ??$?0Viterator@?$raw_hash_set@U?$FlatHashMapPolicy@V?$basic_string_view@DU?$char_traits@D@__Cr@std@@@__Cr@std@@PEAVCommandLineFlag@absl@@@container_internal@absl@@UStringHash@23@UStringEq@23@V?$allocator@U?$pair@$$CBV?$basic_string_view@DU?$char_traits@D@__Cr@std@@@__Cr@std@@PEAVCommandLineFlag@absl@@@__Cr@std@@@__Cr@std@@@container_internal@absl@@_N$0A@@?$pair@Viterator@?$raw_hash_set@U?$FlatHashMapPolicy@V?$basic_string_view@DU?$char_traits@D@__Cr@std@@@__Cr@std@@PEAVCommandLineFlag@absl@@@container_internal@absl@@UStringHash@23@UStringEq@23@V?$allocator@U?$pair@$$CBV?$basic_string_view@DU?$char_traits@D@__Cr@std@@@__Cr@std@@PEAVCommandLineFlag@absl@@@__Cr@std@@@__Cr@std@@@container_internal@absl@@_N@__Cr@std@@QEAA@$$QEAViterator@?$raw_hash_set@U?$FlatHashMapPolicy@V?$basic_string_view@DU?$char_traits@D@__Cr@std@@@__Cr@std@@PEAVCommandLineFlag@absl@@@container_internal@absl@@UStringHash@23@UStringEq@23@V?$allocator@U?$pair@$$CBV?$basic_string_view@DU?$char_traits@D@__Cr@std@@@__Cr@std@@PEAVCommandLineFlag@absl@@@__Cr@std@@@__Cr@std@@@container_internal@absl@@$$QEA_N@Z
    ??$?0_J@FlagState@flags_internal@absl@@QEAA@AEAVFlagImpl@12@AEB_J_N2_J@Z
    ??$?0_J@FormatArgImpl@str_format_internal@absl@@QEAA@AEB_J@Z
    ??$?4PEAVCommandLineFlag@absl@@_N$0A@@?$tuple@AEAPEAVCommandLineFlag@absl@@AEA_N@__Cr@std@@QEAAAEAV012@$$QEAV?$tuple@PEAVCommandLineFlag@absl@@_N@12@@Z
    ??$?6$01@LogMessage@log_internal@absl@@QEAAAEAV012@AEAY01$$CBD@Z
    ??$?6$02@LogMessage@log_internal@absl@@QEAAAEAV012@AEAY02$$CBD@Z
    ??$?6$0P@@LogMessage@log_internal@absl@@QEAAAEAV012@AEAY0P@$$CBD@Z
    ??$?6C@LogMessage@log_internal@absl@@QEAAAEAV012@AEBC@Z
    ??$?6D@LogMessage@log_internal@absl@@QEAAAEAV012@AEBD@Z
    ??$?6E@LogMessage@log_internal@absl@@QEAAAEAV012@AEBE@Z
    ??$?6F@LogMessage@log_internal@absl@@QEAAAEAV012@AEBF@Z
    ??$?6G@LogMessage@log_internal@absl@@QEAAAEAV012@AEBG@Z
    ??$?6H@LogMessage@log_internal@absl@@QEAAAEAV012@AEBH@Z
    ??$?6I@LogMessage@log_internal@absl@@QEAAAEAV012@AEBI@Z
    ??$?6J@LogMessage@log_internal@absl@@QEAAAEAV012@AEBJ@Z
    ??$?6K@LogMessage@log_internal@absl@@QEAAAEAV012@AEBK@Z
    ??$?6M@LogMessage@log_internal@absl@@QEAAAEAV012@AEBM@Z
    ??$?6N@LogMessage@log_internal@absl@@QEAAAEAV012@AEBN@Z
    ??$?6PEAX@LogMessage@log_internal@absl@@QEAAAEAV012@AEBQEAX@Z
    ??$?6PEBD@LogMessage@log_internal@absl@@QEAAAEAV012@AEBQEBD@Z
    ??$?6PEBX@LogMessage@log_internal@absl@@QEAAAEAV012@AEBQEBX@Z
    ??$?6_J@LogMessage@log_internal@absl@@QEAAAEAV012@AEB_J@Z
    ??$?6_K@LogMessage@log_internal@absl@@QEAAAEAV012@AEB_K@Z
    ??$?6_N@LogMessage@log_internal@absl@@QEAAAEAV012@AEB_N@Z
    ??$?8PEAPEAVCommandLineFlag@absl@@@__Cr@std@@YA_NAEBV?$__wrap_iter@PEAPEAVCommandLineFlag@absl@@@01@0@Z
    ??$?8PEAPEAVCordzHandle@cord_internal@absl@@@__Cr@std@@YA_NAEBV?$__wrap_iter@PEAPEAVCordzHandle@cord_internal@absl@@@01@0@Z
    ??$?8PEAPEAVLogSink@absl@@@__Cr@std@@YA_NAEBV?$__wrap_iter@PEAPEAVLogSink@absl@@@01@0@Z
    ??$?8PEAPEBVCommandLineFlag@absl@@@__Cr@std@@YA_NAEBV?$__wrap_iter@PEAPEBVCommandLineFlag@absl@@@01@0@Z
    ??$?8PEAUTransitionType@cctz@time_internal@absl@@@__Cr@std@@YA_NAEBV?$__wrap_iter@PEAUTransitionType@cctz@time_internal@absl@@@01@0@Z
    ??$?8PEAUUnrecognizedFlag@absl@@@__Cr@std@@YA_NAEBV?$__wrap_iter@PEAUUnrecognizedFlag@absl@@@01@0@Z
    ??$?8PEAV?$unique_ptr@VFlagStateInterface@flags_internal@absl@@U?$default_delete@VFlagStateInterface@flags_internal@absl@@@__Cr@std@@@__Cr@std@@@__Cr@std@@YA_NAEBV?$__wrap_iter@PEAV?$unique_ptr@VFlagStateInterface@flags_internal@absl@@U?$default_delete@VFlagStateInterface@flags_internal@absl@@@__Cr@std@@@__Cr@std@@@01@0@Z
    ??$?8PEBQEAVLogSink@absl@@PEAPEAV01@@__Cr@std@@YA_NAEBV?$__wrap_iter@PEBQEAVLogSink@absl@@@01@AEBV?$__wrap_iter@PEAPEAVLogSink@absl@@@01@@Z
    ??$?8PEBUConversionItem@ParsedFormatBase@str_format_internal@absl@@@__Cr@std@@YA_NAEBV?$__wrap_iter@PEBUConversionItem@ParsedFormatBase@str_format_internal@absl@@@01@0@Z
    ??$?8PEBUUnrecognizedFlag@absl@@@__Cr@std@@YA_NAEBV?$__wrap_iter@PEBUUnrecognizedFlag@absl@@@01@0@Z
    ??$?8UUnrecognizedFlag@absl@@U01@@__Cr@std@@YA_NAEBV?$allocator@UUnrecognizedFlag@absl@@@01@0@Z
    ??$?8V?$InlinedVector@UPayload@status_internal@absl@@$00V?$allocator@UPayload@status_internal@absl@@@__Cr@std@@@absl@@U?$default_delete@V?$InlinedVector@UPayload@status_internal@absl@@$00V?$allocator@UPayload@status_internal@absl@@@__Cr@std@@@absl@@@__Cr@std@@@__Cr@std@@YA_NAEBV?$unique_ptr@V?$InlinedVector@UPayload@status_internal@absl@@$00V?$allocator@UPayload@status_internal@absl@@@__Cr@std@@@absl@@U?$default_delete@V?$InlinedVector@UPayload@status_internal@absl@@$00V?$allocator@UPayload@status_internal@absl@@@__Cr@std@@@absl@@@__Cr@std@@@01@$$T@Z
    ??$?8VZoneInfoSource@cctz@time_internal@absl@@U?$default_delete@VZoneInfoSource@cctz@time_internal@absl@@@__Cr@std@@@__Cr@std@@YA_NAEBV?$unique_ptr@VZoneInfoSource@cctz@time_internal@absl@@U?$default_delete@VZoneInfoSource@cctz@time_internal@absl@@@__Cr@std@@@01@$$T@Z
    ??$?BV?$vector@V?$basic_string@DU?$char_traits@D@__Cr@std@@V?$allocator@D@23@@__Cr@std@@V?$allocator@V?$basic_string@DU?$char_traits@D@__Cr@std@@V?$allocator@D@23@@__Cr@std@@@23@@__Cr@std@@$0A@@?$Splitter@VByChar@absl@@UAllowEmpty@2@V?$basic_string_view@DU?$char_traits@D@__Cr@std@@@__Cr@std@@@strings_internal@absl@@QEBA?AV?$vector@V?$basic_string@DU?$char_traits@D@__Cr@std@@V?$allocator@D@23@@__Cr@std@@V?$allocator@V?$basic_string@DU?$char_traits@D@__Cr@std@@V?$allocator@D@23@@__Cr@std@@@23@@__Cr@std@@XZ
    ??$?BV?$vector@V?$basic_string_view@DU?$char_traits@D@__Cr@std@@@__Cr@std@@V?$allocator@V?$basic_string_view@DU?$char_traits@D@__Cr@std@@@__Cr@std@@@23@@__Cr@std@@$0A@@?$Splitter@VByChar@absl@@UAllowEmpty@2@V?$basic_string_view@DU?$char_traits@D@__Cr@std@@@__Cr@std@@@strings_internal@absl@@QEBA?AV?$vector@V?$basic_string_view@DU?$char_traits@D@__Cr@std@@@__Cr@std@@V?$allocator@V?$basic_string_view@DU?$char_traits@D@__Cr@std@@@__Cr@std@@@23@@__Cr@std@@XZ
    ??$?DH@absl@@YA?AVDuration@0@HV10@@Z
    ??$?DH@absl@@YA?AVDuration@0@V10@H@Z
    ??$?DN@absl@@YA?AVDuration@0@NV10@@Z
    ??$?D_J@absl@@YA?AVDuration@0@_JV10@@Z
    ??$?GPEAPEAPEBVImpl@time_zone@cctz@time_internal@absl@@PEAPEAPEBV01234@@__Cr@std@@YA_JAEBV?$move_iterator@PEAPEAPEBVImpl@time_zone@cctz@time_internal@absl@@@01@0@Z
    ??$?GPEAPEAUPrefixCrc@CrcCordState@crc_internal@absl@@PEAPEAU0123@@__Cr@std@@YA_JAEBV?$move_iterator@PEAPEAUPrefixCrc@CrcCordState@crc_internal@absl@@@01@0@Z
    ??$?GPEAPEAVCommandLineFlag@absl@@PEAPEAV01@@__Cr@std@@YA_JAEBV?$__wrap_iter@PEAPEAVCommandLineFlag@absl@@@01@0@Z
    ??$?GPEAPEBVCommandLineFlag@absl@@PEAPEBV01@@__Cr@std@@YA_JAEBV?$__wrap_iter@PEAPEBVCommandLineFlag@absl@@@01@0@Z
    ??$?GPEAUTransition@cctz@time_internal@absl@@PEAU0123@@__Cr@std@@YA_JAEBV?$move_iterator@PEAUTransition@cctz@time_internal@absl@@@01@0@Z
    ??$?GPEAUTransitionType@cctz@time_internal@absl@@PEAU0123@@__Cr@std@@YA_JAEBV?$move_iterator@PEAUTransitionType@cctz@time_internal@absl@@@01@0@Z
    ??$?GPEAUraw_view@?1???R?$ConvertToContainer@V?$vector@V?$basic_string_view@DU?$char_traits@D@__Cr@std@@@__Cr@std@@V?$allocator@V?$basic_string_view@DU?$char_traits@D@__Cr@std@@@__Cr@std@@@23@@__Cr@std@@V?$basic_string_view@DU?$char_traits@D@__Cr@std@@@23@$0A@@?$Splitter@VByChar@absl@@UAllowEmpty@2@V?$basic_string_view@DU?$char_traits@D@__Cr@std@@@__Cr@std@@@strings_internal@absl@@QEBA?AV?$vector@V?$basic_string_view@DU?$char_traits@D@__Cr@std@@@__Cr@std@@V?$allocator@V?$basic_string_view@DU?$char_traits@D@__Cr@std@@@__Cr@std@@@23@@__Cr@std@@AEBV234@@Z@PEAU0?1???R1234@QEBA?AV567@0@Z@@__Cr@std@@YA_JAEBV?$__wrap_iter@PEAUraw_view@?1???R?$ConvertToContainer@V?$vector@V?$basic_string_view@DU?$char_traits@D@__Cr@std@@@__Cr@std@@V?$allocator@V?$basic_string_view@DU?$char_traits@D@__Cr@std@@@__Cr@std@@@23@@__Cr@std@@V?$basic_string_view@DU?$char_traits@D@__Cr@std@@@23@$0A@@?$Splitter@VByChar@absl@@UAllowEmpty@2@V?$basic_string_view@DU?$char_traits@D@__Cr@std@@@__Cr@std@@@strings_internal@absl@@QEBA?AV?$vector@V?$basic_string_view@DU?$char_traits@D@__Cr@std@@@__Cr@std@@V?$allocator@V?$basic_string_view@DU?$char_traits@D@__Cr@std@@@__Cr@std@@@23@@__Cr@std@@AEBV345@@Z@@01@0@Z
    ??$?GPEBQEAVLogSink@absl@@PEBQEAV01@@__Cr@std@@YA_JAEBV?$__wrap_iter@PEBQEAVLogSink@absl@@@01@0@Z
    ??$?GPEBUTransition@cctz@time_internal@absl@@PEAU0123@@__Cr@std@@YA_JAEBV?$__wrap_iter@PEBUTransition@cctz@time_internal@absl@@@01@AEBV?$__wrap_iter@PEAUTransition@cctz@time_internal@absl@@@01@@Z
    ??$?GPEBUTransitionType@cctz@time_internal@absl@@PEAU0123@@__Cr@std@@YA_JAEBV?$__wrap_iter@PEBUTransitionType@cctz@time_internal@absl@@@01@AEBV?$__wrap_iter@PEAUTransitionType@cctz@time_internal@absl@@@01@@Z
    ??$?K_J@absl@@YA?AVDuration@0@V10@_J@Z
    ??$?MUsecond_tag@detail@cctz@time_internal@absl@@U01234@@detail@cctz@time_internal@absl@@YA_NAEBV?$civil_time@Usecond_tag@detail@cctz@time_internal@absl@@@0123@0@Z
    ??$?NUsecond_tag@detail@cctz@time_internal@absl@@U01234@@detail@cctz@time_internal@absl@@YA_NAEBV?$civil_time@Usecond_tag@detail@cctz@time_internal@absl@@@0123@0@Z
    ??$?OUsecond_tag@detail@cctz@time_internal@absl@@U01234@@detail@cctz@time_internal@absl@@YA_NAEBV?$civil_time@Usecond_tag@detail@cctz@time_internal@absl@@@0123@0@Z
    ??$?PUsecond_tag@detail@cctz@time_internal@absl@@U01234@@detail@cctz@time_internal@absl@@YA_NAEBV?$civil_time@Usecond_tag@detail@cctz@time_internal@absl@@@0123@0@Z
    ??$?R$$CBUPrefixCrc@CrcCordState@crc_internal@absl@@U0123@$0A@@__copy_impl@__Cr@std@@QEBA?AU?$pair@PEBUPrefixCrc@CrcCordState@crc_internal@absl@@PEAU1234@@12@PEBUPrefixCrc@CrcCordState@crc_internal@absl@@0PEAU4567@@Z
    ??$?RAEAPEAVLogSink@absl@@@__identity@__Cr@std@@QEBAAEAPEAVLogSink@absl@@AEAPEAV34@@Z
    ??$?RAEAPEBDAEAHAEAY0LLI@DAEBQEBDPEAD@?$AtomicHook@P6AXPEBDH000@Z@base_internal@absl@@QEBAXAEAPEBDAEAHAEAY0LLI@DAEBQEBD$$QEAPEAD@Z
    ??$?RAEAPEBVCommandLineFlag@absl@@@__identity@__Cr@std@@QEBAAEAPEBVCommandLineFlag@absl@@AEAPEBV34@@Z
    ??$?RAEAU?$__alt@$00V?$variant@_K_JN@__Cr@std@@@__variant_detail@__Cr@std@@@?$__value_visitor@UBufferSizeVisitor@?1??BufferSizeForStructuredProtoField@log_internal@absl@@YA_KUStructuredProtoField@34@@Z@@__variant@__visitation@__variant_detail@__Cr@std@@QEBA?A_TAEAU?$__alt@$00V?$variant@_K_JN@__Cr@std@@@345@@Z
    ??$?RAEAU?$__alt@$01V?$Span@$$CBD@absl@@@__variant_detail@__Cr@std@@@?$__value_visitor@UBufferSizeVisitor@?1??BufferSizeForStructuredProtoField@log_internal@absl@@YA_KUStructuredProtoField@34@@Z@@__variant@__visitation@__variant_detail@__Cr@std@@QEBA?A_TAEAU?$__alt@$01V?$Span@$$CBD@absl@@@345@@Z
    ??$?RAEAU?$__alt@$02V?$variant@IHM@__Cr@std@@@__variant_detail@__Cr@std@@@?$__value_visitor@UBufferSizeVisitor@?1??BufferSizeForStructuredProtoField@log_internal@absl@@YA_KUStructuredProtoField@34@@Z@@__variant@__visitation@__variant_detail@__Cr@std@@QEBA?A_TAEAU?$__alt@$02V?$variant@IHM@__Cr@std@@@345@@Z
    ??$?RAEAU?$__alt@$0A@V?$variant@_K_JIH_N@__Cr@std@@@__variant_detail@__Cr@std@@@?$__value_visitor@UBufferSizeVisitor@?1??BufferSizeForStructuredProtoField@log_internal@absl@@YA_KUStructuredProtoField@34@@Z@@__variant@__visitation@__variant_detail@__Cr@std@@QEBA?A_TAEAU?$__alt@$0A@V?$variant@_K_JIH_N@__Cr@std@@@345@@Z
    ??$?RAEAW4LogSeverity@absl@@AEAPEBDAEAHPEAPEADPEAH@?$AtomicHook@P6A_NW4LogSeverity@absl@@PEBDHPEAPEADPEAH@Z@base_internal@absl@@QEBA_NAEAW4LogSeverity@2@AEAPEBDAEAH$$QEAPEAPEAD$$QEAPEAH@Z
    ??$?RAEAY04$$CBDPEAVCondVar@absl@@@?$AtomicHook@P6AXPEBDPEBX@Z@base_internal@absl@@QEBAXAEAY04$$CBD$$QEAPEAVCondVar@2@@Z
    ??$?RAEAY06$$CBDPEAVCondVar@absl@@@?$AtomicHook@P6AXPEBDPEBX@Z@base_internal@absl@@QEBAXAEAY06$$CBD$$QEAPEAVCondVar@2@@Z
    ??$?RAEAY0BB@$$CBDPEAVCondVar@absl@@@?$AtomicHook@P6AXPEBDPEBX@Z@base_internal@absl@@QEBAXAEAY0BB@$$CBD$$QEAPEAVCondVar@2@@Z
    ??$?RAEAY0N@$$CBDPEAVMutex@absl@@AEA_J@?$AtomicHook@P6AXPEBDPEBX_J@Z@base_internal@absl@@QEBAXAEAY0N@$$CBD$$QEAPEAVMutex@2@AEA_J@Z
    ??$?RAEAY0O@$$CBDPEAVCondVar@absl@@@?$AtomicHook@P6AXPEBDPEBX@Z@base_internal@absl@@QEBAXAEAY0O@$$CBD$$QEAPEAVCondVar@2@@Z
    ??$?RAEA_J@?$AtomicHook@P6AX_J@Z@base_internal@absl@@QEBAXAEA_J@Z
    ??$?RAEBQEAPEAPEBVImpl@time_zone@cctz@time_internal@absl@@@__fn@__iter_move@ranges@__Cr@std@@QEBA$$QEAPEAPEBVImpl@time_zone@cctz@time_internal@absl@@AEBQEAPEAPEBV56789@@Z
    ??$?RAEBQEAPEAUCordRep@cord_internal@absl@@@__fn@__iter_move@ranges@__Cr@std@@QEBA$$QEAPEAUCordRep@cord_internal@absl@@AEBQEAPEAU567@@Z
    ??$?RAEBQEAPEAUPrefixCrc@CrcCordState@crc_internal@absl@@@__fn@__iter_move@ranges@__Cr@std@@QEBA$$QEAPEAUPrefixCrc@CrcCordState@crc_internal@absl@@AEBQEAPEAU5678@@Z
    ??$?RAEBQEAPEAVLogSink@absl@@@__fn@__iter_move@ranges@__Cr@std@@QEBA$$QEAPEAVLogSink@absl@@AEBQEAPEAV56@@Z
    ??$?RAEBQEAUPayload@status_internal@absl@@@__fn@__iter_move@ranges@__Cr@std@@QEBA$$QEAUPayload@status_internal@absl@@AEBQEAU567@@Z
    ??$?RAEBQEAUTransition@cctz@time_internal@absl@@@__fn@__iter_move@ranges@__Cr@std@@QEBA$$QEAUTransition@cctz@time_internal@absl@@AEBQEAU5678@@Z
    ??$?RAEBQEAUTransitionType@cctz@time_internal@absl@@@__fn@__iter_move@ranges@__Cr@std@@QEBA$$QEAUTransitionType@cctz@time_internal@absl@@AEBQEAU5678@@Z
    ??$?RAEBUTransition@cctz@time_internal@absl@@@__identity@__Cr@std@@QEBAAEBUTransition@cctz@time_internal@absl@@AEBU3456@@Z
    ??$?RPEAPEBVImpl@time_zone@cctz@time_internal@absl@@PEAPEBV01234@$0A@@?$__move_backward_impl@U_ClassicAlgPolicy@__Cr@std@@@__Cr@std@@QEBA?AU?$pair@PEAPEAPEBVImpl@time_zone@cctz@time_internal@absl@@PEAPEAPEBV12345@@12@PEAPEAPEBVImpl@time_zone@cctz@time_internal@absl@@00@Z
    ??$?RPEAPEBVImpl@time_zone@cctz@time_internal@absl@@PEAPEBV01234@$0A@@?$__move_impl@U_ClassicAlgPolicy@__Cr@std@@@__Cr@std@@QEBA?AU?$pair@PEAPEAPEBVImpl@time_zone@cctz@time_internal@absl@@PEAPEAPEBV12345@@12@PEAPEAPEBVImpl@time_zone@cctz@time_internal@absl@@00@Z
    ??$?RPEAUPrefixCrc@CrcCordState@crc_internal@absl@@PEAU0123@$0A@@?$__move_backward_impl@U_ClassicAlgPolicy@__Cr@std@@@__Cr@std@@QEBA?AU?$pair@PEAPEAUPrefixCrc@CrcCordState@crc_internal@absl@@PEAPEAU1234@@12@PEAPEAUPrefixCrc@CrcCordState@crc_internal@absl@@00@Z
    ??$?RPEAUPrefixCrc@CrcCordState@crc_internal@absl@@PEAU0123@$0A@@?$__move_impl@U_ClassicAlgPolicy@__Cr@std@@@__Cr@std@@QEBA?AU?$pair@PEAPEAUPrefixCrc@CrcCordState@crc_internal@absl@@PEAPEAU1234@@12@PEAPEAUPrefixCrc@CrcCordState@crc_internal@absl@@00@Z
    ??$?RPEAVLogSink@absl@@PEAV01@$0A@@?$__move_impl@U_ClassicAlgPolicy@__Cr@std@@@__Cr@std@@QEBA?AU?$pair@PEAPEAVLogSink@absl@@PEAPEAV12@@12@PEAPEAVLogSink@absl@@00@Z
    ??$?RPEAVSpinLock@base_internal@absl@@AEB_J@?$AtomicHook@P6AXPEBX_J@Z@base_internal@absl@@QEBAX$$QEAPEAVSpinLock@12@AEB_J@Z
    ??$?RPEBUPrefixCrc@CrcCordState@crc_internal@absl@@V?$__deque_iterator@UPrefixCrc@CrcCordState@crc_internal@absl@@PEAU1234@AEAU1234@PEAPEAU1234@_J$0A@@__Cr@std@@$0A@@__copy_impl@__Cr@std@@QEBA?AU?$pair@PEBUPrefixCrc@CrcCordState@crc_internal@absl@@V?$__deque_iterator@UPrefixCrc@CrcCordState@crc_internal@absl@@PEAU1234@AEAU1234@PEAPEAU1234@_J$0A@@__Cr@std@@@12@PEBUPrefixCrc@CrcCordState@crc_internal@absl@@0V?$__deque_iterator@UPrefixCrc@CrcCordState@crc_internal@absl@@PEAU1234@AEAU1234@PEAPEAU1234@_J$0A@@12@@Z
    ??$?RUTransition@cctz@time_internal@absl@@U0123@$0A@@?$__move_backward_impl@U_ClassicAlgPolicy@__Cr@std@@@__Cr@std@@QEBA?AU?$pair@PEAUTransition@cctz@time_internal@absl@@PEAU1234@@12@PEAUTransition@cctz@time_internal@absl@@00@Z
    ??$?RUTransition@cctz@time_internal@absl@@U0123@$0A@@?$__move_impl@U_ClassicAlgPolicy@__Cr@std@@@__Cr@std@@QEBA?AU?$pair@PEAUTransition@cctz@time_internal@absl@@PEAU1234@@12@PEAUTransition@cctz@time_internal@absl@@00@Z
    ??$?RUTransitionType@cctz@time_internal@absl@@U0123@$0A@@?$__move_backward_impl@U_ClassicAlgPolicy@__Cr@std@@@__Cr@std@@QEBA?AU?$pair@PEAUTransitionType@cctz@time_internal@absl@@PEAU1234@@12@PEAUTransitionType@cctz@time_internal@absl@@00@Z
    ??$?RUTransitionType@cctz@time_internal@absl@@U0123@$0A@@?$__move_impl@U_ClassicAlgPolicy@__Cr@std@@@__Cr@std@@QEBA?AU?$pair@PEAUTransitionType@cctz@time_internal@absl@@PEAU1234@@12@PEAUTransitionType@cctz@time_internal@absl@@00@Z
    ??$?RV?$__deque_iterator@UPrefixCrc@CrcCordState@crc_internal@absl@@PEBU1234@AEBU1234@PEBQEBU1234@_J$0A@@__Cr@std@@V?$__deque_iterator@UPrefixCrc@CrcCordState@crc_internal@absl@@PEAU1234@AEAU1234@PEAPEAU1234@_J$0A@@12@$0A@@__copy_impl@__Cr@std@@QEBA?AU?$pair@V?$__deque_iterator@UPrefixCrc@CrcCordState@crc_internal@absl@@PEBU1234@AEBU1234@PEBQEBU1234@_J$0A@@__Cr@std@@V?$__deque_iterator@UPrefixCrc@CrcCordState@crc_internal@absl@@PEAU1234@AEAU1234@PEAPEAU1234@_J$0A@@23@@12@V?$__deque_iterator@UPrefixCrc@CrcCordState@crc_internal@absl@@PEBU1234@AEBU1234@PEBQEBU1234@_J$0A@@12@0V?$__deque_iterator@UPrefixCrc@CrcCordState@crc_internal@absl@@PEAU1234@AEAU1234@PEAPEAU1234@_J$0A@@12@@Z
    ??$?RV?$basic_string_view@DU?$char_traits@D@__Cr@std@@@__Cr@std@@AEBUpiecewise_construct_t@12@V?$tuple@$$QEAV?$basic_string_view@DU?$char_traits@D@__Cr@std@@@__Cr@std@@@12@V?$tuple@$$QEAPEAVCommandLineFlag@absl@@@12@@EmplaceDecomposable@?$raw_hash_set@U?$FlatHashMapPolicy@V?$basic_string_view@DU?$char_traits@D@__Cr@std@@@__Cr@std@@PEAVCommandLineFlag@absl@@@container_internal@absl@@UStringHash@23@UStringEq@23@V?$allocator@U?$pair@$$CBV?$basic_string_view@DU?$char_traits@D@__Cr@std@@@__Cr@std@@PEAVCommandLineFlag@absl@@@__Cr@std@@@__Cr@std@@@container_internal@absl@@QEBA?AU?$pair@Viterator@?$raw_hash_set@U?$FlatHashMapPolicy@V?$basic_string_view@DU?$char_traits@D@__Cr@std@@@__Cr@std@@PEAVCommandLineFlag@absl@@@container_internal@absl@@UStringHash@23@UStringEq@23@V?$allocator@U?$pair@$$CBV?$basic_string_view@DU?$char_traits@D@__Cr@std@@@__Cr@std@@PEAVCommandLineFlag@absl@@@__Cr@std@@@__Cr@std@@@container_internal@absl@@_N@__Cr@std@@AEBV?$basic_string_view@DU?$char_traits@D@__Cr@std@@@56@AEBUpiecewise_construct_t@56@$$QEAV?$tuple@$$QEAV?$basic_string_view@DU?$char_traits@D@__Cr@std@@@__Cr@std@@@56@$$QEAV?$tuple@$$QEAPEAVCommandLineFlag@absl@@@56@@Z
    ??$?RV?$basic_string_view@DU?$char_traits@D@__Cr@std@@@__Cr@std@@AEBUpiecewise_construct_t@12@V?$tuple@$$QEBV?$basic_string_view@DU?$char_traits@D@__Cr@std@@@__Cr@std@@@12@V?$tuple@$$QEAPEAVCommandLineFlag@absl@@@12@@EmplaceDecomposable@?$raw_hash_set@U?$FlatHashMapPolicy@V?$basic_string_view@DU?$char_traits@D@__Cr@std@@@__Cr@std@@PEAVCommandLineFlag@absl@@@container_internal@absl@@UStringHash@23@UStringEq@23@V?$allocator@U?$pair@$$CBV?$basic_string_view@DU?$char_traits@D@__Cr@std@@@__Cr@std@@PEAVCommandLineFlag@absl@@@__Cr@std@@@__Cr@std@@@container_internal@absl@@QEBA?AU?$pair@Viterator@?$raw_hash_set@U?$FlatHashMapPolicy@V?$basic_string_view@DU?$char_traits@D@__Cr@std@@@__Cr@std@@PEAVCommandLineFlag@absl@@@container_internal@absl@@UStringHash@23@UStringEq@23@V?$allocator@U?$pair@$$CBV?$basic_string_view@DU?$char_traits@D@__Cr@std@@@__Cr@std@@PEAVCommandLineFlag@absl@@@__Cr@std@@@__Cr@std@@@container_internal@absl@@_N@__Cr@std@@AEBV?$basic_string_view@DU?$char_traits@D@__Cr@std@@@56@AEBUpiecewise_construct_t@56@$$QEAV?$tuple@$$QEBV?$basic_string_view@DU?$char_traits@D@__Cr@std@@@__Cr@std@@@56@$$QEAV?$tuple@$$QEAPEAVCommandLineFlag@absl@@@56@@Z
    ??$?RV?$basic_string_view@DU?$char_traits@D@__Cr@std@@@__Cr@std@@AEBUpiecewise_construct_t@12@V?$tuple@AEBV?$basic_string_view@DU?$char_traits@D@__Cr@std@@@__Cr@std@@@12@V?$tuple@AEBQEAVCommandLineFlag@absl@@@12@@?$EqualElement@V?$basic_string_view@DU?$char_traits@D@__Cr@std@@@__Cr@std@@@?$raw_hash_set@U?$FlatHashMapPolicy@V?$basic_string_view@DU?$char_traits@D@__Cr@std@@@__Cr@std@@PEAVCommandLineFlag@absl@@@container_internal@absl@@UStringHash@23@UStringEq@23@V?$allocator@U?$pair@$$CBV?$basic_string_view@DU?$char_traits@D@__Cr@std@@@__Cr@std@@PEAVCommandLineFlag@absl@@@__Cr@std@@@__Cr@std@@@container_internal@absl@@QEBA_NAEBV?$basic_string_view@DU?$char_traits@D@__Cr@std@@@__Cr@std@@AEBUpiecewise_construct_t@56@$$QEAV?$tuple@AEBV?$basic_string_view@DU?$char_traits@D@__Cr@std@@@__Cr@std@@@56@$$QEAV?$tuple@AEBQEAVCommandLineFlag@absl@@@56@@Z
    ??$?RV?$basic_string_view@DU?$char_traits@D@__Cr@std@@@__Cr@std@@AEBUpiecewise_construct_t@12@V?$tuple@AEBV?$basic_string_view@DU?$char_traits@D@__Cr@std@@@__Cr@std@@@12@V?$tuple@AEBQEAVCommandLineFlag@absl@@@12@@FindElement@?$raw_hash_set@U?$FlatHashMapPolicy@V?$basic_string_view@DU?$char_traits@D@__Cr@std@@@__Cr@std@@PEAVCommandLineFlag@absl@@@container_internal@absl@@UStringHash@23@UStringEq@23@V?$allocator@U?$pair@$$CBV?$basic_string_view@DU?$char_traits@D@__Cr@std@@@__Cr@std@@PEAVCommandLineFlag@absl@@@__Cr@std@@@__Cr@std@@@container_internal@absl@@QEBA?AVconst_iterator@123@AEBV?$basic_string_view@DU?$char_traits@D@__Cr@std@@@__Cr@std@@AEBUpiecewise_construct_t@67@$$QEAV?$tuple@AEBV?$basic_string_view@DU?$char_traits@D@__Cr@std@@@__Cr@std@@@67@$$QEAV?$tuple@AEBQEAVCommandLineFlag@absl@@@67@@Z
    ??$?RV?$basic_string_view@DU?$char_traits@D@__Cr@std@@@__Cr@std@@AEBUpiecewise_construct_t@12@V?$tuple@AEBV?$basic_string_view@DU?$char_traits@D@__Cr@std@@@__Cr@std@@@12@V?$tuple@AEBQEAVCommandLineFlag@absl@@@12@@HashElement@?$raw_hash_set@U?$FlatHashMapPolicy@V?$basic_string_view@DU?$char_traits@D@__Cr@std@@@__Cr@std@@PEAVCommandLineFlag@absl@@@container_internal@absl@@UStringHash@23@UStringEq@23@V?$allocator@U?$pair@$$CBV?$basic_string_view@DU?$char_traits@D@__Cr@std@@@__Cr@std@@PEAVCommandLineFlag@absl@@@__Cr@std@@@__Cr@std@@@container_internal@absl@@QEBA_KAEBV?$basic_string_view@DU?$char_traits@D@__Cr@std@@@__Cr@std@@AEBUpiecewise_construct_t@56@$$QEAV?$tuple@AEBV?$basic_string_view@DU?$char_traits@D@__Cr@std@@@__Cr@std@@@56@$$QEAV?$tuple@AEBQEAVCommandLineFlag@absl@@@56@@Z
    ??$?RVDuration@absl@@V01@@?$__less@XX@__Cr@std@@QEBA_NAEBVDuration@absl@@0@Z
    ??$?RVMixingHashState@hash_internal@absl@@@CombineRaw@hash_internal@absl@@QEBA?AVMixingHashState@12@V312@_K@Z
    ??$?RW4LogSeverity@absl@@AEBQEBDHAEAPEBD@?$AtomicHook@P6AXW4LogSeverity@absl@@PEBDHAEBV?$basic_string@DU?$char_traits@D@__Cr@std@@V?$allocator@D@23@@__Cr@std@@@Z@base_internal@absl@@QEBAX$$QEAW4LogSeverity@2@AEBQEBD$$QEAHAEAPEBD@Z
    ??$?RW4LogSeverity@absl@@AEBQEBDHAEAV?$basic_string@DU?$char_traits@D@__Cr@std@@V?$allocator@D@23@@__Cr@std@@@?$AtomicHook@P6AXW4LogSeverity@absl@@PEBDHAEBV?$basic_string@DU?$char_traits@D@__Cr@std@@V?$allocator@D@23@@__Cr@std@@@Z@base_internal@absl@@QEBAX$$QEAW4LogSeverity@2@AEBQEBD$$QEAHAEAV?$basic_string@DU?$char_traits@D@__Cr@std@@V?$allocator@D@23@@__Cr@std@@@Z
    ??$?RW4LogSeverity@absl@@AEBQEBDHAEAY0CC@$$CBD@?$AtomicHook@P6AXW4LogSeverity@absl@@PEBDHAEBV?$basic_string@DU?$char_traits@D@__Cr@std@@V?$allocator@D@23@@__Cr@std@@@Z@base_internal@absl@@QEBAX$$QEAW4LogSeverity@2@AEBQEBD$$QEAHAEAY0CC@$$CBD@Z
    ??$?RW4LogSeverity@absl@@AEBQEBDHAEAY0CG@$$CBD@?$AtomicHook@P6AXW4LogSeverity@absl@@PEBDHAEBV?$basic_string@DU?$char_traits@D@__Cr@std@@V?$allocator@D@23@@__Cr@std@@@Z@base_internal@absl@@QEBAX$$QEAW4LogSeverity@2@AEBQEBD$$QEAHAEAY0CG@$$CBD@Z
    ??$?RW4LogSeverity@absl@@AEBQEBDHAEAY0CH@$$CBD@?$AtomicHook@P6AXW4LogSeverity@absl@@PEBDHAEBV?$basic_string@DU?$char_traits@D@__Cr@std@@V?$allocator@D@23@@__Cr@std@@@Z@base_internal@absl@@QEBAX$$QEAW4LogSeverity@2@AEBQEBD$$QEAHAEAY0CH@$$CBD@Z
    ??$?RW4LogSeverity@absl@@AEBQEBDHAEAY0CI@$$CBD@?$AtomicHook@P6AXW4LogSeverity@absl@@PEBDHAEBV?$basic_string@DU?$char_traits@D@__Cr@std@@V?$allocator@D@23@@__Cr@std@@@Z@base_internal@absl@@QEBAX$$QEAW4LogSeverity@2@AEBQEBD$$QEAHAEAY0CI@$$CBD@Z
    ??$?RW4LogSeverity@absl@@AEBQEBDHAEAY0CL@$$CBD@?$AtomicHook@P6AXW4LogSeverity@absl@@PEBDHAEBV?$basic_string@DU?$char_traits@D@__Cr@std@@V?$allocator@D@23@@__Cr@std@@@Z@base_internal@absl@@QEBAX$$QEAW4LogSeverity@2@AEBQEBD$$QEAHAEAY0CL@$$CBD@Z
    ??$?RW4LogSeverity@absl@@AEBQEBDHV?$basic_string@DU?$char_traits@D@__Cr@std@@V?$allocator@D@23@@__Cr@std@@@?$AtomicHook@P6AXW4LogSeverity@absl@@PEBDHAEBV?$basic_string@DU?$char_traits@D@__Cr@std@@V?$allocator@D@23@@__Cr@std@@@Z@base_internal@absl@@QEBAX$$QEAW4LogSeverity@2@AEBQEBD$$QEAH$$QEAV?$basic_string@DU?$char_traits@D@__Cr@std@@V?$allocator@D@23@@__Cr@std@@@Z
    ??$?VAEAVLogMessage@log_internal@absl@@@Voidify@log_internal@absl@@QEHBAXAEAVLogMessage@12@@Z
    ??$?XH$0A@@Duration@absl@@QEAAAEAV01@H@Z
    ??$AbslHashValue@VMixingHashState@hash_internal@absl@@@hash_internal@absl@@YA?AVMixingHashState@01@V201@V?$basic_string_view@DU?$char_traits@D@__Cr@std@@@__Cr@std@@@Z
    ??$AbslHashValue@VMixingHashState@hash_internal@absl@@AEBV?$basic_string_view@DU?$char_traits@D@__Cr@std@@@__Cr@std@@AEBH@hash_internal@absl@@YA?AVMixingHashState@01@V201@AEBV?$tuple@AEBV?$basic_string_view@DU?$char_traits@D@__Cr@std@@@__Cr@std@@AEBH@__Cr@std@@@Z
    ??$AbslHashValue@VMixingHashState@hash_internal@absl@@AEB_K@hash_internal@absl@@YA?AVMixingHashState@01@V201@AEBV?$tuple@AEB_K@__Cr@std@@@Z
    ??$AbslStringify@VStringifySink@strings_internal@absl@@@absl@@YAXAEAVStringifySink@strings_internal@0@UHex@0@@Z
    ??$Add@$00@CordRepBtree@cord_internal@absl@@AEAAXPEAUCordRep@12@@Z
    ??$Add@$00@CordRepBtree@cord_internal@absl@@AEAAXV?$Span@QEAUCordRep@cord_internal@absl@@@2@@Z
    ??$Add@$0A@@CordRepBtree@cord_internal@absl@@AEAAXPEAUCordRep@12@@Z
    ??$Add@$0A@@CordRepBtree@cord_internal@absl@@AEAAXV?$Span@QEAUCordRep@cord_internal@absl@@@2@@Z
    ??$AddCordRep@$00@CordRepBtree@cord_internal@absl@@CAPEAV012@PEAV012@PEAUCordRep@12@@Z
    ??$AddCordRep@$0A@@CordRepBtree@cord_internal@absl@@CAPEAV012@PEAV012@PEAUCordRep@12@@Z
    ??$AddData@$00@CordRepBtree@cord_internal@absl@@AEAA?AV?$basic_string_view@DU?$char_traits@D@__Cr@std@@@__Cr@std@@V345@_K@Z
    ??$AddData@$00@CordRepBtree@cord_internal@absl@@CAPEAV012@PEAV012@V?$basic_string_view@DU?$char_traits@D@__Cr@std@@@__Cr@std@@_K@Z
    ??$AddData@$0A@@CordRepBtree@cord_internal@absl@@AEAA?AV?$basic_string_view@DU?$char_traits@D@__Cr@std@@@__Cr@std@@V345@_K@Z
    ??$AddData@$0A@@CordRepBtree@cord_internal@absl@@CAPEAV012@PEAV012@V?$basic_string_view@DU?$char_traits@D@__Cr@std@@@__Cr@std@@_K@Z
    ??$AddEdge@$00@CordRepBtree@cord_internal@absl@@QEAA?AUOpResult@012@_NPEAUCordRep@12@_K@Z
    ??$AddEdge@$0A@@CordRepBtree@cord_internal@absl@@QEAA?AUOpResult@012@_NPEAUCordRep@12@_K@Z
    ??$Allocate@$07V?$allocator@D@__Cr@std@@@container_internal@absl@@YAPEAXPEAV?$allocator@D@__Cr@std@@_K@Z
    ??$AllocateBackingArray@$07V?$allocator@D@__Cr@std@@@container_internal@absl@@YAPEAXPEAX_K@Z
    ??$Append@V?$basic_string@DU?$char_traits@D@__Cr@std@@V?$allocator@D@23@@__Cr@std@@$0A@@Cord@absl@@QEAAX$$QEAV?$basic_string@DU?$char_traits@D@__Cr@std@@V?$allocator@D@23@@__Cr@std@@@Z
    ??$AppendImpl@AEBVCord@absl@@@Cord@absl@@AEAAXAEBV01@@Z
    ??$AppendImpl@VCord@absl@@@Cord@absl@@AEAAX$$QEAV01@@Z
    ??$ArgumentToConv@C@str_format_internal@absl@@YA?AW4FormatConversionCharSet@1@XZ
    ??$ArgumentToConv@D@str_format_internal@absl@@YA?AW4FormatConversionCharSet@1@XZ
    ??$ArgumentToConv@E@str_format_internal@absl@@YA?AW4FormatConversionCharSet@1@XZ
    ??$ArgumentToConv@F@str_format_internal@absl@@YA?AW4FormatConversionCharSet@1@XZ
    ??$ArgumentToConv@G@str_format_internal@absl@@YA?AW4FormatConversionCharSet@1@XZ
    ??$ArgumentToConv@H@str_format_internal@absl@@YA?AW4FormatConversionCharSet@1@XZ
    ??$ArgumentToConv@I@str_format_internal@absl@@YA?AW4FormatConversionCharSet@1@XZ
    ??$ArgumentToConv@J@str_format_internal@absl@@YA?AW4FormatConversionCharSet@1@XZ
    ??$ArgumentToConv@K@str_format_internal@absl@@YA?AW4FormatConversionCharSet@1@XZ
    ??$ArgumentToConv@M@str_format_internal@absl@@YA?AW4FormatConversionCharSet@1@XZ
    ??$ArgumentToConv@N@str_format_internal@absl@@YA?AW4FormatConversionCharSet@1@XZ
    ??$ArgumentToConv@O@str_format_internal@absl@@YA?AW4FormatConversionCharSet@1@XZ
    ??$ArgumentToConv@PEBD@str_format_internal@absl@@YA?AW4FormatConversionCharSet@1@XZ
    ??$ArgumentToConv@PEB_W@str_format_internal@absl@@YA?AW4FormatConversionCharSet@1@XZ
    ??$ArgumentToConv@UVoidPtr@str_format_internal@absl@@@str_format_internal@absl@@YA?AW4FormatConversionCharSet@1@XZ
    ??$ArgumentToConv@V?$basic_string@DU?$char_traits@D@__Cr@std@@V?$allocator@D@23@@__Cr@std@@@str_format_internal@absl@@YA?AW4FormatConversionCharSet@1@XZ
    ??$ArgumentToConv@V?$basic_string@_WU?$char_traits@_W@__Cr@std@@V?$allocator@_W@23@@__Cr@std@@@str_format_internal@absl@@YA?AW4FormatConversionCharSet@1@XZ
    ??$ArgumentToConv@V?$basic_string_view@DU?$char_traits@D@__Cr@std@@@__Cr@std@@@str_format_internal@absl@@YA?AW4FormatConversionCharSet@1@XZ
    ??$ArgumentToConv@V?$basic_string_view@_WU?$char_traits@_W@__Cr@std@@@__Cr@std@@@str_format_internal@absl@@YA?AW4FormatConversionCharSet@1@XZ
    ??$ArgumentToConv@Vint128@absl@@@str_format_internal@absl@@YA?AW4FormatConversionCharSet@1@XZ
    ??$ArgumentToConv@Vuint128@absl@@@str_format_internal@absl@@YA?AW4FormatConversionCharSet@1@XZ
    ??$ArgumentToConv@_J@str_format_internal@absl@@YA?AW4FormatConversionCharSet@1@XZ
    ??$ArgumentToConv@_K@str_format_internal@absl@@YA?AW4FormatConversionCharSet@1@XZ
    ??$ArgumentToConv@_N@str_format_internal@absl@@YA?AW4FormatConversionCharSet@1@XZ
    ??$AsciiInAZRange@$00@ascii_internal@absl@@YA_NE@Z
    ??$AsciiInAZRange@$0A@@ascii_internal@absl@@YA_NE@Z
    ??$AsciiInAZRangeNaive@$00@ascii_internal@absl@@YA_NE@Z
    ??$AsciiInAZRangeNaive@$0A@@ascii_internal@absl@@YA_NE@Z
    ??$AsciiStrCaseFold@$00@ascii_internal@absl@@YAXPEADPEBD_K@Z
    ??$AsciiStrCaseFold@$0A@@ascii_internal@absl@@YAXPEADPEBD_K@Z
    ??$AsciiStrCaseFoldImpl@$00$00@ascii_internal@absl@@YAXPEADPEBD_K@Z
    ??$AsciiStrCaseFoldImpl@$00$0A@@ascii_internal@absl@@YAXPEADPEBD_K@Z
    ??$AsciiStrCaseFoldImpl@$0A@$00@ascii_internal@absl@@YAXPEADPEBD_K@Z
    ??$AsciiStrCaseFoldImpl@$0A@$0A@@ascii_internal@absl@@YAXPEADPEBD_K@Z
    ??$AssertHashEqConsistent@V?$basic_string_view@DU?$char_traits@D@__Cr@std@@@__Cr@std@@@?$raw_hash_set@U?$FlatHashMapPolicy@V?$basic_string_view@DU?$char_traits@D@__Cr@std@@@__Cr@std@@PEAVCommandLineFlag@absl@@@container_internal@absl@@UStringHash@23@UStringEq@23@V?$allocator@U?$pair@$$CBV?$basic_string_view@DU?$char_traits@D@__Cr@std@@@__Cr@std@@PEAVCommandLineFlag@absl@@@__Cr@std@@@__Cr@std@@@container_internal@absl@@IEAAXAEBV?$basic_string_view@DU?$char_traits@D@__Cr@std@@@__Cr@std@@@Z
    ??$AssertOnFind@V?$basic_string_view@DU?$char_traits@D@__Cr@std@@@__Cr@std@@@?$raw_hash_set@U?$FlatHashMapPolicy@V?$basic_string_view@DU?$char_traits@D@__Cr@std@@@__Cr@std@@PEAVCommandLineFlag@absl@@@container_internal@absl@@UStringHash@23@UStringEq@23@V?$allocator@U?$pair@$$CBV?$basic_string_view@DU?$char_traits@D@__Cr@std@@@__Cr@std@@PEAVCommandLineFlag@absl@@@__Cr@std@@@__Cr@std@@@container_internal@absl@@IEAAXAEBV?$basic_string_view@DU?$char_traits@D@__Cr@std@@@__Cr@std@@@Z
    ??$AssignElements@V?$allocator@UPayload@status_internal@absl@@@__Cr@std@@V?$IteratorValueAdapter@V?$allocator@UPayload@status_internal@absl@@@__Cr@std@@V?$move_iterator@PEAUPayload@status_internal@absl@@@23@@inlined_vector_internal@absl@@@inlined_vector_internal@absl@@YAXPEAUPayload@status_internal@1@AEAV?$IteratorValueAdapter@V?$allocator@UPayload@status_internal@absl@@@__Cr@std@@V?$move_iterator@PEAUPayload@status_internal@absl@@@23@@01@_K@Z
    ??$Base64EscapeInternal@V?$basic_string@DU?$char_traits@D@__Cr@std@@V?$allocator@D@23@@__Cr@std@@@strings_internal@absl@@YAXPEBE_KPEAV?$basic_string@DU?$char_traits@D@__Cr@std@@V?$allocator@D@23@@__Cr@std@@_NPEBD@Z
    ??$CallOnceImpl@A6AXXZ$$V@base_internal@absl@@YAXPEAU?$atomic@I@__Cr@std@@W4SchedulingMode@01@A6AXXZ@Z
    ??$CallOnceImpl@P8FlagImpl@flags_internal@absl@@EAAXXZPEAV123@@base_internal@absl@@YAXPEAU?$atomic@I@__Cr@std@@W4SchedulingMode@01@$$QEAP8FlagImpl@flags_internal@1@EAAXXZ$$QEAPEAV671@@Z
    ??$CastAndCallFunction@$$CBU?$atomic@_N@__Cr@std@@@Condition@absl@@CA_NPEBV01@@Z
    ??$CastAndCallFunction@USynchEvent@absl@@@Condition@absl@@CA_NPEBV01@@Z
    ??$Compare@$0FE@$0FE@@strings_internal@absl@@YAHAEBV?$BigUnsigned@$0FE@@01@0@Z
    ??$ConstructElements@V?$allocator@PEAUCordRep@cord_internal@absl@@@__Cr@std@@V?$IteratorValueAdapter@V?$allocator@PEAUCordRep@cord_internal@absl@@@__Cr@std@@V?$move_iterator@PEAPEAUCordRep@cord_internal@absl@@@23@@inlined_vector_internal@absl@@@inlined_vector_internal@absl@@YAXAEAV?$allocator@PEAUCordRep@cord_internal@absl@@@__Cr@std@@PEAPEAUCordRep@cord_internal@1@AEAV?$IteratorValueAdapter@V?$allocator@PEAUCordRep@cord_internal@absl@@@__Cr@std@@V?$move_iterator@PEAPEAUCordRep@cord_internal@absl@@@23@@01@_K@Z
    ??$ConstructElements@V?$allocator@PEAVLogSink@absl@@@__Cr@std@@V?$IteratorValueAdapter@V?$allocator@PEAVLogSink@absl@@@__Cr@std@@V?$move_iterator@PEAPEAVLogSink@absl@@@23@@inlined_vector_internal@absl@@@inlined_vector_internal@absl@@YAXAEAV?$allocator@PEAVLogSink@absl@@@__Cr@std@@PEAPEAVLogSink@1@AEAV?$IteratorValueAdapter@V?$allocator@PEAVLogSink@absl@@@__Cr@std@@V?$move_iterator@PEAPEAVLogSink@absl@@@23@@01@_K@Z
    ??$ConstructElements@V?$allocator@UPayload@status_internal@absl@@@__Cr@std@@V?$IteratorValueAdapter@V?$allocator@UPayload@status_internal@absl@@@__Cr@std@@PEBUPayload@status_internal@absl@@@inlined_vector_internal@absl@@@inlined_vector_internal@absl@@YAXAEAV?$allocator@UPayload@status_internal@absl@@@__Cr@std@@PEAUPayload@status_internal@1@AEAV?$IteratorValueAdapter@V?$allocator@UPayload@status_internal@absl@@@__Cr@std@@PEBUPayload@status_internal@absl@@@01@_K@Z
    ??$ConstructElements@V?$allocator@UPayload@status_internal@absl@@@__Cr@std@@V?$IteratorValueAdapter@V?$allocator@UPayload@status_internal@absl@@@__Cr@std@@V?$move_iterator@PEAUPayload@status_internal@absl@@@23@@inlined_vector_internal@absl@@@inlined_vector_internal@absl@@YAXAEAV?$allocator@UPayload@status_internal@absl@@@__Cr@std@@PEAUPayload@status_internal@1@AEAV?$IteratorValueAdapter@V?$allocator@UPayload@status_internal@absl@@@__Cr@std@@V?$move_iterator@PEAUPayload@status_internal@absl@@@23@@01@_K@Z
    ??$ConstructElements@V?$allocator@VFormatArgImpl@str_format_internal@absl@@@__Cr@std@@V?$IteratorValueAdapter@V?$allocator@VFormatArgImpl@str_format_internal@absl@@@__Cr@std@@PEBVFormatArgImpl@str_format_internal@absl@@@inlined_vector_internal@absl@@@inlined_vector_internal@absl@@YAXAEAV?$allocator@VFormatArgImpl@str_format_internal@absl@@@__Cr@std@@PEAVFormatArgImpl@str_format_internal@1@AEAV?$IteratorValueAdapter@V?$allocator@VFormatArgImpl@str_format_internal@absl@@@__Cr@std@@PEBVFormatArgImpl@str_format_internal@absl@@@01@_K@Z
    ??$ConsumeConversion@$00@str_format_internal@absl@@YAPEBDPEBDQEBDPEAUUnboundConversion@01@PEAH@Z
    ??$ConsumeConversion@$0A@@str_format_internal@absl@@YAPEBDPEBDQEBDPEAUUnboundConversion@01@PEAH@Z
    ??$Convert@VFormatArgImpl@str_format_internal@absl@@@FormatArgImplFriend@str_format_internal@absl@@SA_NVFormatArgImpl@12@VFormatConversionSpecImpl@12@PEAVFormatSinkImpl@12@@Z
    ??$ConvertIntArg@C@str_format_internal@absl@@YA_NCVFormatConversionSpecImpl@01@PEAVFormatSinkImpl@01@@Z
    ??$ConvertIntArg@D@str_format_internal@absl@@YA_NDVFormatConversionSpecImpl@01@PEAVFormatSinkImpl@01@@Z
    ??$ConvertIntArg@E@str_format_internal@absl@@YA_NEVFormatConversionSpecImpl@01@PEAVFormatSinkImpl@01@@Z
    ??$ConvertIntArg@F@str_format_internal@absl@@YA_NFVFormatConversionSpecImpl@01@PEAVFormatSinkImpl@01@@Z
    ??$ConvertIntArg@G@str_format_internal@absl@@YA_NGVFormatConversionSpecImpl@01@PEAVFormatSinkImpl@01@@Z
    ??$ConvertIntArg@H@str_format_internal@absl@@YA_NHVFormatConversionSpecImpl@01@PEAVFormatSinkImpl@01@@Z
    ??$ConvertIntArg@I@str_format_internal@absl@@YA_NIVFormatConversionSpecImpl@01@PEAVFormatSinkImpl@01@@Z
    ??$ConvertIntArg@J@str_format_internal@absl@@YA_NJVFormatConversionSpecImpl@01@PEAVFormatSinkImpl@01@@Z
    ??$ConvertIntArg@K@str_format_internal@absl@@YA_NKVFormatConversionSpecImpl@01@PEAVFormatSinkImpl@01@@Z
    ??$ConvertIntArg@Vint128@absl@@@str_format_internal@absl@@YA_NVint128@1@VFormatConversionSpecImpl@01@PEAVFormatSinkImpl@01@@Z
    ??$ConvertIntArg@Vuint128@absl@@@str_format_internal@absl@@YA_NVuint128@1@VFormatConversionSpecImpl@01@PEAVFormatSinkImpl@01@@Z
    ??$ConvertIntArg@_J@str_format_internal@absl@@YA_N_JVFormatConversionSpecImpl@01@PEAVFormatSinkImpl@01@@Z
    ??$ConvertIntArg@_K@str_format_internal@absl@@YA_N_KVFormatConversionSpecImpl@01@PEAVFormatSinkImpl@01@@Z
    ??$ConvertIntArg@_W@str_format_internal@absl@@YA_N_WVFormatConversionSpecImpl@01@PEAVFormatSinkImpl@01@@Z
    ??$CopyToEncodedBuffer@$00@LogMessage@log_internal@absl@@AEAAXD_K@Z
    ??$CopyToEncodedBuffer@$00@LogMessage@log_internal@absl@@AEAAXV?$basic_string_view@DU?$char_traits@D@__Cr@std@@@__Cr@std@@@Z
    ??$CopyToEncodedBuffer@$0A@@LogMessage@log_internal@absl@@AEAAXD_K@Z
    ??$CopyToEncodedBuffer@$0A@@LogMessage@log_internal@absl@@AEAAXV?$basic_string_view@DU?$char_traits@D@__Cr@std@@@__Cr@std@@@Z
    ??$CopyToEncodedBufferWithStructuredProtoField@$00@LogMessage@log_internal@absl@@AEAAXUStructuredProtoField@12@V?$basic_string_view@DU?$char_traits@D@__Cr@std@@@__Cr@std@@@Z
    ??$CopyToEncodedBufferWithStructuredProtoField@$0A@@LogMessage@log_internal@absl@@AEAAXUStructuredProtoField@12@V?$basic_string_view@DU?$char_traits@D@__Cr@std@@@__Cr@std@@@Z
    ??$CreateDefault@$0A@@CommonFields@container_internal@absl@@SA?AV012@XZ
    ??$CreateWithCustomLimitImpl@$$V@CordBuffer@absl@@CA?AV01@_K0@Z
    ??$Deallocate@$07V?$allocator@D@__Cr@std@@@container_internal@absl@@YAXPEAV?$allocator@D@__Cr@std@@PEAX_K@Z
    ??$DeallocateBackingArray@$07V?$allocator@D@__Cr@std@@@container_internal@absl@@YAXPEAX_KPEAW4ctrl_t@01@11_N@Z
    ??$DecomposePair@U?$EqualElement@V?$basic_string_view@DU?$char_traits@D@__Cr@std@@@__Cr@std@@@?$raw_hash_set@U?$FlatHashMapPolicy@V?$basic_string_view@DU?$char_traits@D@__Cr@std@@@__Cr@std@@PEAVCommandLineFlag@absl@@@container_internal@absl@@UStringHash@23@UStringEq@23@V?$allocator@U?$pair@$$CBV?$basic_string_view@DU?$char_traits@D@__Cr@std@@@__Cr@std@@PEAVCommandLineFlag@absl@@@__Cr@std@@@__Cr@std@@@container_internal@absl@@AEAU?$pair@$$CBV?$basic_string_view@DU?$char_traits@D@__Cr@std@@@__Cr@std@@PEAVCommandLineFlag@absl@@@__Cr@std@@@container_internal@absl@@YA_N$$QEAU?$EqualElement@V?$basic_string_view@DU?$char_traits@D@__Cr@std@@@__Cr@std@@@?$raw_hash_set@U?$FlatHashMapPolicy@V?$basic_string_view@DU?$char_traits@D@__Cr@std@@@__Cr@std@@PEAVCommandLineFlag@absl@@@container_internal@absl@@UStringHash@23@UStringEq@23@V?$allocator@U?$pair@$$CBV?$basic_string_view@DU?$char_traits@D@__Cr@std@@@__Cr@std@@PEAVCommandLineFlag@absl@@@__Cr@std@@@__Cr@std@@@01@AEAU?$pair@$$CBV?$basic_string_view@DU?$char_traits@D@__Cr@std@@@__Cr@std@@PEAVCommandLineFlag@absl@@@__Cr@std@@@Z
    ??$DecomposePair@UEmplaceDecomposable@?$raw_hash_set@U?$FlatHashMapPolicy@V?$basic_string_view@DU?$char_traits@D@__Cr@std@@@__Cr@std@@PEAVCommandLineFlag@absl@@@container_internal@absl@@UStringHash@23@UStringEq@23@V?$allocator@U?$pair@$$CBV?$basic_string_view@DU?$char_traits@D@__Cr@std@@@__Cr@std@@PEAVCommandLineFlag@absl@@@__Cr@std@@@__Cr@std@@@container_internal@absl@@U?$pair@$$CBV?$basic_string_view@DU?$char_traits@D@__Cr@std@@@__Cr@std@@PEAVCommandLineFlag@absl@@@__Cr@std@@@container_internal@absl@@YA?AU?$pair@Viterator@?$raw_hash_set@U?$FlatHashMapPolicy@V?$basic_string_view@DU?$char_traits@D@__Cr@std@@@__Cr@std@@PEAVCommandLineFlag@absl@@@container_internal@absl@@UStringHash@23@UStringEq@23@V?$allocator@U?$pair@$$CBV?$basic_string_view@DU?$char_traits@D@__Cr@std@@@__Cr@std@@PEAVCommandLineFlag@absl@@@__Cr@std@@@__Cr@std@@@container_internal@absl@@_N@__Cr@std@@$$QEAUEmplaceDecomposable@?$raw_hash_set@U?$FlatHashMapPolicy@V?$basic_string_view@DU?$char_traits@D@__Cr@std@@@__Cr@std@@PEAVCommandLineFlag@absl@@@container_internal@absl@@UStringHash@23@UStringEq@23@V?$allocator@U?$pair@$$CBV?$basic_string_view@DU?$char_traits@D@__Cr@std@@@__Cr@std@@PEAVCommandLineFlag@absl@@@__Cr@std@@@__Cr@std@@@01@$$QEAU?$pair@$$CBV?$basic_string_view@DU?$char_traits@D@__Cr@std@@@__Cr@std@@PEAVCommandLineFlag@absl@@@34@@Z
    ??$DecomposePair@UEmplaceDecomposable@?$raw_hash_set@U?$FlatHashMapPolicy@V?$basic_string_view@DU?$char_traits@D@__Cr@std@@@__Cr@std@@PEAVCommandLineFlag@absl@@@container_internal@absl@@UStringHash@23@UStringEq@23@V?$allocator@U?$pair@$$CBV?$basic_string_view@DU?$char_traits@D@__Cr@std@@@__Cr@std@@PEAVCommandLineFlag@absl@@@__Cr@std@@@__Cr@std@@@container_internal@absl@@U?$pair@V?$basic_string_view@DU?$char_traits@D@__Cr@std@@@__Cr@std@@PEAVCommandLineFlag@absl@@@__Cr@std@@@container_internal@absl@@YA?AU?$pair@Viterator@?$raw_hash_set@U?$FlatHashMapPolicy@V?$basic_string_view@DU?$char_traits@D@__Cr@std@@@__Cr@std@@PEAVCommandLineFlag@absl@@@container_internal@absl@@UStringHash@23@UStringEq@23@V?$allocator@U?$pair@$$CBV?$basic_string_view@DU?$char_traits@D@__Cr@std@@@__Cr@std@@PEAVCommandLineFlag@absl@@@__Cr@std@@@__Cr@std@@@container_internal@absl@@_N@__Cr@std@@$$QEAUEmplaceDecomposable@?$raw_hash_set@U?$FlatHashMapPolicy@V?$basic_string_view@DU?$char_traits@D@__Cr@std@@@__Cr@std@@PEAVCommandLineFlag@absl@@@container_internal@absl@@UStringHash@23@UStringEq@23@V?$allocator@U?$pair@$$CBV?$basic_string_view@DU?$char_traits@D@__Cr@std@@@__Cr@std@@PEAVCommandLineFlag@absl@@@__Cr@std@@@__Cr@std@@@01@$$QEAU?$pair@V?$basic_string_view@DU?$char_traits@D@__Cr@std@@@__Cr@std@@PEAVCommandLineFlag@absl@@@34@@Z
    ??$DecomposePair@UFindElement@?$raw_hash_set@U?$FlatHashMapPolicy@V?$basic_string_view@DU?$char_traits@D@__Cr@std@@@__Cr@std@@PEAVCommandLineFlag@absl@@@container_internal@absl@@UStringHash@23@UStringEq@23@V?$allocator@U?$pair@$$CBV?$basic_string_view@DU?$char_traits@D@__Cr@std@@@__Cr@std@@PEAVCommandLineFlag@absl@@@__Cr@std@@@__Cr@std@@@container_internal@absl@@AEAU?$pair@$$CBV?$basic_string_view@DU?$char_traits@D@__Cr@std@@@__Cr@std@@PEAVCommandLineFlag@absl@@@__Cr@std@@@container_internal@absl@@YA?AVconst_iterator@?$raw_hash_set@U?$FlatHashMapPolicy@V?$basic_string_view@DU?$char_traits@D@__Cr@std@@@__Cr@std@@PEAVCommandLineFlag@absl@@@container_internal@absl@@UStringHash@23@UStringEq@23@V?$allocator@U?$pair@$$CBV?$basic_string_view@DU?$char_traits@D@__Cr@std@@@__Cr@std@@PEAVCommandLineFlag@absl@@@__Cr@std@@@__Cr@std@@@01@$$QEAUFindElement@301@AEAU?$pair@$$CBV?$basic_string_view@DU?$char_traits@D@__Cr@std@@@__Cr@std@@PEAVCommandLineFlag@absl@@@__Cr@std@@@Z
    ??$DecomposePair@UHashElement@?$raw_hash_set@U?$FlatHashMapPolicy@V?$basic_string_view@DU?$char_traits@D@__Cr@std@@@__Cr@std@@PEAVCommandLineFlag@absl@@@container_internal@absl@@UStringHash@23@UStringEq@23@V?$allocator@U?$pair@$$CBV?$basic_string_view@DU?$char_traits@D@__Cr@std@@@__Cr@std@@PEAVCommandLineFlag@absl@@@__Cr@std@@@__Cr@std@@@container_internal@absl@@AEAU?$pair@$$CBV?$basic_string_view@DU?$char_traits@D@__Cr@std@@@__Cr@std@@PEAVCommandLineFlag@absl@@@__Cr@std@@@container_internal@absl@@YA_K$$QEAUHashElement@?$raw_hash_set@U?$FlatHashMapPolicy@V?$basic_string_view@DU?$char_traits@D@__Cr@std@@@__Cr@std@@PEAVCommandLineFlag@absl@@@container_internal@absl@@UStringHash@23@UStringEq@23@V?$allocator@U?$pair@$$CBV?$basic_string_view@DU?$char_traits@D@__Cr@std@@@__Cr@std@@PEAVCommandLineFlag@absl@@@__Cr@std@@@__Cr@std@@@01@AEAU?$pair@$$CBV?$basic_string_view@DU?$char_traits@D@__Cr@std@@@__Cr@std@@PEAVCommandLineFlag@absl@@@__Cr@std@@@Z
    ??$DecomposePairImpl@U?$EqualElement@V?$basic_string_view@DU?$char_traits@D@__Cr@std@@@__Cr@std@@@?$raw_hash_set@U?$FlatHashMapPolicy@V?$basic_string_view@DU?$char_traits@D@__Cr@std@@@__Cr@std@@PEAVCommandLineFlag@absl@@@container_internal@absl@@UStringHash@23@UStringEq@23@V?$allocator@U?$pair@$$CBV?$basic_string_view@DU?$char_traits@D@__Cr@std@@@__Cr@std@@PEAVCommandLineFlag@absl@@@__Cr@std@@@__Cr@std@@@container_internal@absl@@AEBV?$basic_string_view@DU?$char_traits@D@__Cr@std@@@__Cr@std@@V?$tuple@AEBQEAVCommandLineFlag@absl@@@67@@memory_internal@container_internal@absl@@YA_N$$QEAU?$EqualElement@V?$basic_string_view@DU?$char_traits@D@__Cr@std@@@__Cr@std@@@?$raw_hash_set@U?$FlatHashMapPolicy@V?$basic_string_view@DU?$char_traits@D@__Cr@std@@@__Cr@std@@PEAVCommandLineFlag@absl@@@container_internal@absl@@UStringHash@23@UStringEq@23@V?$allocator@U?$pair@$$CBV?$basic_string_view@DU?$char_traits@D@__Cr@std@@@__Cr@std@@PEAVCommandLineFlag@absl@@@__Cr@std@@@__Cr@std@@@12@U?$pair@V?$tuple@AEBV?$basic_string_view@DU?$char_traits@D@__Cr@std@@@__Cr@std@@@__Cr@std@@V?$tuple@AEBQEAVCommandLineFlag@absl@@@23@@__Cr@std@@@Z
    ??$DecomposePairImpl@UEmplaceDecomposable@?$raw_hash_set@U?$FlatHashMapPolicy@V?$basic_string_view@DU?$char_traits@D@__Cr@std@@@__Cr@std@@PEAVCommandLineFlag@absl@@@container_internal@absl@@UStringHash@23@UStringEq@23@V?$allocator@U?$pair@$$CBV?$basic_string_view@DU?$char_traits@D@__Cr@std@@@__Cr@std@@PEAVCommandLineFlag@absl@@@__Cr@std@@@__Cr@std@@@container_internal@absl@@$$QEAV?$basic_string_view@DU?$char_traits@D@__Cr@std@@@__Cr@std@@V?$tuple@$$QEAPEAVCommandLineFlag@absl@@@67@@memory_internal@container_internal@absl@@YA?AU?$pair@Viterator@?$raw_hash_set@U?$FlatHashMapPolicy@V?$basic_string_view@DU?$char_traits@D@__Cr@std@@@__Cr@std@@PEAVCommandLineFlag@absl@@@container_internal@absl@@UStringHash@23@UStringEq@23@V?$allocator@U?$pair@$$CBV?$basic_string_view@DU?$char_traits@D@__Cr@std@@@__Cr@std@@PEAVCommandLineFlag@absl@@@__Cr@std@@@__Cr@std@@@container_internal@absl@@_N@__Cr@std@@$$QEAUEmplaceDecomposable@?$raw_hash_set@U?$FlatHashMapPolicy@V?$basic_string_view@DU?$char_traits@D@__Cr@std@@@__Cr@std@@PEAVCommandLineFlag@absl@@@container_internal@absl@@UStringHash@23@UStringEq@23@V?$allocator@U?$pair@$$CBV?$basic_string_view@DU?$char_traits@D@__Cr@std@@@__Cr@std@@PEAVCommandLineFlag@absl@@@__Cr@std@@@__Cr@std@@@12@U?$pair@V?$tuple@$$QEAV?$basic_string_view@DU?$char_traits@D@__Cr@std@@@__Cr@std@@@__Cr@std@@V?$tuple@$$QEAPEAVCommandLineFlag@absl@@@23@@45@@Z
    ??$DecomposePairImpl@UEmplaceDecomposable@?$raw_hash_set@U?$FlatHashMapPolicy@V?$basic_string_view@DU?$char_traits@D@__Cr@std@@@__Cr@std@@PEAVCommandLineFlag@absl@@@container_internal@absl@@UStringHash@23@UStringEq@23@V?$allocator@U?$pair@$$CBV?$basic_string_view@DU?$char_traits@D@__Cr@std@@@__Cr@std@@PEAVCommandLineFlag@absl@@@__Cr@std@@@__Cr@std@@@container_internal@absl@@$$QEBV?$basic_string_view@DU?$char_traits@D@__Cr@std@@@__Cr@std@@V?$tuple@$$QEAPEAVCommandLineFlag@absl@@@67@@memory_internal@container_internal@absl@@YA?AU?$pair@Viterator@?$raw_hash_set@U?$FlatHashMapPolicy@V?$basic_string_view@DU?$char_traits@D@__Cr@std@@@__Cr@std@@PEAVCommandLineFlag@absl@@@container_internal@absl@@UStringHash@23@UStringEq@23@V?$allocator@U?$pair@$$CBV?$basic_string_view@DU?$char_traits@D@__Cr@std@@@__Cr@std@@PEAVCommandLineFlag@absl@@@__Cr@std@@@__Cr@std@@@container_internal@absl@@_N@__Cr@std@@$$QEAUEmplaceDecomposable@?$raw_hash_set@U?$FlatHashMapPolicy@V?$basic_string_view@DU?$char_traits@D@__Cr@std@@@__Cr@std@@PEAVCommandLineFlag@absl@@@container_internal@absl@@UStringHash@23@UStringEq@23@V?$allocator@U?$pair@$$CBV?$basic_string_view@DU?$char_traits@D@__Cr@std@@@__Cr@std@@PEAVCommandLineFlag@absl@@@__Cr@std@@@__Cr@std@@@12@U?$pair@V?$tuple@$$QEBV?$basic_string_view@DU?$char_traits@D@__Cr@std@@@__Cr@std@@@__Cr@std@@V?$tuple@$$QEAPEAVCommandLineFlag@absl@@@23@@45@@Z
    ??$DecomposePairImpl@UFindElement@?$raw_hash_set@U?$FlatHashMapPolicy@V?$basic_string_view@DU?$char_traits@D@__Cr@std@@@__Cr@std@@PEAVCommandLineFlag@absl@@@container_internal@absl@@UStringHash@23@UStringEq@23@V?$allocator@U?$pair@$$CBV?$basic_string_view@DU?$char_traits@D@__Cr@std@@@__Cr@std@@PEAVCommandLineFlag@absl@@@__Cr@std@@@__Cr@std@@@container_internal@absl@@AEBV?$basic_string_view@DU?$char_traits@D@__Cr@std@@@__Cr@std@@V?$tuple@AEBQEAVCommandLineFlag@absl@@@67@@memory_internal@container_internal@absl@@YA?AVconst_iterator@?$raw_hash_set@U?$FlatHashMapPolicy@V?$basic_string_view@DU?$char_traits@D@__Cr@std@@@__Cr@std@@PEAVCommandLineFlag@absl@@@container_internal@absl@@UStringHash@23@UStringEq@23@V?$allocator@U?$pair@$$CBV?$basic_string_view@DU?$char_traits@D@__Cr@std@@@__Cr@std@@PEAVCommandLineFlag@absl@@@__Cr@std@@@__Cr@std@@@12@$$QEAUFindElement@412@U?$pair@V?$tuple@AEBV?$basic_string_view@DU?$char_traits@D@__Cr@std@@@__Cr@std@@@__Cr@std@@V?$tuple@AEBQEAVCommandLineFlag@absl@@@23@@__Cr@std@@@Z
    ??$DecomposePairImpl@UHashElement@?$raw_hash_set@U?$FlatHashMapPolicy@V?$basic_string_view@DU?$char_traits@D@__Cr@std@@@__Cr@std@@PEAVCommandLineFlag@absl@@@container_internal@absl@@UStringHash@23@UStringEq@23@V?$allocator@U?$pair@$$CBV?$basic_string_view@DU?$char_traits@D@__Cr@std@@@__Cr@std@@PEAVCommandLineFlag@absl@@@__Cr@std@@@__Cr@std@@@container_internal@absl@@AEBV?$basic_string_view@DU?$char_traits@D@__Cr@std@@@__Cr@std@@V?$tuple@AEBQEAVCommandLineFlag@absl@@@67@@memory_internal@container_internal@absl@@YA_K$$QEAUHashElement@?$raw_hash_set@U?$FlatHashMapPolicy@V?$basic_string_view@DU?$char_traits@D@__Cr@std@@@__Cr@std@@PEAVCommandLineFlag@absl@@@container_internal@absl@@UStringHash@23@UStringEq@23@V?$allocator@U?$pair@$$CBV?$basic_string_view@DU?$char_traits@D@__Cr@std@@@__Cr@std@@PEAVCommandLineFlag@absl@@@__Cr@std@@@__Cr@std@@@12@U?$pair@V?$tuple@AEBV?$basic_string_view@DU?$char_traits@D@__Cr@std@@@__Cr@std@@@__Cr@std@@V?$tuple@AEBQEAVCommandLineFlag@absl@@@23@@__Cr@std@@@Z
    ??$Dispatch@C@FormatArgImpl@str_format_internal@absl@@CA_NTData@012@VFormatConversionSpecImpl@12@PEAX@Z
    ??$Dispatch@D@FormatArgImpl@str_format_internal@absl@@CA_NTData@012@VFormatConversionSpecImpl@12@PEAX@Z
    ??$Dispatch@E@FormatArgImpl@str_format_internal@absl@@CA_NTData@012@VFormatConversionSpecImpl@12@PEAX@Z
    ??$Dispatch@F@FormatArgImpl@str_format_internal@absl@@CA_NTData@012@VFormatConversionSpecImpl@12@PEAX@Z
    ??$Dispatch@G@FormatArgImpl@str_format_internal@absl@@CA_NTData@012@VFormatConversionSpecImpl@12@PEAX@Z
    ??$Dispatch@H@FormatArgImpl@str_format_internal@absl@@CA_NTData@012@VFormatConversionSpecImpl@12@PEAX@Z
    ??$Dispatch@I@FormatArgImpl@str_format_internal@absl@@CA_NTData@012@VFormatConversionSpecImpl@12@PEAX@Z
    ??$Dispatch@J@FormatArgImpl@str_format_internal@absl@@CA_NTData@012@VFormatConversionSpecImpl@12@PEAX@Z
    ??$Dispatch@K@FormatArgImpl@str_format_internal@absl@@CA_NTData@012@VFormatConversionSpecImpl@12@PEAX@Z
    ??$Dispatch@M@FormatArgImpl@str_format_internal@absl@@CA_NTData@012@VFormatConversionSpecImpl@12@PEAX@Z
    ??$Dispatch@N@FormatArgImpl@str_format_internal@absl@@CA_NTData@012@VFormatConversionSpecImpl@12@PEAX@Z
    ??$Dispatch@O@FormatArgImpl@str_format_internal@absl@@CA_NTData@012@VFormatConversionSpecImpl@12@PEAX@Z
    ??$Dispatch@PEBD@FormatArgImpl@str_format_internal@absl@@CA_NTData@012@VFormatConversionSpecImpl@12@PEAX@Z
    ??$Dispatch@PEB_W@FormatArgImpl@str_format_internal@absl@@CA_NTData@012@VFormatConversionSpecImpl@12@PEAX@Z
    ??$Dispatch@UVoidPtr@str_format_internal@absl@@@FormatArgImpl@str_format_internal@absl@@CA_NTData@012@VFormatConversionSpecImpl@12@PEAX@Z
    ??$Dispatch@V?$basic_string@DU?$char_traits@D@__Cr@std@@V?$allocator@D@23@@__Cr@std@@@FormatArgImpl@str_format_internal@absl@@CA_NTData@012@VFormatConversionSpecImpl@12@PEAX@Z
    ??$Dispatch@V?$basic_string@_WU?$char_traits@_W@__Cr@std@@V?$allocator@_W@23@@__Cr@std@@@FormatArgImpl@str_format_internal@absl@@CA_NTData@012@VFormatConversionSpecImpl@12@PEAX@Z
    ??$Dispatch@V?$basic_string_view@DU?$char_traits@D@__Cr@std@@@__Cr@std@@@FormatArgImpl@str_format_internal@absl@@CA_NTData@012@VFormatConversionSpecImpl@12@PEAX@Z
    ??$Dispatch@V?$basic_string_view@_WU?$char_traits@_W@__Cr@std@@@__Cr@std@@@FormatArgImpl@str_format_internal@absl@@CA_NTData@012@VFormatConversionSpecImpl@12@PEAX@Z
    ??$Dispatch@Vint128@absl@@@FormatArgImpl@str_format_internal@absl@@CA_NTData@012@VFormatConversionSpecImpl@12@PEAX@Z
    ??$Dispatch@Vuint128@absl@@@FormatArgImpl@str_format_internal@absl@@CA_NTData@012@VFormatConversionSpecImpl@12@PEAX@Z
    ??$Dispatch@_J@FormatArgImpl@str_format_internal@absl@@CA_NTData@012@VFormatConversionSpecImpl@12@PEAX@Z
    ??$Dispatch@_K@FormatArgImpl@str_format_internal@absl@@CA_NTData@012@VFormatConversionSpecImpl@12@PEAX@Z
    ??$Dispatch@_N@FormatArgImpl@str_format_internal@absl@@CA_NTData@012@VFormatConversionSpecImpl@12@PEAX@Z
    ??$DivMod@$09@?$BigUnsigned@$03@strings_internal@absl@@AEAAIXZ
    ??$DivMod@$09@?$BigUnsigned@$0FE@@strings_internal@absl@@AEAAIXZ
    ??$EmplaceBack@AEBQEAUCordRep@cord_internal@absl@@@?$Storage@PEAUCordRep@cord_internal@absl@@$01V?$allocator@PEAUCordRep@cord_internal@absl@@@__Cr@std@@@inlined_vector_internal@absl@@QEAAAEAPEAUCordRep@cord_internal@2@AEBQEAU342@@Z
    ??$EmplaceBack@AEBQEAVLogSink@absl@@@?$Storage@PEAVLogSink@absl@@$0BA@V?$allocator@PEAVLogSink@absl@@@__Cr@std@@@inlined_vector_internal@absl@@QEAAAEAPEAVLogSink@2@AEBQEAV32@@Z
    ??$EmplaceBack@UPayload@status_internal@absl@@@?$Storage@UPayload@status_internal@absl@@$00V?$allocator@UPayload@status_internal@absl@@@__Cr@std@@@inlined_vector_internal@absl@@QEAAAEAUPayload@status_internal@2@$$QEAU342@@Z
    ??$EmplaceBackSlow@AEBQEAUCordRep@cord_internal@absl@@@?$Storage@PEAUCordRep@cord_internal@absl@@$01V?$allocator@PEAUCordRep@cord_internal@absl@@@__Cr@std@@@inlined_vector_internal@absl@@AEAAAEAPEAUCordRep@cord_internal@2@AEBQEAU342@@Z
    ??$EmplaceBackSlow@AEBQEAVLogSink@absl@@@?$Storage@PEAVLogSink@absl@@$0BA@V?$allocator@PEAVLogSink@absl@@@__Cr@std@@@inlined_vector_internal@absl@@AEAAAEAPEAVLogSink@2@AEBQEAV32@@Z
    ??$EmplaceBackSlow@UPayload@status_internal@absl@@@?$Storage@UPayload@status_internal@absl@@$00V?$allocator@UPayload@status_internal@absl@@@__Cr@std@@@inlined_vector_internal@absl@@AEAAAEAUPayload@status_internal@2@$$QEAU342@@Z
    ??$Extract@V?$FormatSpecTemplate@$0BPPPL@$0JPPPL@$0JPPPL@$0JPPPL@$0JPPPL@$0JPPPL@$0JPPPL@$0JPPPL@$0IAAAE@$0JPPPL@$0EAAAE@$0IAAAE@@str_format_internal@absl@@@UntypedFormatSpecImpl@str_format_internal@absl@@SAAEBV012@AEBV?$FormatSpecTemplate@$0BPPPL@$0JPPPL@$0JPPPL@$0JPPPL@$0JPPPL@$0JPPPL@$0JPPPL@$0JPPPL@$0IAAAE@$0JPPPL@$0EAAAE@$0IAAAE@@12@@Z
    ??$Extract@V?$FormatSpecTemplate@$0BPPPL@$0JPPPL@$0JPPPL@$0JPPPL@@str_format_internal@absl@@@UntypedFormatSpecImpl@str_format_internal@absl@@SAAEBV012@AEBV?$FormatSpecTemplate@$0BPPPL@$0JPPPL@$0JPPPL@$0JPPPL@@12@@Z
    ??$Extract@V?$FormatSpecTemplate@$0JPPPL@$0JPOAA@@str_format_internal@absl@@@UntypedFormatSpecImpl@str_format_internal@absl@@SAAEBV012@AEBV?$FormatSpecTemplate@$0JPPPL@$0JPOAA@@12@@Z
    ??$Extract@V?$FormatSpecTemplate@$0JPPPL@@str_format_internal@absl@@@UntypedFormatSpecImpl@str_format_internal@absl@@SAAEBV012@AEBV?$FormatSpecTemplate@$0JPPPL@@12@@Z
    ??$ExtractCharSet@$0BPPPL@@str_format_internal@absl@@YA?AW4FormatConversionCharSet@1@U?$ArgConvertResult@$0BPPPL@@01@@Z
    ??$ExtractCharSet@$0EAAAA@@str_format_internal@absl@@YA?AW4FormatConversionCharSet@1@U?$ArgConvertResult@$0EAAAA@@01@@Z
    ??$ExtractCharSet@$0EAAAE@@str_format_internal@absl@@YA?AW4FormatConversionCharSet@1@U?$ArgConvertResult@$0EAAAE@@01@@Z
    ??$ExtractCharSet@$0IAAAE@@str_format_internal@absl@@YA?AW4FormatConversionCharSet@1@U?$ArgConvertResult@$0IAAAE@@01@@Z
    ??$ExtractCharSet@$0JPOAA@@str_format_internal@absl@@YA?AW4FormatConversionCharSet@1@U?$ArgConvertResult@$0JPOAA@@01@@Z
    ??$ExtractCharSet@$0JPPPL@@str_format_internal@absl@@YA?AW4FormatConversionCharSet@1@U?$ArgConvertResult@$0JPPPL@@01@@Z
    ??$ExtractStringification@UHex@absl@@@strings_internal@absl@@YA?AV?$basic_string_view@DU?$char_traits@D@__Cr@std@@@__Cr@std@@AEAVStringifySink@01@AEBUHex@1@@Z
    ??$FastIntToBuffer@C@numbers_internal@absl@@YAPEADCPEAD@Z
    ??$FastIntToBuffer@D@numbers_internal@absl@@YAPEADDPEAD@Z
    ??$FastIntToBuffer@E@numbers_internal@absl@@YAPEADEPEAD@Z
    ??$FastIntToBuffer@F@numbers_internal@absl@@YAPEADFPEAD@Z
    ??$FastIntToBuffer@G@numbers_internal@absl@@YAPEADGPEAD@Z
    ??$FastIntToBuffer@J@numbers_internal@absl@@YAPEADJPEAD@Z
    ??$FastIntToBuffer@K@numbers_internal@absl@@YAPEADKPEAD@Z
    ??$FastIntToBuffer@_W@numbers_internal@absl@@YAPEAD_WPEAD@Z
    ??$FastTypeId@F@absl@@YAPEBXXZ
    ??$FastTypeId@G@absl@@YAPEBXXZ
    ??$FastTypeId@H@absl@@YAPEBXXZ
    ??$FastTypeId@I@absl@@YAPEBXXZ
    ??$FastTypeId@J@absl@@YAPEBXXZ
    ??$FastTypeId@K@absl@@YAPEBXXZ
    ??$FastTypeId@M@absl@@YAPEBXXZ
    ??$FastTypeId@N@absl@@YAPEBXXZ
    ??$FastTypeId@V?$basic_string@DU?$char_traits@D@__Cr@std@@V?$allocator@D@23@@__Cr@std@@@absl@@YAPEBXXZ
    ??$FastTypeId@V?$vector@V?$basic_string@DU?$char_traits@D@__Cr@std@@V?$allocator@D@23@@__Cr@std@@V?$allocator@V?$basic_string@DU?$char_traits@D@__Cr@std@@V?$allocator@D@23@@__Cr@std@@@23@@__Cr@std@@@absl@@YAPEBXXZ
    ??$FastTypeId@_J@absl@@YAPEBXXZ
    ??$FastTypeId@_K@absl@@YAPEBXXZ
    ??$FastTypeId@_N@absl@@YAPEBXXZ
    ??$FindSubstitutions@V?$initializer_list@U?$pair@V?$basic_string_view@DU?$char_traits@D@__Cr@std@@@__Cr@std@@V123@@__Cr@std@@@std@@@strings_internal@absl@@YA?AV?$vector@UViableSubstitution@strings_internal@absl@@V?$allocator@UViableSubstitution@strings_internal@absl@@@__Cr@std@@@__Cr@std@@V?$basic_string_view@DU?$char_traits@D@__Cr@std@@@34@AEBV?$initializer_list@U?$pair@V?$basic_string_view@DU?$char_traits@D@__Cr@std@@@__Cr@std@@V123@@__Cr@std@@@4@@Z
    ??$FlagOps@V?$vector@V?$basic_string@DU?$char_traits@D@__Cr@std@@V?$allocator@D@23@@__Cr@std@@V?$allocator@V?$basic_string@DU?$char_traits@D@__Cr@std@@V?$allocator@D@23@@__Cr@std@@@23@@__Cr@std@@@flags_internal@absl@@YAPEAXW4FlagOp@01@PEBXPEAX2@Z
    ??$Flush@V?$basic_ostream@DU?$char_traits@D@__Cr@std@@@__Cr@std@@@FormatRawSinkImpl@str_format_internal@absl@@CAXPEAXV?$basic_string_view@DU?$char_traits@D@__Cr@std@@@__Cr@std@@@Z
    ??$Flush@V?$basic_string@DU?$char_traits@D@__Cr@std@@V?$allocator@D@23@@__Cr@std@@@FormatRawSinkImpl@str_format_internal@absl@@CAXPEAXV?$basic_string_view@DU?$char_traits@D@__Cr@std@@@__Cr@std@@@Z
    ??$Flush@VBufferRawSink@str_format_internal@absl@@@FormatRawSinkImpl@str_format_internal@absl@@CAXPEAXV?$basic_string_view@DU?$char_traits@D@__Cr@std@@@__Cr@std@@@Z
    ??$Flush@VFILERawSink@str_format_internal@absl@@@FormatRawSinkImpl@str_format_internal@absl@@CAXPEAXV?$basic_string_view@DU?$char_traits@D@__Cr@std@@@__Cr@std@@@Z
    ??$FormatConvertImpl@_N$0A@@str_format_internal@absl@@YA?AU?$ArgConvertResult@$0JPPPL@@01@_NVFormatConversionSpecImpl@01@PEAVFormatSinkImpl@01@@Z
    ??$FromChrono@_JV?$ratio@$00$0PECEA@@__Cr@std@@@time_internal@absl@@YA?AVDuration@1@AEBV?$duration@_JV?$ratio@$00$0PECEA@@__Cr@std@@@chrono@__Cr@std@@@Z
    ??$FromInt64@$00@time_internal@absl@@YA?AVDuration@1@_JV?$ratio@$00$00@__Cr@std@@@Z
    ??$FromInt64@$0DLJKMKAA@@time_internal@absl@@YA?AVDuration@1@_JV?$ratio@$00$0DLJKMKAA@@__Cr@std@@@Z
    ??$FromInt64@$0DOI@@time_internal@absl@@YA?AVDuration@1@_JV?$ratio@$00$0DOI@@__Cr@std@@@Z
    ??$FromInt64@$0PECEA@@time_internal@absl@@YA?AVDuration@1@_JV?$ratio@$00$0PECEA@@__Cr@std@@@Z
    ??$GenRuntimeTypeId@V?$vector@V?$basic_string@DU?$char_traits@D@__Cr@std@@V?$allocator@D@23@@__Cr@std@@V?$allocator@V?$basic_string@DU?$char_traits@D@__Cr@std@@V?$allocator@D@23@@__Cr@std@@@23@@__Cr@std@@@flags_internal@absl@@YAPEBVtype_info@@XZ
    ??$GenericCompare@HV?$basic_string_view@DU?$char_traits@D@__Cr@std@@@__Cr@std@@@absl@@YAHAEBVCord@0@AEBV?$basic_string_view@DU?$char_traits@D@__Cr@std@@@__Cr@std@@_K@Z
    ??$GenericCompare@HVCord@absl@@@absl@@YAHAEBVCord@0@0_K@Z
    ??$GenericCompare@_NV?$basic_string_view@DU?$char_traits@D@__Cr@std@@@__Cr@std@@@absl@@YA_NAEBVCord@0@AEBV?$basic_string_view@DU?$char_traits@D@__Cr@std@@@__Cr@std@@_K@Z
    ??$GenericCompare@_NVCord@absl@@@absl@@YA_NAEBVCord@0@0_K@Z
    ??$GetData@$$CBV?$InlinedVector@VFormatArgImpl@str_format_internal@absl@@$03V?$allocator@VFormatArgImpl@str_format_internal@absl@@@__Cr@std@@@absl@@@span_internal@absl@@YAPEBVFormatArgImpl@str_format_internal@1@AEBV?$InlinedVector@VFormatArgImpl@str_format_internal@absl@@$03V?$allocator@VFormatArgImpl@str_format_internal@absl@@@__Cr@std@@@1@@Z
    ??$GetData@$$CBV?$Span@D@absl@@@span_internal@absl@@YAPEADAEBV?$Span@D@1@@Z
    ??$GetData@$$CBV?$Span@I@absl@@@span_internal@absl@@YAPEAIAEBV?$Span@I@1@@Z
    ??$GetData@$$CBV?$basic_string_view@DU?$char_traits@D@__Cr@std@@@__Cr@std@@@span_internal@absl@@YAPEBDAEBV?$basic_string_view@DU?$char_traits@D@__Cr@std@@@__Cr@std@@@Z
    ??$GetData@U?$array@D$0DKJI@@__Cr@std@@@span_internal@absl@@YAPEADAEAU?$array@D$0DKJI@@__Cr@std@@@Z
    ??$GetData@V?$InlinedVector@PEAVLogSink@absl@@$0BA@V?$allocator@PEAVLogSink@absl@@@__Cr@std@@@absl@@@span_internal@absl@@YAPEAPEAVLogSink@1@AEAV?$InlinedVector@PEAVLogSink@absl@@$0BA@V?$allocator@PEAVLogSink@absl@@@__Cr@std@@@1@@Z
    ??$GetData@V?$Span@D@absl@@@span_internal@absl@@YAPEADAEAV?$Span@D@1@@Z
    ??$GetData@V?$Span@I@absl@@@span_internal@absl@@YAPEAIAEAV?$Span@I@1@@Z
    ??$GetData@V?$vector@PEAVLogSink@absl@@V?$allocator@PEAVLogSink@absl@@@__Cr@std@@@__Cr@std@@@span_internal@absl@@YAPEAPEAVLogSink@1@AEAV?$vector@PEAVLogSink@absl@@V?$allocator@PEAVLogSink@absl@@@__Cr@std@@@__Cr@std@@@Z
    ??$GetDataImpl@$$CBV?$InlinedVector@VFormatArgImpl@str_format_internal@absl@@$03V?$allocator@VFormatArgImpl@str_format_internal@absl@@@__Cr@std@@@absl@@@span_internal@absl@@YAPEBVFormatArgImpl@str_format_internal@1@AEBV?$InlinedVector@VFormatArgImpl@str_format_internal@absl@@$03V?$allocator@VFormatArgImpl@str_format_internal@absl@@@__Cr@std@@@1@D@Z
    ??$GetDataImpl@$$CBV?$Span@D@absl@@@span_internal@absl@@YAPEADAEBV?$Span@D@1@D@Z
    ??$GetDataImpl@$$CBV?$Span@I@absl@@@span_internal@absl@@YAPEAIAEBV?$Span@I@1@D@Z
    ??$GetDataImpl@$$CBV?$basic_string_view@DU?$char_traits@D@__Cr@std@@@__Cr@std@@@span_internal@absl@@YAPEBDAEBV?$basic_string_view@DU?$char_traits@D@__Cr@std@@@__Cr@std@@D@Z
    ??$GetDataImpl@U?$array@D$0DKJI@@__Cr@std@@@span_internal@absl@@YAPEADAEAU?$array@D$0DKJI@@__Cr@std@@D@Z
    ??$GetDataImpl@V?$InlinedVector@PEAVLogSink@absl@@$0BA@V?$allocator@PEAVLogSink@absl@@@__Cr@std@@@absl@@@span_internal@absl@@YAPEAPEAVLogSink@1@AEAV?$InlinedVector@PEAVLogSink@absl@@$0BA@V?$allocator@PEAVLogSink@absl@@@__Cr@std@@@1@D@Z
    ??$GetDataImpl@V?$Span@D@absl@@@span_internal@absl@@YAPEADAEAV?$Span@D@1@D@Z
    ??$GetDataImpl@V?$Span@I@absl@@@span_internal@absl@@YAPEAIAEAV?$Span@I@1@D@Z
    ??$GetDataImpl@V?$vector@PEAVLogSink@absl@@V?$allocator@PEAVLogSink@absl@@@__Cr@std@@@__Cr@std@@@span_internal@absl@@YAPEAPEAVLogSink@1@AEAV?$vector@PEAVLogSink@absl@@V?$allocator@PEAVLogSink@absl@@@__Cr@std@@@__Cr@std@@D@Z
    ??$GetFlag@V?$vector@V?$basic_string@DU?$char_traits@D@__Cr@std@@V?$allocator@D@23@@__Cr@std@@V?$allocator@V?$basic_string@DU?$char_traits@D@__Cr@std@@V?$allocator@D@23@@__Cr@std@@@23@@__Cr@std@@@absl@@YA?AV?$vector@V?$basic_string@DU?$char_traits@D@__Cr@std@@V?$allocator@D@23@@__Cr@std@@V?$allocator@V?$basic_string@DU?$char_traits@D@__Cr@std@@V?$allocator@D@23@@__Cr@std@@@23@@__Cr@std@@AEBV?$Flag@V?$vector@V?$basic_string@DU?$char_traits@D@__Cr@std@@V?$allocator@D@23@@__Cr@std@@V?$allocator@V?$basic_string@DU?$char_traits@D@__Cr@std@@V?$allocator@D@23@@__Cr@std@@@23@@__Cr@std@@@flags_internal@0@@Z
    ??$GrowSooTableToNextCapacityAndPrepareInsert@$00$00@container_internal@absl@@YA_KAEAVCommonFields@01@AEBUPolicyFunctions@01@_KW4ctrl_t@01@@Z
    ??$GrowSooTableToNextCapacityAndPrepareInsert@$03$00@container_internal@absl@@YA_KAEAVCommonFields@01@AEBUPolicyFunctions@01@_KW4ctrl_t@01@@Z
    ??$GrowSooTableToNextCapacityAndPrepareInsert@$07$00@container_internal@absl@@YA_KAEAVCommonFields@01@AEBUPolicyFunctions@01@_KW4ctrl_t@01@@Z
    ??$GrowSooTableToNextCapacityAndPrepareInsert@$0A@$0A@@container_internal@absl@@YA_KAEAVCommonFields@01@AEBUPolicyFunctions@01@_KW4ctrl_t@01@@Z
    ??$GrowSooTableToNextCapacityAndPrepareInsert@$0BA@$00@container_internal@absl@@YA_KAEAVCommonFields@01@AEBUPolicyFunctions@01@_KW4ctrl_t@01@@Z
    ??$HashOf@$S$$ZV?$basic_string_view@DU?$char_traits@D@__Cr@std@@@__Cr@std@@H@absl@@YA_KAEBV?$basic_string_view@DU?$char_traits@D@__Cr@std@@@__Cr@std@@AEBH@Z
    ??$HashOf@$S$$Z_K@absl@@YA_KAEB_K@Z
    ??$HidePtr@$$CBX@base_internal@absl@@YA_KPEBX@Z
    ??$HidePtr@U?$atomic@_J@__Cr@std@@@base_internal@absl@@YA_KPEAU?$atomic@_J@__Cr@std@@@Z
    ??$HidePtr@X@base_internal@absl@@YA_KPEAX@Z
    ??$Hours@H$0A@@absl@@YA?AVDuration@0@H@Z
    ??$IgnoreLeak@V?$basic_string@DU?$char_traits@D@__Cr@std@@V?$allocator@D@23@@__Cr@std@@@absl@@YAPEAV?$basic_string@DU?$char_traits@D@__Cr@std@@V?$allocator@D@23@@__Cr@std@@PEAV123@@Z
    ??$Init@$0A@@CordRepBtreeNavigator@cord_internal@absl@@AEAAPEAUCordRep@12@PEAVCordRepBtree@12@@Z
    ??$Init@D@FormatArgImpl@str_format_internal@absl@@AEAAXAEBD@Z
    ??$Init@H@FormatArgImpl@str_format_internal@absl@@AEAAXAEBH@Z
    ??$Init@I@FormatArgImpl@str_format_internal@absl@@AEAAXAEBI@Z
    ??$Init@M@FormatArgImpl@str_format_internal@absl@@AEAAXAEBM@Z
    ??$Init@N@FormatArgImpl@str_format_internal@absl@@AEAAXAEBN@Z
    ??$Init@PEBD@FormatArgImpl@str_format_internal@absl@@AEAAXAEBQEBD@Z
    ??$Init@V?$basic_string_view@DU?$char_traits@D@__Cr@std@@@__Cr@std@@@FormatArgImpl@str_format_internal@absl@@AEAAXAEBV?$basic_string_view@DU?$char_traits@D@__Cr@std@@@__Cr@std@@@Z
    ??$Init@_J@FormatArgImpl@str_format_internal@absl@@AEAAXAEB_J@Z
    ??$InitDefaultValue@V?$vector@V?$basic_string@DU?$char_traits@D@__Cr@std@@V?$allocator@D@23@@__Cr@std@@V?$allocator@V?$basic_string@DU?$char_traits@D@__Cr@std@@V?$allocator@D@23@@__Cr@std@@@23@@__Cr@std@@@flags_internal@absl@@YA?AV?$vector@V?$basic_string@DU?$char_traits@D@__Cr@std@@V?$allocator@D@23@@__Cr@std@@V?$allocator@V?$basic_string@DU?$char_traits@D@__Cr@std@@V?$allocator@D@23@@__Cr@std@@@23@@__Cr@std@@UEmptyBraces@01@@Z
    ??$Initialize@V?$IteratorValueAdapter@V?$allocator@VFormatArgImpl@str_format_internal@absl@@@__Cr@std@@PEBVFormatArgImpl@str_format_internal@absl@@@inlined_vector_internal@absl@@@?$Storage@VFormatArgImpl@str_format_internal@absl@@$03V?$allocator@VFormatArgImpl@str_format_internal@absl@@@__Cr@std@@@inlined_vector_internal@absl@@QEAAXV?$IteratorValueAdapter@V?$allocator@VFormatArgImpl@str_format_internal@absl@@@__Cr@std@@PEBVFormatArgImpl@str_format_internal@absl@@@12@_K@Z
    ??$IntegerToString@H@strings_internal@absl@@YA?AV?$basic_string@DU?$char_traits@D@__Cr@std@@V?$allocator@D@23@@__Cr@std@@H@Z
    ??$IntegerToString@I@strings_internal@absl@@YA?AV?$basic_string@DU?$char_traits@D@__Cr@std@@V?$allocator@D@23@@__Cr@std@@I@Z
    ??$IntegerToString@J@strings_internal@absl@@YA?AV?$basic_string@DU?$char_traits@D@__Cr@std@@V?$allocator@D@23@@__Cr@std@@J@Z
    ??$IntegerToString@K@strings_internal@absl@@YA?AV?$basic_string@DU?$char_traits@D@__Cr@std@@V?$allocator@D@23@@__Cr@std@@K@Z
    ??$IntegerToString@_J@strings_internal@absl@@YA?AV?$basic_string@DU?$char_traits@D@__Cr@std@@V?$allocator@D@23@@__Cr@std@@_J@Z
    ??$IntegerToString@_K@strings_internal@absl@@YA?AV?$basic_string@DU?$char_traits@D@__Cr@std@@V?$allocator@D@23@@__Cr@std@@_K@Z
    ??$Invoke@VMixingHashState@hash_internal@absl@@@WeaklyMixedIntegerProbe@HashSelect@hash_internal@absl@@SA?AVMixingHashState@23@V423@UWeaklyMixedInteger@23@@Z
    ??$Invoke@VMixingHashState@hash_internal@absl@@H@UniquelyRepresentedProbe@HashSelect@hash_internal@absl@@SA?AVMixingHashState@23@V423@AEBH@Z
    ??$Invoke@VMixingHashState@hash_internal@absl@@V?$basic_string_view@DU?$char_traits@D@__Cr@std@@@__Cr@std@@@HashValueProbe@HashSelect@hash_internal@absl@@SA?AVMixingHashState@23@V423@AEBV?$basic_string_view@DU?$char_traits@D@__Cr@std@@@__Cr@std@@@Z
    ??$Invoke@VMixingHashState@hash_internal@absl@@V?$tuple@AEBV?$basic_string_view@DU?$char_traits@D@__Cr@std@@@__Cr@std@@AEBH@__Cr@std@@@HashValueProbe@HashSelect@hash_internal@absl@@SA?AVMixingHashState@23@V423@AEBV?$tuple@AEBV?$basic_string_view@DU?$char_traits@D@__Cr@std@@@__Cr@std@@AEBH@__Cr@std@@@Z
    ??$Invoke@VMixingHashState@hash_internal@absl@@V?$tuple@AEB_K@__Cr@std@@@HashValueProbe@HashSelect@hash_internal@absl@@SA?AVMixingHashState@23@V423@AEBV?$tuple@AEB_K@__Cr@std@@@Z
    ??$Invoke@VMixingHashState@hash_internal@absl@@_K@UniquelyRepresentedProbe@HashSelect@hash_internal@absl@@SA?AVMixingHashState@23@V423@AEB_K@Z
    ??$InvokeFlush@V?$basic_ostream@DU?$char_traits@D@__Cr@std@@@__Cr@std@@@str_format_internal@absl@@YAXPEAV?$basic_ostream@DU?$char_traits@D@__Cr@std@@@__Cr@std@@V?$basic_string_view@DU?$char_traits@D@__Cr@std@@@34@@Z
    ??$InvokeFlush@V?$basic_string@DU?$char_traits@D@__Cr@std@@V?$allocator@D@23@@__Cr@std@@@str_format_internal@absl@@YAXPEAV?$basic_string@DU?$char_traits@D@__Cr@std@@V?$allocator@D@23@@__Cr@std@@V?$basic_string_view@DU?$char_traits@D@__Cr@std@@@34@@Z
    ??$InvokeFlush@VBufferRawSink@str_format_internal@absl@@@str_format_internal@absl@@YAXPEAVBufferRawSink@01@V?$basic_string_view@DU?$char_traits@D@__Cr@std@@@__Cr@std@@@Z
    ??$InvokeFlush@VFILERawSink@str_format_internal@absl@@@str_format_internal@absl@@YAXPEAVFILERawSink@01@V?$basic_string_view@DU?$char_traits@D@__Cr@std@@@__Cr@std@@@Z
    ??$InvokeGet@V?$vector@V?$basic_string@DU?$char_traits@D@__Cr@std@@V?$allocator@D@23@@__Cr@std@@V?$allocator@V?$basic_string@DU?$char_traits@D@__Cr@std@@V?$allocator@D@23@@__Cr@std@@@23@@__Cr@std@@V?$Flag@V?$vector@V?$basic_string@DU?$char_traits@D@__Cr@std@@V?$allocator@D@23@@__Cr@std@@V?$allocator@V?$basic_string@DU?$char_traits@D@__Cr@std@@V?$allocator@D@23@@__Cr@std@@@23@@__Cr@std@@@flags_internal@absl@@@FlagImplPeer@flags_internal@absl@@SA?AV?$vector@V?$basic_string@DU?$char_traits@D@__Cr@std@@V?$allocator@D@23@@__Cr@std@@V?$allocator@V?$basic_string@DU?$char_traits@D@__Cr@std@@V?$allocator@D@23@@__Cr@std@@@23@@__Cr@std@@AEBV?$Flag@V?$vector@V?$basic_string@DU?$char_traits@D@__Cr@std@@V?$allocator@D@23@@__Cr@std@@V?$allocator@V?$basic_string@DU?$char_traits@D@__Cr@std@@V?$allocator@D@23@@__Cr@std@@@23@@__Cr@std@@@12@@Z
    ??$InvokeParseFlag@H@flags_internal@absl@@YA_NV?$basic_string_view@DU?$char_traits@D@__Cr@std@@@__Cr@std@@PEAHPEAV?$basic_string@DU?$char_traits@D@__Cr@std@@V?$allocator@D@23@@34@@Z
    ??$InvokeParseFlag@M@flags_internal@absl@@YA_NV?$basic_string_view@DU?$char_traits@D@__Cr@std@@@__Cr@std@@PEAMPEAV?$basic_string@DU?$char_traits@D@__Cr@std@@V?$allocator@D@23@@34@@Z
    ??$InvokeParseFlag@N@flags_internal@absl@@YA_NV?$basic_string_view@DU?$char_traits@D@__Cr@std@@@__Cr@std@@PEANPEAV?$basic_string@DU?$char_traits@D@__Cr@std@@V?$allocator@D@23@@34@@Z
    ??$InvokeParseFlag@V?$vector@V?$basic_string@DU?$char_traits@D@__Cr@std@@V?$allocator@D@23@@__Cr@std@@V?$allocator@V?$basic_string@DU?$char_traits@D@__Cr@std@@V?$allocator@D@23@@__Cr@std@@@23@@__Cr@std@@@flags_internal@absl@@YA_NV?$basic_string_view@DU?$char_traits@D@__Cr@std@@@__Cr@std@@PEAV?$vector@V?$basic_string@DU?$char_traits@D@__Cr@std@@V?$allocator@D@23@@__Cr@std@@V?$allocator@V?$basic_string@DU?$char_traits@D@__Cr@std@@V?$allocator@D@23@@__Cr@std@@@23@@34@PEAV?$basic_string@DU?$char_traits@D@__Cr@std@@V?$allocator@D@23@@34@@Z
    ??$InvokeSet@V?$Flag@V?$vector@V?$basic_string@DU?$char_traits@D@__Cr@std@@V?$allocator@D@23@@__Cr@std@@V?$allocator@V?$basic_string@DU?$char_traits@D@__Cr@std@@V?$allocator@D@23@@__Cr@std@@@23@@__Cr@std@@@flags_internal@absl@@V?$vector@V?$basic_string@DU?$char_traits@D@__Cr@std@@V?$allocator@D@23@@__Cr@std@@V?$allocator@V?$basic_string@DU?$char_traits@D@__Cr@std@@V?$allocator@D@23@@__Cr@std@@@23@@__Cr@std@@@FlagImplPeer@flags_internal@absl@@SAXAEAV?$Flag@V?$vector@V?$basic_string@DU?$char_traits@D@__Cr@std@@V?$allocator@D@23@@__Cr@std@@V?$allocator@V?$basic_string@DU?$char_traits@D@__Cr@std@@V?$allocator@D@23@@__Cr@std@@@23@@__Cr@std@@@12@AEBV?$vector@V?$basic_string@DU?$char_traits@D@__Cr@std@@V?$allocator@D@23@@__Cr@std@@V?$allocator@V?$basic_string@DU?$char_traits@D@__Cr@std@@V?$allocator@D@23@@__Cr@std@@@23@@__Cr@std@@@Z
    ??$IsAboveValidSize@$07@container_internal@absl@@YA_N_K0@Z
    ??$IsDestructionTrivial@V?$allocator@U?$pair@$$CBV?$basic_string_view@DU?$char_traits@D@__Cr@std@@@__Cr@std@@PEAVCommandLineFlag@absl@@@__Cr@std@@@__Cr@std@@U?$pair@$$CBV?$basic_string_view@DU?$char_traits@D@__Cr@std@@@__Cr@std@@PEAVCommandLineFlag@absl@@@23@@container_internal@absl@@YA?A_PXZ
    ??$IsOfType@F@CommandLineFlag@absl@@QEBA_NXZ
    ??$IsOfType@G@CommandLineFlag@absl@@QEBA_NXZ
    ??$IsOfType@H@CommandLineFlag@absl@@QEBA_NXZ
    ??$IsOfType@I@CommandLineFlag@absl@@QEBA_NXZ
    ??$IsOfType@J@CommandLineFlag@absl@@QEBA_NXZ
    ??$IsOfType@K@CommandLineFlag@absl@@QEBA_NXZ
    ??$IsOfType@M@CommandLineFlag@absl@@QEBA_NXZ
    ??$IsOfType@N@CommandLineFlag@absl@@QEBA_NXZ
    ??$IsOfType@V?$basic_string@DU?$char_traits@D@__Cr@std@@V?$allocator@D@23@@__Cr@std@@@CommandLineFlag@absl@@QEBA_NXZ
    ??$IsOfType@V?$vector@V?$basic_string@DU?$char_traits@D@__Cr@std@@V?$allocator@D@23@@__Cr@std@@V?$allocator@V?$basic_string@DU?$char_traits@D@__Cr@std@@V?$allocator@D@23@@__Cr@std@@@23@@__Cr@std@@@CommandLineFlag@absl@@QEBA_NXZ
    ??$IsOfType@_J@CommandLineFlag@absl@@QEBA_NXZ
    ??$IsOfType@_K@CommandLineFlag@absl@@QEBA_NXZ
    ??$IsOfType@_N@CommandLineFlag@absl@@QEBA_NXZ
    ??$JoinAlgorithm@V?$__wrap_iter@PEBV?$basic_string@DU?$char_traits@D@__Cr@std@@V?$allocator@D@23@@__Cr@std@@@__Cr@std@@X@strings_internal@absl@@YA?AV?$basic_string@DU?$char_traits@D@__Cr@std@@V?$allocator@D@23@@__Cr@std@@V?$__wrap_iter@PEBV?$basic_string@DU?$char_traits@D@__Cr@std@@V?$allocator@D@23@@__Cr@std@@@34@0V?$basic_string_view@DU?$char_traits@D@__Cr@std@@@34@UNoFormatter@01@@Z
    ??$JoinRange@V?$__wrap_iter@PEBV?$basic_string@DU?$char_traits@D@__Cr@std@@V?$allocator@D@23@@__Cr@std@@@__Cr@std@@@strings_internal@absl@@YA?AV?$basic_string@DU?$char_traits@D@__Cr@std@@V?$allocator@D@23@@__Cr@std@@V?$__wrap_iter@PEBV?$basic_string@DU?$char_traits@D@__Cr@std@@V?$allocator@D@23@@__Cr@std@@@34@0V?$basic_string_view@DU?$char_traits@D@__Cr@std@@@34@@Z
    ??$JoinRange@V?$vector@V?$basic_string@DU?$char_traits@D@__Cr@std@@V?$allocator@D@23@@__Cr@std@@V?$allocator@V?$basic_string@DU?$char_traits@D@__Cr@std@@V?$allocator@D@23@@__Cr@std@@@23@@__Cr@std@@@strings_internal@absl@@YA?AV?$basic_string@DU?$char_traits@D@__Cr@std@@V?$allocator@D@23@@__Cr@std@@AEBV?$vector@V?$basic_string@DU?$char_traits@D@__Cr@std@@V?$allocator@D@23@@__Cr@std@@V?$allocator@V?$basic_string@DU?$char_traits@D@__Cr@std@@V?$allocator@D@23@@__Cr@std@@@23@@34@V?$basic_string_view@DU?$char_traits@D@__Cr@std@@@34@@Z
    ??$LowLevelCallOnce@A6AXXZ$$V@base_internal@absl@@YAXPEAVonce_flag@1@A6AXXZ@Z
    ??$MakeCheckOpString@AEBV?$basic_string@DU?$char_traits@D@__Cr@std@@V?$allocator@D@23@@__Cr@std@@AEBV123@@log_internal@absl@@YAPEBDAEBV?$basic_string@DU?$char_traits@D@__Cr@std@@V?$allocator@D@23@@__Cr@std@@0PEBD@Z
    ??$MakeCheckOpString@AEBV?$basic_string_view@DU?$char_traits@D@__Cr@std@@@__Cr@std@@AEBV123@@log_internal@absl@@YAPEBDAEBV?$basic_string_view@DU?$char_traits@D@__Cr@std@@@__Cr@std@@0PEBD@Z
    ??$MakeCheckOpString@DD@log_internal@absl@@YAPEBDDDPEBD@Z
    ??$MakeCheckOpString@EE@log_internal@absl@@YAPEBDEEPEBD@Z
    ??$MakeCheckOpString@MM@log_internal@absl@@YAPEBDMMPEBD@Z
    ??$MakeCheckOpString@NN@log_internal@absl@@YAPEBDNNPEBD@Z
    ??$MakeCheckOpString@PEBCPEBC@log_internal@absl@@YAPEBDPEBC0PEBD@Z
    ??$MakeCheckOpString@PEBDPEBD@log_internal@absl@@YAPEBDPEBD00@Z
    ??$MakeCheckOpString@PEBEPEBE@log_internal@absl@@YAPEBDPEBE0PEBD@Z
    ??$MakeCheckOpString@PEBXPEBX@log_internal@absl@@YAPEBDPEBX0PEBD@Z
    ??$MakeCheckOpString@_J_J@log_internal@absl@@YAPEBD_J0PEBD@Z
    ??$MakeCheckOpString@_K_K@log_internal@absl@@YAPEBD_K0PEBD@Z
    ??$MakeCheckOpString@_N_N@log_internal@absl@@YAPEBD_N0PEBD@Z
    ??$MakeCheckOpValueString@M@log_internal@absl@@YAXAEAV?$basic_ostream@DU?$char_traits@D@__Cr@std@@@__Cr@std@@AEBM@Z
    ??$MakeCheckOpValueString@N@log_internal@absl@@YAXAEAV?$basic_ostream@DU?$char_traits@D@__Cr@std@@@__Cr@std@@AEBN@Z
    ??$MakeCheckOpValueString@PEBC@log_internal@absl@@YAXAEAV?$basic_ostream@DU?$char_traits@D@__Cr@std@@@__Cr@std@@AEBQEBC@Z
    ??$MakeCheckOpValueString@PEBD@log_internal@absl@@YAXAEAV?$basic_ostream@DU?$char_traits@D@__Cr@std@@@__Cr@std@@AEBQEBD@Z
    ??$MakeCheckOpValueString@PEBE@log_internal@absl@@YAXAEAV?$basic_ostream@DU?$char_traits@D@__Cr@std@@@__Cr@std@@AEBQEBE@Z
    ??$MakeCheckOpValueString@V?$basic_string@DU?$char_traits@D@__Cr@std@@V?$allocator@D@23@@__Cr@std@@@log_internal@absl@@YAXAEAV?$basic_ostream@DU?$char_traits@D@__Cr@std@@@__Cr@std@@AEBV?$basic_string@DU?$char_traits@D@__Cr@std@@V?$allocator@D@23@@34@@Z
    ??$MakeCheckOpValueString@V?$basic_string_view@DU?$char_traits@D@__Cr@std@@@__Cr@std@@@log_internal@absl@@YAXAEAV?$basic_ostream@DU?$char_traits@D@__Cr@std@@@__Cr@std@@AEBV?$basic_string_view@DU?$char_traits@D@__Cr@std@@@34@@Z
    ??$MakeCheckOpValueString@_J@log_internal@absl@@YAXAEAV?$basic_ostream@DU?$char_traits@D@__Cr@std@@@__Cr@std@@AEB_J@Z
    ??$MakeCheckOpValueString@_K@log_internal@absl@@YAXAEAV?$basic_ostream@DU?$char_traits@D@__Cr@std@@@__Cr@std@@AEB_K@Z
    ??$MakeCheckOpValueString@_N@log_internal@absl@@YAXAEAV?$basic_ostream@DU?$char_traits@D@__Cr@std@@@__Cr@std@@AEB_N@Z
    ??$MakeConstSpan@$SQEAX@absl@@YA?AV?$Span@QEAX@0@PEBQEAX_K@Z
    ??$MakeSpan@$SD@absl@@YA?AV?$Span@D@0@PEAD_K@Z
    ??$MakeSpan@$SI$0BAA@@absl@@YA?AV?$Span@I@0@AEAY0BAA@I@Z
    ??$MakeSpan@$SI$0BIA@@absl@@YA?AV?$Span@I@0@AEAY0BIA@I@Z
    ??$MakeSpan@$SI$0CAA@@absl@@YA?AV?$Span@I@0@AEAY0CAA@I@Z
    ??$MakeSpan@$SI$0CIA@@absl@@YA?AV?$Span@I@0@AEAY0CIA@I@Z
    ??$MakeSpan@$SI$0IA@@absl@@YA?AV?$Span@I@0@AEAY0IA@I@Z
    ??$MakeSpan@$SI@absl@@YA?AV?$Span@I@0@PEAI_K@Z
    ??$MakeSpan@$SPEAVLogSink@absl@@@absl@@YA?AV?$Span@PEAVLogSink@absl@@@0@PEAPEAVLogSink@0@_K@Z
    ??$MakeSpan@$SU?$array@D$0DKJI@@__Cr@std@@@absl@@YA?AV?$Span@D@0@AEAU?$array@D$0DKJI@@__Cr@std@@@Z
    ??$MakeSpan@$SV?$InlinedVector@PEAVLogSink@absl@@$0BA@V?$allocator@PEAVLogSink@absl@@@__Cr@std@@@absl@@@absl@@YA?AV?$Span@PEAVLogSink@absl@@@0@AEAV?$InlinedVector@PEAVLogSink@absl@@$0BA@V?$allocator@PEAVLogSink@absl@@@__Cr@std@@@0@@Z
    ??$MakeSpan@$SV?$vector@PEAVLogSink@absl@@V?$allocator@PEAVLogSink@absl@@@__Cr@std@@@__Cr@std@@@absl@@YA?AV?$Span@PEAVLogSink@absl@@@0@AEAV?$vector@PEAVLogSink@absl@@V?$allocator@PEAVLogSink@absl@@@__Cr@std@@@__Cr@std@@@Z
    ??$MaskOfLength@I@crc_internal@absl@@YAIH@Z
    ??$MaxValidSize@$07@container_internal@absl@@YA_K_K@Z
    ??$MaxValidSizeFor1ByteSlot@$07@container_internal@absl@@YA_KXZ
    ??$Merge@$00@CordRepBtree@cord_internal@absl@@CAPEAV012@PEAV012@0@Z
    ??$Merge@$0A@@CordRepBtree@cord_internal@absl@@CAPEAV012@PEAV012@0@Z
    ??$Microseconds@H$0A@@absl@@YA?AVDuration@0@H@Z
    ??$Microseconds@J$0A@@absl@@YA?AVDuration@0@J@Z
    ??$Milliseconds@H$0A@@absl@@YA?AVDuration@0@H@Z
    ??$Milliseconds@K$0A@@absl@@YA?AVDuration@0@K@Z
    ??$Milliseconds@N$0A@@absl@@YA?AVDuration@0@N@Z
    ??$Minutes@H$0A@@absl@@YA?AVDuration@0@H@Z
    ??$Nanoseconds@H$0A@@absl@@YA?AVDuration@0@H@Z
    ??$Nanoseconds@J$0A@@absl@@YA?AVDuration@0@J@Z
    ??$Nanoseconds@_J$0A@@absl@@YA?AVDuration@0@_J@Z
    ??$NewImpl@$0BAAA@$$V@CordRepFlat@cord_internal@absl@@SAPEAU012@_K@Z
    ??$NewImpl@$0EAAAA@$$V@CordRepFlat@cord_internal@absl@@SAPEAU012@_K@Z
    ??$NewLeaf@$00@CordRepBtree@cord_internal@absl@@CAPEAV012@V?$basic_string_view@DU?$char_traits@D@__Cr@std@@@__Cr@std@@_K@Z
    ??$NewLeaf@$0A@@CordRepBtree@cord_internal@absl@@CAPEAV012@V?$basic_string_view@DU?$char_traits@D@__Cr@std@@@__Cr@std@@_K@Z
    ??$OffsetValue@U?$atomic@_K@__Cr@std@@@FlagImpl@flags_internal@absl@@AEBAPEAU?$atomic@_K@__Cr@std@@XZ
    ??$OffsetValue@UFlagMaskedPointerValue@flags_internal@absl@@@FlagImpl@flags_internal@absl@@AEBAPEAUFlagMaskedPointerValue@12@XZ
    ??$OffsetValue@UFlagOneWordValue@flags_internal@absl@@@FlagImpl@flags_internal@absl@@AEBAPEAUFlagOneWordValue@12@XZ
    ??$PairArgs@$$CBV?$basic_string_view@DU?$char_traits@D@__Cr@std@@@__Cr@std@@PEAVCommandLineFlag@absl@@@container_internal@absl@@YA?AU?$pair@V?$tuple@$$QEBV?$basic_string_view@DU?$char_traits@D@__Cr@std@@@__Cr@std@@@__Cr@std@@V?$tuple@$$QEAPEAVCommandLineFlag@absl@@@23@@__Cr@std@@$$QEAU?$pair@$$CBV?$basic_string_view@DU?$char_traits@D@__Cr@std@@@__Cr@std@@PEAVCommandLineFlag@absl@@@34@@Z
    ??$PairArgs@$$CBV?$basic_string_view@DU?$char_traits@D@__Cr@std@@@__Cr@std@@PEAVCommandLineFlag@absl@@@container_internal@absl@@YA?AU?$pair@V?$tuple@$$QEBV?$basic_string_view@DU?$char_traits@D@__Cr@std@@@__Cr@std@@@__Cr@std@@V?$tuple@$$QEAPEAVCommandLineFlag@absl@@@23@@__Cr@std@@$$QEBV?$basic_string_view@DU?$char_traits@D@__Cr@std@@@34@$$QEAPEAVCommandLineFlag@1@@Z
    ??$PairArgs@$$CBV?$basic_string_view@DU?$char_traits@D@__Cr@std@@@__Cr@std@@PEAVCommandLineFlag@absl@@@container_internal@absl@@YA?AU?$pair@V?$tuple@AEBV?$basic_string_view@DU?$char_traits@D@__Cr@std@@@__Cr@std@@@__Cr@std@@V?$tuple@AEBQEAVCommandLineFlag@absl@@@23@@__Cr@std@@AEBU?$pair@$$CBV?$basic_string_view@DU?$char_traits@D@__Cr@std@@@__Cr@std@@PEAVCommandLineFlag@absl@@@34@@Z
    ??$PairArgs@AEBV?$basic_string_view@DU?$char_traits@D@__Cr@std@@@__Cr@std@@AEBQEAVCommandLineFlag@absl@@@container_internal@absl@@YA?AU?$pair@V?$tuple@AEBV?$basic_string_view@DU?$char_traits@D@__Cr@std@@@__Cr@std@@@__Cr@std@@V?$tuple@AEBQEAVCommandLineFlag@absl@@@23@@__Cr@std@@AEBV?$basic_string_view@DU?$char_traits@D@__Cr@std@@@34@AEBQEAVCommandLineFlag@1@@Z
    ??$PairArgs@V?$basic_string_view@DU?$char_traits@D@__Cr@std@@@__Cr@std@@PEAVCommandLineFlag@absl@@@container_internal@absl@@YA?AU?$pair@V?$tuple@$$QEAV?$basic_string_view@DU?$char_traits@D@__Cr@std@@@__Cr@std@@@__Cr@std@@V?$tuple@$$QEAPEAVCommandLineFlag@absl@@@23@@__Cr@std@@$$QEAU?$pair@V?$basic_string_view@DU?$char_traits@D@__Cr@std@@@__Cr@std@@PEAVCommandLineFlag@absl@@@34@@Z
    ??$PairArgs@V?$basic_string_view@DU?$char_traits@D@__Cr@std@@@__Cr@std@@PEAVCommandLineFlag@absl@@@container_internal@absl@@YA?AU?$pair@V?$tuple@$$QEAV?$basic_string_view@DU?$char_traits@D@__Cr@std@@@__Cr@std@@@__Cr@std@@V?$tuple@$$QEAPEAVCommandLineFlag@absl@@@23@@__Cr@std@@$$QEAV?$basic_string_view@DU?$char_traits@D@__Cr@std@@@34@$$QEAPEAVCommandLineFlag@1@@Z
    ??$ParseFlag@H@absl@@YA_NV?$basic_string_view@DU?$char_traits@D@__Cr@std@@@__Cr@std@@PEAHPEAV?$basic_string@DU?$char_traits@D@__Cr@std@@V?$allocator@D@23@@23@@Z
    ??$ParseFlag@M@absl@@YA_NV?$basic_string_view@DU?$char_traits@D@__Cr@std@@@__Cr@std@@PEAMPEAV?$basic_string@DU?$char_traits@D@__Cr@std@@V?$allocator@D@23@@23@@Z
    ??$ParseFlag@N@absl@@YA_NV?$basic_string_view@DU?$char_traits@D@__Cr@std@@@__Cr@std@@PEANPEAV?$basic_string@DU?$char_traits@D@__Cr@std@@V?$allocator@D@23@@23@@Z
    ??$ParseFlag@V?$vector@V?$basic_string@DU?$char_traits@D@__Cr@std@@V?$allocator@D@23@@__Cr@std@@V?$allocator@V?$basic_string@DU?$char_traits@D@__Cr@std@@V?$allocator@D@23@@__Cr@std@@@23@@__Cr@std@@@absl@@YA_NV?$basic_string_view@DU?$char_traits@D@__Cr@std@@@__Cr@std@@PEAV?$vector@V?$basic_string@DU?$char_traits@D@__Cr@std@@V?$allocator@D@23@@__Cr@std@@V?$allocator@V?$basic_string@DU?$char_traits@D@__Cr@std@@V?$allocator@D@23@@__Cr@std@@@23@@23@PEAV?$basic_string@DU?$char_traits@D@__Cr@std@@V?$allocator@D@23@@23@@Z
    ??$ParseFlagImpl@H@flags_internal@absl@@YA_NV?$basic_string_view@DU?$char_traits@D@__Cr@std@@@__Cr@std@@AEAH@Z
    ??$ParseFlagImpl@I@flags_internal@absl@@YA_NV?$basic_string_view@DU?$char_traits@D@__Cr@std@@@__Cr@std@@AEAI@Z
    ??$ParseFlagImpl@J@flags_internal@absl@@YA_NV?$basic_string_view@DU?$char_traits@D@__Cr@std@@@__Cr@std@@AEAJ@Z
    ??$ParseFlagImpl@K@flags_internal@absl@@YA_NV?$basic_string_view@DU?$char_traits@D@__Cr@std@@@__Cr@std@@AEAK@Z
    ??$ParseFlagImpl@_J@flags_internal@absl@@YA_NV?$basic_string_view@DU?$char_traits@D@__Cr@std@@@__Cr@std@@AEA_J@Z
    ??$ParseFlagImpl@_K@flags_internal@absl@@YA_NV?$basic_string_view@DU?$char_traits@D@__Cr@std@@@__Cr@std@@AEA_K@Z
    ??$ParseFloat@$09@strings_internal@absl@@YA?AUParsedFloat@01@PEBD0W4chars_format@1@@Z
    ??$ParseFloat@$0BA@@strings_internal@absl@@YA?AUParsedFloat@01@PEBD0W4chars_format@1@@Z
    ??$ParseFormatString@UParsedFormatConsumer@ParsedFormatBase@str_format_internal@absl@@@str_format_internal@absl@@YA_NV?$basic_string_view@DU?$char_traits@D@__Cr@std@@@__Cr@std@@UParsedFormatConsumer@ParsedFormatBase@01@@Z
    ??$PopDead@_J_K_K_KG@?$SampleRecorder@UHashtablezInfo@container_internal@absl@@@profiling_internal@absl@@AEAAPEAUHashtablezInfo@container_internal@2@_J_K11G@Z
    ??$Prepend@V?$basic_string@DU?$char_traits@D@__Cr@std@@V?$allocator@D@23@@__Cr@std@@$0A@@Cord@absl@@QEAAX$$QEAV?$basic_string@DU?$char_traits@D@__Cr@std@@V?$allocator@D@23@@__Cr@std@@@Z
    ??$ReadCallback@P6A_NPEAUSynchEvent@absl@@@Z@Condition@absl@@AEBAXPEAP6A_NPEAUSynchEvent@1@@Z@Z
    ??$ReadCallback@P6A_NPEBU?$atomic@_N@__Cr@std@@@Z@Condition@absl@@AEBAXPEAP6A_NPEBU?$atomic@_N@__Cr@std@@@Z@Z
    ??$Register@AEB_JAEA_KAEA_KAEA_KAEAG@?$SampleRecorder@UHashtablezInfo@container_internal@absl@@@profiling_internal@absl@@QEAAPEAUHashtablezInfo@container_internal@2@AEB_JAEA_K11AEAG@Z
    ??$RotateRight@I@crc_internal@absl@@YAIIHH@Z
    ??$RoundUp@$03@crc_internal@absl@@YAPEBEPEBE@Z
    ??$RunWithReentrancyGuard@V<lambda_1>@?0???$construct@AEBUpiecewise_construct_t@__Cr@std@@V?$tuple@$$QEAV?$basic_string_view@DU?$char_traits@D@__Cr@std@@@__Cr@std@@@23@V?$tuple@$$QEAPEAVCommandLineFlag@absl@@@23@@?$raw_hash_set@U?$FlatHashMapPolicy@V?$basic_string_view@DU?$char_traits@D@__Cr@std@@@__Cr@std@@PEAVCommandLineFlag@absl@@@container_internal@absl@@UStringHash@23@UStringEq@23@V?$allocator@U?$pair@$$CBV?$basic_string_view@DU?$char_traits@D@__Cr@std@@@__Cr@std@@PEAVCommandLineFlag@absl@@@__Cr@std@@@__Cr@std@@@container_internal@absl@@AEAAXPEAT?$map_slot_type@V?$basic_string_view@DU?$char_traits@D@__Cr@std@@@__Cr@std@@PEAVCommandLineFlag@absl@@@34@AEBUpiecewise_construct_t@__Cr@std@@$$QEAV?$tuple@$$QEAV?$basic_string_view@DU?$char_traits@D@__Cr@std@@@__Cr@std@@@78@$$QEAV?$tuple@$$QEAPEAVCommandLineFlag@absl@@@78@@Z@@CommonFields@container_internal@absl@@QEAAXV<lambda_1>@?0???$construct@AEBUpiecewise_construct_t@__Cr@std@@V?$tuple@$$QEAV?$basic_string_view@DU?$char_traits@D@__Cr@std@@@__Cr@std@@@23@V?$tuple@$$QEAPEAVCommandLineFlag@absl@@@23@@?$raw_hash_set@U?$FlatHashMapPolicy@V?$basic_string_view@DU?$char_traits@D@__Cr@std@@@__Cr@std@@PEAVCommandLineFlag@absl@@@container_internal@absl@@UStringHash@23@UStringEq@23@V?$allocator@U?$pair@$$CBV?$basic_string_view@DU?$char_traits@D@__Cr@std@@@__Cr@std@@PEAVCommandLineFlag@absl@@@__Cr@std@@@__Cr@std@@@12@AEAAXPEAT?$map_slot_type@V?$basic_string_view@DU?$char_traits@D@__Cr@std@@@__Cr@std@@PEAVCommandLineFlag@absl@@@12@AEBUpiecewise_construct_t@__Cr@std@@$$QEAV?$tuple@$$QEAV?$basic_string_view@DU?$char_traits@D@__Cr@std@@@__Cr@std@@@78@$$QEAV?$tuple@$$QEAPEAVCommandLineFlag@absl@@@78@@Z@@Z
    ??$RunWithReentrancyGuard@V<lambda_1>@?0???$construct@AEBUpiecewise_construct_t@__Cr@std@@V?$tuple@$$QEBV?$basic_string_view@DU?$char_traits@D@__Cr@std@@@__Cr@std@@@23@V?$tuple@$$QEAPEAVCommandLineFlag@absl@@@23@@?$raw_hash_set@U?$FlatHashMapPolicy@V?$basic_string_view@DU?$char_traits@D@__Cr@std@@@__Cr@std@@PEAVCommandLineFlag@absl@@@container_internal@absl@@UStringHash@23@UStringEq@23@V?$allocator@U?$pair@$$CBV?$basic_string_view@DU?$char_traits@D@__Cr@std@@@__Cr@std@@PEAVCommandLineFlag@absl@@@__Cr@std@@@__Cr@std@@@container_internal@absl@@AEAAXPEAT?$map_slot_type@V?$basic_string_view@DU?$char_traits@D@__Cr@std@@@__Cr@std@@PEAVCommandLineFlag@absl@@@34@AEBUpiecewise_construct_t@__Cr@std@@$$QEAV?$tuple@$$QEBV?$basic_string_view@DU?$char_traits@D@__Cr@std@@@__Cr@std@@@78@$$QEAV?$tuple@$$QEAPEAVCommandLineFlag@absl@@@78@@Z@@CommonFields@container_internal@absl@@QEAAXV<lambda_1>@?0???$construct@AEBUpiecewise_construct_t@__Cr@std@@V?$tuple@$$QEBV?$basic_string_view@DU?$char_traits@D@__Cr@std@@@__Cr@std@@@23@V?$tuple@$$QEAPEAVCommandLineFlag@absl@@@23@@?$raw_hash_set@U?$FlatHashMapPolicy@V?$basic_string_view@DU?$char_traits@D@__Cr@std@@@__Cr@std@@PEAVCommandLineFlag@absl@@@container_internal@absl@@UStringHash@23@UStringEq@23@V?$allocator@U?$pair@$$CBV?$basic_string_view@DU?$char_traits@D@__Cr@std@@@__Cr@std@@PEAVCommandLineFlag@absl@@@__Cr@std@@@__Cr@std@@@12@AEAAXPEAT?$map_slot_type@V?$basic_string_view@DU?$char_traits@D@__Cr@std@@@__Cr@std@@PEAVCommandLineFlag@absl@@@12@AEBUpiecewise_construct_t@__Cr@std@@$$QEAV?$tuple@$$QEBV?$basic_string_view@DU?$char_traits@D@__Cr@std@@@__Cr@std@@@78@$$QEAV?$tuple@$$QEAPEAVCommandLineFlag@absl@@@78@@Z@@Z
    ??$RunWithReentrancyGuard@V<lambda_1>@?0??destroy@?$raw_hash_set@U?$FlatHashMapPolicy@V?$basic_string_view@DU?$char_traits@D@__Cr@std@@@__Cr@std@@PEAVCommandLineFlag@absl@@@container_internal@absl@@UStringHash@23@UStringEq@23@V?$allocator@U?$pair@$$CBV?$basic_string_view@DU?$char_traits@D@__Cr@std@@@__Cr@std@@PEAVCommandLineFlag@absl@@@__Cr@std@@@__Cr@std@@@container_internal@absl@@AEAAXPEAT?$map_slot_type@V?$basic_string_view@DU?$char_traits@D@__Cr@std@@@__Cr@std@@PEAVCommandLineFlag@absl@@@45@@Z@@CommonFields@container_internal@absl@@QEAAXV<lambda_1>@?0??destroy@?$raw_hash_set@U?$FlatHashMapPolicy@V?$basic_string_view@DU?$char_traits@D@__Cr@std@@@__Cr@std@@PEAVCommandLineFlag@absl@@@container_internal@absl@@UStringHash@23@UStringEq@23@V?$allocator@U?$pair@$$CBV?$basic_string_view@DU?$char_traits@D@__Cr@std@@@__Cr@std@@PEAVCommandLineFlag@absl@@@__Cr@std@@@__Cr@std@@@12@AEAAXPEAT?$map_slot_type@V?$basic_string_view@DU?$char_traits@D@__Cr@std@@@__Cr@std@@PEAVCommandLineFlag@absl@@@12@@Z@@Z
    ??$RunWithReentrancyGuard@V<lambda_1>@?0??transfer@?$raw_hash_set@U?$FlatHashMapPolicy@V?$basic_string_view@DU?$char_traits@D@__Cr@std@@@__Cr@std@@PEAVCommandLineFlag@absl@@@container_internal@absl@@UStringHash@23@UStringEq@23@V?$allocator@U?$pair@$$CBV?$basic_string_view@DU?$char_traits@D@__Cr@std@@@__Cr@std@@PEAVCommandLineFlag@absl@@@__Cr@std@@@__Cr@std@@@container_internal@absl@@AEAAXPEAT?$map_slot_type@V?$basic_string_view@DU?$char_traits@D@__Cr@std@@@__Cr@std@@PEAVCommandLineFlag@absl@@@45@0@Z@@CommonFields@container_internal@absl@@QEAAXV<lambda_1>@?0??transfer@?$raw_hash_set@U?$FlatHashMapPolicy@V?$basic_string_view@DU?$char_traits@D@__Cr@std@@@__Cr@std@@PEAVCommandLineFlag@absl@@@container_internal@absl@@UStringHash@23@UStringEq@23@V?$allocator@U?$pair@$$CBV?$basic_string_view@DU?$char_traits@D@__Cr@std@@@__Cr@std@@PEAVCommandLineFlag@absl@@@__Cr@std@@@__Cr@std@@@12@AEAAXPEAT?$map_slot_type@V?$basic_string_view@DU?$char_traits@D@__Cr@std@@@__Cr@std@@PEAVCommandLineFlag@absl@@@12@0@Z@@Z
    ??$SNPrintF@DHHH@absl@@YAHPEAD_KAEBV?$FormatSpecTemplate@$0BPPPL@$0JPPPL@$0JPPPL@$0JPPPL@@str_format_internal@0@AEBDAEBH44@Z
    ??$STLStringResizeUninitialized@V?$basic_string@DU?$char_traits@D@__Cr@std@@V?$allocator@D@23@@__Cr@std@@X@strings_internal@absl@@YAXPEAV?$basic_string@DU?$char_traits@D@__Cr@std@@V?$allocator@D@23@@__Cr@std@@_K@Z
    ??$STLStringResizeUninitializedAmortized@V?$basic_string@DU?$char_traits@D@__Cr@std@@V?$allocator@D@23@@__Cr@std@@@strings_internal@absl@@YAXPEAV?$basic_string@DU?$char_traits@D@__Cr@std@@V?$allocator@D@23@@__Cr@std@@_K@Z
    ??$Seconds@H$0A@@absl@@YA?AVDuration@0@H@Z
    ??$Seconds@J$0A@@absl@@YA?AVDuration@0@J@Z
    ??$Seconds@_J$0A@@absl@@YA?AVDuration@0@_J@Z
    ??$SetEdge@$00@CordRepBtree@cord_internal@absl@@QEAA?AUOpResult@012@_NPEAUCordRep@12@_K@Z
    ??$SetEdge@$0A@@CordRepBtree@cord_internal@absl@@QEAA?AUOpResult@012@_NPEAUCordRep@12@_K@Z
    ??$SetFlag@V?$vector@V?$basic_string@DU?$char_traits@D@__Cr@std@@V?$allocator@D@23@@__Cr@std@@V?$allocator@V?$basic_string@DU?$char_traits@D@__Cr@std@@V?$allocator@D@23@@__Cr@std@@@23@@__Cr@std@@@absl@@YAXPEAV?$Flag@V?$vector@V?$basic_string@DU?$char_traits@D@__Cr@std@@V?$allocator@D@23@@__Cr@std@@V?$allocator@V?$basic_string@DU?$char_traits@D@__Cr@std@@V?$allocator@D@23@@__Cr@std@@@23@@__Cr@std@@@flags_internal@0@AEBV?$vector@V?$basic_string@DU?$char_traits@D@__Cr@std@@V?$allocator@D@23@@__Cr@std@@V?$allocator@V?$basic_string@DU?$char_traits@D@__Cr@std@@V?$allocator@D@23@@__Cr@std@@@23@@__Cr@std@@@Z
    ??$SharedCompareImpl@V?$basic_string_view@DU?$char_traits@D@__Cr@std@@@__Cr@std@@@absl@@YAHAEBVCord@0@AEBV?$basic_string_view@DU?$char_traits@D@__Cr@std@@@__Cr@std@@@Z
    ??$SharedCompareImpl@VCord@absl@@@absl@@YAHAEBVCord@0@0@Z
    ??$SimpleAtoi@H@absl@@YA_NV?$basic_string_view@DU?$char_traits@D@__Cr@std@@@__Cr@std@@PEAH@Z
    ??$SmallMemmove@$00@cord_internal@absl@@YAXPEADPEBD_K@Z
    ??$SmallMemmove@$0A@@cord_internal@absl@@YAXPEADPEBD_K@Z
    ??$StoreCallback@P6A_NPEAUSynchEvent@absl@@@Z@Condition@absl@@AEAAXP6A_NPEAUSynchEvent@1@@Z@Z
    ??$StoreCallback@P6A_NPEAX@Z@Condition@absl@@AEAAXP6A_NPEAX@Z@Z
    ??$StoreCallback@P6A_NPEBU?$atomic@_N@__Cr@std@@@Z@Condition@absl@@AEAAXP6A_NPEBU?$atomic@_N@__Cr@std@@@Z@Z
    ??$StrAppend@$$V@absl@@YAXPEAV?$basic_string@DU?$char_traits@D@__Cr@std@@V?$allocator@D@23@@__Cr@std@@AEBVAlphaNum@0@1111@Z
    ??$StrCat@$$BY01D@absl@@YA?AV?$basic_string@DU?$char_traits@D@__Cr@std@@V?$allocator@D@23@@__Cr@std@@AEBVAlphaNum@0@0000AEAY01$$CBD@Z
    ??$StrCat@$$V@absl@@YA?AV?$basic_string@DU?$char_traits@D@__Cr@std@@V?$allocator@D@23@@__Cr@std@@AEBVAlphaNum@0@0000@Z
    ??$StrCat@F@absl@@YA?AV?$basic_string@DU?$char_traits@D@__Cr@std@@V?$allocator@D@23@@__Cr@std@@F@Z
    ??$StrCat@G@absl@@YA?AV?$basic_string@DU?$char_traits@D@__Cr@std@@V?$allocator@D@23@@__Cr@std@@G@Z
    ??$StrCat@H@absl@@YA?AV?$basic_string@DU?$char_traits@D@__Cr@std@@V?$allocator@D@23@@__Cr@std@@H@Z
    ??$StrCat@I@absl@@YA?AV?$basic_string@DU?$char_traits@D@__Cr@std@@V?$allocator@D@23@@__Cr@std@@I@Z
    ??$StrCat@J@absl@@YA?AV?$basic_string@DU?$char_traits@D@__Cr@std@@V?$allocator@D@23@@__Cr@std@@J@Z
    ??$StrCat@K@absl@@YA?AV?$basic_string@DU?$char_traits@D@__Cr@std@@V?$allocator@D@23@@__Cr@std@@K@Z
    ??$StrCat@PEBD@absl@@YA?AV?$basic_string@DU?$char_traits@D@__Cr@std@@V?$allocator@D@23@@__Cr@std@@AEBVAlphaNum@0@0000AEBQEBD@Z
    ??$StrCat@V?$basic_string@DU?$char_traits@D@__Cr@std@@V?$allocator@D@23@@__Cr@std@@$$BY02D@absl@@YA?AV?$basic_string@DU?$char_traits@D@__Cr@std@@V?$allocator@D@23@@__Cr@std@@AEBVAlphaNum@0@0000AEBV123@AEAY02$$CBD@Z
    ??$StrCat@V?$basic_string@DU?$char_traits@D@__Cr@std@@V?$allocator@D@23@@__Cr@std@@$$BY03D@absl@@YA?AV?$basic_string@DU?$char_traits@D@__Cr@std@@V?$allocator@D@23@@__Cr@std@@AEBVAlphaNum@0@0000AEBV123@AEAY03$$CBD@Z
    ??$StrCat@V?$basic_string@DU?$char_traits@D@__Cr@std@@V?$allocator@D@23@@__Cr@std@@$$BY0BO@DV123@@absl@@YA?AV?$basic_string@DU?$char_traits@D@__Cr@std@@V?$allocator@D@23@@__Cr@std@@AEBVAlphaNum@0@0000AEBV123@AEAY0BO@$$CBD1@Z
    ??$StrCat@V?$basic_string@DU?$char_traits@D@__Cr@std@@V?$allocator@D@23@@__Cr@std@@$$BY0LD@D@absl@@YA?AV?$basic_string@DU?$char_traits@D@__Cr@std@@V?$allocator@D@23@@__Cr@std@@AEBVAlphaNum@0@0000AEBV123@AEAY0LD@$$CBD@Z
    ??$StrCat@V?$basic_string_view@DU?$char_traits@D@__Cr@std@@@__Cr@std@@V?$basic_string@DU?$char_traits@D@__Cr@std@@V?$allocator@D@23@@23@@absl@@YA?AV?$basic_string@DU?$char_traits@D@__Cr@std@@V?$allocator@D@23@@__Cr@std@@AEBVAlphaNum@0@0000AEBV?$basic_string_view@DU?$char_traits@D@__Cr@std@@@23@AEBV123@@Z
    ??$StrCat@_J@absl@@YA?AV?$basic_string@DU?$char_traits@D@__Cr@std@@V?$allocator@D@23@@__Cr@std@@_J@Z
    ??$StrCat@_K@absl@@YA?AV?$basic_string@DU?$char_traits@D@__Cr@std@@V?$allocator@D@23@@__Cr@std@@_K@Z
    ??$StrFormat@DHHHHH_JIV?$basic_string_view@DU?$char_traits@D@__Cr@std@@@__Cr@std@@HPEBDV123@@absl@@YA?AV?$basic_string@DU?$char_traits@D@__Cr@std@@V?$allocator@D@23@@__Cr@std@@AEBV?$FormatSpecTemplate@$0BPPPL@$0JPPPL@$0JPPPL@$0JPPPL@$0JPPPL@$0JPPPL@$0JPPPL@$0JPPPL@$0IAAAE@$0JPPPL@$0EAAAE@$0IAAAE@@str_format_internal@0@AEBDAEBH2222AEB_JAEBIAEBV?$basic_string_view@DU?$char_traits@D@__Cr@std@@@23@2AEBQEBD5@Z
    ??$StrFormat@HM@absl@@YA?AV?$basic_string@DU?$char_traits@D@__Cr@std@@V?$allocator@D@23@@__Cr@std@@AEBV?$FormatSpecTemplate@$0JPPPL@$0JPOAA@@str_format_internal@0@AEBHAEBM@Z
    ??$StrFormat@HN@absl@@YA?AV?$basic_string@DU?$char_traits@D@__Cr@std@@V?$allocator@D@23@@__Cr@std@@AEBV?$FormatSpecTemplate@$0JPPPL@$0JPOAA@@str_format_internal@0@AEBHAEBN@Z
    ??$StrJoin@V?$vector@V?$basic_string@DU?$char_traits@D@__Cr@std@@V?$allocator@D@23@@__Cr@std@@V?$allocator@V?$basic_string@DU?$char_traits@D@__Cr@std@@V?$allocator@D@23@@__Cr@std@@@23@@__Cr@std@@@absl@@YA?AV?$basic_string@DU?$char_traits@D@__Cr@std@@V?$allocator@D@23@@__Cr@std@@AEBV?$vector@V?$basic_string@DU?$char_traits@D@__Cr@std@@V?$allocator@D@23@@__Cr@std@@V?$allocator@V?$basic_string@DU?$char_traits@D@__Cr@std@@V?$allocator@D@23@@__Cr@std@@@23@@23@V?$basic_string_view@DU?$char_traits@D@__Cr@std@@@23@@Z
    ??$StrReplaceAll@V?$initializer_list@U?$pair@V?$basic_string_view@DU?$char_traits@D@__Cr@std@@@__Cr@std@@V123@@__Cr@std@@@std@@@absl@@YA?AV?$basic_string@DU?$char_traits@D@__Cr@std@@V?$allocator@D@23@@__Cr@std@@V?$basic_string_view@DU?$char_traits@D@__Cr@std@@@23@AEBV?$initializer_list@U?$pair@V?$basic_string_view@DU?$char_traits@D@__Cr@std@@@__Cr@std@@V123@@__Cr@std@@@3@@Z
    ??$StrReplaceAll@V?$initializer_list@U?$pair@V?$basic_string_view@DU?$char_traits@D@__Cr@std@@@__Cr@std@@V123@@__Cr@std@@@std@@@absl@@YAHAEBV?$initializer_list@U?$pair@V?$basic_string_view@DU?$char_traits@D@__Cr@std@@@__Cr@std@@V123@@__Cr@std@@@std@@PEAV?$basic_string@DU?$char_traits@D@__Cr@std@@V?$allocator@D@23@@__Cr@2@@Z
    ??$StrSplit@D@absl@@YA?AV?$Splitter@VByChar@absl@@UAllowEmpty@2@V?$basic_string_view@DU?$char_traits@D@__Cr@std@@@__Cr@std@@@strings_internal@0@VConvertibleToStringView@20@D@Z
    ??$StrSplit@DUAllowEmpty@absl@@@absl@@YA?AV?$Splitter@VByChar@absl@@UAllowEmpty@2@V?$basic_string_view@DU?$char_traits@D@__Cr@std@@@__Cr@std@@@strings_internal@0@VConvertibleToStringView@20@DUAllowEmpty@0@@Z
    ??$StrSplit@VByAnyChar@absl@@@absl@@YA?AV?$Splitter@VByAnyChar@absl@@UAllowEmpty@2@V?$basic_string_view@DU?$char_traits@D@__Cr@std@@@__Cr@std@@@strings_internal@0@VConvertibleToStringView@20@VByAnyChar@0@@Z
    ??$StrSplit@VByAnyChar@absl@@USkipEmpty@2@@absl@@YA?AV?$Splitter@VByAnyChar@absl@@USkipEmpty@2@V?$basic_string_view@DU?$char_traits@D@__Cr@std@@@__Cr@std@@@strings_internal@0@VConvertibleToStringView@20@VByAnyChar@0@USkipEmpty@0@@Z
    ??$StreamFormat@I@absl@@YA?AVStreamable@str_format_internal@0@AEBV?$FormatSpecTemplate@$0JPPPL@@20@AEBI@Z
    ??$ToChronoDuration@V?$duration@JV?$ratio@$0DM@$00@__Cr@std@@@chrono@__Cr@std@@@time_internal@absl@@YA?AV?$duration@JV?$ratio@$0DM@$00@__Cr@std@@@chrono@__Cr@std@@VDuration@1@@Z
    ??$ToChronoDuration@V?$duration@JV?$ratio@$0OBA@$00@__Cr@std@@@chrono@__Cr@std@@@time_internal@absl@@YA?AV?$duration@JV?$ratio@$0OBA@$00@__Cr@std@@@chrono@__Cr@std@@VDuration@1@@Z
    ??$ToChronoDuration@V?$duration@_JV?$ratio@$00$00@__Cr@std@@@chrono@__Cr@std@@@time_internal@absl@@YA?AV?$duration@_JV?$ratio@$00$00@__Cr@std@@@chrono@__Cr@std@@VDuration@1@@Z
    ??$ToChronoDuration@V?$duration@_JV?$ratio@$00$0DLJKMKAA@@__Cr@std@@@chrono@__Cr@std@@@time_internal@absl@@YA?AV?$duration@_JV?$ratio@$00$0DLJKMKAA@@__Cr@std@@@chrono@__Cr@std@@VDuration@1@@Z
    ??$ToChronoDuration@V?$duration@_JV?$ratio@$00$0DOI@@__Cr@std@@@chrono@__Cr@std@@@time_internal@absl@@YA?AV?$duration@_JV?$ratio@$00$0DOI@@__Cr@std@@@chrono@__Cr@std@@VDuration@1@@Z
    ??$ToChronoDuration@V?$duration@_JV?$ratio@$00$0PECEA@@__Cr@std@@@chrono@__Cr@std@@@time_internal@absl@@YA?AV?$duration@_JV?$ratio@$00$0PECEA@@__Cr@std@@@chrono@__Cr@std@@VDuration@1@@Z
    ??$ToInt@C@FormatArgImpl@str_format_internal@absl@@CA_NTData@012@PEAHU?$integral_constant@_N$00@__Cr@std@@U?$integral_constant@_N$0A@@56@@Z
    ??$ToInt@D@FormatArgImpl@str_format_internal@absl@@CA_NTData@012@PEAHU?$integral_constant@_N$00@__Cr@std@@U?$integral_constant@_N$0A@@56@@Z
    ??$ToInt@E@FormatArgImpl@str_format_internal@absl@@CA_NTData@012@PEAHU?$integral_constant@_N$00@__Cr@std@@U?$integral_constant@_N$0A@@56@@Z
    ??$ToInt@F@FormatArgImpl@str_format_internal@absl@@CA_NTData@012@PEAHU?$integral_constant@_N$00@__Cr@std@@U?$integral_constant@_N$0A@@56@@Z
    ??$ToInt@G@FormatArgImpl@str_format_internal@absl@@CA_NTData@012@PEAHU?$integral_constant@_N$00@__Cr@std@@U?$integral_constant@_N$0A@@56@@Z
    ??$ToInt@H@FormatArgImpl@str_format_internal@absl@@CA_NTData@012@PEAHU?$integral_constant@_N$00@__Cr@std@@U?$integral_constant@_N$0A@@56@@Z
    ??$ToInt@I@FormatArgImpl@str_format_internal@absl@@CA_NTData@012@PEAHU?$integral_constant@_N$00@__Cr@std@@U?$integral_constant@_N$0A@@56@@Z
    ??$ToInt@J@FormatArgImpl@str_format_internal@absl@@CA_NTData@012@PEAHU?$integral_constant@_N$00@__Cr@std@@U?$integral_constant@_N$0A@@56@@Z
    ??$ToInt@K@FormatArgImpl@str_format_internal@absl@@CA_NTData@012@PEAHU?$integral_constant@_N$00@__Cr@std@@U?$integral_constant@_N$0A@@56@@Z
    ??$ToInt@M@FormatArgImpl@str_format_internal@absl@@CA_NTData@012@PEAHU?$integral_constant@_N$0A@@__Cr@std@@2@Z
    ??$ToInt@N@FormatArgImpl@str_format_internal@absl@@CA_NTData@012@PEAHU?$integral_constant@_N$0A@@__Cr@std@@2@Z
    ??$ToInt@O@FormatArgImpl@str_format_internal@absl@@CA_NTData@012@PEAHU?$integral_constant@_N$0A@@__Cr@std@@2@Z
    ??$ToInt@PEBD@FormatArgImpl@str_format_internal@absl@@CA_NTData@012@PEAHU?$integral_constant@_N$0A@@__Cr@std@@2@Z
    ??$ToInt@PEB_W@FormatArgImpl@str_format_internal@absl@@CA_NTData@012@PEAHU?$integral_constant@_N$0A@@__Cr@std@@2@Z
    ??$ToInt@UVoidPtr@str_format_internal@absl@@@FormatArgImpl@str_format_internal@absl@@CA_NTData@012@PEAHU?$integral_constant@_N$0A@@__Cr@std@@2@Z
    ??$ToInt@V?$basic_string@DU?$char_traits@D@__Cr@std@@V?$allocator@D@23@@__Cr@std@@@FormatArgImpl@str_format_internal@absl@@CA_NTData@012@PEAHU?$integral_constant@_N$0A@@__Cr@std@@2@Z
    ??$ToInt@V?$basic_string@_WU?$char_traits@_W@__Cr@std@@V?$allocator@_W@23@@__Cr@std@@@FormatArgImpl@str_format_internal@absl@@CA_NTData@012@PEAHU?$integral_constant@_N$0A@@__Cr@std@@2@Z
    ??$ToInt@V?$basic_string_view@DU?$char_traits@D@__Cr@std@@@__Cr@std@@@FormatArgImpl@str_format_internal@absl@@CA_NTData@012@PEAHU?$integral_constant@_N$0A@@__Cr@std@@2@Z
    ??$ToInt@V?$basic_string_view@_WU?$char_traits@_W@__Cr@std@@@__Cr@std@@@FormatArgImpl@str_format_internal@absl@@CA_NTData@012@PEAHU?$integral_constant@_N$0A@@__Cr@std@@2@Z
    ??$ToInt@VFormatArgImpl@str_format_internal@absl@@@FormatArgImplFriend@str_format_internal@absl@@SA_NVFormatArgImpl@12@PEAH@Z
    ??$ToInt@Vint128@absl@@@FormatArgImpl@str_format_internal@absl@@CA_NTData@012@PEAHU?$integral_constant@_N$0A@@__Cr@std@@2@Z
    ??$ToInt@Vuint128@absl@@@FormatArgImpl@str_format_internal@absl@@CA_NTData@012@PEAHU?$integral_constant@_N$0A@@__Cr@std@@2@Z
    ??$ToInt@_J@FormatArgImpl@str_format_internal@absl@@CA_NTData@012@PEAHU?$integral_constant@_N$00@__Cr@std@@U?$integral_constant@_N$0A@@56@@Z
    ??$ToInt@_K@FormatArgImpl@str_format_internal@absl@@CA_NTData@012@PEAHU?$integral_constant@_N$00@__Cr@std@@U?$integral_constant@_N$0A@@56@@Z
    ??$ToInt@_N@FormatArgImpl@str_format_internal@absl@@CA_NTData@012@PEAHU?$integral_constant@_N$00@__Cr@std@@U?$integral_constant@_N$0A@@56@@Z
    ??$ToIntVal@C@FormatArgImpl@str_format_internal@absl@@CAHAEBC@Z
    ??$ToIntVal@D@FormatArgImpl@str_format_internal@absl@@CAHAEBD@Z
    ??$ToIntVal@E@FormatArgImpl@str_format_internal@absl@@CAHAEBE@Z
    ??$ToIntVal@F@FormatArgImpl@str_format_internal@absl@@CAHAEBF@Z
    ??$ToIntVal@G@FormatArgImpl@str_format_internal@absl@@CAHAEBG@Z
    ??$ToIntVal@H@FormatArgImpl@str_format_internal@absl@@CAHAEBH@Z
    ??$ToIntVal@I@FormatArgImpl@str_format_internal@absl@@CAHAEBI@Z
    ??$ToIntVal@J@FormatArgImpl@str_format_internal@absl@@CAHAEBJ@Z
    ??$ToIntVal@K@FormatArgImpl@str_format_internal@absl@@CAHAEBK@Z
    ??$ToIntVal@_J@FormatArgImpl@str_format_internal@absl@@CAHAEB_J@Z
    ??$ToIntVal@_K@FormatArgImpl@str_format_internal@absl@@CAHAEB_K@Z
    ??$ToIntVal@_N@FormatArgImpl@str_format_internal@absl@@CAHAEB_N@Z
    ??$TrailingZeros@_K@container_internal@absl@@YAI_K@Z
    ??$TransferNRelocatable@$0BI@@container_internal@absl@@YAXPEAX00_K@Z
    ??$TryFindNewIndexWithoutProbing@X@container_internal@absl@@YA_K_K00PEAW4ctrl_t@01@0@Z
    ??$TypeErasedApplyToSlotFn@UStringHash@container_internal@absl@@V?$basic_string_view@DU?$char_traits@D@__Cr@std@@@__Cr@std@@@container_internal@absl@@YA_KPEBXPEAX@Z
    ??$UnhidePtr@X@base_internal@absl@@YAPEAX_K@Z
    ??$Unparse@V?$vector@V?$basic_string@DU?$char_traits@D@__Cr@std@@V?$allocator@D@23@@__Cr@std@@V?$allocator@V?$basic_string@DU?$char_traits@D@__Cr@std@@V?$allocator@D@23@@__Cr@std@@@23@@__Cr@std@@@flags_internal@absl@@YA?AV?$basic_string@DU?$char_traits@D@__Cr@std@@V?$allocator@D@23@@__Cr@std@@AEBV?$vector@V?$basic_string@DU?$char_traits@D@__Cr@std@@V?$allocator@D@23@@__Cr@std@@V?$allocator@V?$basic_string@DU?$char_traits@D@__Cr@std@@V?$allocator@D@23@@__Cr@std@@@23@@34@@Z
    ??$UnparseFlag@H@absl@@YA?AV?$basic_string@DU?$char_traits@D@__Cr@std@@V?$allocator@D@23@@__Cr@std@@AEBH@Z
    ??$UnparseFlag@V?$vector@V?$basic_string@DU?$char_traits@D@__Cr@std@@V?$allocator@D@23@@__Cr@std@@V?$allocator@V?$basic_string@DU?$char_traits@D@__Cr@std@@V?$allocator@D@23@@__Cr@std@@@23@@__Cr@std@@@absl@@YA?AV?$basic_string@DU?$char_traits@D@__Cr@std@@V?$allocator@D@23@@__Cr@std@@AEBV?$vector@V?$basic_string@DU?$char_traits@D@__Cr@std@@V?$allocator@D@23@@__Cr@std@@V?$allocator@V?$basic_string@DU?$char_traits@D@__Cr@std@@V?$allocator@D@23@@__Cr@std@@@23@@23@@Z
    ??$UnparseFloatingPointVal@M@flags_internal@absl@@YA?AV?$basic_string@DU?$char_traits@D@__Cr@std@@V?$allocator@D@23@@__Cr@std@@M@Z
    ??$UnparseFloatingPointVal@N@flags_internal@absl@@YA?AV?$basic_string@DU?$char_traits@D@__Cr@std@@V?$allocator@D@23@@__Cr@std@@N@Z
    ??$__add_alignment_assumption@PEAPEAVCommandLineFlag@absl@@$0A@@?$vector@PEAVCommandLineFlag@absl@@V?$allocator@PEAVCommandLineFlag@absl@@@__Cr@std@@@__Cr@std@@CAPEAPEAVCommandLineFlag@absl@@PEAPEAV34@@Z
    ??$__add_alignment_assumption@PEAPEAVCordzHandle@cord_internal@absl@@$0A@@?$vector@PEAVCordzHandle@cord_internal@absl@@V?$allocator@PEAVCordzHandle@cord_internal@absl@@@__Cr@std@@@__Cr@std@@CAPEAPEAVCordzHandle@cord_internal@absl@@PEAPEAV345@@Z
    ??$__add_alignment_assumption@PEAPEAVLogSink@absl@@$0A@@?$vector@PEAVLogSink@absl@@V?$allocator@PEAVLogSink@absl@@@__Cr@std@@@__Cr@std@@CAPEAPEAVLogSink@absl@@PEAPEAV34@@Z
    ??$__add_alignment_assumption@PEAPEBVCommandLineFlag@absl@@$0A@@?$vector@PEBVCommandLineFlag@absl@@V?$allocator@PEBVCommandLineFlag@absl@@@__Cr@std@@@__Cr@std@@CAPEAPEBVCommandLineFlag@absl@@PEAPEBV34@@Z
    ??$__add_alignment_assumption@PEAUConversionItem@ParsedFormatBase@str_format_internal@absl@@$0A@@?$vector@UConversionItem@ParsedFormatBase@str_format_internal@absl@@V?$allocator@UConversionItem@ParsedFormatBase@str_format_internal@absl@@@__Cr@std@@@__Cr@std@@CAPEAUConversionItem@ParsedFormatBase@str_format_internal@absl@@PEAU3456@@Z
    ??$__add_alignment_assumption@PEAUTransition@cctz@time_internal@absl@@$0A@@?$vector@UTransition@cctz@time_internal@absl@@V?$allocator@UTransition@cctz@time_internal@absl@@@__Cr@std@@@__Cr@std@@CAPEAUTransition@cctz@time_internal@absl@@PEAU3456@@Z
    ??$__add_alignment_assumption@PEAUTransitionType@cctz@time_internal@absl@@$0A@@?$vector@UTransitionType@cctz@time_internal@absl@@V?$allocator@UTransitionType@cctz@time_internal@absl@@@__Cr@std@@@__Cr@std@@CAPEAUTransitionType@cctz@time_internal@absl@@PEAU3456@@Z
    ??$__add_alignment_assumption@PEAUUnrecognizedFlag@absl@@$0A@@?$vector@UUnrecognizedFlag@absl@@V?$allocator@UUnrecognizedFlag@absl@@@__Cr@std@@@__Cr@std@@CAPEAUUnrecognizedFlag@absl@@PEAU34@@Z
    ??$__add_alignment_assumption@PEAV?$unique_ptr@VFlagStateInterface@flags_internal@absl@@U?$default_delete@VFlagStateInterface@flags_internal@absl@@@__Cr@std@@@__Cr@std@@$0A@@?$vector@V?$unique_ptr@VFlagStateInterface@flags_internal@absl@@U?$default_delete@VFlagStateInterface@flags_internal@absl@@@__Cr@std@@@__Cr@std@@V?$allocator@V?$unique_ptr@VFlagStateInterface@flags_internal@absl@@U?$default_delete@VFlagStateInterface@flags_internal@absl@@@__Cr@std@@@__Cr@std@@@23@@__Cr@std@@CAPEAV?$unique_ptr@VFlagStateInterface@flags_internal@absl@@U?$default_delete@VFlagStateInterface@flags_internal@absl@@@__Cr@std@@@12@PEAV312@@Z
    ??$__advance@PEBUTransition@cctz@time_internal@absl@@@__Cr@std@@YAXAEAPEBUTransition@cctz@time_internal@absl@@_JUrandom_access_iterator_tag@01@@Z
    ??$__advance@V?$__wrap_iter@PEAPEAVCommandLineFlag@absl@@@__Cr@std@@@__Cr@std@@YAXAEAV?$__wrap_iter@PEAPEAVCommandLineFlag@absl@@@01@_JUrandom_access_iterator_tag@01@@Z
    ??$__advance@V?$__wrap_iter@PEAPEBVCommandLineFlag@absl@@@__Cr@std@@@__Cr@std@@YAXAEAV?$__wrap_iter@PEAPEBVCommandLineFlag@absl@@@01@_JUrandom_access_iterator_tag@01@@Z
    ??$__advance@V?$__wrap_iter@PEAUraw_view@?1???R?$ConvertToContainer@V?$vector@V?$basic_string_view@DU?$char_traits@D@__Cr@std@@@__Cr@std@@V?$allocator@V?$basic_string_view@DU?$char_traits@D@__Cr@std@@@__Cr@std@@@23@@__Cr@std@@V?$basic_string_view@DU?$char_traits@D@__Cr@std@@@23@$0A@@?$Splitter@VByChar@absl@@UAllowEmpty@2@V?$basic_string_view@DU?$char_traits@D@__Cr@std@@@__Cr@std@@@strings_internal@absl@@QEBA?AV?$vector@V?$basic_string_view@DU?$char_traits@D@__Cr@std@@@__Cr@std@@V?$allocator@V?$basic_string_view@DU?$char_traits@D@__Cr@std@@@__Cr@std@@@23@@__Cr@std@@AEBV345@@Z@@__Cr@std@@@__Cr@std@@YAXAEAV?$__wrap_iter@PEAUraw_view@?1???R?$ConvertToContainer@V?$vector@V?$basic_string_view@DU?$char_traits@D@__Cr@std@@@__Cr@std@@V?$allocator@V?$basic_string_view@DU?$char_traits@D@__Cr@std@@@__Cr@std@@@23@@__Cr@std@@V?$basic_string_view@DU?$char_traits@D@__Cr@std@@@23@$0A@@?$Splitter@VByChar@absl@@UAllowEmpty@2@V?$basic_string_view@DU?$char_traits@D@__Cr@std@@@__Cr@std@@@strings_internal@absl@@QEBA?AV?$vector@V?$basic_string_view@DU?$char_traits@D@__Cr@std@@@__Cr@std@@V?$allocator@V?$basic_string_view@DU?$char_traits@D@__Cr@std@@@__Cr@std@@@23@@__Cr@std@@AEBV345@@Z@@01@_JUrandom_access_iterator_tag@01@@Z
    ??$__allocate_at_least@V?$allocator@PEAPEBVImpl@time_zone@cctz@time_internal@absl@@@__Cr@std@@@__Cr@std@@YA?AU?$__allocation_result@PEAPEAPEBVImpl@time_zone@cctz@time_internal@absl@@@01@AEAV?$allocator@PEAPEBVImpl@time_zone@cctz@time_internal@absl@@@01@_K@Z
    ??$__allocate_at_least@V?$allocator@PEAUPrefixCrc@CrcCordState@crc_internal@absl@@@__Cr@std@@@__Cr@std@@YA?AU?$__allocation_result@PEAPEAUPrefixCrc@CrcCordState@crc_internal@absl@@@01@AEAV?$allocator@PEAUPrefixCrc@CrcCordState@crc_internal@absl@@@01@_K@Z
    ??$__allocate_at_least@V?$allocator@PEAVCommandLineFlag@absl@@@__Cr@std@@@__Cr@std@@YA?AU?$__allocation_result@PEAPEAVCommandLineFlag@absl@@@01@AEAV?$allocator@PEAVCommandLineFlag@absl@@@01@_K@Z
    ??$__allocate_at_least@V?$allocator@PEAVCordzHandle@cord_internal@absl@@@__Cr@std@@@__Cr@std@@YA?AU?$__allocation_result@PEAPEAVCordzHandle@cord_internal@absl@@@01@AEAV?$allocator@PEAVCordzHandle@cord_internal@absl@@@01@_K@Z
    ??$__allocate_at_least@V?$allocator@PEAVLogSink@absl@@@__Cr@std@@@__Cr@std@@YA?AU?$__allocation_result@PEAPEAVLogSink@absl@@@01@AEAV?$allocator@PEAVLogSink@absl@@@01@_K@Z
    ??$__allocate_at_least@V?$allocator@PEBVCommandLineFlag@absl@@@__Cr@std@@@__Cr@std@@YA?AU?$__allocation_result@PEAPEBVCommandLineFlag@absl@@@01@AEAV?$allocator@PEBVCommandLineFlag@absl@@@01@_K@Z
    ??$__allocate_at_least@V?$allocator@PEBVCordzHandle@cord_internal@absl@@@__Cr@std@@@__Cr@std@@YA?AU?$__allocation_result@PEAPEBVCordzHandle@cord_internal@absl@@@01@AEAV?$allocator@PEBVCordzHandle@cord_internal@absl@@@01@_K@Z
    ??$__allocate_at_least@V?$allocator@UConversionItem@ParsedFormatBase@str_format_internal@absl@@@__Cr@std@@@__Cr@std@@YA?AU?$__allocation_result@PEAUConversionItem@ParsedFormatBase@str_format_internal@absl@@@01@AEAV?$allocator@UConversionItem@ParsedFormatBase@str_format_internal@absl@@@01@_K@Z
    ??$__allocate_at_least@V?$allocator@UTransition@cctz@time_internal@absl@@@__Cr@std@@@__Cr@std@@YA?AU?$__allocation_result@PEAUTransition@cctz@time_internal@absl@@@01@AEAV?$allocator@UTransition@cctz@time_internal@absl@@@01@_K@Z
    ??$__allocate_at_least@V?$allocator@UTransitionType@cctz@time_internal@absl@@@__Cr@std@@@__Cr@std@@YA?AU?$__allocation_result@PEAUTransitionType@cctz@time_internal@absl@@@01@AEAV?$allocator@UTransitionType@cctz@time_internal@absl@@@01@_K@Z
    ??$__allocate_at_least@V?$allocator@UUnrecognizedFlag@absl@@@__Cr@std@@@__Cr@std@@YA?AU?$__allocation_result@PEAUUnrecognizedFlag@absl@@@01@AEAV?$allocator@UUnrecognizedFlag@absl@@@01@_K@Z
    ??$__allocate_at_least@V?$allocator@UViableSubstitution@strings_internal@absl@@@__Cr@std@@@__Cr@std@@YA?AU?$__allocation_result@PEAUViableSubstitution@strings_internal@absl@@@01@AEAV?$allocator@UViableSubstitution@strings_internal@absl@@@01@_K@Z
    ??$__allocate_at_least@V?$allocator@V?$unique_ptr@VFlagStateInterface@flags_internal@absl@@U?$default_delete@VFlagStateInterface@flags_internal@absl@@@__Cr@std@@@__Cr@std@@@__Cr@std@@@__Cr@std@@YA?AU?$__allocation_result@PEAV?$unique_ptr@VFlagStateInterface@flags_internal@absl@@U?$default_delete@VFlagStateInterface@flags_internal@absl@@@__Cr@std@@@__Cr@std@@@01@AEAV?$allocator@V?$unique_ptr@VFlagStateInterface@flags_internal@absl@@U?$default_delete@VFlagStateInterface@flags_internal@absl@@@__Cr@std@@@__Cr@std@@@01@_K@Z
    ??$__allocator_destroy@V?$allocator@UUnrecognizedFlag@absl@@@__Cr@std@@PEAUUnrecognizedFlag@absl@@PEAU45@@__Cr@std@@YAXAEAV?$allocator@UUnrecognizedFlag@absl@@@01@PEAUUnrecognizedFlag@absl@@1@Z
    ??$__annotate_double_ended_contiguous_container@V?$allocator@UPrefixCrc@CrcCordState@crc_internal@absl@@@__Cr@std@@@__Cr@std@@YAXPEBX00000@Z
    ??$__append_with_size@V?$__deque_iterator@UPrefixCrc@CrcCordState@crc_internal@absl@@PEBU1234@AEBU1234@PEBQEBU1234@_J$0A@@__Cr@std@@@?$deque@UPrefixCrc@CrcCordState@crc_internal@absl@@V?$allocator@UPrefixCrc@CrcCordState@crc_internal@absl@@@__Cr@std@@@__Cr@std@@AEAAXV?$__deque_iterator@UPrefixCrc@CrcCordState@crc_internal@absl@@PEBU1234@AEBU1234@PEBQEBU1234@_J$0A@@12@_K@Z
    ??$__as_variant@V?$variant@_K_JIH_N@__Cr@std@@V?$variant@_K_JN@23@V?$Span@$$CBD@absl@@V?$variant@IHM@23@@__Cr@std@@YAAEAV?$variant@V?$variant@_K_JIH_N@__Cr@std@@V?$variant@_K_JN@23@V?$Span@$$CBD@absl@@V?$variant@IHM@23@@01@AEAV201@@Z
    ??$__assign_with_size_random_access@V?$__deque_iterator@UPrefixCrc@CrcCordState@crc_internal@absl@@PEBU1234@AEBU1234@PEBQEBU1234@_J$0A@@__Cr@std@@@?$deque@UPrefixCrc@CrcCordState@crc_internal@absl@@V?$allocator@UPrefixCrc@CrcCordState@crc_internal@absl@@@__Cr@std@@@__Cr@std@@AEAAXV?$__deque_iterator@UPrefixCrc@CrcCordState@crc_internal@absl@@PEBU1234@AEBU1234@PEBQEBU1234@_J$0A@@12@_J@Z
    ??$__at@P6A_K$$QEAU?$__value_visitor@UBufferSizeVisitor@?1??BufferSizeForStructuredProtoField@log_internal@absl@@YA_KUStructuredProtoField@34@@Z@@__variant@__visitation@__variant_detail@__Cr@std@@AEAV?$__base@$0A@V?$variant@_K_JIH_N@__Cr@std@@V?$variant@_K_JN@23@V?$Span@$$CBD@absl@@V?$variant@IHM@23@@456@@Z$03$$V@__base@__visitation@__variant_detail@__Cr@std@@CA$$QEA_PAEBU?$__farray@P6A_K$$QEAU?$__value_visitor@UBufferSizeVisitor@?1??BufferSizeForStructuredProtoField@log_internal@absl@@YA_KUStructuredProtoField@34@@Z@@__variant@__visitation@__variant_detail@__Cr@std@@AEAV?$__base@$0A@V?$variant@_K_JIH_N@__Cr@std@@V?$variant@_K_JN@23@V?$Span@$$CBD@absl@@V?$variant@IHM@23@@456@@Z$03@34@_K@Z
    ??$__at@P6A_K$$QEAU?$__value_visitor@UBufferSizeVisitor@?1??BufferSizeForStructuredProtoField@log_internal@absl@@YA_KUStructuredProtoField@34@@Z@@__variant@__visitation@__variant_detail@__Cr@std@@AEAV?$__base@$0A@V?$variant@_K_JIH_N@__Cr@std@@V?$variant@_K_JN@23@V?$Span@$$CBD@absl@@V?$variant@IHM@23@@456@@Z@__base@__visitation@__variant_detail@__Cr@std@@CAAEBQ6A_K$$QEAU?$__value_visitor@UBufferSizeVisitor@?1??BufferSizeForStructuredProtoField@log_internal@absl@@YA_KUStructuredProtoField@34@@Z@@__variant@1234@AEAV?$__base@$0A@V?$variant@_K_JIH_N@__Cr@std@@V?$variant@_K_JN@23@V?$Span@$$CBD@absl@@V?$variant@IHM@23@@234@@ZAEBQ6A_K01@Z@Z
    ??$__call@AEAV<lambda_1>@?0??SaveFromRegistry@FlagSaverImpl@flags_internal@absl@@QEAAXXZ@AEAVCommandLineFlag@5@@?$__invoke_void_return_wrapper@X$00@__Cr@std@@SAXAEAV<lambda_1>@?0??SaveFromRegistry@FlagSaverImpl@flags_internal@absl@@QEAAXXZ@AEAVCommandLineFlag@7@@Z
    ??$__call_impl@V?$__default_alloc_func@V<lambda_1>@?0??SaveFromRegistry@FlagSaverImpl@flags_internal@absl@@QEAAXXZ@$$A6AXAEAVCommandLineFlag@5@@Z@__function@__Cr@std@@@?$__policy_invoker@$$A6AXAEAVCommandLineFlag@absl@@@Z@__function@__Cr@std@@CAXPEBT__policy_storage@123@AEAVCommandLineFlag@absl@@@Z
    ??$__choose_policy@V?$__default_alloc_func@V<lambda_1>@?0??SaveFromRegistry@FlagSaverImpl@flags_internal@absl@@QEAAXXZ@$$A6AXAEAVCommandLineFlag@5@@Z@__function@__Cr@std@@@__policy@__function@__Cr@std@@CAPEBU0123@U?$integral_constant@_N$00@23@@Z
    ??$__constexpr_memmove@PEAPEBVImpl@time_zone@cctz@time_internal@absl@@PEAPEBV12345@@__Cr@std@@YAPEAPEAPEBVImpl@time_zone@cctz@time_internal@absl@@PEAPEAPEBV23456@0W4__element_count@01@@Z
    ??$__constexpr_memmove@PEAUPrefixCrc@CrcCordState@crc_internal@absl@@PEAU1234@@__Cr@std@@YAPEAPEAUPrefixCrc@CrcCordState@crc_internal@absl@@PEAPEAU2345@0W4__element_count@01@@Z
    ??$__constexpr_memmove@PEAVLogSink@absl@@PEAV12@@__Cr@std@@YAPEAPEAVLogSink@absl@@PEAPEAV23@0W4__element_count@01@@Z
    ??$__constexpr_memmove@UPrefixCrc@CrcCordState@crc_internal@absl@@$$CBU1234@@__Cr@std@@YAPEAUPrefixCrc@CrcCordState@crc_internal@absl@@PEAU2345@PEBU2345@W4__element_count@01@@Z
    ??$__constexpr_memmove@UTransition@cctz@time_internal@absl@@U1234@@__Cr@std@@YAPEAUTransition@cctz@time_internal@absl@@PEAU2345@0W4__element_count@01@@Z
    ??$__constexpr_memmove@UTransitionType@cctz@time_internal@absl@@U1234@@__Cr@std@@YAPEAUTransitionType@cctz@time_internal@absl@@PEAU2345@0W4__element_count@01@@Z
    ??$__construct_at@PEAPEBVImpl@time_zone@cctz@time_internal@absl@@AEAPEAPEBV12345@PEAPEAPEBV12345@@__Cr@std@@YAPEAPEAPEBVImpl@time_zone@cctz@time_internal@absl@@PEAPEAPEBV23456@AEAPEAPEBV23456@@Z
    ??$__construct_at@PEAPEBVImpl@time_zone@cctz@time_internal@absl@@PEAPEBV12345@PEAPEAPEBV12345@@__Cr@std@@YAPEAPEAPEBVImpl@time_zone@cctz@time_internal@absl@@PEAPEAPEBV23456@$$QEAPEAPEBV23456@@Z
    ??$__construct_at@PEAUCordRep@cord_internal@absl@@AEBQEAU123@PEAPEAU123@@__Cr@std@@YAPEAPEAUCordRep@cord_internal@absl@@PEAPEAU234@AEBQEAU234@@Z
    ??$__construct_at@PEAUCordRep@cord_internal@absl@@PEAU123@PEAPEAU123@@__Cr@std@@YAPEAPEAUCordRep@cord_internal@absl@@PEAPEAU234@$$QEAPEAU234@@Z
    ??$__construct_at@PEAUPrefixCrc@CrcCordState@crc_internal@absl@@AEAPEAU1234@PEAPEAU1234@@__Cr@std@@YAPEAPEAUPrefixCrc@CrcCordState@crc_internal@absl@@PEAPEAU2345@AEAPEAU2345@@Z
    ??$__construct_at@PEAUPrefixCrc@CrcCordState@crc_internal@absl@@PEAU1234@PEAPEAU1234@@__Cr@std@@YAPEAPEAUPrefixCrc@CrcCordState@crc_internal@absl@@PEAPEAU2345@$$QEAPEAU2345@@Z
    ??$__construct_at@PEAVCommandLineFlag@absl@@AEBQEAV12@PEAPEAV12@@__Cr@std@@YAPEAPEAVCommandLineFlag@absl@@PEAPEAV23@AEBQEAV23@@Z
    ??$__construct_at@PEAVCordzHandle@cord_internal@absl@@AEBQEAV123@PEAPEAV123@@__Cr@std@@YAPEAPEAVCordzHandle@cord_internal@absl@@PEAPEAV234@AEBQEAV234@@Z
    ??$__construct_at@PEAVLogSink@absl@@AEBQEAV12@PEAPEAV12@@__Cr@std@@YAPEAPEAVLogSink@absl@@PEAPEAV23@AEBQEAV23@@Z
    ??$__construct_at@PEAVLogSink@absl@@PEAV12@PEAPEAV12@@__Cr@std@@YAPEAPEAVLogSink@absl@@PEAPEAV23@$$QEAPEAV23@@Z
    ??$__construct_at@PEBUCordRep@cord_internal@absl@@AEBQEBU123@PEAPEBU123@@__Cr@std@@YAPEAPEBUCordRep@cord_internal@absl@@PEAPEBU234@AEBQEBU234@@Z
    ??$__construct_at@PEBVCommandLineFlag@absl@@AEBQEBV12@PEAPEBV12@@__Cr@std@@YAPEAPEBVCommandLineFlag@absl@@PEAPEBV23@AEBQEBV23@@Z
    ??$__construct_at@PEBVCommandLineFlag@absl@@PEBV12@PEAPEBV12@@__Cr@std@@YAPEAPEBVCommandLineFlag@absl@@PEAPEBV23@$$QEAPEBV23@@Z
    ??$__construct_at@PEBVCordzHandle@cord_internal@absl@@AEBQEBV123@PEAPEBV123@@__Cr@std@@YAPEAPEBVCordzHandle@cord_internal@absl@@PEAPEBV234@AEBQEBV234@@Z
    ??$__construct_at@PEBVImpl@time_zone@cctz@time_internal@absl@@AEBQEBV12345@PEAPEBV12345@@__Cr@std@@YAPEAPEBVImpl@time_zone@cctz@time_internal@absl@@PEAPEBV23456@AEBQEBV23456@@Z
    ??$__construct_at@U?$__hash_node@PEBUCordRep@cord_internal@absl@@PEAX@__Cr@std@@$$TAEA_KPEAU123@@__Cr@std@@YAPEAU?$__hash_node@PEBUCordRep@cord_internal@absl@@PEAX@01@PEAU201@$$QEA$$TAEA_K@Z
    ??$__construct_at@U?$__hash_node@U?$__hash_value_type@V?$basic_string@DU?$char_traits@D@__Cr@std@@V?$allocator@D@23@@__Cr@std@@PEBVImpl@time_zone@cctz@time_internal@absl@@@__Cr@std@@PEAX@__Cr@std@@$$TAEA_KPEAU123@@__Cr@std@@YAPEAU?$__hash_node@U?$__hash_value_type@V?$basic_string@DU?$char_traits@D@__Cr@std@@V?$allocator@D@23@@__Cr@std@@PEBVImpl@time_zone@cctz@time_internal@absl@@@__Cr@std@@PEAX@01@PEAU201@$$QEA$$TAEA_K@Z
    ??$__construct_at@U?$pair@$$CBV?$basic_string@DU?$char_traits@D@__Cr@std@@V?$allocator@D@23@@__Cr@std@@PEBVImpl@time_zone@cctz@time_internal@absl@@@__Cr@std@@AEBUpiecewise_construct_t@23@V?$tuple@AEBV?$basic_string@DU?$char_traits@D@__Cr@std@@V?$allocator@D@23@@__Cr@std@@@23@V?$tuple@$$V@23@PEAU123@@__Cr@std@@YAPEAU?$pair@$$CBV?$basic_string@DU?$char_traits@D@__Cr@std@@V?$allocator@D@23@@__Cr@std@@PEBVImpl@time_zone@cctz@time_internal@absl@@@01@PEAU201@AEBUpiecewise_construct_t@01@$$QEAV?$tuple@AEBV?$basic_string@DU?$char_traits@D@__Cr@std@@V?$allocator@D@23@@__Cr@std@@@01@$$QEAV?$tuple@$$V@01@@Z
    ??$__construct_at@U?$pair@$$CBV?$basic_string@DU?$char_traits@D@__Cr@std@@V?$allocator@D@23@@__Cr@std@@V?$map@V?$basic_string@DU?$char_traits@D@__Cr@std@@V?$allocator@D@23@@__Cr@std@@V?$vector@PEBVCommandLineFlag@absl@@V?$allocator@PEBVCommandLineFlag@absl@@@__Cr@std@@@23@U?$less@V?$basic_string@DU?$char_traits@D@__Cr@std@@V?$allocator@D@23@@__Cr@std@@@23@V?$allocator@U?$pair@$$CBV?$basic_string@DU?$char_traits@D@__Cr@std@@V?$allocator@D@23@@__Cr@std@@V?$vector@PEBVCommandLineFlag@absl@@V?$allocator@PEBVCommandLineFlag@absl@@@__Cr@std@@@23@@__Cr@std@@@23@@23@@__Cr@std@@AEBUpiecewise_construct_t@23@V?$tuple@$$QEAV?$basic_string@DU?$char_traits@D@__Cr@std@@V?$allocator@D@23@@__Cr@std@@@23@V?$tuple@$$V@23@PEAU123@@__Cr@std@@YAPEAU?$pair@$$CBV?$basic_string@DU?$char_traits@D@__Cr@std@@V?$allocator@D@23@@__Cr@std@@V?$map@V?$basic_string@DU?$char_traits@D@__Cr@std@@V?$allocator@D@23@@__Cr@std@@V?$vector@PEBVCommandLineFlag@absl@@V?$allocator@PEBVCommandLineFlag@absl@@@__Cr@std@@@23@U?$less@V?$basic_string@DU?$char_traits@D@__Cr@std@@V?$allocator@D@23@@__Cr@std@@@23@V?$allocator@U?$pair@$$CBV?$basic_string@DU?$char_traits@D@__Cr@std@@V?$allocator@D@23@@__Cr@std@@V?$vector@PEBVCommandLineFlag@absl@@V?$allocator@PEBVCommandLineFlag@absl@@@__Cr@std@@@23@@__Cr@std@@@23@@23@@01@PEAU201@AEBUpiecewise_construct_t@01@$$QEAV?$tuple@$$QEAV?$basic_string@DU?$char_traits@D@__Cr@std@@V?$allocator@D@23@@__Cr@std@@@01@$$QEAV?$tuple@$$V@01@@Z
    ??$__construct_at@U?$pair@$$CBV?$basic_string@DU?$char_traits@D@__Cr@std@@V?$allocator@D@23@@__Cr@std@@V?$vector@PEBVCommandLineFlag@absl@@V?$allocator@PEBVCommandLineFlag@absl@@@__Cr@std@@@23@@__Cr@std@@AEBUpiecewise_construct_t@23@V?$tuple@AEBV?$basic_string@DU?$char_traits@D@__Cr@std@@V?$allocator@D@23@@__Cr@std@@@23@V?$tuple@$$V@23@PEAU123@@__Cr@std@@YAPEAU?$pair@$$CBV?$basic_string@DU?$char_traits@D@__Cr@std@@V?$allocator@D@23@@__Cr@std@@V?$vector@PEBVCommandLineFlag@absl@@V?$allocator@PEBVCommandLineFlag@absl@@@__Cr@std@@@23@@01@PEAU201@AEBUpiecewise_construct_t@01@$$QEAV?$tuple@AEBV?$basic_string@DU?$char_traits@D@__Cr@std@@V?$allocator@D@23@@__Cr@std@@@01@$$QEAV?$tuple@$$V@01@@Z
    ??$__construct_at@U?$pair@V?$basic_string_view@DU?$char_traits@D@__Cr@std@@@__Cr@std@@PEAVCommandLineFlag@absl@@@__Cr@std@@AEBUpiecewise_construct_t@23@V?$tuple@$$QEAV?$basic_string_view@DU?$char_traits@D@__Cr@std@@@__Cr@std@@@23@V?$tuple@$$QEAPEAVCommandLineFlag@absl@@@23@PEAU123@@__Cr@std@@YAPEAU?$pair@V?$basic_string_view@DU?$char_traits@D@__Cr@std@@@__Cr@std@@PEAVCommandLineFlag@absl@@@01@PEAU201@AEBUpiecewise_construct_t@01@$$QEAV?$tuple@$$QEAV?$basic_string_view@DU?$char_traits@D@__Cr@std@@@__Cr@std@@@01@$$QEAV?$tuple@$$QEAPEAVCommandLineFlag@absl@@@01@@Z
    ??$__construct_at@U?$pair@V?$basic_string_view@DU?$char_traits@D@__Cr@std@@@__Cr@std@@PEAVCommandLineFlag@absl@@@__Cr@std@@AEBUpiecewise_construct_t@23@V?$tuple@$$QEBV?$basic_string_view@DU?$char_traits@D@__Cr@std@@@__Cr@std@@@23@V?$tuple@$$QEAPEAVCommandLineFlag@absl@@@23@PEAU123@@__Cr@std@@YAPEAU?$pair@V?$basic_string_view@DU?$char_traits@D@__Cr@std@@@__Cr@std@@PEAVCommandLineFlag@absl@@@01@PEAU201@AEBUpiecewise_construct_t@01@$$QEAV?$tuple@$$QEBV?$basic_string_view@DU?$char_traits@D@__Cr@std@@@__Cr@std@@@01@$$QEAV?$tuple@$$QEAPEAVCommandLineFlag@absl@@@01@@Z
    ??$__construct_at@UConversionItem@ParsedFormatBase@str_format_internal@absl@@U1234@PEAU1234@@__Cr@std@@YAPEAUConversionItem@ParsedFormatBase@str_format_internal@absl@@PEAU2345@$$QEAU2345@@Z
    ??$__construct_at@UPayload@status_internal@absl@@AEBU123@PEAU123@@__Cr@std@@YAPEAUPayload@status_internal@absl@@PEAU234@AEBU234@@Z
    ??$__construct_at@UPayload@status_internal@absl@@U123@PEAU123@@__Cr@std@@YAPEAUPayload@status_internal@absl@@PEAU234@$$QEAU234@@Z
    ??$__construct_at@UPrefixCrc@CrcCordState@crc_internal@absl@@AEBU1234@PEAU1234@@__Cr@std@@YAPEAUPrefixCrc@CrcCordState@crc_internal@absl@@PEAU2345@AEBU2345@@Z
    ??$__construct_at@UPrefixCrc@CrcCordState@crc_internal@absl@@HVcrc32c_t@4@PEAU1234@@__Cr@std@@YAPEAUPrefixCrc@CrcCordState@crc_internal@absl@@PEAU2345@$$QEAH$$QEAVcrc32c_t@5@@Z
    ??$__construct_at@UPrefixCrc@CrcCordState@crc_internal@absl@@U1234@PEAU1234@@__Cr@std@@YAPEAUPrefixCrc@CrcCordState@crc_internal@absl@@PEAU2345@$$QEAU2345@@Z
    ??$__construct_at@UTransition@cctz@time_internal@absl@@$$VPEAU1234@@__Cr@std@@YAPEAUTransition@cctz@time_internal@absl@@PEAU2345@@Z
    ??$__construct_at@UTransition@cctz@time_internal@absl@@AEBU1234@PEAU1234@@__Cr@std@@YAPEAUTransition@cctz@time_internal@absl@@PEAU2345@AEBU2345@@Z
    ??$__construct_at@UTransition@cctz@time_internal@absl@@U1234@PEAU1234@@__Cr@std@@YAPEAUTransition@cctz@time_internal@absl@@PEAU2345@$$QEAU2345@@Z
    ??$__construct_at@UTransitionType@cctz@time_internal@absl@@$$VPEAU1234@@__Cr@std@@YAPEAUTransitionType@cctz@time_internal@absl@@PEAU2345@@Z
    ??$__construct_at@UTransitionType@cctz@time_internal@absl@@U1234@PEAU1234@@__Cr@std@@YAPEAUTransitionType@cctz@time_internal@absl@@PEAU2345@$$QEAU2345@@Z
    ??$__construct_at@UUnrecognizedFlag@absl@@AEBU12@PEAU12@@__Cr@std@@YAPEAUUnrecognizedFlag@absl@@PEAU23@AEBU23@@Z
    ??$__construct_at@UUnrecognizedFlag@absl@@U12@PEAU12@@__Cr@std@@YAPEAUUnrecognizedFlag@absl@@PEAU23@$$QEAU23@@Z
    ??$__construct_at@UUnrecognizedFlag@absl@@W4Source@12@AEAV?$basic_string_view@DU?$char_traits@D@__Cr@std@@@__Cr@std@@PEAU12@@__Cr@std@@YAPEAUUnrecognizedFlag@absl@@PEAU23@$$QEAW4Source@23@AEAV?$basic_string_view@DU?$char_traits@D@__Cr@std@@@01@@Z
    ??$__construct_at@UViableSubstitution@strings_internal@absl@@AEAV?$basic_string_view@DU?$char_traits@D@__Cr@std@@@__Cr@std@@AEBV456@AEA_KPEAU123@@__Cr@std@@YAPEAUViableSubstitution@strings_internal@absl@@PEAU234@AEAV?$basic_string_view@DU?$char_traits@D@__Cr@std@@@01@AEBV501@AEA_K@Z
    ??$__construct_at@V?$basic_string_view@DU?$char_traits@D@__Cr@std@@@__Cr@std@@AEAUraw_view@?1???R?$ConvertToContainer@V?$vector@V?$basic_string_view@DU?$char_traits@D@__Cr@std@@@__Cr@std@@V?$allocator@V?$basic_string_view@DU?$char_traits@D@__Cr@std@@@__Cr@std@@@23@@__Cr@std@@V?$basic_string_view@DU?$char_traits@D@__Cr@std@@@23@$0A@@?$Splitter@VByChar@absl@@UAllowEmpty@2@V?$basic_string_view@DU?$char_traits@D@__Cr@std@@@__Cr@std@@@strings_internal@absl@@QEBA?AV?$vector@V?$basic_string_view@DU?$char_traits@D@__Cr@std@@@__Cr@std@@V?$allocator@V?$basic_string_view@DU?$char_traits@D@__Cr@std@@@__Cr@std@@@23@@23@AEBV678@@Z@PEAV123@@__Cr@std@@YAPEAV?$basic_string_view@DU?$char_traits@D@__Cr@std@@@01@PEAV201@AEAUraw_view@?1???R?$ConvertToContainer@V?$vector@V?$basic_string_view@DU?$char_traits@D@__Cr@std@@@__Cr@std@@V?$allocator@V?$basic_string_view@DU?$char_traits@D@__Cr@std@@@__Cr@std@@@23@@__Cr@std@@V?$basic_string_view@DU?$char_traits@D@__Cr@std@@@23@$0A@@?$Splitter@VByChar@absl@@UAllowEmpty@2@V?$basic_string_view@DU?$char_traits@D@__Cr@std@@@__Cr@std@@@strings_internal@absl@@QEBA?AV?$vector@V?$basic_string_view@DU?$char_traits@D@__Cr@std@@@__Cr@std@@V?$allocator@V?$basic_string_view@DU?$char_traits@D@__Cr@std@@@__Cr@std@@@23@@01@AEBV567@@Z@@Z
    ??$__construct_at@V?$unique_ptr@VFlagStateInterface@flags_internal@absl@@U?$default_delete@VFlagStateInterface@flags_internal@absl@@@__Cr@std@@@__Cr@std@@V123@PEAV123@@__Cr@std@@YAPEAV?$unique_ptr@VFlagStateInterface@flags_internal@absl@@U?$default_delete@VFlagStateInterface@flags_internal@absl@@@__Cr@std@@@01@PEAV201@$$QEAV201@@Z
    ??$__construct_at@VFormatArgImpl@str_format_internal@absl@@AEBV123@PEAV123@@__Cr@std@@YAPEAVFormatArgImpl@str_format_internal@absl@@PEAV234@AEBV234@@Z
    ??$__construct_at_end@V?$__wrap_iter@PEAUraw_view@?1???R?$ConvertToContainer@V?$vector@V?$basic_string_view@DU?$char_traits@D@__Cr@std@@@__Cr@std@@V?$allocator@V?$basic_string_view@DU?$char_traits@D@__Cr@std@@@__Cr@std@@@23@@__Cr@std@@V?$basic_string_view@DU?$char_traits@D@__Cr@std@@@23@$0A@@?$Splitter@VByChar@absl@@UAllowEmpty@2@V?$basic_string_view@DU?$char_traits@D@__Cr@std@@@__Cr@std@@@strings_internal@absl@@QEBA?AV?$vector@V?$basic_string_view@DU?$char_traits@D@__Cr@std@@@__Cr@std@@V?$allocator@V?$basic_string_view@DU?$char_traits@D@__Cr@std@@@__Cr@std@@@23@@__Cr@std@@AEBV345@@Z@@__Cr@std@@V123@@?$vector@V?$basic_string_view@DU?$char_traits@D@__Cr@std@@@__Cr@std@@V?$allocator@V?$basic_string_view@DU?$char_traits@D@__Cr@std@@@__Cr@std@@@23@@__Cr@std@@AEAAXV?$__wrap_iter@PEAUraw_view@?1???R?$ConvertToContainer@V?$vector@V?$basic_string_view@DU?$char_traits@D@__Cr@std@@@__Cr@std@@V?$allocator@V?$basic_string_view@DU?$char_traits@D@__Cr@std@@@__Cr@std@@@23@@__Cr@std@@V?$basic_string_view@DU?$char_traits@D@__Cr@std@@@23@$0A@@?$Splitter@VByChar@absl@@UAllowEmpty@2@V?$basic_string_view@DU?$char_traits@D@__Cr@std@@@__Cr@std@@@strings_internal@absl@@QEBA?AV?$vector@V?$basic_string_view@DU?$char_traits@D@__Cr@std@@@__Cr@std@@V?$allocator@V?$basic_string_view@DU?$char_traits@D@__Cr@std@@@__Cr@std@@@23@@__Cr@std@@AEBV345@@Z@@12@0_K@Z
    ??$__construct_at_end@V?$move_iterator@PEAPEAPEBVImpl@time_zone@cctz@time_internal@absl@@@__Cr@std@@$0A@@?$__split_buffer@PEAPEBVImpl@time_zone@cctz@time_internal@absl@@AEAV?$allocator@PEAPEBVImpl@time_zone@cctz@time_internal@absl@@@__Cr@std@@@__Cr@std@@QEAAXV?$move_iterator@PEAPEAPEBVImpl@time_zone@cctz@time_internal@absl@@@12@0@Z
    ??$__construct_at_end@V?$move_iterator@PEAPEAUPrefixCrc@CrcCordState@crc_internal@absl@@@__Cr@std@@$0A@@?$__split_buffer@PEAUPrefixCrc@CrcCordState@crc_internal@absl@@AEAV?$allocator@PEAUPrefixCrc@CrcCordState@crc_internal@absl@@@__Cr@std@@@__Cr@std@@QEAAXV?$move_iterator@PEAPEAUPrefixCrc@CrcCordState@crc_internal@absl@@@12@0@Z
    ??$__construct_at_end@V?$move_iterator@PEAUTransition@cctz@time_internal@absl@@@__Cr@std@@$0A@@?$__split_buffer@UTransition@cctz@time_internal@absl@@AEAV?$allocator@UTransition@cctz@time_internal@absl@@@__Cr@std@@@__Cr@std@@QEAAXV?$move_iterator@PEAUTransition@cctz@time_internal@absl@@@12@0@Z
    ??$__construct_at_end@V?$move_iterator@PEAUTransitionType@cctz@time_internal@absl@@@__Cr@std@@$0A@@?$__split_buffer@UTransitionType@cctz@time_internal@absl@@AEAV?$allocator@UTransitionType@cctz@time_internal@absl@@@__Cr@std@@@__Cr@std@@QEAAXV?$move_iterator@PEAUTransitionType@cctz@time_internal@absl@@@12@0@Z
    ??$__construct_at_end_with_size@V?$__wrap_iter@PEAUraw_view@?1???R?$ConvertToContainer@V?$vector@V?$basic_string_view@DU?$char_traits@D@__Cr@std@@@__Cr@std@@V?$allocator@V?$basic_string_view@DU?$char_traits@D@__Cr@std@@@__Cr@std@@@23@@__Cr@std@@V?$basic_string_view@DU?$char_traits@D@__Cr@std@@@23@$0A@@?$Splitter@VByChar@absl@@UAllowEmpty@2@V?$basic_string_view@DU?$char_traits@D@__Cr@std@@@__Cr@std@@@strings_internal@absl@@QEBA?AV?$vector@V?$basic_string_view@DU?$char_traits@D@__Cr@std@@@__Cr@std@@V?$allocator@V?$basic_string_view@DU?$char_traits@D@__Cr@std@@@__Cr@std@@@23@@__Cr@std@@AEBV345@@Z@@__Cr@std@@@?$__split_buffer@V?$basic_string_view@DU?$char_traits@D@__Cr@std@@@__Cr@std@@AEAV?$allocator@V?$basic_string_view@DU?$char_traits@D@__Cr@std@@@__Cr@std@@@23@@__Cr@std@@QEAAXV?$__wrap_iter@PEAUraw_view@?1???R?$ConvertToContainer@V?$vector@V?$basic_string_view@DU?$char_traits@D@__Cr@std@@@__Cr@std@@V?$allocator@V?$basic_string_view@DU?$char_traits@D@__Cr@std@@@__Cr@std@@@23@@__Cr@std@@V?$basic_string_view@DU?$char_traits@D@__Cr@std@@@23@$0A@@?$Splitter@VByChar@absl@@UAllowEmpty@2@V?$basic_string_view@DU?$char_traits@D@__Cr@std@@@__Cr@std@@@strings_internal@absl@@QEBA?AV?$vector@V?$basic_string_view@DU?$char_traits@D@__Cr@std@@@__Cr@std@@V?$allocator@V?$basic_string_view@DU?$char_traits@D@__Cr@std@@@__Cr@std@@@23@@__Cr@std@@AEBV345@@Z@@12@_K@Z
    ??$__construct_at_end_with_size@V?$move_iterator@PEAPEAPEBVImpl@time_zone@cctz@time_internal@absl@@@__Cr@std@@@?$__split_buffer@PEAPEBVImpl@time_zone@cctz@time_internal@absl@@AEAV?$allocator@PEAPEBVImpl@time_zone@cctz@time_internal@absl@@@__Cr@std@@@__Cr@std@@QEAAXV?$move_iterator@PEAPEAPEBVImpl@time_zone@cctz@time_internal@absl@@@12@_K@Z
    ??$__construct_at_end_with_size@V?$move_iterator@PEAPEAUPrefixCrc@CrcCordState@crc_internal@absl@@@__Cr@std@@@?$__split_buffer@PEAUPrefixCrc@CrcCordState@crc_internal@absl@@AEAV?$allocator@PEAUPrefixCrc@CrcCordState@crc_internal@absl@@@__Cr@std@@@__Cr@std@@QEAAXV?$move_iterator@PEAPEAUPrefixCrc@CrcCordState@crc_internal@absl@@@12@_K@Z
    ??$__construct_at_end_with_size@V?$move_iterator@PEAUTransition@cctz@time_internal@absl@@@__Cr@std@@@?$__split_buffer@UTransition@cctz@time_internal@absl@@AEAV?$allocator@UTransition@cctz@time_internal@absl@@@__Cr@std@@@__Cr@std@@QEAAXV?$move_iterator@PEAUTransition@cctz@time_internal@absl@@@12@_K@Z
    ??$__construct_at_end_with_size@V?$move_iterator@PEAUTransitionType@cctz@time_internal@absl@@@__Cr@std@@@?$__split_buffer@UTransitionType@cctz@time_internal@absl@@AEAV?$allocator@UTransitionType@cctz@time_internal@absl@@@__Cr@std@@@__Cr@std@@QEAAXV?$move_iterator@PEAUTransitionType@cctz@time_internal@absl@@@12@_K@Z
    ??$__construct_node@AEBUpiecewise_construct_t@__Cr@std@@V?$tuple@$$QEAV?$basic_string@DU?$char_traits@D@__Cr@std@@V?$allocator@D@23@@__Cr@std@@@23@V?$tuple@$$V@23@@?$__tree@U?$__value_type@V?$basic_string@DU?$char_traits@D@__Cr@std@@V?$allocator@D@23@@__Cr@std@@V?$map@V?$basic_string@DU?$char_traits@D@__Cr@std@@V?$allocator@D@23@@__Cr@std@@V?$vector@PEBVCommandLineFlag@absl@@V?$allocator@PEBVCommandLineFlag@absl@@@__Cr@std@@@23@U?$less@V?$basic_string@DU?$char_traits@D@__Cr@std@@V?$allocator@D@23@@__Cr@std@@@23@V?$allocator@U?$pair@$$CBV?$basic_string@DU?$char_traits@D@__Cr@std@@V?$allocator@D@23@@__Cr@std@@V?$vector@PEBVCommandLineFlag@absl@@V?$allocator@PEBVCommandLineFlag@absl@@@__Cr@std@@@23@@__Cr@std@@@23@@23@@__Cr@std@@V?$__map_value_compare@V?$basic_string@DU?$char_traits@D@__Cr@std@@V?$allocator@D@23@@__Cr@std@@U?$__value_type@V?$basic_string@DU?$char_traits@D@__Cr@std@@V?$allocator@D@23@@__Cr@std@@V?$map@V?$basic_string@DU?$char_traits@D@__Cr@std@@V?$allocator@D@23@@__Cr@std@@V?$vector@PEBVCommandLineFlag@absl@@V?$allocator@PEBVCommandLineFlag@absl@@@__Cr@std@@@23@U?$less@V?$basic_string@DU?$char_traits@D@__Cr@std@@V?$allocator@D@23@@__Cr@std@@@23@V?$allocator@U?$pair@$$CBV?$basic_string@DU?$char_traits@D@__Cr@std@@V?$allocator@D@23@@__Cr@std@@V?$vector@PEBVCommandLineFlag@absl@@V?$allocator@PEBVCommandLineFlag@absl@@@__Cr@std@@@23@@__Cr@std@@@23@@23@@23@U?$less@V?$basic_string@DU?$char_traits@D@__Cr@std@@V?$allocator@D@23@@__Cr@std@@@23@$00@23@V?$allocator@U?$__value_type@V?$basic_string@DU?$char_traits@D@__Cr@std@@V?$allocator@D@23@@__Cr@std@@V?$map@V?$basic_string@DU?$char_traits@D@__Cr@std@@V?$allocator@D@23@@__Cr@std@@V?$vector@PEBVCommandLineFlag@absl@@V?$allocator@PEBVCommandLineFlag@absl@@@__Cr@std@@@23@U?$less@V?$basic_string@DU?$char_traits@D@__Cr@std@@V?$allocator@D@23@@__Cr@std@@@23@V?$allocator@U?$pair@$$CBV?$basic_string@DU?$char_traits@D@__Cr@std@@V?$allocator@D@23@@__Cr@std@@V?$vector@PEBVCommandLineFlag@absl@@V?$allocator@PEBVCommandLineFlag@absl@@@__Cr@std@@@23@@__Cr@std@@@23@@23@@__Cr@std@@@23@@__Cr@std@@AEAA?AV?$unique_ptr@V?$__tree_node@U?$__value_type@V?$basic_string@DU?$char_traits@D@__Cr@std@@V?$allocator@D@23@@__Cr@std@@V?$map@V?$basic_string@DU?$char_traits@D@__Cr@std@@V?$allocator@D@23@@__Cr@std@@V?$vector@PEBVCommandLineFlag@absl@@V?$allocator@PEBVCommandLineFlag@absl@@@__Cr@std@@@23@U?$less@V?$basic_string@DU?$char_traits@D@__Cr@std@@V?$allocator@D@23@@__Cr@std@@@23@V?$allocator@U?$pair@$$CBV?$basic_string@DU?$char_traits@D@__Cr@std@@V?$allocator@D@23@@__Cr@std@@V?$vector@PEBVCommandLineFlag@absl@@V?$allocator@PEBVCommandLineFlag@absl@@@__Cr@std@@@23@@__Cr@std@@@23@@23@@__Cr@std@@PEAX@__Cr@std@@V?$__tree_node_destructor@V?$allocator@V?$__tree_node@U?$__value_type@V?$basic_string@DU?$char_traits@D@__Cr@std@@V?$allocator@D@23@@__Cr@std@@V?$map@V?$basic_string@DU?$char_traits@D@__Cr@std@@V?$allocator@D@23@@__Cr@std@@V?$vector@PEBVCommandLineFlag@absl@@V?$allocator@PEBVCommandLineFlag@absl@@@__Cr@std@@@23@U?$less@V?$basic_string@DU?$char_traits@D@__Cr@std@@V?$allocator@D@23@@__Cr@std@@@23@V?$allocator@U?$pair@$$CBV?$basic_string@DU?$char_traits@D@__Cr@std@@V?$allocator@D@23@@__Cr@std@@V?$vector@PEBVCommandLineFlag@absl@@V?$allocator@PEBVCommandLineFlag@absl@@@__Cr@std@@@23@@__Cr@std@@@23@@23@@__Cr@std@@PEAX@__Cr@std@@@__Cr@std@@@23@@12@AEBUpiecewise_construct_t@12@$$QEAV?$tuple@$$QEAV?$basic_string@DU?$char_traits@D@__Cr@std@@V?$allocator@D@23@@__Cr@std@@@12@$$QEAV?$tuple@$$V@12@@Z
    ??$__construct_node@AEBUpiecewise_construct_t@__Cr@std@@V?$tuple@AEBV?$basic_string@DU?$char_traits@D@__Cr@std@@V?$allocator@D@23@@__Cr@std@@@23@V?$tuple@$$V@23@@?$__tree@U?$__value_type@V?$basic_string@DU?$char_traits@D@__Cr@std@@V?$allocator@D@23@@__Cr@std@@V?$vector@PEBVCommandLineFlag@absl@@V?$allocator@PEBVCommandLineFlag@absl@@@__Cr@std@@@23@@__Cr@std@@V?$__map_value_compare@V?$basic_string@DU?$char_traits@D@__Cr@std@@V?$allocator@D@23@@__Cr@std@@U?$__value_type@V?$basic_string@DU?$char_traits@D@__Cr@std@@V?$allocator@D@23@@__Cr@std@@V?$vector@PEBVCommandLineFlag@absl@@V?$allocator@PEBVCommandLineFlag@absl@@@__Cr@std@@@23@@23@U?$less@V?$basic_string@DU?$char_traits@D@__Cr@std@@V?$allocator@D@23@@__Cr@std@@@23@$00@23@V?$allocator@U?$__value_type@V?$basic_string@DU?$char_traits@D@__Cr@std@@V?$allocator@D@23@@__Cr@std@@V?$vector@PEBVCommandLineFlag@absl@@V?$allocator@PEBVCommandLineFlag@absl@@@__Cr@std@@@23@@__Cr@std@@@23@@__Cr@std@@AEAA?AV?$unique_ptr@V?$__tree_node@U?$__value_type@V?$basic_string@DU?$char_traits@D@__Cr@std@@V?$allocator@D@23@@__Cr@std@@V?$vector@PEBVCommandLineFlag@absl@@V?$allocator@PEBVCommandLineFlag@absl@@@__Cr@std@@@23@@__Cr@std@@PEAX@__Cr@std@@V?$__tree_node_destructor@V?$allocator@V?$__tree_node@U?$__value_type@V?$basic_string@DU?$char_traits@D@__Cr@std@@V?$allocator@D@23@@__Cr@std@@V?$vector@PEBVCommandLineFlag@absl@@V?$allocator@PEBVCommandLineFlag@absl@@@__Cr@std@@@23@@__Cr@std@@PEAX@__Cr@std@@@__Cr@std@@@23@@12@AEBUpiecewise_construct_t@12@$$QEAV?$tuple@AEBV?$basic_string@DU?$char_traits@D@__Cr@std@@V?$allocator@D@23@@__Cr@std@@@12@$$QEAV?$tuple@$$V@12@@Z
    ??$__construct_node_hash@AEBQEBUCordRep@cord_internal@absl@@$$V@?$__hash_table@PEBUCordRep@cord_internal@absl@@U?$hash@PEBUCordRep@cord_internal@absl@@@__Cr@std@@U?$equal_to@PEBUCordRep@cord_internal@absl@@@56@V?$allocator@PEBUCordRep@cord_internal@absl@@@56@@__Cr@std@@AEAA?AV?$unique_ptr@U?$__hash_node@PEBUCordRep@cord_internal@absl@@PEAX@__Cr@std@@V?$__hash_node_destructor@V?$allocator@U?$__hash_node@PEBUCordRep@cord_internal@absl@@PEAX@__Cr@std@@@__Cr@std@@@23@@12@_KAEBQEBUCordRep@cord_internal@absl@@@Z
    ??$__construct_node_hash@AEBUpiecewise_construct_t@__Cr@std@@V?$tuple@AEBV?$basic_string@DU?$char_traits@D@__Cr@std@@V?$allocator@D@23@@__Cr@std@@@23@V?$tuple@$$V@23@@?$__hash_table@U?$__hash_value_type@V?$basic_string@DU?$char_traits@D@__Cr@std@@V?$allocator@D@23@@__Cr@std@@PEBVImpl@time_zone@cctz@time_internal@absl@@@__Cr@std@@V?$__unordered_map_hasher@V?$basic_string@DU?$char_traits@D@__Cr@std@@V?$allocator@D@23@@__Cr@std@@U?$__hash_value_type@V?$basic_string@DU?$char_traits@D@__Cr@std@@V?$allocator@D@23@@__Cr@std@@PEBVImpl@time_zone@cctz@time_internal@absl@@@23@U?$hash@V?$basic_string@DU?$char_traits@D@__Cr@std@@V?$allocator@D@23@@__Cr@std@@@23@U?$equal_to@V?$basic_string@DU?$char_traits@D@__Cr@std@@V?$allocator@D@23@@__Cr@std@@@23@$00@23@V?$__unordered_map_equal@V?$basic_string@DU?$char_traits@D@__Cr@std@@V?$allocator@D@23@@__Cr@std@@U?$__hash_value_type@V?$basic_string@DU?$char_traits@D@__Cr@std@@V?$allocator@D@23@@__Cr@std@@PEBVImpl@time_zone@cctz@time_internal@absl@@@23@U?$equal_to@V?$basic_string@DU?$char_traits@D@__Cr@std@@V?$allocator@D@23@@__Cr@std@@@23@U?$hash@V?$basic_string@DU?$char_traits@D@__Cr@std@@V?$allocator@D@23@@__Cr@std@@@23@$00@23@V?$allocator@U?$__hash_value_type@V?$basic_string@DU?$char_traits@D@__Cr@std@@V?$allocator@D@23@@__Cr@std@@PEBVImpl@time_zone@cctz@time_internal@absl@@@__Cr@std@@@23@@__Cr@std@@AEAA?AV?$unique_ptr@U?$__hash_node@U?$__hash_value_type@V?$basic_string@DU?$char_traits@D@__Cr@std@@V?$allocator@D@23@@__Cr@std@@PEBVImpl@time_zone@cctz@time_internal@absl@@@__Cr@std@@PEAX@__Cr@std@@V?$__hash_node_destructor@V?$allocator@U?$__hash_node@U?$__hash_value_type@V?$basic_string@DU?$char_traits@D@__Cr@std@@V?$allocator@D@23@@__Cr@std@@PEBVImpl@time_zone@cctz@time_internal@absl@@@__Cr@std@@PEAX@__Cr@std@@@__Cr@std@@@23@@12@_KAEBUpiecewise_construct_t@12@$$QEAV?$tuple@AEBV?$basic_string@DU?$char_traits@D@__Cr@std@@V?$allocator@D@23@@__Cr@std@@@12@$$QEAV?$tuple@$$V@12@@Z
    ??$__copy@PEBUPrefixCrc@CrcCordState@crc_internal@absl@@PEBU1234@PEAU1234@@__Cr@std@@YA?AU?$pair@PEBUPrefixCrc@CrcCordState@crc_internal@absl@@PEAU1234@@01@PEBUPrefixCrc@CrcCordState@crc_internal@absl@@0PEAU3456@@Z
    ??$__copy@PEBUPrefixCrc@CrcCordState@crc_internal@absl@@PEBU1234@V?$__deque_iterator@UPrefixCrc@CrcCordState@crc_internal@absl@@PEAU1234@AEAU1234@PEAPEAU1234@_J$0A@@__Cr@std@@@__Cr@std@@YA?AU?$pair@PEBUPrefixCrc@CrcCordState@crc_internal@absl@@V?$__deque_iterator@UPrefixCrc@CrcCordState@crc_internal@absl@@PEAU1234@AEAU1234@PEAPEAU1234@_J$0A@@__Cr@std@@@01@PEBUPrefixCrc@CrcCordState@crc_internal@absl@@0V?$__deque_iterator@UPrefixCrc@CrcCordState@crc_internal@absl@@PEAU1234@AEAU1234@PEAPEAU1234@_J$0A@@01@@Z
    ??$__copy@V?$__deque_iterator@UPrefixCrc@CrcCordState@crc_internal@absl@@PEBU1234@AEBU1234@PEBQEBU1234@_J$0A@@__Cr@std@@V123@V?$__deque_iterator@UPrefixCrc@CrcCordState@crc_internal@absl@@PEAU1234@AEAU1234@PEAPEAU1234@_J$0A@@23@@__Cr@std@@YA?AU?$pair@V?$__deque_iterator@UPrefixCrc@CrcCordState@crc_internal@absl@@PEBU1234@AEBU1234@PEBQEBU1234@_J$0A@@__Cr@std@@V?$__deque_iterator@UPrefixCrc@CrcCordState@crc_internal@absl@@PEAU1234@AEAU1234@PEAPEAU1234@_J$0A@@23@@01@V?$__deque_iterator@UPrefixCrc@CrcCordState@crc_internal@absl@@PEBU1234@AEBU1234@PEBQEBU1234@_J$0A@@01@0V?$__deque_iterator@UPrefixCrc@CrcCordState@crc_internal@absl@@PEAU1234@AEAU1234@PEAPEAU1234@_J$0A@@01@@Z
    ??$__copy_backward_trivial_impl@PEAPEBVImpl@time_zone@cctz@time_internal@absl@@PEAPEBV12345@@__Cr@std@@YA?AU?$pair@PEAPEAPEBVImpl@time_zone@cctz@time_internal@absl@@PEAPEAPEBV12345@@01@PEAPEAPEBVImpl@time_zone@cctz@time_internal@absl@@00@Z
    ??$__copy_backward_trivial_impl@PEAUPrefixCrc@CrcCordState@crc_internal@absl@@PEAU1234@@__Cr@std@@YA?AU?$pair@PEAPEAUPrefixCrc@CrcCordState@crc_internal@absl@@PEAPEAU1234@@01@PEAPEAUPrefixCrc@CrcCordState@crc_internal@absl@@00@Z
    ??$__copy_backward_trivial_impl@UTransition@cctz@time_internal@absl@@U1234@@__Cr@std@@YA?AU?$pair@PEAUTransition@cctz@time_internal@absl@@PEAU1234@@01@PEAUTransition@cctz@time_internal@absl@@00@Z
    ??$__copy_backward_trivial_impl@UTransitionType@cctz@time_internal@absl@@U1234@@__Cr@std@@YA?AU?$pair@PEAUTransitionType@cctz@time_internal@absl@@PEAU1234@@01@PEAUTransitionType@cctz@time_internal@absl@@00@Z
    ??$__copy_move_unwrap_iters@U?$__move_backward_impl@U_ClassicAlgPolicy@__Cr@std@@@__Cr@std@@PEAPEAPEBVImpl@time_zone@cctz@time_internal@absl@@PEAPEAPEBV45678@PEAPEAPEBV45678@$0A@@__Cr@std@@YA?AU?$pair@PEAPEAPEBVImpl@time_zone@cctz@time_internal@absl@@PEAPEAPEBV12345@@01@PEAPEAPEBVImpl@time_zone@cctz@time_internal@absl@@00@Z
    ??$__copy_move_unwrap_iters@U?$__move_backward_impl@U_ClassicAlgPolicy@__Cr@std@@@__Cr@std@@PEAPEAUPrefixCrc@CrcCordState@crc_internal@absl@@PEAPEAU4567@PEAPEAU4567@$0A@@__Cr@std@@YA?AU?$pair@PEAPEAUPrefixCrc@CrcCordState@crc_internal@absl@@PEAPEAU1234@@01@PEAPEAUPrefixCrc@CrcCordState@crc_internal@absl@@00@Z
    ??$__copy_move_unwrap_iters@U?$__move_backward_impl@U_ClassicAlgPolicy@__Cr@std@@@__Cr@std@@PEAUTransition@cctz@time_internal@absl@@PEAU4567@PEAU4567@$0A@@__Cr@std@@YA?AU?$pair@PEAUTransition@cctz@time_internal@absl@@PEAU1234@@01@PEAUTransition@cctz@time_internal@absl@@00@Z
    ??$__copy_move_unwrap_iters@U?$__move_backward_impl@U_ClassicAlgPolicy@__Cr@std@@@__Cr@std@@PEAUTransitionType@cctz@time_internal@absl@@PEAU4567@PEAU4567@$0A@@__Cr@std@@YA?AU?$pair@PEAUTransitionType@cctz@time_internal@absl@@PEAU1234@@01@PEAUTransitionType@cctz@time_internal@absl@@00@Z
    ??$__copy_move_unwrap_iters@U?$__move_impl@U_ClassicAlgPolicy@__Cr@std@@@__Cr@std@@PEAPEAPEBVImpl@time_zone@cctz@time_internal@absl@@PEAPEAPEBV45678@PEAPEAPEBV45678@$0A@@__Cr@std@@YA?AU?$pair@PEAPEAPEBVImpl@time_zone@cctz@time_internal@absl@@PEAPEAPEBV12345@@01@PEAPEAPEBVImpl@time_zone@cctz@time_internal@absl@@00@Z
    ??$__copy_move_unwrap_iters@U?$__move_impl@U_ClassicAlgPolicy@__Cr@std@@@__Cr@std@@PEAPEAUPrefixCrc@CrcCordState@crc_internal@absl@@PEAPEAU4567@PEAPEAU4567@$0A@@__Cr@std@@YA?AU?$pair@PEAPEAUPrefixCrc@CrcCordState@crc_internal@absl@@PEAPEAU1234@@01@PEAPEAUPrefixCrc@CrcCordState@crc_internal@absl@@00@Z
    ??$__copy_move_unwrap_iters@U?$__move_impl@U_ClassicAlgPolicy@__Cr@std@@@__Cr@std@@PEAPEAVLogSink@absl@@PEAPEAV45@PEAPEAV45@$0A@@__Cr@std@@YA?AU?$pair@PEAPEAVLogSink@absl@@PEAPEAV12@@01@PEAPEAVLogSink@absl@@00@Z
    ??$__copy_move_unwrap_iters@U?$__move_impl@U_ClassicAlgPolicy@__Cr@std@@@__Cr@std@@PEAUTransition@cctz@time_internal@absl@@PEAU4567@PEAU4567@$0A@@__Cr@std@@YA?AU?$pair@PEAUTransition@cctz@time_internal@absl@@PEAU1234@@01@PEAUTransition@cctz@time_internal@absl@@00@Z
    ??$__copy_move_unwrap_iters@U?$__move_impl@U_ClassicAlgPolicy@__Cr@std@@@__Cr@std@@PEAUTransitionType@cctz@time_internal@absl@@PEAU4567@PEAU4567@$0A@@__Cr@std@@YA?AU?$pair@PEAUTransitionType@cctz@time_internal@absl@@PEAU1234@@01@PEAUTransitionType@cctz@time_internal@absl@@00@Z
    ??$__copy_move_unwrap_iters@U__copy_impl@__Cr@std@@PEBUPrefixCrc@CrcCordState@crc_internal@absl@@PEBU4567@PEAU4567@$0A@@__Cr@std@@YA?AU?$pair@PEBUPrefixCrc@CrcCordState@crc_internal@absl@@PEAU1234@@01@PEBUPrefixCrc@CrcCordState@crc_internal@absl@@0PEAU3456@@Z
    ??$__copy_move_unwrap_iters@U__copy_impl@__Cr@std@@PEBUPrefixCrc@CrcCordState@crc_internal@absl@@PEBU4567@V?$__deque_iterator@UPrefixCrc@CrcCordState@crc_internal@absl@@PEAU1234@AEAU1234@PEAPEAU1234@_J$0A@@23@$0A@@__Cr@std@@YA?AU?$pair@PEBUPrefixCrc@CrcCordState@crc_internal@absl@@V?$__deque_iterator@UPrefixCrc@CrcCordState@crc_internal@absl@@PEAU1234@AEAU1234@PEAPEAU1234@_J$0A@@__Cr@std@@@01@PEBUPrefixCrc@CrcCordState@crc_internal@absl@@0V?$__deque_iterator@UPrefixCrc@CrcCordState@crc_internal@absl@@PEAU1234@AEAU1234@PEAPEAU1234@_J$0A@@01@@Z
    ??$__copy_move_unwrap_iters@U__copy_impl@__Cr@std@@V?$__deque_iterator@UPrefixCrc@CrcCordState@crc_internal@absl@@PEBU1234@AEBU1234@PEBQEBU1234@_J$0A@@23@V423@V?$__deque_iterator@UPrefixCrc@CrcCordState@crc_internal@absl@@PEAU1234@AEAU1234@PEAPEAU1234@_J$0A@@23@$0A@@__Cr@std@@YA?AU?$pair@V?$__deque_iterator@UPrefixCrc@CrcCordState@crc_internal@absl@@PEBU1234@AEBU1234@PEBQEBU1234@_J$0A@@__Cr@std@@V?$__deque_iterator@UPrefixCrc@CrcCordState@crc_internal@absl@@PEAU1234@AEAU1234@PEAPEAU1234@_J$0A@@23@@01@V?$__deque_iterator@UPrefixCrc@CrcCordState@crc_internal@absl@@PEBU1234@AEBU1234@PEBQEBU1234@_J$0A@@01@0V?$__deque_iterator@UPrefixCrc@CrcCordState@crc_internal@absl@@PEAU1234@AEAU1234@PEAPEAU1234@_J$0A@@01@@Z
    ??$__copy_trivial_impl@$$CBUPrefixCrc@CrcCordState@crc_internal@absl@@U1234@@__Cr@std@@YA?AU?$pair@PEBUPrefixCrc@CrcCordState@crc_internal@absl@@PEAU1234@@01@PEBUPrefixCrc@CrcCordState@crc_internal@absl@@0PEAU3456@@Z
    ??$__copy_trivial_impl@PEAPEBVImpl@time_zone@cctz@time_internal@absl@@PEAPEBV12345@@__Cr@std@@YA?AU?$pair@PEAPEAPEBVImpl@time_zone@cctz@time_internal@absl@@PEAPEAPEBV12345@@01@PEAPEAPEBVImpl@time_zone@cctz@time_internal@absl@@00@Z
    ??$__copy_trivial_impl@PEAUPrefixCrc@CrcCordState@crc_internal@absl@@PEAU1234@@__Cr@std@@YA?AU?$pair@PEAPEAUPrefixCrc@CrcCordState@crc_internal@absl@@PEAPEAU1234@@01@PEAPEAUPrefixCrc@CrcCordState@crc_internal@absl@@00@Z
    ??$__copy_trivial_impl@PEAVLogSink@absl@@PEAV12@@__Cr@std@@YA?AU?$pair@PEAPEAVLogSink@absl@@PEAPEAV12@@01@PEAPEAVLogSink@absl@@00@Z
    ??$__copy_trivial_impl@UTransition@cctz@time_internal@absl@@U1234@@__Cr@std@@YA?AU?$pair@PEAUTransition@cctz@time_internal@absl@@PEAU1234@@01@PEAUTransition@cctz@time_internal@absl@@00@Z
    ??$__copy_trivial_impl@UTransitionType@cctz@time_internal@absl@@U1234@@__Cr@std@@YA?AU?$pair@PEAUTransitionType@cctz@time_internal@absl@@PEAU1234@@01@PEAUTransitionType@cctz@time_internal@absl@@00@Z
    ??$__create@V?$__default_alloc_func@V<lambda_1>@?0??SaveFromRegistry@FlagSaverImpl@flags_internal@absl@@QEAAXXZ@$$A6AXAEAVCommandLineFlag@5@@Z@__function@__Cr@std@@@?$__policy_invoker@$$A6AXAEAVCommandLineFlag@absl@@@Z@__function@__Cr@std@@SA?AU0123@XZ
    ??$__create@V?$__default_alloc_func@V<lambda_1>@?0??SaveFromRegistry@FlagSaverImpl@flags_internal@absl@@QEAAXXZ@$$A6AXAEAVCommandLineFlag@5@@Z@__function@__Cr@std@@@__policy@__function@__Cr@std@@SAPEBU0123@XZ
    ??$__cxx_atomic_compare_exchange_strong@PEAVTimeZone@absl@@@__Cr@std@@YA_NPEAU?$__cxx_atomic_base_impl@PEAVTimeZone@absl@@@01@PEAPEAVTimeZone@absl@@PEAV34@W4memory_order@01@3@Z
    ??$__cxx_atomic_compare_exchange_strong@PEAVVLogSite@log_internal@absl@@@__Cr@std@@YA_NPEAU?$__cxx_atomic_base_impl@PEAVVLogSite@log_internal@absl@@@01@PEAPEAVVLogSite@log_internal@absl@@PEAV345@W4memory_order@01@3@Z
    ??$__cxx_atomic_compare_exchange_weak@PEAUHashtablezInfo@container_internal@absl@@@__Cr@std@@YA_NPEAU?$__cxx_atomic_base_impl@PEAUHashtablezInfo@container_internal@absl@@@01@PEAPEAUHashtablezInfo@container_internal@absl@@PEAU345@W4memory_order@01@3@Z
    ??$__cxx_atomic_compare_exchange_weak@PEAVVLogSite@log_internal@absl@@@__Cr@std@@YA_NPEAU?$__cxx_atomic_base_impl@PEAVVLogSite@log_internal@absl@@@01@PEAPEAVVLogSite@log_internal@absl@@PEAV345@W4memory_order@01@3@Z
    ??$__cxx_atomic_exchange@PEAVVLogSite@log_internal@absl@@@__Cr@std@@YAPEAVVLogSite@log_internal@absl@@PEAU?$__cxx_atomic_base_impl@PEAVVLogSite@log_internal@absl@@@01@PEAV234@W4memory_order@01@@Z
    ??$__cxx_atomic_load@P6AXAEBUHashtablezInfo@container_internal@absl@@@Z@__Cr@std@@YAP6AXAEBUHashtablezInfo@container_internal@absl@@@ZPEBU?$__cxx_atomic_base_impl@P6AXAEBUHashtablezInfo@container_internal@absl@@@Z@01@W4memory_order@01@@Z
    ??$__cxx_atomic_load@PEAUHashtablezInfo@container_internal@absl@@@__Cr@std@@YAPEAUHashtablezInfo@container_internal@absl@@PEBU?$__cxx_atomic_base_impl@PEAUHashtablezInfo@container_internal@absl@@@01@W4memory_order@01@@Z
    ??$__cxx_atomic_load@PEAVCordzHandle@cord_internal@absl@@@__Cr@std@@YAPEAVCordzHandle@cord_internal@absl@@PEBU?$__cxx_atomic_base_impl@PEAVCordzHandle@cord_internal@absl@@@01@W4memory_order@01@@Z
    ??$__cxx_atomic_load@PEAVCordzInfo@cord_internal@absl@@@__Cr@std@@YAPEAVCordzInfo@cord_internal@absl@@PEBU?$__cxx_atomic_base_impl@PEAVCordzInfo@cord_internal@absl@@@01@W4memory_order@01@@Z
    ??$__cxx_atomic_load@PEAVTimeZone@absl@@@__Cr@std@@YAPEAVTimeZone@absl@@PEBU?$__cxx_atomic_base_impl@PEAVTimeZone@absl@@@01@W4memory_order@01@@Z
    ??$__cxx_atomic_load@PEAVVLogSite@log_internal@absl@@@__Cr@std@@YAPEAVVLogSite@log_internal@absl@@PEBU?$__cxx_atomic_base_impl@PEAVVLogSite@log_internal@absl@@@01@W4memory_order@01@@Z
    ??$__cxx_atomic_load@VMaskedPointer@flags_internal@absl@@@__Cr@std@@YA?AVMaskedPointer@flags_internal@absl@@PEBU?$__cxx_atomic_base_impl@VMaskedPointer@flags_internal@absl@@@01@W4memory_order@01@@Z
    ??$__cxx_atomic_load@W4OnDeadlockCycle@absl@@@__Cr@std@@YA?AW4OnDeadlockCycle@absl@@PEBU?$__cxx_atomic_base_impl@W4OnDeadlockCycle@absl@@@01@W4memory_order@01@@Z
    ??$__cxx_atomic_load@W4State@PerThreadSynch@base_internal@absl@@@__Cr@std@@YA?AW4State@PerThreadSynch@base_internal@absl@@PEBU?$__cxx_atomic_base_impl@W4State@PerThreadSynch@base_internal@absl@@@01@W4memory_order@01@@Z
    ??$__cxx_atomic_store@PEAVCordzHandle@cord_internal@absl@@@__Cr@std@@YAXPEAU?$__cxx_atomic_base_impl@PEAVCordzHandle@cord_internal@absl@@@01@PEAVCordzHandle@cord_internal@absl@@W4memory_order@01@@Z
    ??$__cxx_atomic_store@PEAVCordzInfo@cord_internal@absl@@@__Cr@std@@YAXPEAU?$__cxx_atomic_base_impl@PEAVCordzInfo@cord_internal@absl@@@01@PEAVCordzInfo@cord_internal@absl@@W4memory_order@01@@Z
    ??$__cxx_atomic_store@PEAVVLogSite@log_internal@absl@@@__Cr@std@@YAXPEAU?$__cxx_atomic_base_impl@PEAVVLogSite@log_internal@absl@@@01@PEAVVLogSite@log_internal@absl@@W4memory_order@01@@Z
    ??$__cxx_atomic_store@VMaskedPointer@flags_internal@absl@@@__Cr@std@@YAXPEAU?$__cxx_atomic_base_impl@VMaskedPointer@flags_internal@absl@@@01@VMaskedPointer@flags_internal@absl@@W4memory_order@01@@Z
    ??$__cxx_atomic_store@W4OnDeadlockCycle@absl@@@__Cr@std@@YAXPEAU?$__cxx_atomic_base_impl@W4OnDeadlockCycle@absl@@@01@W4OnDeadlockCycle@absl@@W4memory_order@01@@Z
    ??$__cxx_atomic_store@W4State@PerThreadSynch@base_internal@absl@@@__Cr@std@@YAXPEAU?$__cxx_atomic_base_impl@W4State@PerThreadSynch@base_internal@absl@@@01@W4State@PerThreadSynch@base_internal@absl@@W4memory_order@01@@Z
    ??$__debug_randomize_range@U_ClassicAlgPolicy@__Cr@std@@PEAPEAVCommandLineFlag@absl@@PEAPEAV45@@__Cr@std@@YAXPEAPEAVCommandLineFlag@absl@@0@Z
    ??$__debug_randomize_range@U_ClassicAlgPolicy@__Cr@std@@PEAPEBVCommandLineFlag@absl@@PEAPEBV45@@__Cr@std@@YAXPEAPEBVCommandLineFlag@absl@@0@Z
    ??$__debug_randomize_range@U_ClassicAlgPolicy@__Cr@std@@V?$__wrap_iter@PEAPEAVCommandLineFlag@absl@@@23@V423@@__Cr@std@@YAXV?$__wrap_iter@PEAPEAVCommandLineFlag@absl@@@01@0@Z
    ??$__debug_randomize_range@U_ClassicAlgPolicy@__Cr@std@@V?$__wrap_iter@PEAPEBVCommandLineFlag@absl@@@23@V423@@__Cr@std@@YAXV?$__wrap_iter@PEAPEBVCommandLineFlag@absl@@@01@0@Z
    ??$__destroy_at@PEAPEBVImpl@time_zone@cctz@time_internal@absl@@$0A@@__Cr@std@@YAXPEAPEAPEBVImpl@time_zone@cctz@time_internal@absl@@@Z
    ??$__destroy_at@PEAUCordRep@cord_internal@absl@@$0A@@__Cr@std@@YAXPEAPEAUCordRep@cord_internal@absl@@@Z
    ??$__destroy_at@PEAUPrefixCrc@CrcCordState@crc_internal@absl@@$0A@@__Cr@std@@YAXPEAPEAUPrefixCrc@CrcCordState@crc_internal@absl@@@Z
    ??$__destroy_at@PEAVCommandLineFlag@absl@@$0A@@__Cr@std@@YAXPEAPEAVCommandLineFlag@absl@@@Z
    ??$__destroy_at@PEAVCordzHandle@cord_internal@absl@@$0A@@__Cr@std@@YAXPEAPEAVCordzHandle@cord_internal@absl@@@Z
    ??$__destroy_at@PEAVLogSink@absl@@$0A@@__Cr@std@@YAXPEAPEAVLogSink@absl@@@Z
    ??$__destroy_at@PEBUCordRep@cord_internal@absl@@$0A@@__Cr@std@@YAXPEAPEBUCordRep@cord_internal@absl@@@Z
    ??$__destroy_at@PEBVCommandLineFlag@absl@@$0A@@__Cr@std@@YAXPEAPEBVCommandLineFlag@absl@@@Z
    ??$__destroy_at@PEBVCordzHandle@cord_internal@absl@@$0A@@__Cr@std@@YAXPEAPEBVCordzHandle@cord_internal@absl@@@Z
    ??$__destroy_at@U?$__hash_node@PEBUCordRep@cord_internal@absl@@PEAX@__Cr@std@@$0A@@__Cr@std@@YAXPEAU?$__hash_node@PEBUCordRep@cord_internal@absl@@PEAX@01@@Z
    ??$__destroy_at@U?$__hash_node@U?$__hash_value_type@V?$basic_string@DU?$char_traits@D@__Cr@std@@V?$allocator@D@23@@__Cr@std@@PEBVImpl@time_zone@cctz@time_internal@absl@@@__Cr@std@@PEAX@__Cr@std@@$0A@@__Cr@std@@YAXPEAU?$__hash_node@U?$__hash_value_type@V?$basic_string@DU?$char_traits@D@__Cr@std@@V?$allocator@D@23@@__Cr@std@@PEBVImpl@time_zone@cctz@time_internal@absl@@@__Cr@std@@PEAX@01@@Z
    ??$__destroy_at@U?$pair@$$CBV?$basic_string@DU?$char_traits@D@__Cr@std@@V?$allocator@D@23@@__Cr@std@@PEBVImpl@time_zone@cctz@time_internal@absl@@@__Cr@std@@$0A@@__Cr@std@@YAXPEAU?$pair@$$CBV?$basic_string@DU?$char_traits@D@__Cr@std@@V?$allocator@D@23@@__Cr@std@@PEBVImpl@time_zone@cctz@time_internal@absl@@@01@@Z
    ??$__destroy_at@U?$pair@$$CBV?$basic_string@DU?$char_traits@D@__Cr@std@@V?$allocator@D@23@@__Cr@std@@V?$map@V?$basic_string@DU?$char_traits@D@__Cr@std@@V?$allocator@D@23@@__Cr@std@@V?$vector@PEBVCommandLineFlag@absl@@V?$allocator@PEBVCommandLineFlag@absl@@@__Cr@std@@@23@U?$less@V?$basic_string@DU?$char_traits@D@__Cr@std@@V?$allocator@D@23@@__Cr@std@@@23@V?$allocator@U?$pair@$$CBV?$basic_string@DU?$char_traits@D@__Cr@std@@V?$allocator@D@23@@__Cr@std@@V?$vector@PEBVCommandLineFlag@absl@@V?$allocator@PEBVCommandLineFlag@absl@@@__Cr@std@@@23@@__Cr@std@@@23@@23@@__Cr@std@@$0A@@__Cr@std@@YAXPEAU?$pair@$$CBV?$basic_string@DU?$char_traits@D@__Cr@std@@V?$allocator@D@23@@__Cr@std@@V?$map@V?$basic_string@DU?$char_traits@D@__Cr@std@@V?$allocator@D@23@@__Cr@std@@V?$vector@PEBVCommandLineFlag@absl@@V?$allocator@PEBVCommandLineFlag@absl@@@__Cr@std@@@23@U?$less@V?$basic_string@DU?$char_traits@D@__Cr@std@@V?$allocator@D@23@@__Cr@std@@@23@V?$allocator@U?$pair@$$CBV?$basic_string@DU?$char_traits@D@__Cr@std@@V?$allocator@D@23@@__Cr@std@@V?$vector@PEBVCommandLineFlag@absl@@V?$allocator@PEBVCommandLineFlag@absl@@@__Cr@std@@@23@@__Cr@std@@@23@@23@@01@@Z
    ??$__destroy_at@U?$pair@$$CBV?$basic_string@DU?$char_traits@D@__Cr@std@@V?$allocator@D@23@@__Cr@std@@V?$vector@PEBVCommandLineFlag@absl@@V?$allocator@PEBVCommandLineFlag@absl@@@__Cr@std@@@23@@__Cr@std@@$0A@@__Cr@std@@YAXPEAU?$pair@$$CBV?$basic_string@DU?$char_traits@D@__Cr@std@@V?$allocator@D@23@@__Cr@std@@V?$vector@PEBVCommandLineFlag@absl@@V?$allocator@PEBVCommandLineFlag@absl@@@__Cr@std@@@23@@01@@Z
    ??$__destroy_at@U?$pair@V?$basic_string_view@DU?$char_traits@D@__Cr@std@@@__Cr@std@@PEAVCommandLineFlag@absl@@@__Cr@std@@$0A@@__Cr@std@@YAXPEAU?$pair@V?$basic_string_view@DU?$char_traits@D@__Cr@std@@@__Cr@std@@PEAVCommandLineFlag@absl@@@01@@Z
    ??$__destroy_at@UConversionItem@ParsedFormatBase@str_format_internal@absl@@$0A@@__Cr@std@@YAXPEAUConversionItem@ParsedFormatBase@str_format_internal@absl@@@Z
    ??$__destroy_at@UPayload@status_internal@absl@@$0A@@__Cr@std@@YAXPEAUPayload@status_internal@absl@@@Z
    ??$__destroy_at@UPrefixCrc@CrcCordState@crc_internal@absl@@$0A@@__Cr@std@@YAXPEAUPrefixCrc@CrcCordState@crc_internal@absl@@@Z
    ??$__destroy_at@UTransition@cctz@time_internal@absl@@$0A@@__Cr@std@@YAXPEAUTransition@cctz@time_internal@absl@@@Z
    ??$__destroy_at@UTransitionType@cctz@time_internal@absl@@$0A@@__Cr@std@@YAXPEAUTransitionType@cctz@time_internal@absl@@@Z
    ??$__destroy_at@UUnrecognizedFlag@absl@@$0A@@__Cr@std@@YAXPEAUUnrecognizedFlag@absl@@@Z
    ??$__destroy_at@UViableSubstitution@strings_internal@absl@@$0A@@__Cr@std@@YAXPEAUViableSubstitution@strings_internal@absl@@@Z
    ??$__destroy_at@V?$unique_ptr@VFlagStateInterface@flags_internal@absl@@U?$default_delete@VFlagStateInterface@flags_internal@absl@@@__Cr@std@@@__Cr@std@@$0A@@__Cr@std@@YAXPEAV?$unique_ptr@VFlagStateInterface@flags_internal@absl@@U?$default_delete@VFlagStateInterface@flags_internal@absl@@@__Cr@std@@@01@@Z
    ??$__dispatch@$$QEAU?$__value_visitor@UBufferSizeVisitor@?1??BufferSizeForStructuredProtoField@log_internal@absl@@YA_KUStructuredProtoField@34@@Z@@__variant@__visitation@__variant_detail@__Cr@std@@AEAV?$__base@$0A@V?$variant@_K_JIH_N@__Cr@std@@V?$variant@_K_JN@23@V?$Span@$$CBD@absl@@V?$variant@IHM@23@@456@@?$__dispatcher@$00@__base@__visitation@__variant_detail@__Cr@std@@SA?A_T$$QEAU?$__value_visitor@UBufferSizeVisitor@?1??BufferSizeForStructuredProtoField@log_internal@absl@@YA_KUStructuredProtoField@34@@Z@@__variant@2345@AEAV?$__base@$0A@V?$variant@_K_JIH_N@__Cr@std@@V?$variant@_K_JN@23@V?$Span@$$CBD@absl@@V?$variant@IHM@23@@345@@Z
    ??$__dispatch@$$QEAU?$__value_visitor@UBufferSizeVisitor@?1??BufferSizeForStructuredProtoField@log_internal@absl@@YA_KUStructuredProtoField@34@@Z@@__variant@__visitation@__variant_detail@__Cr@std@@AEAV?$__base@$0A@V?$variant@_K_JIH_N@__Cr@std@@V?$variant@_K_JN@23@V?$Span@$$CBD@absl@@V?$variant@IHM@23@@456@@?$__dispatcher@$01@__base@__visitation@__variant_detail@__Cr@std@@SA?A_T$$QEAU?$__value_visitor@UBufferSizeVisitor@?1??BufferSizeForStructuredProtoField@log_internal@absl@@YA_KUStructuredProtoField@34@@Z@@__variant@2345@AEAV?$__base@$0A@V?$variant@_K_JIH_N@__Cr@std@@V?$variant@_K_JN@23@V?$Span@$$CBD@absl@@V?$variant@IHM@23@@345@@Z
    ??$__dispatch@$$QEAU?$__value_visitor@UBufferSizeVisitor@?1??BufferSizeForStructuredProtoField@log_internal@absl@@YA_KUStructuredProtoField@34@@Z@@__variant@__visitation@__variant_detail@__Cr@std@@AEAV?$__base@$0A@V?$variant@_K_JIH_N@__Cr@std@@V?$variant@_K_JN@23@V?$Span@$$CBD@absl@@V?$variant@IHM@23@@456@@?$__dispatcher@$02@__base@__visitation@__variant_detail@__Cr@std@@SA?A_T$$QEAU?$__value_visitor@UBufferSizeVisitor@?1??BufferSizeForStructuredProtoField@log_internal@absl@@YA_KUStructuredProtoField@34@@Z@@__variant@2345@AEAV?$__base@$0A@V?$variant@_K_JIH_N@__Cr@std@@V?$variant@_K_JN@23@V?$Span@$$CBD@absl@@V?$variant@IHM@23@@345@@Z
    ??$__dispatch@$$QEAU?$__value_visitor@UBufferSizeVisitor@?1??BufferSizeForStructuredProtoField@log_internal@absl@@YA_KUStructuredProtoField@34@@Z@@__variant@__visitation@__variant_detail@__Cr@std@@AEAV?$__base@$0A@V?$variant@_K_JIH_N@__Cr@std@@V?$variant@_K_JN@23@V?$Span@$$CBD@absl@@V?$variant@IHM@23@@456@@?$__dispatcher@$0A@@__base@__visitation@__variant_detail@__Cr@std@@SA?A_T$$QEAU?$__value_visitor@UBufferSizeVisitor@?1??BufferSizeForStructuredProtoField@log_internal@absl@@YA_KUStructuredProtoField@34@@Z@@__variant@2345@AEAV?$__base@$0A@V?$variant@_K_JIH_N@__Cr@std@@V?$variant@_K_JN@23@V?$Span@$$CBD@absl@@V?$variant@IHM@23@@345@@Z
    ??$__distance@PEBUPayload@status_internal@absl@@@__Cr@std@@YA_JPEBUPayload@status_internal@absl@@0Urandom_access_iterator_tag@01@@Z
    ??$__distance@PEBUTransition@cctz@time_internal@absl@@@__Cr@std@@YA_JPEBUTransition@cctz@time_internal@absl@@0Urandom_access_iterator_tag@01@@Z
    ??$__distance@PEBVFormatArgImpl@str_format_internal@absl@@@__Cr@std@@YA_JPEBVFormatArgImpl@str_format_internal@absl@@0Urandom_access_iterator_tag@01@@Z
    ??$__distance@V?$__wrap_iter@PEAPEAVCommandLineFlag@absl@@@__Cr@std@@@__Cr@std@@YA_JV?$__wrap_iter@PEAPEAVCommandLineFlag@absl@@@01@0Urandom_access_iterator_tag@01@@Z
    ??$__distance@V?$__wrap_iter@PEAPEBVCommandLineFlag@absl@@@__Cr@std@@@__Cr@std@@YA_JV?$__wrap_iter@PEAPEBVCommandLineFlag@absl@@@01@0Urandom_access_iterator_tag@01@@Z
    ??$__distance@V?$__wrap_iter@PEAUraw_view@?1???R?$ConvertToContainer@V?$vector@V?$basic_string_view@DU?$char_traits@D@__Cr@std@@@__Cr@std@@V?$allocator@V?$basic_string_view@DU?$char_traits@D@__Cr@std@@@__Cr@std@@@23@@__Cr@std@@V?$basic_string_view@DU?$char_traits@D@__Cr@std@@@23@$0A@@?$Splitter@VByChar@absl@@UAllowEmpty@2@V?$basic_string_view@DU?$char_traits@D@__Cr@std@@@__Cr@std@@@strings_internal@absl@@QEBA?AV?$vector@V?$basic_string_view@DU?$char_traits@D@__Cr@std@@@__Cr@std@@V?$allocator@V?$basic_string_view@DU?$char_traits@D@__Cr@std@@@__Cr@std@@@23@@__Cr@std@@AEBV345@@Z@@__Cr@std@@@__Cr@std@@YA_JV?$__wrap_iter@PEAUraw_view@?1???R?$ConvertToContainer@V?$vector@V?$basic_string_view@DU?$char_traits@D@__Cr@std@@@__Cr@std@@V?$allocator@V?$basic_string_view@DU?$char_traits@D@__Cr@std@@@__Cr@std@@@23@@__Cr@std@@V?$basic_string_view@DU?$char_traits@D@__Cr@std@@@23@$0A@@?$Splitter@VByChar@absl@@UAllowEmpty@2@V?$basic_string_view@DU?$char_traits@D@__Cr@std@@@__Cr@std@@@strings_internal@absl@@QEBA?AV?$vector@V?$basic_string_view@DU?$char_traits@D@__Cr@std@@@__Cr@std@@V?$allocator@V?$basic_string_view@DU?$char_traits@D@__Cr@std@@@__Cr@std@@@23@@__Cr@std@@AEBV345@@Z@@01@0Urandom_access_iterator_tag@01@@Z
    ??$__distance@V?$move_iterator@PEAPEAPEBVImpl@time_zone@cctz@time_internal@absl@@@__Cr@std@@@__Cr@std@@YA_JV?$move_iterator@PEAPEAPEBVImpl@time_zone@cctz@time_internal@absl@@@01@0Urandom_access_iterator_tag@01@@Z
    ??$__distance@V?$move_iterator@PEAPEAUPrefixCrc@CrcCordState@crc_internal@absl@@@__Cr@std@@@__Cr@std@@YA_JV?$move_iterator@PEAPEAUPrefixCrc@CrcCordState@crc_internal@absl@@@01@0Urandom_access_iterator_tag@01@@Z
    ??$__distance@V?$move_iterator@PEAUTransition@cctz@time_internal@absl@@@__Cr@std@@@__Cr@std@@YA_JV?$move_iterator@PEAUTransition@cctz@time_internal@absl@@@01@0Urandom_access_iterator_tag@01@@Z
    ??$__distance@V?$move_iterator@PEAUTransitionType@cctz@time_internal@absl@@@__Cr@std@@@__Cr@std@@YA_JV?$move_iterator@PEAUTransitionType@cctz@time_internal@absl@@@01@0Urandom_access_iterator_tag@01@@Z
    ??$__do_rehash@$00@?$__hash_table@PEBUCordRep@cord_internal@absl@@U?$hash@PEBUCordRep@cord_internal@absl@@@__Cr@std@@U?$equal_to@PEBUCordRep@cord_internal@absl@@@56@V?$allocator@PEBUCordRep@cord_internal@absl@@@56@@__Cr@std@@AEAAX_K@Z
    ??$__do_rehash@$00@?$__hash_table@U?$__hash_value_type@V?$basic_string@DU?$char_traits@D@__Cr@std@@V?$allocator@D@23@@__Cr@std@@PEBVImpl@time_zone@cctz@time_internal@absl@@@__Cr@std@@V?$__unordered_map_hasher@V?$basic_string@DU?$char_traits@D@__Cr@std@@V?$allocator@D@23@@__Cr@std@@U?$__hash_value_type@V?$basic_string@DU?$char_traits@D@__Cr@std@@V?$allocator@D@23@@__Cr@std@@PEBVImpl@time_zone@cctz@time_internal@absl@@@23@U?$hash@V?$basic_string@DU?$char_traits@D@__Cr@std@@V?$allocator@D@23@@__Cr@std@@@23@U?$equal_to@V?$basic_string@DU?$char_traits@D@__Cr@std@@V?$allocator@D@23@@__Cr@std@@@23@$00@23@V?$__unordered_map_equal@V?$basic_string@DU?$char_traits@D@__Cr@std@@V?$allocator@D@23@@__Cr@std@@U?$__hash_value_type@V?$basic_string@DU?$char_traits@D@__Cr@std@@V?$allocator@D@23@@__Cr@std@@PEBVImpl@time_zone@cctz@time_internal@absl@@@23@U?$equal_to@V?$basic_string@DU?$char_traits@D@__Cr@std@@V?$allocator@D@23@@__Cr@std@@@23@U?$hash@V?$basic_string@DU?$char_traits@D@__Cr@std@@V?$allocator@D@23@@__Cr@std@@@23@$00@23@V?$allocator@U?$__hash_value_type@V?$basic_string@DU?$char_traits@D@__Cr@std@@V?$allocator@D@23@@__Cr@std@@PEBVImpl@time_zone@cctz@time_internal@absl@@@__Cr@std@@@23@@__Cr@std@@AEAAX_K@Z
    ??$__emplace_back_assume_capacity@$$V@?$vector@UTransition@cctz@time_internal@absl@@V?$allocator@UTransition@cctz@time_internal@absl@@@__Cr@std@@@__Cr@std@@QEAAXXZ
    ??$__emplace_back_assume_capacity@$$V@?$vector@UTransitionType@cctz@time_internal@absl@@V?$allocator@UTransitionType@cctz@time_internal@absl@@@__Cr@std@@@__Cr@std@@QEAAXXZ
    ??$__emplace_back_assume_capacity@AEAV?$basic_string_view@DU?$char_traits@D@__Cr@std@@@__Cr@std@@AEBV123@AEA_K@?$vector@UViableSubstitution@strings_internal@absl@@V?$allocator@UViableSubstitution@strings_internal@absl@@@__Cr@std@@@__Cr@std@@QEAAXAEAV?$basic_string_view@DU?$char_traits@D@__Cr@std@@@12@AEBV312@AEA_K@Z
    ??$__emplace_back_assume_capacity@AEBQEAVCommandLineFlag@absl@@@?$vector@PEAVCommandLineFlag@absl@@V?$allocator@PEAVCommandLineFlag@absl@@@__Cr@std@@@__Cr@std@@QEAAXAEBQEAVCommandLineFlag@absl@@@Z
    ??$__emplace_back_assume_capacity@AEBQEAVCordzHandle@cord_internal@absl@@@?$vector@PEAVCordzHandle@cord_internal@absl@@V?$allocator@PEAVCordzHandle@cord_internal@absl@@@__Cr@std@@@__Cr@std@@QEAAXAEBQEAVCordzHandle@cord_internal@absl@@@Z
    ??$__emplace_back_assume_capacity@AEBQEAVLogSink@absl@@@?$vector@PEAVLogSink@absl@@V?$allocator@PEAVLogSink@absl@@@__Cr@std@@@__Cr@std@@QEAAXAEBQEAVLogSink@absl@@@Z
    ??$__emplace_back_assume_capacity@AEBQEBVCommandLineFlag@absl@@@?$vector@PEBVCommandLineFlag@absl@@V?$allocator@PEBVCommandLineFlag@absl@@@__Cr@std@@@__Cr@std@@QEAAXAEBQEBVCommandLineFlag@absl@@@Z
    ??$__emplace_back_assume_capacity@AEBQEBVCordzHandle@cord_internal@absl@@@?$vector@PEBVCordzHandle@cord_internal@absl@@V?$allocator@PEBVCordzHandle@cord_internal@absl@@@__Cr@std@@@__Cr@std@@QEAAXAEBQEBVCordzHandle@cord_internal@absl@@@Z
    ??$__emplace_back_assume_capacity@AEBUTransition@cctz@time_internal@absl@@@?$vector@UTransition@cctz@time_internal@absl@@V?$allocator@UTransition@cctz@time_internal@absl@@@__Cr@std@@@__Cr@std@@QEAAXAEBUTransition@cctz@time_internal@absl@@@Z
    ??$__emplace_back_assume_capacity@AEBUUnrecognizedFlag@absl@@@?$vector@UUnrecognizedFlag@absl@@V?$allocator@UUnrecognizedFlag@absl@@@__Cr@std@@@__Cr@std@@QEAAXAEBUUnrecognizedFlag@absl@@@Z
    ??$__emplace_back_assume_capacity@PEBVCommandLineFlag@absl@@@?$vector@PEBVCommandLineFlag@absl@@V?$allocator@PEBVCommandLineFlag@absl@@@__Cr@std@@@__Cr@std@@QEAAX$$QEAPEBVCommandLineFlag@absl@@@Z
    ??$__emplace_back_assume_capacity@UConversionItem@ParsedFormatBase@str_format_internal@absl@@@?$vector@UConversionItem@ParsedFormatBase@str_format_internal@absl@@V?$allocator@UConversionItem@ParsedFormatBase@str_format_internal@absl@@@__Cr@std@@@__Cr@std@@QEAAX$$QEAUConversionItem@ParsedFormatBase@str_format_internal@absl@@@Z
    ??$__emplace_back_assume_capacity@V?$unique_ptr@VFlagStateInterface@flags_internal@absl@@U?$default_delete@VFlagStateInterface@flags_internal@absl@@@__Cr@std@@@__Cr@std@@@?$vector@V?$unique_ptr@VFlagStateInterface@flags_internal@absl@@U?$default_delete@VFlagStateInterface@flags_internal@absl@@@__Cr@std@@@__Cr@std@@V?$allocator@V?$unique_ptr@VFlagStateInterface@flags_internal@absl@@U?$default_delete@VFlagStateInterface@flags_internal@absl@@@__Cr@std@@@__Cr@std@@@23@@__Cr@std@@QEAAX$$QEAV?$unique_ptr@VFlagStateInterface@flags_internal@absl@@U?$default_delete@VFlagStateInterface@flags_internal@absl@@@__Cr@std@@@12@@Z
    ??$__emplace_back_assume_capacity@W4Source@UnrecognizedFlag@absl@@AEAV?$basic_string_view@DU?$char_traits@D@__Cr@std@@@__Cr@std@@@?$vector@UUnrecognizedFlag@absl@@V?$allocator@UUnrecognizedFlag@absl@@@__Cr@std@@@__Cr@std@@QEAAX$$QEAW4Source@UnrecognizedFlag@absl@@AEAV?$basic_string_view@DU?$char_traits@D@__Cr@std@@@12@@Z
    ??$__emplace_back_slow_path@AEAV?$basic_string_view@DU?$char_traits@D@__Cr@std@@@__Cr@std@@AEBV123@AEA_K@?$vector@UViableSubstitution@strings_internal@absl@@V?$allocator@UViableSubstitution@strings_internal@absl@@@__Cr@std@@@__Cr@std@@AEAAPEAUViableSubstitution@strings_internal@absl@@AEAV?$basic_string_view@DU?$char_traits@D@__Cr@std@@@12@AEBV612@AEA_K@Z
    ??$__emplace_back_slow_path@AEBQEAVCommandLineFlag@absl@@@?$vector@PEAVCommandLineFlag@absl@@V?$allocator@PEAVCommandLineFlag@absl@@@__Cr@std@@@__Cr@std@@AEAAPEAPEAVCommandLineFlag@absl@@AEBQEAV34@@Z
    ??$__emplace_back_slow_path@AEBQEAVCordzHandle@cord_internal@absl@@@?$vector@PEAVCordzHandle@cord_internal@absl@@V?$allocator@PEAVCordzHandle@cord_internal@absl@@@__Cr@std@@@__Cr@std@@AEAAPEAPEAVCordzHandle@cord_internal@absl@@AEBQEAV345@@Z
    ??$__emplace_back_slow_path@AEBQEAVLogSink@absl@@@?$vector@PEAVLogSink@absl@@V?$allocator@PEAVLogSink@absl@@@__Cr@std@@@__Cr@std@@AEAAPEAPEAVLogSink@absl@@AEBQEAV34@@Z
    ??$__emplace_back_slow_path@AEBQEBVCommandLineFlag@absl@@@?$vector@PEBVCommandLineFlag@absl@@V?$allocator@PEBVCommandLineFlag@absl@@@__Cr@std@@@__Cr@std@@AEAAPEAPEBVCommandLineFlag@absl@@AEBQEBV34@@Z
    ??$__emplace_back_slow_path@AEBQEBVCordzHandle@cord_internal@absl@@@?$vector@PEBVCordzHandle@cord_internal@absl@@V?$allocator@PEBVCordzHandle@cord_internal@absl@@@__Cr@std@@@__Cr@std@@AEAAPEAPEBVCordzHandle@cord_internal@absl@@AEBQEBV345@@Z
    ??$__emplace_back_slow_path@AEBUTransition@cctz@time_internal@absl@@@?$vector@UTransition@cctz@time_internal@absl@@V?$allocator@UTransition@cctz@time_internal@absl@@@__Cr@std@@@__Cr@std@@AEAAPEAUTransition@cctz@time_internal@absl@@AEBU3456@@Z
    ??$__emplace_back_slow_path@AEBUUnrecognizedFlag@absl@@@?$vector@UUnrecognizedFlag@absl@@V?$allocator@UUnrecognizedFlag@absl@@@__Cr@std@@@__Cr@std@@AEAAPEAUUnrecognizedFlag@absl@@AEBU34@@Z
    ??$__emplace_back_slow_path@PEBVCommandLineFlag@absl@@@?$vector@PEBVCommandLineFlag@absl@@V?$allocator@PEBVCommandLineFlag@absl@@@__Cr@std@@@__Cr@std@@AEAAPEAPEBVCommandLineFlag@absl@@$$QEAPEBV34@@Z
    ??$__emplace_back_slow_path@UConversionItem@ParsedFormatBase@str_format_internal@absl@@@?$vector@UConversionItem@ParsedFormatBase@str_format_internal@absl@@V?$allocator@UConversionItem@ParsedFormatBase@str_format_internal@absl@@@__Cr@std@@@__Cr@std@@AEAAPEAUConversionItem@ParsedFormatBase@str_format_internal@absl@@$$QEAU3456@@Z
    ??$__emplace_back_slow_path@V?$unique_ptr@VFlagStateInterface@flags_internal@absl@@U?$default_delete@VFlagStateInterface@flags_internal@absl@@@__Cr@std@@@__Cr@std@@@?$vector@V?$unique_ptr@VFlagStateInterface@flags_internal@absl@@U?$default_delete@VFlagStateInterface@flags_internal@absl@@@__Cr@std@@@__Cr@std@@V?$allocator@V?$unique_ptr@VFlagStateInterface@flags_internal@absl@@U?$default_delete@VFlagStateInterface@flags_internal@absl@@@__Cr@std@@@__Cr@std@@@23@@__Cr@std@@AEAAPEAV?$unique_ptr@VFlagStateInterface@flags_internal@absl@@U?$default_delete@VFlagStateInterface@flags_internal@absl@@@__Cr@std@@@12@$$QEAV312@@Z
    ??$__emplace_back_slow_path@W4Source@UnrecognizedFlag@absl@@AEAV?$basic_string_view@DU?$char_traits@D@__Cr@std@@@__Cr@std@@@?$vector@UUnrecognizedFlag@absl@@V?$allocator@UUnrecognizedFlag@absl@@@__Cr@std@@@__Cr@std@@AEAAPEAUUnrecognizedFlag@absl@@$$QEAW4Source@34@AEAV?$basic_string_view@DU?$char_traits@D@__Cr@std@@@12@@Z
    ??$__emplace_unique_key_args@PEBUCordRep@cord_internal@absl@@AEBQEBU123@@?$__hash_table@PEBUCordRep@cord_internal@absl@@U?$hash@PEBUCordRep@cord_internal@absl@@@__Cr@std@@U?$equal_to@PEBUCordRep@cord_internal@absl@@@56@V?$allocator@PEBUCordRep@cord_internal@absl@@@56@@__Cr@std@@QEAA?AU?$pair@V?$__hash_iterator@PEAU?$__hash_node@PEBUCordRep@cord_internal@absl@@PEAX@__Cr@std@@@__Cr@std@@_N@12@AEBQEBUCordRep@cord_internal@absl@@0@Z
    ??$__emplace_unique_key_args@V?$basic_string@DU?$char_traits@D@__Cr@std@@V?$allocator@D@23@@__Cr@std@@AEBUpiecewise_construct_t@23@V?$tuple@$$QEAV?$basic_string@DU?$char_traits@D@__Cr@std@@V?$allocator@D@23@@__Cr@std@@@23@V?$tuple@$$V@23@@?$__tree@U?$__value_type@V?$basic_string@DU?$char_traits@D@__Cr@std@@V?$allocator@D@23@@__Cr@std@@V?$map@V?$basic_string@DU?$char_traits@D@__Cr@std@@V?$allocator@D@23@@__Cr@std@@V?$vector@PEBVCommandLineFlag@absl@@V?$allocator@PEBVCommandLineFlag@absl@@@__Cr@std@@@23@U?$less@V?$basic_string@DU?$char_traits@D@__Cr@std@@V?$allocator@D@23@@__Cr@std@@@23@V?$allocator@U?$pair@$$CBV?$basic_string@DU?$char_traits@D@__Cr@std@@V?$allocator@D@23@@__Cr@std@@V?$vector@PEBVCommandLineFlag@absl@@V?$allocator@PEBVCommandLineFlag@absl@@@__Cr@std@@@23@@__Cr@std@@@23@@23@@__Cr@std@@V?$__map_value_compare@V?$basic_string@DU?$char_traits@D@__Cr@std@@V?$allocator@D@23@@__Cr@std@@U?$__value_type@V?$basic_string@DU?$char_traits@D@__Cr@std@@V?$allocator@D@23@@__Cr@std@@V?$map@V?$basic_string@DU?$char_traits@D@__Cr@std@@V?$allocator@D@23@@__Cr@std@@V?$vector@PEBVCommandLineFlag@absl@@V?$allocator@PEBVCommandLineFlag@absl@@@__Cr@std@@@23@U?$less@V?$basic_string@DU?$char_traits@D@__Cr@std@@V?$allocator@D@23@@__Cr@std@@@23@V?$allocator@U?$pair@$$CBV?$basic_string@DU?$char_traits@D@__Cr@std@@V?$allocator@D@23@@__Cr@std@@V?$vector@PEBVCommandLineFlag@absl@@V?$allocator@PEBVCommandLineFlag@absl@@@__Cr@std@@@23@@__Cr@std@@@23@@23@@23@U?$less@V?$basic_string@DU?$char_traits@D@__Cr@std@@V?$allocator@D@23@@__Cr@std@@@23@$00@23@V?$allocator@U?$__value_type@V?$basic_string@DU?$char_traits@D@__Cr@std@@V?$allocator@D@23@@__Cr@std@@V?$map@V?$basic_string@DU?$char_traits@D@__Cr@std@@V?$allocator@D@23@@__Cr@std@@V?$vector@PEBVCommandLineFlag@absl@@V?$allocator@PEBVCommandLineFlag@absl@@@__Cr@std@@@23@U?$less@V?$basic_string@DU?$char_traits@D@__Cr@std@@V?$allocator@D@23@@__Cr@std@@@23@V?$allocator@U?$pair@$$CBV?$basic_string@DU?$char_traits@D@__Cr@std@@V?$allocator@D@23@@__Cr@std@@V?$vector@PEBVCommandLineFlag@absl@@V?$allocator@PEBVCommandLineFlag@absl@@@__Cr@std@@@23@@__Cr@std@@@23@@23@@__Cr@std@@@23@@__Cr@std@@QEAA?AU?$pair@V?$__tree_iterator@U?$__value_type@V?$basic_string@DU?$char_traits@D@__Cr@std@@V?$allocator@D@23@@__Cr@std@@V?$map@V?$basic_string@DU?$char_traits@D@__Cr@std@@V?$allocator@D@23@@__Cr@std@@V?$vector@PEBVCommandLineFlag@absl@@V?$allocator@PEBVCommandLineFlag@absl@@@__Cr@std@@@23@U?$less@V?$basic_string@DU?$char_traits@D@__Cr@std@@V?$allocator@D@23@@__Cr@std@@@23@V?$allocator@U?$pair@$$CBV?$basic_string@DU?$char_traits@D@__Cr@std@@V?$allocator@D@23@@__Cr@std@@V?$vector@PEBVCommandLineFlag@absl@@V?$allocator@PEBVCommandLineFlag@absl@@@__Cr@std@@@23@@__Cr@std@@@23@@23@@__Cr@std@@PEAV?$__tree_node@U?$__value_type@V?$basic_string@DU?$char_traits@D@__Cr@std@@V?$allocator@D@23@@__Cr@std@@V?$map@V?$basic_string@DU?$char_traits@D@__Cr@std@@V?$allocator@D@23@@__Cr@std@@V?$vector@PEBVCommandLineFlag@absl@@V?$allocator@PEBVCommandLineFlag@absl@@@__Cr@std@@@23@U?$less@V?$basic_string@DU?$char_traits@D@__Cr@std@@V?$allocator@D@23@@__Cr@std@@@23@V?$allocator@U?$pair@$$CBV?$basic_string@DU?$char_traits@D@__Cr@std@@V?$allocator@D@23@@__Cr@std@@V?$vector@PEBVCommandLineFlag@absl@@V?$allocator@PEBVCommandLineFlag@absl@@@__Cr@std@@@23@@__Cr@std@@@23@@23@@__Cr@std@@PEAX@23@_J@__Cr@std@@_N@12@AEBV?$basic_string@DU?$char_traits@D@__Cr@std@@V?$allocator@D@23@@12@AEBUpiecewise_construct_t@12@$$QEAV?$tuple@$$QEAV?$basic_string@DU?$char_traits@D@__Cr@std@@V?$allocator@D@23@@__Cr@std@@@12@$$QEAV?$tuple@$$V@12@@Z
    ??$__emplace_unique_key_args@V?$basic_string@DU?$char_traits@D@__Cr@std@@V?$allocator@D@23@@__Cr@std@@AEBUpiecewise_construct_t@23@V?$tuple@AEBV?$basic_string@DU?$char_traits@D@__Cr@std@@V?$allocator@D@23@@__Cr@std@@@23@V?$tuple@$$V@23@@?$__hash_table@U?$__hash_value_type@V?$basic_string@DU?$char_traits@D@__Cr@std@@V?$allocator@D@23@@__Cr@std@@PEBVImpl@time_zone@cctz@time_internal@absl@@@__Cr@std@@V?$__unordered_map_hasher@V?$basic_string@DU?$char_traits@D@__Cr@std@@V?$allocator@D@23@@__Cr@std@@U?$__hash_value_type@V?$basic_string@DU?$char_traits@D@__Cr@std@@V?$allocator@D@23@@__Cr@std@@PEBVImpl@time_zone@cctz@time_internal@absl@@@23@U?$hash@V?$basic_string@DU?$char_traits@D@__Cr@std@@V?$allocator@D@23@@__Cr@std@@@23@U?$equal_to@V?$basic_string@DU?$char_traits@D@__Cr@std@@V?$allocator@D@23@@__Cr@std@@@23@$00@23@V?$__unordered_map_equal@V?$basic_string@DU?$char_traits@D@__Cr@std@@V?$allocator@D@23@@__Cr@std@@U?$__hash_value_type@V?$basic_string@DU?$char_traits@D@__Cr@std@@V?$allocator@D@23@@__Cr@std@@PEBVImpl@time_zone@cctz@time_internal@absl@@@23@U?$equal_to@V?$basic_string@DU?$char_traits@D@__Cr@std@@V?$allocator@D@23@@__Cr@std@@@23@U?$hash@V?$basic_string@DU?$char_traits@D@__Cr@std@@V?$allocator@D@23@@__Cr@std@@@23@$00@23@V?$allocator@U?$__hash_value_type@V?$basic_string@DU?$char_traits@D@__Cr@std@@V?$allocator@D@23@@__Cr@std@@PEBVImpl@time_zone@cctz@time_internal@absl@@@__Cr@std@@@23@@__Cr@std@@QEAA?AU?$pair@V?$__hash_iterator@PEAU?$__hash_node@U?$__hash_value_type@V?$basic_string@DU?$char_traits@D@__Cr@std@@V?$allocator@D@23@@__Cr@std@@PEBVImpl@time_zone@cctz@time_internal@absl@@@__Cr@std@@PEAX@__Cr@std@@@__Cr@std@@_N@12@AEBV?$basic_string@DU?$char_traits@D@__Cr@std@@V?$allocator@D@23@@12@AEBUpiecewise_construct_t@12@$$QEAV?$tuple@AEBV?$basic_string@DU?$char_traits@D@__Cr@std@@V?$allocator@D@23@@__Cr@std@@@12@$$QEAV?$tuple@$$V@12@@Z
    ??$__emplace_unique_key_args@V?$basic_string@DU?$char_traits@D@__Cr@std@@V?$allocator@D@23@@__Cr@std@@AEBUpiecewise_construct_t@23@V?$tuple@AEBV?$basic_string@DU?$char_traits@D@__Cr@std@@V?$allocator@D@23@@__Cr@std@@@23@V?$tuple@$$V@23@@?$__tree@U?$__value_type@V?$basic_string@DU?$char_traits@D@__Cr@std@@V?$allocator@D@23@@__Cr@std@@V?$vector@PEBVCommandLineFlag@absl@@V?$allocator@PEBVCommandLineFlag@absl@@@__Cr@std@@@23@@__Cr@std@@V?$__map_value_compare@V?$basic_string@DU?$char_traits@D@__Cr@std@@V?$allocator@D@23@@__Cr@std@@U?$__value_type@V?$basic_string@DU?$char_traits@D@__Cr@std@@V?$allocator@D@23@@__Cr@std@@V?$vector@PEBVCommandLineFlag@absl@@V?$allocator@PEBVCommandLineFlag@absl@@@__Cr@std@@@23@@23@U?$less@V?$basic_string@DU?$char_traits@D@__Cr@std@@V?$allocator@D@23@@__Cr@std@@@23@$00@23@V?$allocator@U?$__value_type@V?$basic_string@DU?$char_traits@D@__Cr@std@@V?$allocator@D@23@@__Cr@std@@V?$vector@PEBVCommandLineFlag@absl@@V?$allocator@PEBVCommandLineFlag@absl@@@__Cr@std@@@23@@__Cr@std@@@23@@__Cr@std@@QEAA?AU?$pair@V?$__tree_iterator@U?$__value_type@V?$basic_string@DU?$char_traits@D@__Cr@std@@V?$allocator@D@23@@__Cr@std@@V?$vector@PEBVCommandLineFlag@absl@@V?$allocator@PEBVCommandLineFlag@absl@@@__Cr@std@@@23@@__Cr@std@@PEAV?$__tree_node@U?$__value_type@V?$basic_string@DU?$char_traits@D@__Cr@std@@V?$allocator@D@23@@__Cr@std@@V?$vector@PEBVCommandLineFlag@absl@@V?$allocator@PEBVCommandLineFlag@absl@@@__Cr@std@@@23@@__Cr@std@@PEAX@23@_J@__Cr@std@@_N@12@AEBV?$basic_string@DU?$char_traits@D@__Cr@std@@V?$allocator@D@23@@12@AEBUpiecewise_construct_t@12@$$QEAV?$tuple@AEBV?$basic_string@DU?$char_traits@D@__Cr@std@@V?$allocator@D@23@@__Cr@std@@@12@$$QEAV?$tuple@$$V@12@@Z
    ??$__find@PEAPEAVLogSink@absl@@PEAPEAV12@PEAV12@U__identity@__Cr@std@@@__Cr@std@@YAPEAPEAVLogSink@absl@@PEAPEAV23@0AEBQEAV23@AEAU__identity@01@@Z
    ??$__find_equal@V?$basic_string@DU?$char_traits@D@__Cr@std@@V?$allocator@D@23@@__Cr@std@@@?$__tree@U?$__value_type@V?$basic_string@DU?$char_traits@D@__Cr@std@@V?$allocator@D@23@@__Cr@std@@V?$map@V?$basic_string@DU?$char_traits@D@__Cr@std@@V?$allocator@D@23@@__Cr@std@@V?$vector@PEBVCommandLineFlag@absl@@V?$allocator@PEBVCommandLineFlag@absl@@@__Cr@std@@@23@U?$less@V?$basic_string@DU?$char_traits@D@__Cr@std@@V?$allocator@D@23@@__Cr@std@@@23@V?$allocator@U?$pair@$$CBV?$basic_string@DU?$char_traits@D@__Cr@std@@V?$allocator@D@23@@__Cr@std@@V?$vector@PEBVCommandLineFlag@absl@@V?$allocator@PEBVCommandLineFlag@absl@@@__Cr@std@@@23@@__Cr@std@@@23@@23@@__Cr@std@@V?$__map_value_compare@V?$basic_string@DU?$char_traits@D@__Cr@std@@V?$allocator@D@23@@__Cr@std@@U?$__value_type@V?$basic_string@DU?$char_traits@D@__Cr@std@@V?$allocator@D@23@@__Cr@std@@V?$map@V?$basic_string@DU?$char_traits@D@__Cr@std@@V?$allocator@D@23@@__Cr@std@@V?$vector@PEBVCommandLineFlag@absl@@V?$allocator@PEBVCommandLineFlag@absl@@@__Cr@std@@@23@U?$less@V?$basic_string@DU?$char_traits@D@__Cr@std@@V?$allocator@D@23@@__Cr@std@@@23@V?$allocator@U?$pair@$$CBV?$basic_string@DU?$char_traits@D@__Cr@std@@V?$allocator@D@23@@__Cr@std@@V?$vector@PEBVCommandLineFlag@absl@@V?$allocator@PEBVCommandLineFlag@absl@@@__Cr@std@@@23@@__Cr@std@@@23@@23@@23@U?$less@V?$basic_string@DU?$char_traits@D@__Cr@std@@V?$allocator@D@23@@__Cr@std@@@23@$00@23@V?$allocator@U?$__value_type@V?$basic_string@DU?$char_traits@D@__Cr@std@@V?$allocator@D@23@@__Cr@std@@V?$map@V?$basic_string@DU?$char_traits@D@__Cr@std@@V?$allocator@D@23@@__Cr@std@@V?$vector@PEBVCommandLineFlag@absl@@V?$allocator@PEBVCommandLineFlag@absl@@@__Cr@std@@@23@U?$less@V?$basic_string@DU?$char_traits@D@__Cr@std@@V?$allocator@D@23@@__Cr@std@@@23@V?$allocator@U?$pair@$$CBV?$basic_string@DU?$char_traits@D@__Cr@std@@V?$allocator@D@23@@__Cr@std@@V?$vector@PEBVCommandLineFlag@absl@@V?$allocator@PEBVCommandLineFlag@absl@@@__Cr@std@@@23@@__Cr@std@@@23@@23@@__Cr@std@@@23@@__Cr@std@@QEAAAEAPEAV?$__tree_node_base@PEAX@12@AEAPEAV?$__tree_end_node@PEAV?$__tree_node_base@PEAX@__Cr@std@@@12@AEBV?$basic_string@DU?$char_traits@D@__Cr@std@@V?$allocator@D@23@@12@@Z
    ??$__find_equal@V?$basic_string@DU?$char_traits@D@__Cr@std@@V?$allocator@D@23@@__Cr@std@@@?$__tree@U?$__value_type@V?$basic_string@DU?$char_traits@D@__Cr@std@@V?$allocator@D@23@@__Cr@std@@V?$vector@PEBVCommandLineFlag@absl@@V?$allocator@PEBVCommandLineFlag@absl@@@__Cr@std@@@23@@__Cr@std@@V?$__map_value_compare@V?$basic_string@DU?$char_traits@D@__Cr@std@@V?$allocator@D@23@@__Cr@std@@U?$__value_type@V?$basic_string@DU?$char_traits@D@__Cr@std@@V?$allocator@D@23@@__Cr@std@@V?$vector@PEBVCommandLineFlag@absl@@V?$allocator@PEBVCommandLineFlag@absl@@@__Cr@std@@@23@@23@U?$less@V?$basic_string@DU?$char_traits@D@__Cr@std@@V?$allocator@D@23@@__Cr@std@@@23@$00@23@V?$allocator@U?$__value_type@V?$basic_string@DU?$char_traits@D@__Cr@std@@V?$allocator@D@23@@__Cr@std@@V?$vector@PEBVCommandLineFlag@absl@@V?$allocator@PEBVCommandLineFlag@absl@@@__Cr@std@@@23@@__Cr@std@@@23@@__Cr@std@@QEAAAEAPEAV?$__tree_node_base@PEAX@12@AEAPEAV?$__tree_end_node@PEAV?$__tree_node_base@PEAX@__Cr@std@@@12@AEBV?$basic_string@DU?$char_traits@D@__Cr@std@@V?$allocator@D@23@@12@@Z
    ??$__for_each_segment@V?$__deque_iterator@UPrefixCrc@CrcCordState@crc_internal@absl@@PEBU1234@AEBU1234@PEBQEBU1234@_J$0A@@__Cr@std@@U?$_CopySegment@V?$__deque_iterator@UPrefixCrc@CrcCordState@crc_internal@absl@@PEBU1234@AEBU1234@PEBQEBU1234@_J$0A@@__Cr@std@@V?$__deque_iterator@UPrefixCrc@CrcCordState@crc_internal@absl@@PEAU1234@AEAU1234@PEAPEAU1234@_J$0A@@23@@__copy_impl@23@@__Cr@std@@YAXV?$__deque_iterator@UPrefixCrc@CrcCordState@crc_internal@absl@@PEBU1234@AEBU1234@PEBQEBU1234@_J$0A@@01@0U?$_CopySegment@V?$__deque_iterator@UPrefixCrc@CrcCordState@crc_internal@absl@@PEBU1234@AEBU1234@PEBQEBU1234@_J$0A@@__Cr@std@@V?$__deque_iterator@UPrefixCrc@CrcCordState@crc_internal@absl@@PEAU1234@AEAU1234@PEAPEAU1234@_J$0A@@23@@__copy_impl@01@@Z
    ??$__get_alt@$00AEAV?$__base@$0A@V?$variant@_K_JIH_N@__Cr@std@@V?$variant@_K_JN@23@V?$Span@$$CBD@absl@@V?$variant@IHM@23@@__variant_detail@__Cr@std@@@__base@__access@__variant_detail@__Cr@std@@SA$$QEA_PAEAV?$__base@$0A@V?$variant@_K_JIH_N@__Cr@std@@V?$variant@_K_JN@23@V?$Span@$$CBD@absl@@V?$variant@IHM@23@@234@@Z
    ??$__get_alt@$01AEAV?$__base@$0A@V?$variant@_K_JIH_N@__Cr@std@@V?$variant@_K_JN@23@V?$Span@$$CBD@absl@@V?$variant@IHM@23@@__variant_detail@__Cr@std@@@__base@__access@__variant_detail@__Cr@std@@SA$$QEA_PAEAV?$__base@$0A@V?$variant@_K_JIH_N@__Cr@std@@V?$variant@_K_JN@23@V?$Span@$$CBD@absl@@V?$variant@IHM@23@@234@@Z
    ??$__get_alt@$02AEAV?$__base@$0A@V?$variant@_K_JIH_N@__Cr@std@@V?$variant@_K_JN@23@V?$Span@$$CBD@absl@@V?$variant@IHM@23@@__variant_detail@__Cr@std@@@__base@__access@__variant_detail@__Cr@std@@SA$$QEA_PAEAV?$__base@$0A@V?$variant@_K_JIH_N@__Cr@std@@V?$variant@_K_JN@23@V?$Span@$$CBD@absl@@V?$variant@IHM@23@@234@@Z
    ??$__get_alt@$0A@AEAV?$__base@$0A@V?$variant@_K_JIH_N@__Cr@std@@V?$variant@_K_JN@23@V?$Span@$$CBD@absl@@V?$variant@IHM@23@@__variant_detail@__Cr@std@@@__base@__access@__variant_detail@__Cr@std@@SA$$QEA_PAEAV?$__base@$0A@V?$variant@_K_JIH_N@__Cr@std@@V?$variant@_K_JN@23@V?$Span@$$CBD@absl@@V?$variant@IHM@23@@234@@Z
    ??$__get_alt@AEAT?$__union@$0A@$00V?$variant@_K_JN@__Cr@std@@V?$Span@$$CBD@absl@@V?$variant@IHM@23@@__variant_detail@__Cr@std@@$00@__union@__access@__variant_detail@__Cr@std@@SA$$QEA_PAEAT?$__union@$0A@$00V?$variant@_K_JN@__Cr@std@@V?$Span@$$CBD@absl@@V?$variant@IHM@23@@234@U?$in_place_index_t@$00@34@@Z
    ??$__get_alt@AEAT?$__union@$0A@$00V?$variant@_K_JN@__Cr@std@@V?$Span@$$CBD@absl@@V?$variant@IHM@23@@__variant_detail@__Cr@std@@$01@__union@__access@__variant_detail@__Cr@std@@SA$$QEA_PAEAT?$__union@$0A@$00V?$variant@_K_JN@__Cr@std@@V?$Span@$$CBD@absl@@V?$variant@IHM@23@@234@U?$in_place_index_t@$01@34@@Z
    ??$__get_alt@AEAT?$__union@$0A@$00V?$variant@_K_JN@__Cr@std@@V?$Span@$$CBD@absl@@V?$variant@IHM@23@@__variant_detail@__Cr@std@@@__union@__access@__variant_detail@__Cr@std@@SA$$QEA_PAEAT?$__union@$0A@$00V?$variant@_K_JN@__Cr@std@@V?$Span@$$CBD@absl@@V?$variant@IHM@23@@234@U?$in_place_index_t@$0A@@34@@Z
    ??$__get_alt@AEAT?$__union@$0A@$01V?$Span@$$CBD@absl@@V?$variant@IHM@__Cr@std@@@__variant_detail@__Cr@std@@$00@__union@__access@__variant_detail@__Cr@std@@SA$$QEA_PAEAT?$__union@$0A@$01V?$Span@$$CBD@absl@@V?$variant@IHM@__Cr@std@@@234@U?$in_place_index_t@$00@34@@Z
    ??$__get_alt@AEAT?$__union@$0A@$01V?$Span@$$CBD@absl@@V?$variant@IHM@__Cr@std@@@__variant_detail@__Cr@std@@@__union@__access@__variant_detail@__Cr@std@@SA$$QEA_PAEAT?$__union@$0A@$01V?$Span@$$CBD@absl@@V?$variant@IHM@__Cr@std@@@234@U?$in_place_index_t@$0A@@34@@Z
    ??$__get_alt@AEAT?$__union@$0A@$0A@V?$variant@_K_JIH_N@__Cr@std@@V?$variant@_K_JN@23@V?$Span@$$CBD@absl@@V?$variant@IHM@23@@__variant_detail@__Cr@std@@$00@__union@__access@__variant_detail@__Cr@std@@SA$$QEA_PAEAT?$__union@$0A@$0A@V?$variant@_K_JIH_N@__Cr@std@@V?$variant@_K_JN@23@V?$Span@$$CBD@absl@@V?$variant@IHM@23@@234@U?$in_place_index_t@$00@34@@Z
    ??$__get_alt@AEAT?$__union@$0A@$0A@V?$variant@_K_JIH_N@__Cr@std@@V?$variant@_K_JN@23@V?$Span@$$CBD@absl@@V?$variant@IHM@23@@__variant_detail@__Cr@std@@$01@__union@__access@__variant_detail@__Cr@std@@SA$$QEA_PAEAT?$__union@$0A@$0A@V?$variant@_K_JIH_N@__Cr@std@@V?$variant@_K_JN@23@V?$Span@$$CBD@absl@@V?$variant@IHM@23@@234@U?$in_place_index_t@$01@34@@Z
    ??$__get_alt@AEAT?$__union@$0A@$0A@V?$variant@_K_JIH_N@__Cr@std@@V?$variant@_K_JN@23@V?$Span@$$CBD@absl@@V?$variant@IHM@23@@__variant_detail@__Cr@std@@$02@__union@__access@__variant_detail@__Cr@std@@SA$$QEA_PAEAT?$__union@$0A@$0A@V?$variant@_K_JIH_N@__Cr@std@@V?$variant@_K_JN@23@V?$Span@$$CBD@absl@@V?$variant@IHM@23@@234@U?$in_place_index_t@$02@34@@Z
    ??$__get_alt@AEAT?$__union@$0A@$0A@V?$variant@_K_JIH_N@__Cr@std@@V?$variant@_K_JN@23@V?$Span@$$CBD@absl@@V?$variant@IHM@23@@__variant_detail@__Cr@std@@@__union@__access@__variant_detail@__Cr@std@@SA$$QEA_PAEAT?$__union@$0A@$0A@V?$variant@_K_JIH_N@__Cr@std@@V?$variant@_K_JN@23@V?$Span@$$CBD@absl@@V?$variant@IHM@23@@234@U?$in_place_index_t@$0A@@34@@Z
    ??$__in_bounds@V?$__bucket_list_deallocator@V?$allocator@PEAU?$__hash_node_base@PEAU?$__hash_node@PEBUCordRep@cord_internal@absl@@PEAX@__Cr@std@@@__Cr@std@@@__Cr@std@@@__Cr@std@@PEAU?$__hash_node_base@PEAU?$__hash_node@PEBUCordRep@cord_internal@absl@@PEAX@__Cr@std@@@23@$0A@@__unique_ptr_array_bounds_stateless@__Cr@std@@QEBA_NPEAPEAU?$__hash_node_base@PEAU?$__hash_node@PEBUCordRep@cord_internal@absl@@PEAX@__Cr@std@@@12@_K@Z
    ??$__in_bounds@V?$__bucket_list_deallocator@V?$allocator@PEAU?$__hash_node_base@PEAU?$__hash_node@U?$__hash_value_type@V?$basic_string@DU?$char_traits@D@__Cr@std@@V?$allocator@D@23@@__Cr@std@@PEBVImpl@time_zone@cctz@time_internal@absl@@@__Cr@std@@PEAX@__Cr@std@@@__Cr@std@@@__Cr@std@@@__Cr@std@@PEAU?$__hash_node_base@PEAU?$__hash_node@U?$__hash_value_type@V?$basic_string@DU?$char_traits@D@__Cr@std@@V?$allocator@D@23@@__Cr@std@@PEBVImpl@time_zone@cctz@time_internal@absl@@@__Cr@std@@PEAX@__Cr@std@@@23@$0A@@__unique_ptr_array_bounds_stateless@__Cr@std@@QEBA_NPEAPEAU?$__hash_node_base@PEAU?$__hash_node@U?$__hash_value_type@V?$basic_string@DU?$char_traits@D@__Cr@std@@V?$allocator@D@23@@__Cr@std@@PEBVImpl@time_zone@cctz@time_internal@absl@@@__Cr@std@@PEAX@__Cr@std@@@12@_K@Z
    ??$__insert_assign_n_unchecked@V?$__wrap_iter@PEAUraw_view@?1???R?$ConvertToContainer@V?$vector@V?$basic_string_view@DU?$char_traits@D@__Cr@std@@@__Cr@std@@V?$allocator@V?$basic_string_view@DU?$char_traits@D@__Cr@std@@@__Cr@std@@@23@@__Cr@std@@V?$basic_string_view@DU?$char_traits@D@__Cr@std@@@23@$0A@@?$Splitter@VByChar@absl@@UAllowEmpty@2@V?$basic_string_view@DU?$char_traits@D@__Cr@std@@@__Cr@std@@@strings_internal@absl@@QEBA?AV?$vector@V?$basic_string_view@DU?$char_traits@D@__Cr@std@@@__Cr@std@@V?$allocator@V?$basic_string_view@DU?$char_traits@D@__Cr@std@@@__Cr@std@@@23@@__Cr@std@@AEBV345@@Z@@__Cr@std@@$0A@@?$vector@V?$basic_string_view@DU?$char_traits@D@__Cr@std@@@__Cr@std@@V?$allocator@V?$basic_string_view@DU?$char_traits@D@__Cr@std@@@__Cr@std@@@23@@__Cr@std@@AEAAXV?$__wrap_iter@PEAUraw_view@?1???R?$ConvertToContainer@V?$vector@V?$basic_string_view@DU?$char_traits@D@__Cr@std@@@__Cr@std@@V?$allocator@V?$basic_string_view@DU?$char_traits@D@__Cr@std@@@__Cr@std@@@23@@__Cr@std@@V?$basic_string_view@DU?$char_traits@D@__Cr@std@@@23@$0A@@?$Splitter@VByChar@absl@@UAllowEmpty@2@V?$basic_string_view@DU?$char_traits@D@__Cr@std@@@__Cr@std@@@strings_internal@absl@@QEBA?AV?$vector@V?$basic_string_view@DU?$char_traits@D@__Cr@std@@@__Cr@std@@V?$allocator@V?$basic_string_view@DU?$char_traits@D@__Cr@std@@@__Cr@std@@@23@@__Cr@std@@AEBV345@@Z@@12@_JPEAV?$basic_string_view@DU?$char_traits@D@__Cr@std@@@12@@Z
    ??$__insert_with_size@V?$__wrap_iter@PEAUraw_view@?1???R?$ConvertToContainer@V?$vector@V?$basic_string_view@DU?$char_traits@D@__Cr@std@@@__Cr@std@@V?$allocator@V?$basic_string_view@DU?$char_traits@D@__Cr@std@@@__Cr@std@@@23@@__Cr@std@@V?$basic_string_view@DU?$char_traits@D@__Cr@std@@@23@$0A@@?$Splitter@VByChar@absl@@UAllowEmpty@2@V?$basic_string_view@DU?$char_traits@D@__Cr@std@@@__Cr@std@@@strings_internal@absl@@QEBA?AV?$vector@V?$basic_string_view@DU?$char_traits@D@__Cr@std@@@__Cr@std@@V?$allocator@V?$basic_string_view@DU?$char_traits@D@__Cr@std@@@__Cr@std@@@23@@__Cr@std@@AEBV345@@Z@@__Cr@std@@V123@@?$vector@V?$basic_string_view@DU?$char_traits@D@__Cr@std@@@__Cr@std@@V?$allocator@V?$basic_string_view@DU?$char_traits@D@__Cr@std@@@__Cr@std@@@23@@__Cr@std@@AEAA?AV?$__wrap_iter@PEAV?$basic_string_view@DU?$char_traits@D@__Cr@std@@@__Cr@std@@@12@V?$__wrap_iter@PEBV?$basic_string_view@DU?$char_traits@D@__Cr@std@@@__Cr@std@@@12@V?$__wrap_iter@PEAUraw_view@?1???R?$ConvertToContainer@V?$vector@V?$basic_string_view@DU?$char_traits@D@__Cr@std@@@__Cr@std@@V?$allocator@V?$basic_string_view@DU?$char_traits@D@__Cr@std@@@__Cr@std@@@23@@__Cr@std@@V?$basic_string_view@DU?$char_traits@D@__Cr@std@@@23@$0A@@?$Splitter@VByChar@absl@@UAllowEmpty@2@V?$basic_string_view@DU?$char_traits@D@__Cr@std@@@__Cr@std@@@strings_internal@absl@@QEBA?AV?$vector@V?$basic_string_view@DU?$char_traits@D@__Cr@std@@@__Cr@std@@V?$allocator@V?$basic_string_view@DU?$char_traits@D@__Cr@std@@@__Cr@std@@@23@@__Cr@std@@AEBV345@@Z@@12@1_J@Z
    ??$__invoke@AEAUByCivilTime@Transition@cctz@time_internal@absl@@AEBU2345@AEBU2345@@__Cr@std@@YA_NAEAUByCivilTime@Transition@cctz@time_internal@absl@@AEBU3456@1@Z
    ??$__invoke@AEAUByUnixTime@Transition@cctz@time_internal@absl@@AEBU2345@AEBU2345@@__Cr@std@@YA_NAEAUByUnixTime@Transition@cctz@time_internal@absl@@AEBU3456@1@Z
    ??$__invoke@AEAU__identity@__Cr@std@@AEAPEAVLogSink@absl@@@__Cr@std@@YAAEAPEAVLogSink@absl@@AEAU__identity@01@AEAPEAV23@@Z
    ??$__invoke@AEAU__identity@__Cr@std@@AEAPEBVCommandLineFlag@absl@@@__Cr@std@@YAAEAPEBVCommandLineFlag@absl@@AEAU__identity@01@AEAPEBV23@@Z
    ??$__invoke@AEAU__identity@__Cr@std@@AEBUTransition@cctz@time_internal@absl@@@__Cr@std@@YAAEBUTransition@cctz@time_internal@absl@@AEAU__identity@01@AEBU2345@@Z
    ??$__invoke@AEAV<lambda_1>@?0??SaveFromRegistry@FlagSaverImpl@flags_internal@absl@@QEAAXXZ@AEAVCommandLineFlag@5@@__Cr@std@@YAXAEAV<lambda_1>@?0??SaveFromRegistry@FlagSaverImpl@flags_internal@absl@@QEAAXXZ@AEAVCommandLineFlag@6@@Z
    ??$__invoke@P8FlagImpl@flags_internal@absl@@EAAXXZPEAV123@$$VX@__Cr@std@@YAX$$QEAP8FlagImpl@flags_internal@absl@@EAAXXZ$$QEAPEAV234@@Z
    ??$__invoke@U?$__value_visitor@UBufferSizeVisitor@?1??BufferSizeForStructuredProtoField@log_internal@absl@@YA_KUStructuredProtoField@34@@Z@@__variant@__visitation@__variant_detail@__Cr@std@@AEAU?$__alt@$00V?$variant@_K_JN@__Cr@std@@@456@@__Cr@std@@YA_K$$QEAU?$__value_visitor@UBufferSizeVisitor@?1??BufferSizeForStructuredProtoField@log_internal@absl@@YA_KUStructuredProtoField@34@@Z@@__variant@__visitation@__variant_detail@01@AEAU?$__alt@$00V?$variant@_K_JN@__Cr@std@@@501@@Z
    ??$__invoke@U?$__value_visitor@UBufferSizeVisitor@?1??BufferSizeForStructuredProtoField@log_internal@absl@@YA_KUStructuredProtoField@34@@Z@@__variant@__visitation@__variant_detail@__Cr@std@@AEAU?$__alt@$01V?$Span@$$CBD@absl@@@456@@__Cr@std@@YA_K$$QEAU?$__value_visitor@UBufferSizeVisitor@?1??BufferSizeForStructuredProtoField@log_internal@absl@@YA_KUStructuredProtoField@34@@Z@@__variant@__visitation@__variant_detail@01@AEAU?$__alt@$01V?$Span@$$CBD@absl@@@501@@Z
    ??$__invoke@U?$__value_visitor@UBufferSizeVisitor@?1??BufferSizeForStructuredProtoField@log_internal@absl@@YA_KUStructuredProtoField@34@@Z@@__variant@__visitation@__variant_detail@__Cr@std@@AEAU?$__alt@$02V?$variant@IHM@__Cr@std@@@456@@__Cr@std@@YA_K$$QEAU?$__value_visitor@UBufferSizeVisitor@?1??BufferSizeForStructuredProtoField@log_internal@absl@@YA_KUStructuredProtoField@34@@Z@@__variant@__visitation@__variant_detail@01@AEAU?$__alt@$02V?$variant@IHM@__Cr@std@@@501@@Z
    ??$__invoke@U?$__value_visitor@UBufferSizeVisitor@?1??BufferSizeForStructuredProtoField@log_internal@absl@@YA_KUStructuredProtoField@34@@Z@@__variant@__visitation@__variant_detail@__Cr@std@@AEAU?$__alt@$0A@V?$variant@_K_JIH_N@__Cr@std@@@456@@__Cr@std@@YA_K$$QEAU?$__value_visitor@UBufferSizeVisitor@?1??BufferSizeForStructuredProtoField@log_internal@absl@@YA_KUStructuredProtoField@34@@Z@@__variant@__visitation@__variant_detail@01@AEAU?$__alt@$0A@V?$variant@_K_JIH_N@__Cr@std@@@501@@Z
    ??$__invoke@UBufferSizeVisitor@?1??BufferSizeForStructuredProtoField@log_internal@absl@@YA_KUStructuredProtoField@34@@Z@AEAV?$Span@$$CBD@4@@__Cr@std@@YA_K$$QEAUBufferSizeVisitor@?1??BufferSizeForStructuredProtoField@log_internal@absl@@YA_KUStructuredProtoField@45@@Z@AEAV?$Span@$$CBD@5@@Z
    ??$__invoke@UBufferSizeVisitor@?1??BufferSizeForStructuredProtoField@log_internal@absl@@YA_KUStructuredProtoField@34@@Z@AEAV?$variant@IHM@__Cr@std@@@__Cr@std@@YA_K$$QEAUBufferSizeVisitor@?1??BufferSizeForStructuredProtoField@log_internal@absl@@YA_KUStructuredProtoField@45@@Z@AEAV?$variant@IHM@01@@Z
    ??$__invoke@UBufferSizeVisitor@?1??BufferSizeForStructuredProtoField@log_internal@absl@@YA_KUStructuredProtoField@34@@Z@AEAV?$variant@_K_JIH_N@__Cr@std@@@__Cr@std@@YA_K$$QEAUBufferSizeVisitor@?1??BufferSizeForStructuredProtoField@log_internal@absl@@YA_KUStructuredProtoField@45@@Z@AEAV?$variant@_K_JIH_N@01@@Z
    ??$__invoke@UBufferSizeVisitor@?1??BufferSizeForStructuredProtoField@log_internal@absl@@YA_KUStructuredProtoField@34@@Z@AEAV?$variant@_K_JN@__Cr@std@@@__Cr@std@@YA_K$$QEAUBufferSizeVisitor@?1??BufferSizeForStructuredProtoField@log_internal@absl@@YA_KUStructuredProtoField@45@@Z@AEAV?$variant@_K_JN@01@@Z
    ??$__invoke_r@XAEAV<lambda_1>@?0??SaveFromRegistry@FlagSaverImpl@flags_internal@absl@@QEAAXXZ@AEAVCommandLineFlag@5@@__Cr@std@@YAXAEAV<lambda_1>@?0??SaveFromRegistry@FlagSaverImpl@flags_internal@absl@@QEAAXXZ@AEAVCommandLineFlag@6@@Z
    ??$__iter_move@AEAPEAPEAVCommandLineFlag@absl@@$0A@@?$_IterOps@U_ClassicAlgPolicy@__Cr@std@@@__Cr@std@@SA$$QEAPEAVCommandLineFlag@absl@@AEAPEAPEAV34@@Z
    ??$__iter_move@AEAPEAPEBVCommandLineFlag@absl@@$0A@@?$_IterOps@U_ClassicAlgPolicy@__Cr@std@@@__Cr@std@@SA$$QEAPEBVCommandLineFlag@absl@@AEAPEAPEBV34@@Z
    ??$__launder@$$CBU?$pair@$$CBV?$basic_string@DU?$char_traits@D@__Cr@std@@V?$allocator@D@23@@__Cr@std@@PEBVImpl@time_zone@cctz@time_internal@absl@@@__Cr@std@@@__Cr@std@@YAPEBU?$pair@$$CBV?$basic_string@DU?$char_traits@D@__Cr@std@@V?$allocator@D@23@@__Cr@std@@PEBVImpl@time_zone@cctz@time_internal@absl@@@01@PEBU201@@Z
    ??$__launder@$$CBU?$pair@$$CBV?$basic_string@DU?$char_traits@D@__Cr@std@@V?$allocator@D@23@@__Cr@std@@V?$map@V?$basic_string@DU?$char_traits@D@__Cr@std@@V?$allocator@D@23@@__Cr@std@@V?$vector@PEBVCommandLineFlag@absl@@V?$allocator@PEBVCommandLineFlag@absl@@@__Cr@std@@@23@U?$less@V?$basic_string@DU?$char_traits@D@__Cr@std@@V?$allocator@D@23@@__Cr@std@@@23@V?$allocator@U?$pair@$$CBV?$basic_string@DU?$char_traits@D@__Cr@std@@V?$allocator@D@23@@__Cr@std@@V?$vector@PEBVCommandLineFlag@absl@@V?$allocator@PEBVCommandLineFlag@absl@@@__Cr@std@@@23@@__Cr@std@@@23@@23@@__Cr@std@@@__Cr@std@@YAPEBU?$pair@$$CBV?$basic_string@DU?$char_traits@D@__Cr@std@@V?$allocator@D@23@@__Cr@std@@V?$map@V?$basic_string@DU?$char_traits@D@__Cr@std@@V?$allocator@D@23@@__Cr@std@@V?$vector@PEBVCommandLineFlag@absl@@V?$allocator@PEBVCommandLineFlag@absl@@@__Cr@std@@@23@U?$less@V?$basic_string@DU?$char_traits@D@__Cr@std@@V?$allocator@D@23@@__Cr@std@@@23@V?$allocator@U?$pair@$$CBV?$basic_string@DU?$char_traits@D@__Cr@std@@V?$allocator@D@23@@__Cr@std@@V?$vector@PEBVCommandLineFlag@absl@@V?$allocator@PEBVCommandLineFlag@absl@@@__Cr@std@@@23@@__Cr@std@@@23@@23@@01@PEBU201@@Z
    ??$__launder@$$CBU?$pair@$$CBV?$basic_string@DU?$char_traits@D@__Cr@std@@V?$allocator@D@23@@__Cr@std@@V?$vector@PEBVCommandLineFlag@absl@@V?$allocator@PEBVCommandLineFlag@absl@@@__Cr@std@@@23@@__Cr@std@@@__Cr@std@@YAPEBU?$pair@$$CBV?$basic_string@DU?$char_traits@D@__Cr@std@@V?$allocator@D@23@@__Cr@std@@V?$vector@PEBVCommandLineFlag@absl@@V?$allocator@PEBVCommandLineFlag@absl@@@__Cr@std@@@23@@01@PEBU201@@Z
    ??$__launder@U?$pair@$$CBV?$basic_string@DU?$char_traits@D@__Cr@std@@V?$allocator@D@23@@__Cr@std@@PEBVImpl@time_zone@cctz@time_internal@absl@@@__Cr@std@@@__Cr@std@@YAPEAU?$pair@$$CBV?$basic_string@DU?$char_traits@D@__Cr@std@@V?$allocator@D@23@@__Cr@std@@PEBVImpl@time_zone@cctz@time_internal@absl@@@01@PEAU201@@Z
    ??$__launder@U?$pair@$$CBV?$basic_string@DU?$char_traits@D@__Cr@std@@V?$allocator@D@23@@__Cr@std@@V?$map@V?$basic_string@DU?$char_traits@D@__Cr@std@@V?$allocator@D@23@@__Cr@std@@V?$vector@PEBVCommandLineFlag@absl@@V?$allocator@PEBVCommandLineFlag@absl@@@__Cr@std@@@23@U?$less@V?$basic_string@DU?$char_traits@D@__Cr@std@@V?$allocator@D@23@@__Cr@std@@@23@V?$allocator@U?$pair@$$CBV?$basic_string@DU?$char_traits@D@__Cr@std@@V?$allocator@D@23@@__Cr@std@@V?$vector@PEBVCommandLineFlag@absl@@V?$allocator@PEBVCommandLineFlag@absl@@@__Cr@std@@@23@@__Cr@std@@@23@@23@@__Cr@std@@@__Cr@std@@YAPEAU?$pair@$$CBV?$basic_string@DU?$char_traits@D@__Cr@std@@V?$allocator@D@23@@__Cr@std@@V?$map@V?$basic_string@DU?$char_traits@D@__Cr@std@@V?$allocator@D@23@@__Cr@std@@V?$vector@PEBVCommandLineFlag@absl@@V?$allocator@PEBVCommandLineFlag@absl@@@__Cr@std@@@23@U?$less@V?$basic_string@DU?$char_traits@D@__Cr@std@@V?$allocator@D@23@@__Cr@std@@@23@V?$allocator@U?$pair@$$CBV?$basic_string@DU?$char_traits@D@__Cr@std@@V?$allocator@D@23@@__Cr@std@@V?$vector@PEBVCommandLineFlag@absl@@V?$allocator@PEBVCommandLineFlag@absl@@@__Cr@std@@@23@@__Cr@std@@@23@@23@@01@PEAU201@@Z
    ??$__launder@U?$pair@$$CBV?$basic_string@DU?$char_traits@D@__Cr@std@@V?$allocator@D@23@@__Cr@std@@V?$vector@PEBVCommandLineFlag@absl@@V?$allocator@PEBVCommandLineFlag@absl@@@__Cr@std@@@23@@__Cr@std@@@__Cr@std@@YAPEAU?$pair@$$CBV?$basic_string@DU?$char_traits@D@__Cr@std@@V?$allocator@D@23@@__Cr@std@@V?$vector@PEBVCommandLineFlag@absl@@V?$allocator@PEBVCommandLineFlag@absl@@@__Cr@std@@@23@@01@PEAU201@@Z
    ??$__launder@U?$pair@$$CBV?$basic_string_view@DU?$char_traits@D@__Cr@std@@@__Cr@std@@PEAVCommandLineFlag@absl@@@__Cr@std@@@__Cr@std@@YAPEAU?$pair@$$CBV?$basic_string_view@DU?$char_traits@D@__Cr@std@@@__Cr@std@@PEAVCommandLineFlag@absl@@@01@PEAU201@@Z
    ??$__launder@URefcountedRep@CrcCordState@crc_internal@absl@@@__Cr@std@@YAPEAURefcountedRep@CrcCordState@crc_internal@absl@@PEAU2345@@Z
    ??$__launder@V?$SampleRecorder@UHashtablezInfo@container_internal@absl@@@profiling_internal@absl@@@__Cr@std@@YAPEAV?$SampleRecorder@UHashtablezInfo@container_internal@absl@@@profiling_internal@absl@@PEAV234@@Z
    ??$__launder@VFlagRegistry@flags_internal@absl@@@__Cr@std@@YAPEAVFlagRegistry@flags_internal@absl@@PEAV234@@Z
    ??$__launder@VMutex@absl@@@__Cr@std@@YAPEAVMutex@absl@@PEAV23@@Z
    ??$__libcpp_allocate@PEAPEBVImpl@time_zone@cctz@time_internal@absl@@@__Cr@std@@YAPEAPEAPEBVImpl@time_zone@cctz@time_internal@absl@@W4__element_count@01@_K@Z
    ??$__libcpp_allocate@PEAU?$__hash_node_base@PEAU?$__hash_node@PEBUCordRep@cord_internal@absl@@PEAX@__Cr@std@@@__Cr@std@@@__Cr@std@@YAPEAPEAU?$__hash_node_base@PEAU?$__hash_node@PEBUCordRep@cord_internal@absl@@PEAX@__Cr@std@@@01@W4__element_count@01@_K@Z
    ??$__libcpp_allocate@PEAU?$__hash_node_base@PEAU?$__hash_node@U?$__hash_value_type@V?$basic_string@DU?$char_traits@D@__Cr@std@@V?$allocator@D@23@@__Cr@std@@PEBVImpl@time_zone@cctz@time_internal@absl@@@__Cr@std@@PEAX@__Cr@std@@@__Cr@std@@@__Cr@std@@YAPEAPEAU?$__hash_node_base@PEAU?$__hash_node@U?$__hash_value_type@V?$basic_string@DU?$char_traits@D@__Cr@std@@V?$allocator@D@23@@__Cr@std@@PEBVImpl@time_zone@cctz@time_internal@absl@@@__Cr@std@@PEAX@__Cr@std@@@01@W4__element_count@01@_K@Z
    ??$__libcpp_allocate@PEAUCordRep@cord_internal@absl@@@__Cr@std@@YAPEAPEAUCordRep@cord_internal@absl@@W4__element_count@01@_K@Z
    ??$__libcpp_allocate@PEAUPrefixCrc@CrcCordState@crc_internal@absl@@@__Cr@std@@YAPEAPEAUPrefixCrc@CrcCordState@crc_internal@absl@@W4__element_count@01@_K@Z
    ??$__libcpp_allocate@PEAVCommandLineFlag@absl@@@__Cr@std@@YAPEAPEAVCommandLineFlag@absl@@W4__element_count@01@_K@Z
    ??$__libcpp_allocate@PEAVCordzHandle@cord_internal@absl@@@__Cr@std@@YAPEAPEAVCordzHandle@cord_internal@absl@@W4__element_count@01@_K@Z
    ??$__libcpp_allocate@PEAVLogSink@absl@@@__Cr@std@@YAPEAPEAVLogSink@absl@@W4__element_count@01@_K@Z
    ??$__libcpp_allocate@PEBVCommandLineFlag@absl@@@__Cr@std@@YAPEAPEBVCommandLineFlag@absl@@W4__element_count@01@_K@Z
    ??$__libcpp_allocate@PEBVCordzHandle@cord_internal@absl@@@__Cr@std@@YAPEAPEBVCordzHandle@cord_internal@absl@@W4__element_count@01@_K@Z
    ??$__libcpp_allocate@PEBVImpl@time_zone@cctz@time_internal@absl@@@__Cr@std@@YAPEAPEBVImpl@time_zone@cctz@time_internal@absl@@W4__element_count@01@_K@Z
    ??$__libcpp_allocate@U?$AlignedType@$07@container_internal@absl@@@__Cr@std@@YAPEAU?$AlignedType@$07@container_internal@absl@@W4__element_count@01@_K@Z
    ??$__libcpp_allocate@U?$__hash_node@PEBUCordRep@cord_internal@absl@@PEAX@__Cr@std@@@__Cr@std@@YAPEAU?$__hash_node@PEBUCordRep@cord_internal@absl@@PEAX@01@W4__element_count@01@_K@Z
    ??$__libcpp_allocate@U?$__hash_node@U?$__hash_value_type@V?$basic_string@DU?$char_traits@D@__Cr@std@@V?$allocator@D@23@@__Cr@std@@PEBVImpl@time_zone@cctz@time_internal@absl@@@__Cr@std@@PEAX@__Cr@std@@@__Cr@std@@YAPEAU?$__hash_node@U?$__hash_value_type@V?$basic_string@DU?$char_traits@D@__Cr@std@@V?$allocator@D@23@@__Cr@std@@PEBVImpl@time_zone@cctz@time_internal@absl@@@__Cr@std@@PEAX@01@W4__element_count@01@_K@Z
    ??$__libcpp_allocate@UAlignedSpace@?1???$FlagOps@V?$vector@V?$basic_string@DU?$char_traits@D@__Cr@std@@V?$allocator@D@23@@__Cr@std@@V?$allocator@V?$basic_string@DU?$char_traits@D@__Cr@std@@V?$allocator@D@23@@__Cr@std@@@23@@__Cr@std@@@flags_internal@absl@@YAPEAXW4FlagOp@23@PEBXPEAX2@Z@@__Cr@std@@YAPEAUAlignedSpace@?1???$FlagOps@V?$vector@V?$basic_string@DU?$char_traits@D@__Cr@std@@V?$allocator@D@23@@__Cr@std@@V?$allocator@V?$basic_string@DU?$char_traits@D@__Cr@std@@V?$allocator@D@23@@__Cr@std@@@23@@__Cr@std@@@flags_internal@absl@@YAPEAXW4FlagOp@34@PEBXPEAX2@Z@W4__element_count@01@_K@Z
    ??$__libcpp_allocate@UConversionItem@ParsedFormatBase@str_format_internal@absl@@@__Cr@std@@YAPEAUConversionItem@ParsedFormatBase@str_format_internal@absl@@W4__element_count@01@_K@Z
    ??$__libcpp_allocate@UPayload@status_internal@absl@@@__Cr@std@@YAPEAUPayload@status_internal@absl@@W4__element_count@01@_K@Z
    ??$__libcpp_allocate@UPrefixCrc@CrcCordState@crc_internal@absl@@@__Cr@std@@YAPEAUPrefixCrc@CrcCordState@crc_internal@absl@@W4__element_count@01@_K@Z
    ??$__libcpp_allocate@UTransition@cctz@time_internal@absl@@@__Cr@std@@YAPEAUTransition@cctz@time_internal@absl@@W4__element_count@01@_K@Z
    ??$__libcpp_allocate@UTransitionType@cctz@time_internal@absl@@@__Cr@std@@YAPEAUTransitionType@cctz@time_internal@absl@@W4__element_count@01@_K@Z
    ??$__libcpp_allocate@UUnrecognizedFlag@absl@@@__Cr@std@@YAPEAUUnrecognizedFlag@absl@@W4__element_count@01@_K@Z
    ??$__libcpp_allocate@UViableSubstitution@strings_internal@absl@@@__Cr@std@@YAPEAUViableSubstitution@strings_internal@absl@@W4__element_count@01@_K@Z
    ??$__libcpp_allocate@V?$__tree_node@U?$__value_type@V?$basic_string@DU?$char_traits@D@__Cr@std@@V?$allocator@D@23@@__Cr@std@@V?$map@V?$basic_string@DU?$char_traits@D@__Cr@std@@V?$allocator@D@23@@__Cr@std@@V?$vector@PEBVCommandLineFlag@absl@@V?$allocator@PEBVCommandLineFlag@absl@@@__Cr@std@@@23@U?$less@V?$basic_string@DU?$char_traits@D@__Cr@std@@V?$allocator@D@23@@__Cr@std@@@23@V?$allocator@U?$pair@$$CBV?$basic_string@DU?$char_traits@D@__Cr@std@@V?$allocator@D@23@@__Cr@std@@V?$vector@PEBVCommandLineFlag@absl@@V?$allocator@PEBVCommandLineFlag@absl@@@__Cr@std@@@23@@__Cr@std@@@23@@23@@__Cr@std@@PEAX@__Cr@std@@@__Cr@std@@YAPEAV?$__tree_node@U?$__value_type@V?$basic_string@DU?$char_traits@D@__Cr@std@@V?$allocator@D@23@@__Cr@std@@V?$map@V?$basic_string@DU?$char_traits@D@__Cr@std@@V?$allocator@D@23@@__Cr@std@@V?$vector@PEBVCommandLineFlag@absl@@V?$allocator@PEBVCommandLineFlag@absl@@@__Cr@std@@@23@U?$less@V?$basic_string@DU?$char_traits@D@__Cr@std@@V?$allocator@D@23@@__Cr@std@@@23@V?$allocator@U?$pair@$$CBV?$basic_string@DU?$char_traits@D@__Cr@std@@V?$allocator@D@23@@__Cr@std@@V?$vector@PEBVCommandLineFlag@absl@@V?$allocator@PEBVCommandLineFlag@absl@@@__Cr@std@@@23@@__Cr@std@@@23@@23@@__Cr@std@@PEAX@01@W4__element_count@01@_K@Z
    ??$__libcpp_allocate@V?$__tree_node@U?$__value_type@V?$basic_string@DU?$char_traits@D@__Cr@std@@V?$allocator@D@23@@__Cr@std@@V?$vector@PEBVCommandLineFlag@absl@@V?$allocator@PEBVCommandLineFlag@absl@@@__Cr@std@@@23@@__Cr@std@@PEAX@__Cr@std@@@__Cr@std@@YAPEAV?$__tree_node@U?$__value_type@V?$basic_string@DU?$char_traits@D@__Cr@std@@V?$allocator@D@23@@__Cr@std@@V?$vector@PEBVCommandLineFlag@absl@@V?$allocator@PEBVCommandLineFlag@absl@@@__Cr@std@@@23@@__Cr@std@@PEAX@01@W4__element_count@01@_K@Z
    ??$__libcpp_allocate@V?$unique_ptr@VFlagStateInterface@flags_internal@absl@@U?$default_delete@VFlagStateInterface@flags_internal@absl@@@__Cr@std@@@__Cr@std@@@__Cr@std@@YAPEAV?$unique_ptr@VFlagStateInterface@flags_internal@absl@@U?$default_delete@VFlagStateInterface@flags_internal@absl@@@__Cr@std@@@01@W4__element_count@01@_K@Z
    ??$__libcpp_allocate@VFormatArgImpl@str_format_internal@absl@@@__Cr@std@@YAPEAVFormatArgImpl@str_format_internal@absl@@W4__element_count@01@_K@Z
    ??$__libcpp_deallocate@PEAPEBVImpl@time_zone@cctz@time_internal@absl@@@__Cr@std@@YAXPEAPEAPEBVImpl@time_zone@cctz@time_internal@absl@@W4__element_count@01@_K@Z
    ??$__libcpp_deallocate@PEAU?$__hash_node_base@PEAU?$__hash_node@PEBUCordRep@cord_internal@absl@@PEAX@__Cr@std@@@__Cr@std@@@__Cr@std@@YAXPEAPEAU?$__hash_node_base@PEAU?$__hash_node@PEBUCordRep@cord_internal@absl@@PEAX@__Cr@std@@@01@W4__element_count@01@_K@Z
    ??$__libcpp_deallocate@PEAU?$__hash_node_base@PEAU?$__hash_node@U?$__hash_value_type@V?$basic_string@DU?$char_traits@D@__Cr@std@@V?$allocator@D@23@@__Cr@std@@PEBVImpl@time_zone@cctz@time_internal@absl@@@__Cr@std@@PEAX@__Cr@std@@@__Cr@std@@@__Cr@std@@YAXPEAPEAU?$__hash_node_base@PEAU?$__hash_node@U?$__hash_value_type@V?$basic_string@DU?$char_traits@D@__Cr@std@@V?$allocator@D@23@@__Cr@std@@PEBVImpl@time_zone@cctz@time_internal@absl@@@__Cr@std@@PEAX@__Cr@std@@@01@W4__element_count@01@_K@Z
    ??$__libcpp_deallocate@PEAUCordRep@cord_internal@absl@@@__Cr@std@@YAXPEAPEAUCordRep@cord_internal@absl@@W4__element_count@01@_K@Z
    ??$__libcpp_deallocate@PEAUPrefixCrc@CrcCordState@crc_internal@absl@@@__Cr@std@@YAXPEAPEAUPrefixCrc@CrcCordState@crc_internal@absl@@W4__element_count@01@_K@Z
    ??$__libcpp_deallocate@PEAVCommandLineFlag@absl@@@__Cr@std@@YAXPEAPEAVCommandLineFlag@absl@@W4__element_count@01@_K@Z
    ??$__libcpp_deallocate@PEAVCordzHandle@cord_internal@absl@@@__Cr@std@@YAXPEAPEAVCordzHandle@cord_internal@absl@@W4__element_count@01@_K@Z
    ??$__libcpp_deallocate@PEAVLogSink@absl@@@__Cr@std@@YAXPEAPEAVLogSink@absl@@W4__element_count@01@_K@Z
    ??$__libcpp_deallocate@PEBVCommandLineFlag@absl@@@__Cr@std@@YAXPEAPEBVCommandLineFlag@absl@@W4__element_count@01@_K@Z
    ??$__libcpp_deallocate@PEBVCordzHandle@cord_internal@absl@@@__Cr@std@@YAXPEAPEBVCordzHandle@cord_internal@absl@@W4__element_count@01@_K@Z
    ??$__libcpp_deallocate@PEBVImpl@time_zone@cctz@time_internal@absl@@@__Cr@std@@YAXPEAPEBVImpl@time_zone@cctz@time_internal@absl@@W4__element_count@01@_K@Z
    ??$__libcpp_deallocate@U?$AlignedType@$07@container_internal@absl@@@__Cr@std@@YAXPEAU?$AlignedType@$07@container_internal@absl@@W4__element_count@01@_K@Z
    ??$__libcpp_deallocate@U?$__hash_node@PEBUCordRep@cord_internal@absl@@PEAX@__Cr@std@@@__Cr@std@@YAXPEAU?$__hash_node@PEBUCordRep@cord_internal@absl@@PEAX@01@W4__element_count@01@_K@Z
    ??$__libcpp_deallocate@U?$__hash_node@U?$__hash_value_type@V?$basic_string@DU?$char_traits@D@__Cr@std@@V?$allocator@D@23@@__Cr@std@@PEBVImpl@time_zone@cctz@time_internal@absl@@@__Cr@std@@PEAX@__Cr@std@@@__Cr@std@@YAXPEAU?$__hash_node@U?$__hash_value_type@V?$basic_string@DU?$char_traits@D@__Cr@std@@V?$allocator@D@23@@__Cr@std@@PEBVImpl@time_zone@cctz@time_internal@absl@@@__Cr@std@@PEAX@01@W4__element_count@01@_K@Z
    ??$__libcpp_deallocate@UAlignedSpace@?1???$FlagOps@V?$vector@V?$basic_string@DU?$char_traits@D@__Cr@std@@V?$allocator@D@23@@__Cr@std@@V?$allocator@V?$basic_string@DU?$char_traits@D@__Cr@std@@V?$allocator@D@23@@__Cr@std@@@23@@__Cr@std@@@flags_internal@absl@@YAPEAXW4FlagOp@23@PEBXPEAX2@Z@@__Cr@std@@YAXPEAUAlignedSpace@?1???$FlagOps@V?$vector@V?$basic_string@DU?$char_traits@D@__Cr@std@@V?$allocator@D@23@@__Cr@std@@V?$allocator@V?$basic_string@DU?$char_traits@D@__Cr@std@@V?$allocator@D@23@@__Cr@std@@@23@@__Cr@std@@@flags_internal@absl@@YAPEAXW4FlagOp@34@PEBXPEAX2@Z@W4__element_count@01@_K@Z
    ??$__libcpp_deallocate@UConversionItem@ParsedFormatBase@str_format_internal@absl@@@__Cr@std@@YAXPEAUConversionItem@ParsedFormatBase@str_format_internal@absl@@W4__element_count@01@_K@Z
    ??$__libcpp_deallocate@UPayload@status_internal@absl@@@__Cr@std@@YAXPEAUPayload@status_internal@absl@@W4__element_count@01@_K@Z
    ??$__libcpp_deallocate@UPrefixCrc@CrcCordState@crc_internal@absl@@@__Cr@std@@YAXPEAUPrefixCrc@CrcCordState@crc_internal@absl@@W4__element_count@01@_K@Z
    ??$__libcpp_deallocate@UTransition@cctz@time_internal@absl@@@__Cr@std@@YAXPEAUTransition@cctz@time_internal@absl@@W4__element_count@01@_K@Z
    ??$__libcpp_deallocate@UTransitionType@cctz@time_internal@absl@@@__Cr@std@@YAXPEAUTransitionType@cctz@time_internal@absl@@W4__element_count@01@_K@Z
    ??$__libcpp_deallocate@UUnrecognizedFlag@absl@@@__Cr@std@@YAXPEAUUnrecognizedFlag@absl@@W4__element_count@01@_K@Z
    ??$__libcpp_deallocate@UViableSubstitution@strings_internal@absl@@@__Cr@std@@YAXPEAUViableSubstitution@strings_internal@absl@@W4__element_count@01@_K@Z
    ??$__libcpp_deallocate@V?$__tree_node@U?$__value_type@V?$basic_string@DU?$char_traits@D@__Cr@std@@V?$allocator@D@23@@__Cr@std@@V?$map@V?$basic_string@DU?$char_traits@D@__Cr@std@@V?$allocator@D@23@@__Cr@std@@V?$vector@PEBVCommandLineFlag@absl@@V?$allocator@PEBVCommandLineFlag@absl@@@__Cr@std@@@23@U?$less@V?$basic_string@DU?$char_traits@D@__Cr@std@@V?$allocator@D@23@@__Cr@std@@@23@V?$allocator@U?$pair@$$CBV?$basic_string@DU?$char_traits@D@__Cr@std@@V?$allocator@D@23@@__Cr@std@@V?$vector@PEBVCommandLineFlag@absl@@V?$allocator@PEBVCommandLineFlag@absl@@@__Cr@std@@@23@@__Cr@std@@@23@@23@@__Cr@std@@PEAX@__Cr@std@@@__Cr@std@@YAXPEAV?$__tree_node@U?$__value_type@V?$basic_string@DU?$char_traits@D@__Cr@std@@V?$allocator@D@23@@__Cr@std@@V?$map@V?$basic_string@DU?$char_traits@D@__Cr@std@@V?$allocator@D@23@@__Cr@std@@V?$vector@PEBVCommandLineFlag@absl@@V?$allocator@PEBVCommandLineFlag@absl@@@__Cr@std@@@23@U?$less@V?$basic_string@DU?$char_traits@D@__Cr@std@@V?$allocator@D@23@@__Cr@std@@@23@V?$allocator@U?$pair@$$CBV?$basic_string@DU?$char_traits@D@__Cr@std@@V?$allocator@D@23@@__Cr@std@@V?$vector@PEBVCommandLineFlag@absl@@V?$allocator@PEBVCommandLineFlag@absl@@@__Cr@std@@@23@@__Cr@std@@@23@@23@@__Cr@std@@PEAX@01@W4__element_count@01@_K@Z
    ??$__libcpp_deallocate@V?$__tree_node@U?$__value_type@V?$basic_string@DU?$char_traits@D@__Cr@std@@V?$allocator@D@23@@__Cr@std@@V?$vector@PEBVCommandLineFlag@absl@@V?$allocator@PEBVCommandLineFlag@absl@@@__Cr@std@@@23@@__Cr@std@@PEAX@__Cr@std@@@__Cr@std@@YAXPEAV?$__tree_node@U?$__value_type@V?$basic_string@DU?$char_traits@D@__Cr@std@@V?$allocator@D@23@@__Cr@std@@V?$vector@PEBVCommandLineFlag@absl@@V?$allocator@PEBVCommandLineFlag@absl@@@__Cr@std@@@23@@__Cr@std@@PEAX@01@W4__element_count@01@_K@Z
    ??$__libcpp_deallocate@V?$unique_ptr@VFlagStateInterface@flags_internal@absl@@U?$default_delete@VFlagStateInterface@flags_internal@absl@@@__Cr@std@@@__Cr@std@@@__Cr@std@@YAXPEAV?$unique_ptr@VFlagStateInterface@flags_internal@absl@@U?$default_delete@VFlagStateInterface@flags_internal@absl@@@__Cr@std@@@01@W4__element_count@01@_K@Z
    ??$__libcpp_deallocate@VFormatArgImpl@str_format_internal@absl@@@__Cr@std@@YAXPEAVFormatArgImpl@str_format_internal@absl@@W4__element_count@01@_K@Z
    ??$__libcpp_operator_delete@PEAPEAPEBVImpl@time_zone@cctz@time_internal@absl@@@__Cr@std@@YAXPEAPEAPEBVImpl@time_zone@cctz@time_internal@absl@@@Z
    ??$__libcpp_operator_delete@PEAPEAPEBVImpl@time_zone@cctz@time_internal@absl@@W4align_val_t@std@@@__Cr@std@@YAXPEAPEAPEBVImpl@time_zone@cctz@time_internal@absl@@W4align_val_t@1@@Z
    ??$__libcpp_operator_delete@PEAPEAU?$__hash_node_base@PEAU?$__hash_node@PEBUCordRep@cord_internal@absl@@PEAX@__Cr@std@@@__Cr@std@@@__Cr@std@@YAXPEAPEAU?$__hash_node_base@PEAU?$__hash_node@PEBUCordRep@cord_internal@absl@@PEAX@__Cr@std@@@01@@Z
    ??$__libcpp_operator_delete@PEAPEAU?$__hash_node_base@PEAU?$__hash_node@PEBUCordRep@cord_internal@absl@@PEAX@__Cr@std@@@__Cr@std@@W4align_val_t@3@@__Cr@std@@YAXPEAPEAU?$__hash_node_base@PEAU?$__hash_node@PEBUCordRep@cord_internal@absl@@PEAX@__Cr@std@@@01@W4align_val_t@1@@Z
    ??$__libcpp_operator_delete@PEAPEAU?$__hash_node_base@PEAU?$__hash_node@U?$__hash_value_type@V?$basic_string@DU?$char_traits@D@__Cr@std@@V?$allocator@D@23@@__Cr@std@@PEBVImpl@time_zone@cctz@time_internal@absl@@@__Cr@std@@PEAX@__Cr@std@@@__Cr@std@@@__Cr@std@@YAXPEAPEAU?$__hash_node_base@PEAU?$__hash_node@U?$__hash_value_type@V?$basic_string@DU?$char_traits@D@__Cr@std@@V?$allocator@D@23@@__Cr@std@@PEBVImpl@time_zone@cctz@time_internal@absl@@@__Cr@std@@PEAX@__Cr@std@@@01@@Z
    ??$__libcpp_operator_delete@PEAPEAU?$__hash_node_base@PEAU?$__hash_node@U?$__hash_value_type@V?$basic_string@DU?$char_traits@D@__Cr@std@@V?$allocator@D@23@@__Cr@std@@PEBVImpl@time_zone@cctz@time_internal@absl@@@__Cr@std@@PEAX@__Cr@std@@@__Cr@std@@W4align_val_t@3@@__Cr@std@@YAXPEAPEAU?$__hash_node_base@PEAU?$__hash_node@U?$__hash_value_type@V?$basic_string@DU?$char_traits@D@__Cr@std@@V?$allocator@D@23@@__Cr@std@@PEBVImpl@time_zone@cctz@time_internal@absl@@@__Cr@std@@PEAX@__Cr@std@@@01@W4align_val_t@1@@Z
    ??$__libcpp_operator_delete@PEAPEAUCordRep@cord_internal@absl@@@__Cr@std@@YAXPEAPEAUCordRep@cord_internal@absl@@@Z
    ??$__libcpp_operator_delete@PEAPEAUCordRep@cord_internal@absl@@W4align_val_t@std@@@__Cr@std@@YAXPEAPEAUCordRep@cord_internal@absl@@W4align_val_t@1@@Z
    ??$__libcpp_operator_delete@PEAPEAUPrefixCrc@CrcCordState@crc_internal@absl@@@__Cr@std@@YAXPEAPEAUPrefixCrc@CrcCordState@crc_internal@absl@@@Z
    ??$__libcpp_operator_delete@PEAPEAUPrefixCrc@CrcCordState@crc_internal@absl@@W4align_val_t@std@@@__Cr@std@@YAXPEAPEAUPrefixCrc@CrcCordState@crc_internal@absl@@W4align_val_t@1@@Z
    ??$__libcpp_operator_delete@PEAPEAVCommandLineFlag@absl@@@__Cr@std@@YAXPEAPEAVCommandLineFlag@absl@@@Z
    ??$__libcpp_operator_delete@PEAPEAVCommandLineFlag@absl@@W4align_val_t@std@@@__Cr@std@@YAXPEAPEAVCommandLineFlag@absl@@W4align_val_t@1@@Z
    ??$__libcpp_operator_delete@PEAPEAVCordzHandle@cord_internal@absl@@@__Cr@std@@YAXPEAPEAVCordzHandle@cord_internal@absl@@@Z
    ??$__libcpp_operator_delete@PEAPEAVCordzHandle@cord_internal@absl@@W4align_val_t@std@@@__Cr@std@@YAXPEAPEAVCordzHandle@cord_internal@absl@@W4align_val_t@1@@Z
    ??$__libcpp_operator_delete@PEAPEAVLogSink@absl@@@__Cr@std@@YAXPEAPEAVLogSink@absl@@@Z
    ??$__libcpp_operator_delete@PEAPEAVLogSink@absl@@W4align_val_t@std@@@__Cr@std@@YAXPEAPEAVLogSink@absl@@W4align_val_t@1@@Z
    ??$__libcpp_operator_delete@PEAPEBVCommandLineFlag@absl@@@__Cr@std@@YAXPEAPEBVCommandLineFlag@absl@@@Z
    ??$__libcpp_operator_delete@PEAPEBVCommandLineFlag@absl@@W4align_val_t@std@@@__Cr@std@@YAXPEAPEBVCommandLineFlag@absl@@W4align_val_t@1@@Z
    ??$__libcpp_operator_delete@PEAPEBVCordzHandle@cord_internal@absl@@@__Cr@std@@YAXPEAPEBVCordzHandle@cord_internal@absl@@@Z
    ??$__libcpp_operator_delete@PEAPEBVCordzHandle@cord_internal@absl@@W4align_val_t@std@@@__Cr@std@@YAXPEAPEBVCordzHandle@cord_internal@absl@@W4align_val_t@1@@Z
    ??$__libcpp_operator_delete@PEAPEBVImpl@time_zone@cctz@time_internal@absl@@@__Cr@std@@YAXPEAPEBVImpl@time_zone@cctz@time_internal@absl@@@Z
    ??$__libcpp_operator_delete@PEAPEBVImpl@time_zone@cctz@time_internal@absl@@W4align_val_t@std@@@__Cr@std@@YAXPEAPEBVImpl@time_zone@cctz@time_internal@absl@@W4align_val_t@1@@Z
    ??$__libcpp_operator_delete@PEAU?$AlignedType@$07@container_internal@absl@@@__Cr@std@@YAXPEAU?$AlignedType@$07@container_internal@absl@@@Z
    ??$__libcpp_operator_delete@PEAU?$AlignedType@$07@container_internal@absl@@W4align_val_t@std@@@__Cr@std@@YAXPEAU?$AlignedType@$07@container_internal@absl@@W4align_val_t@1@@Z
    ??$__libcpp_operator_delete@PEAU?$__hash_node@PEBUCordRep@cord_internal@absl@@PEAX@__Cr@std@@@__Cr@std@@YAXPEAU?$__hash_node@PEBUCordRep@cord_internal@absl@@PEAX@01@@Z
    ??$__libcpp_operator_delete@PEAU?$__hash_node@PEBUCordRep@cord_internal@absl@@PEAX@__Cr@std@@W4align_val_t@3@@__Cr@std@@YAXPEAU?$__hash_node@PEBUCordRep@cord_internal@absl@@PEAX@01@W4align_val_t@1@@Z
    ??$__libcpp_operator_delete@PEAU?$__hash_node@U?$__hash_value_type@V?$basic_string@DU?$char_traits@D@__Cr@std@@V?$allocator@D@23@@__Cr@std@@PEBVImpl@time_zone@cctz@time_internal@absl@@@__Cr@std@@PEAX@__Cr@std@@@__Cr@std@@YAXPEAU?$__hash_node@U?$__hash_value_type@V?$basic_string@DU?$char_traits@D@__Cr@std@@V?$allocator@D@23@@__Cr@std@@PEBVImpl@time_zone@cctz@time_internal@absl@@@__Cr@std@@PEAX@01@@Z
    ??$__libcpp_operator_delete@PEAU?$__hash_node@U?$__hash_value_type@V?$basic_string@DU?$char_traits@D@__Cr@std@@V?$allocator@D@23@@__Cr@std@@PEBVImpl@time_zone@cctz@time_internal@absl@@@__Cr@std@@PEAX@__Cr@std@@W4align_val_t@3@@__Cr@std@@YAXPEAU?$__hash_node@U?$__hash_value_type@V?$basic_string@DU?$char_traits@D@__Cr@std@@V?$allocator@D@23@@__Cr@std@@PEBVImpl@time_zone@cctz@time_internal@absl@@@__Cr@std@@PEAX@01@W4align_val_t@1@@Z
    ??$__libcpp_operator_delete@PEAUAlignedSpace@?1???$FlagOps@V?$vector@V?$basic_string@DU?$char_traits@D@__Cr@std@@V?$allocator@D@23@@__Cr@std@@V?$allocator@V?$basic_string@DU?$char_traits@D@__Cr@std@@V?$allocator@D@23@@__Cr@std@@@23@@__Cr@std@@@flags_internal@absl@@YAPEAXW4FlagOp@23@PEBXPEAX2@Z@@__Cr@std@@YAXPEAUAlignedSpace@?1???$FlagOps@V?$vector@V?$basic_string@DU?$char_traits@D@__Cr@std@@V?$allocator@D@23@@__Cr@std@@V?$allocator@V?$basic_string@DU?$char_traits@D@__Cr@std@@V?$allocator@D@23@@__Cr@std@@@23@@__Cr@std@@@flags_internal@absl@@YAPEAXW4FlagOp@34@PEBXPEAX2@Z@@Z
    ??$__libcpp_operator_delete@PEAUAlignedSpace@?1???$FlagOps@V?$vector@V?$basic_string@DU?$char_traits@D@__Cr@std@@V?$allocator@D@23@@__Cr@std@@V?$allocator@V?$basic_string@DU?$char_traits@D@__Cr@std@@V?$allocator@D@23@@__Cr@std@@@23@@__Cr@std@@@flags_internal@absl@@YAPEAXW4FlagOp@23@PEBXPEAX2@Z@W4align_val_t@std@@@__Cr@std@@YAXPEAUAlignedSpace@?1???$FlagOps@V?$vector@V?$basic_string@DU?$char_traits@D@__Cr@std@@V?$allocator@D@23@@__Cr@std@@V?$allocator@V?$basic_string@DU?$char_traits@D@__Cr@std@@V?$allocator@D@23@@__Cr@std@@@23@@__Cr@std@@@flags_internal@absl@@YAPEAXW4FlagOp@34@PEBXPEAX2@Z@W4align_val_t@1@@Z
    ??$__libcpp_operator_delete@PEAUConversionItem@ParsedFormatBase@str_format_internal@absl@@@__Cr@std@@YAXPEAUConversionItem@ParsedFormatBase@str_format_internal@absl@@@Z
    ??$__libcpp_operator_delete@PEAUConversionItem@ParsedFormatBase@str_format_internal@absl@@W4align_val_t@std@@@__Cr@std@@YAXPEAUConversionItem@ParsedFormatBase@str_format_internal@absl@@W4align_val_t@1@@Z
    ??$__libcpp_operator_delete@PEAUPayload@status_internal@absl@@@__Cr@std@@YAXPEAUPayload@status_internal@absl@@@Z
    ??$__libcpp_operator_delete@PEAUPayload@status_internal@absl@@W4align_val_t@std@@@__Cr@std@@YAXPEAUPayload@status_internal@absl@@W4align_val_t@1@@Z
    ??$__libcpp_operator_delete@PEAUPrefixCrc@CrcCordState@crc_internal@absl@@@__Cr@std@@YAXPEAUPrefixCrc@CrcCordState@crc_internal@absl@@@Z
    ??$__libcpp_operator_delete@PEAUPrefixCrc@CrcCordState@crc_internal@absl@@W4align_val_t@std@@@__Cr@std@@YAXPEAUPrefixCrc@CrcCordState@crc_internal@absl@@W4align_val_t@1@@Z
    ??$__libcpp_operator_delete@PEAUTransition@cctz@time_internal@absl@@@__Cr@std@@YAXPEAUTransition@cctz@time_internal@absl@@@Z
    ??$__libcpp_operator_delete@PEAUTransition@cctz@time_internal@absl@@W4align_val_t@std@@@__Cr@std@@YAXPEAUTransition@cctz@time_internal@absl@@W4align_val_t@1@@Z
    ??$__libcpp_operator_delete@PEAUTransitionType@cctz@time_internal@absl@@@__Cr@std@@YAXPEAUTransitionType@cctz@time_internal@absl@@@Z
    ??$__libcpp_operator_delete@PEAUTransitionType@cctz@time_internal@absl@@W4align_val_t@std@@@__Cr@std@@YAXPEAUTransitionType@cctz@time_internal@absl@@W4align_val_t@1@@Z
    ??$__libcpp_operator_delete@PEAUUnrecognizedFlag@absl@@@__Cr@std@@YAXPEAUUnrecognizedFlag@absl@@@Z
    ??$__libcpp_operator_delete@PEAUUnrecognizedFlag@absl@@W4align_val_t@std@@@__Cr@std@@YAXPEAUUnrecognizedFlag@absl@@W4align_val_t@1@@Z
    ??$__libcpp_operator_delete@PEAUViableSubstitution@strings_internal@absl@@@__Cr@std@@YAXPEAUViableSubstitution@strings_internal@absl@@@Z
    ??$__libcpp_operator_delete@PEAUViableSubstitution@strings_internal@absl@@W4align_val_t@std@@@__Cr@std@@YAXPEAUViableSubstitution@strings_internal@absl@@W4align_val_t@1@@Z
    ??$__libcpp_operator_delete@PEAV?$__tree_node@U?$__value_type@V?$basic_string@DU?$char_traits@D@__Cr@std@@V?$allocator@D@23@@__Cr@std@@V?$map@V?$basic_string@DU?$char_traits@D@__Cr@std@@V?$allocator@D@23@@__Cr@std@@V?$vector@PEBVCommandLineFlag@absl@@V?$allocator@PEBVCommandLineFlag@absl@@@__Cr@std@@@23@U?$less@V?$basic_string@DU?$char_traits@D@__Cr@std@@V?$allocator@D@23@@__Cr@std@@@23@V?$allocator@U?$pair@$$CBV?$basic_string@DU?$char_traits@D@__Cr@std@@V?$allocator@D@23@@__Cr@std@@V?$vector@PEBVCommandLineFlag@absl@@V?$allocator@PEBVCommandLineFlag@absl@@@__Cr@std@@@23@@__Cr@std@@@23@@23@@__Cr@std@@PEAX@__Cr@std@@@__Cr@std@@YAXPEAV?$__tree_node@U?$__value_type@V?$basic_string@DU?$char_traits@D@__Cr@std@@V?$allocator@D@23@@__Cr@std@@V?$map@V?$basic_string@DU?$char_traits@D@__Cr@std@@V?$allocator@D@23@@__Cr@std@@V?$vector@PEBVCommandLineFlag@absl@@V?$allocator@PEBVCommandLineFlag@absl@@@__Cr@std@@@23@U?$less@V?$basic_string@DU?$char_traits@D@__Cr@std@@V?$allocator@D@23@@__Cr@std@@@23@V?$allocator@U?$pair@$$CBV?$basic_string@DU?$char_traits@D@__Cr@std@@V?$allocator@D@23@@__Cr@std@@V?$vector@PEBVCommandLineFlag@absl@@V?$allocator@PEBVCommandLineFlag@absl@@@__Cr@std@@@23@@__Cr@std@@@23@@23@@__Cr@std@@PEAX@01@@Z
    ??$__libcpp_operator_delete@PEAV?$__tree_node@U?$__value_type@V?$basic_string@DU?$char_traits@D@__Cr@std@@V?$allocator@D@23@@__Cr@std@@V?$map@V?$basic_string@DU?$char_traits@D@__Cr@std@@V?$allocator@D@23@@__Cr@std@@V?$vector@PEBVCommandLineFlag@absl@@V?$allocator@PEBVCommandLineFlag@absl@@@__Cr@std@@@23@U?$less@V?$basic_string@DU?$char_traits@D@__Cr@std@@V?$allocator@D@23@@__Cr@std@@@23@V?$allocator@U?$pair@$$CBV?$basic_string@DU?$char_traits@D@__Cr@std@@V?$allocator@D@23@@__Cr@std@@V?$vector@PEBVCommandLineFlag@absl@@V?$allocator@PEBVCommandLineFlag@absl@@@__Cr@std@@@23@@__Cr@std@@@23@@23@@__Cr@std@@PEAX@__Cr@std@@W4align_val_t@3@@__Cr@std@@YAXPEAV?$__tree_node@U?$__value_type@V?$basic_string@DU?$char_traits@D@__Cr@std@@V?$allocator@D@23@@__Cr@std@@V?$map@V?$basic_string@DU?$char_traits@D@__Cr@std@@V?$allocator@D@23@@__Cr@std@@V?$vector@PEBVCommandLineFlag@absl@@V?$allocator@PEBVCommandLineFlag@absl@@@__Cr@std@@@23@U?$less@V?$basic_string@DU?$char_traits@D@__Cr@std@@V?$allocator@D@23@@__Cr@std@@@23@V?$allocator@U?$pair@$$CBV?$basic_string@DU?$char_traits@D@__Cr@std@@V?$allocator@D@23@@__Cr@std@@V?$vector@PEBVCommandLineFlag@absl@@V?$allocator@PEBVCommandLineFlag@absl@@@__Cr@std@@@23@@__Cr@std@@@23@@23@@__Cr@std@@PEAX@01@W4align_val_t@1@@Z
    ??$__libcpp_operator_delete@PEAV?$__tree_node@U?$__value_type@V?$basic_string@DU?$char_traits@D@__Cr@std@@V?$allocator@D@23@@__Cr@std@@V?$vector@PEBVCommandLineFlag@absl@@V?$allocator@PEBVCommandLineFlag@absl@@@__Cr@std@@@23@@__Cr@std@@PEAX@__Cr@std@@@__Cr@std@@YAXPEAV?$__tree_node@U?$__value_type@V?$basic_string@DU?$char_traits@D@__Cr@std@@V?$allocator@D@23@@__Cr@std@@V?$vector@PEBVCommandLineFlag@absl@@V?$allocator@PEBVCommandLineFlag@absl@@@__Cr@std@@@23@@__Cr@std@@PEAX@01@@Z
    ??$__libcpp_operator_delete@PEAV?$__tree_node@U?$__value_type@V?$basic_string@DU?$char_traits@D@__Cr@std@@V?$allocator@D@23@@__Cr@std@@V?$vector@PEBVCommandLineFlag@absl@@V?$allocator@PEBVCommandLineFlag@absl@@@__Cr@std@@@23@@__Cr@std@@PEAX@__Cr@std@@W4align_val_t@3@@__Cr@std@@YAXPEAV?$__tree_node@U?$__value_type@V?$basic_string@DU?$char_traits@D@__Cr@std@@V?$allocator@D@23@@__Cr@std@@V?$vector@PEBVCommandLineFlag@absl@@V?$allocator@PEBVCommandLineFlag@absl@@@__Cr@std@@@23@@__Cr@std@@PEAX@01@W4align_val_t@1@@Z
    ??$__libcpp_operator_delete@PEAV?$unique_ptr@VFlagStateInterface@flags_internal@absl@@U?$default_delete@VFlagStateInterface@flags_internal@absl@@@__Cr@std@@@__Cr@std@@@__Cr@std@@YAXPEAV?$unique_ptr@VFlagStateInterface@flags_internal@absl@@U?$default_delete@VFlagStateInterface@flags_internal@absl@@@__Cr@std@@@01@@Z
    ??$__libcpp_operator_delete@PEAV?$unique_ptr@VFlagStateInterface@flags_internal@absl@@U?$default_delete@VFlagStateInterface@flags_internal@absl@@@__Cr@std@@@__Cr@std@@W4align_val_t@3@@__Cr@std@@YAXPEAV?$unique_ptr@VFlagStateInterface@flags_internal@absl@@U?$default_delete@VFlagStateInterface@flags_internal@absl@@@__Cr@std@@@01@W4align_val_t@1@@Z
    ??$__libcpp_operator_delete@PEAVFormatArgImpl@str_format_internal@absl@@@__Cr@std@@YAXPEAVFormatArgImpl@str_format_internal@absl@@@Z
    ??$__libcpp_operator_delete@PEAVFormatArgImpl@str_format_internal@absl@@W4align_val_t@std@@@__Cr@std@@YAXPEAVFormatArgImpl@str_format_internal@absl@@W4align_val_t@1@@Z
    ??$__lower_bound@U_ClassicAlgPolicy@__Cr@std@@PEBUTransition@cctz@time_internal@absl@@PEBU4567@U4567@U__identity@23@UByUnixTime@4567@@__Cr@std@@YAPEBUTransition@cctz@time_internal@absl@@PEBU2345@0AEBU2345@AEAUByUnixTime@2345@AEAU__identity@01@@Z
    ??$__lower_bound_bisecting@U_ClassicAlgPolicy@__Cr@std@@PEBUTransition@cctz@time_internal@absl@@U4567@U__identity@23@UByUnixTime@4567@@__Cr@std@@YAPEBUTransition@cctz@time_internal@absl@@PEBU2345@AEBU2345@_JAEAUByUnixTime@2345@AEAU__identity@01@@Z
    ??$__make_exception_guard@V?$_AllocatorDestroyRangeReverse@V?$allocator@UUnrecognizedFlag@absl@@@__Cr@std@@PEAUUnrecognizedFlag@absl@@@__Cr@std@@@__Cr@std@@YA?AU?$__exception_guard_noexceptions@V?$_AllocatorDestroyRangeReverse@V?$allocator@UUnrecognizedFlag@absl@@@__Cr@std@@PEAUUnrecognizedFlag@absl@@@__Cr@std@@@01@V?$_AllocatorDestroyRangeReverse@V?$allocator@UUnrecognizedFlag@absl@@@__Cr@std@@PEAUUnrecognizedFlag@absl@@@01@@Z
    ??$__make_value_visitor@UBufferSizeVisitor@?1??BufferSizeForStructuredProtoField@log_internal@absl@@YA_KUStructuredProtoField@34@@Z@@__variant@__visitation@__variant_detail@__Cr@std@@CA?A_P$$QEAUBufferSizeVisitor@?1??BufferSizeForStructuredProtoField@log_internal@absl@@YA_KUStructuredProtoField@78@@Z@@Z
    ??$__memberwise_forward_assign@V?$tuple@AEAPEAVCommandLineFlag@absl@@AEA_N@__Cr@std@@V?$tuple@PEAVCommandLineFlag@absl@@_N@23@PEAVCommandLineFlag@absl@@_N$$Z$0A@$00@__Cr@std@@YAXAEAV?$tuple@AEAPEAVCommandLineFlag@absl@@AEA_N@01@$$QEAV?$tuple@PEAVCommandLineFlag@absl@@_N@01@U?$__tuple_types@PEAVCommandLineFlag@absl@@_N@01@U?$__tuple_indices@$0A@$00@01@@Z
    ??$__move@U_ClassicAlgPolicy@__Cr@std@@PEAPEAPEBVImpl@time_zone@cctz@time_internal@absl@@PEAPEAPEBV45678@PEAPEAPEBV45678@@__Cr@std@@YA?AU?$pair@PEAPEAPEBVImpl@time_zone@cctz@time_internal@absl@@PEAPEAPEBV12345@@01@PEAPEAPEBVImpl@time_zone@cctz@time_internal@absl@@00@Z
    ??$__move@U_ClassicAlgPolicy@__Cr@std@@PEAPEAUPrefixCrc@CrcCordState@crc_internal@absl@@PEAPEAU4567@PEAPEAU4567@@__Cr@std@@YA?AU?$pair@PEAPEAUPrefixCrc@CrcCordState@crc_internal@absl@@PEAPEAU1234@@01@PEAPEAUPrefixCrc@CrcCordState@crc_internal@absl@@00@Z
    ??$__move@U_ClassicAlgPolicy@__Cr@std@@PEAPEAVLogSink@absl@@PEAPEAV45@PEAPEAV45@@__Cr@std@@YA?AU?$pair@PEAPEAVLogSink@absl@@PEAPEAV12@@01@PEAPEAVLogSink@absl@@00@Z
    ??$__move@U_ClassicAlgPolicy@__Cr@std@@PEAUTransition@cctz@time_internal@absl@@PEAU4567@PEAU4567@@__Cr@std@@YA?AU?$pair@PEAUTransition@cctz@time_internal@absl@@PEAU1234@@01@PEAUTransition@cctz@time_internal@absl@@00@Z
    ??$__move@U_ClassicAlgPolicy@__Cr@std@@PEAUTransitionType@cctz@time_internal@absl@@PEAU4567@PEAU4567@@__Cr@std@@YA?AU?$pair@PEAUTransitionType@cctz@time_internal@absl@@PEAU1234@@01@PEAUTransitionType@cctz@time_internal@absl@@00@Z
    ??$__move_backward@U_ClassicAlgPolicy@__Cr@std@@PEAPEAPEBVImpl@time_zone@cctz@time_internal@absl@@PEAPEAPEBV45678@PEAPEAPEBV45678@@__Cr@std@@YA?AU?$pair@PEAPEAPEBVImpl@time_zone@cctz@time_internal@absl@@PEAPEAPEBV12345@@01@PEAPEAPEBVImpl@time_zone@cctz@time_internal@absl@@00@Z
    ??$__move_backward@U_ClassicAlgPolicy@__Cr@std@@PEAPEAUPrefixCrc@CrcCordState@crc_internal@absl@@PEAPEAU4567@PEAPEAU4567@@__Cr@std@@YA?AU?$pair@PEAPEAUPrefixCrc@CrcCordState@crc_internal@absl@@PEAPEAU1234@@01@PEAPEAUPrefixCrc@CrcCordState@crc_internal@absl@@00@Z
    ??$__move_backward@U_ClassicAlgPolicy@__Cr@std@@PEAUTransition@cctz@time_internal@absl@@PEAU4567@PEAU4567@@__Cr@std@@YA?AU?$pair@PEAUTransition@cctz@time_internal@absl@@PEAU1234@@01@PEAUTransition@cctz@time_internal@absl@@00@Z
    ??$__move_backward@U_ClassicAlgPolicy@__Cr@std@@PEAUTransitionType@cctz@time_internal@absl@@PEAU4567@PEAU4567@@__Cr@std@@YA?AU?$pair@PEAUTransitionType@cctz@time_internal@absl@@PEAU1234@@01@PEAUTransitionType@cctz@time_internal@absl@@00@Z
    ??$__not_null@V<lambda_1>@?0??SaveFromRegistry@FlagSaverImpl@flags_internal@absl@@QEAAXXZ@@__function@__Cr@std@@YA_NAEBV<lambda_1>@?0??SaveFromRegistry@FlagSaverImpl@flags_internal@absl@@QEAAXXZ@@Z
    ??$__rehash@$00@?$__hash_table@PEBUCordRep@cord_internal@absl@@U?$hash@PEBUCordRep@cord_internal@absl@@@__Cr@std@@U?$equal_to@PEBUCordRep@cord_internal@absl@@@56@V?$allocator@PEBUCordRep@cord_internal@absl@@@56@@__Cr@std@@AEAAX_K@Z
    ??$__rehash@$00@?$__hash_table@U?$__hash_value_type@V?$basic_string@DU?$char_traits@D@__Cr@std@@V?$allocator@D@23@@__Cr@std@@PEBVImpl@time_zone@cctz@time_internal@absl@@@__Cr@std@@V?$__unordered_map_hasher@V?$basic_string@DU?$char_traits@D@__Cr@std@@V?$allocator@D@23@@__Cr@std@@U?$__hash_value_type@V?$basic_string@DU?$char_traits@D@__Cr@std@@V?$allocator@D@23@@__Cr@std@@PEBVImpl@time_zone@cctz@time_internal@absl@@@23@U?$hash@V?$basic_string@DU?$char_traits@D@__Cr@std@@V?$allocator@D@23@@__Cr@std@@@23@U?$equal_to@V?$basic_string@DU?$char_traits@D@__Cr@std@@V?$allocator@D@23@@__Cr@std@@@23@$00@23@V?$__unordered_map_equal@V?$basic_string@DU?$char_traits@D@__Cr@std@@V?$allocator@D@23@@__Cr@std@@U?$__hash_value_type@V?$basic_string@DU?$char_traits@D@__Cr@std@@V?$allocator@D@23@@__Cr@std@@PEBVImpl@time_zone@cctz@time_internal@absl@@@23@U?$equal_to@V?$basic_string@DU?$char_traits@D@__Cr@std@@V?$allocator@D@23@@__Cr@std@@@23@U?$hash@V?$basic_string@DU?$char_traits@D@__Cr@std@@V?$allocator@D@23@@__Cr@std@@@23@$00@23@V?$allocator@U?$__hash_value_type@V?$basic_string@DU?$char_traits@D@__Cr@std@@V?$allocator@D@23@@__Cr@std@@PEBVImpl@time_zone@cctz@time_internal@absl@@@__Cr@std@@@23@@__Cr@std@@AEAAX_K@Z
    ??$__rewrap_iter@PEAPEAPEBVImpl@time_zone@cctz@time_internal@absl@@PEAPEAPEBV12345@U?$__unwrap_iter_impl@PEAPEAPEBVImpl@time_zone@cctz@time_internal@absl@@$00@__Cr@std@@@__Cr@std@@YAPEAPEAPEBVImpl@time_zone@cctz@time_internal@absl@@PEAPEAPEBV23456@0@Z
    ??$__rewrap_iter@PEAPEAUPrefixCrc@CrcCordState@crc_internal@absl@@PEAPEAU1234@U?$__unwrap_iter_impl@PEAPEAUPrefixCrc@CrcCordState@crc_internal@absl@@$00@__Cr@std@@@__Cr@std@@YAPEAPEAUPrefixCrc@CrcCordState@crc_internal@absl@@PEAPEAU2345@0@Z
    ??$__rewrap_iter@PEAPEAVLogSink@absl@@PEAPEAV12@U?$__unwrap_iter_impl@PEAPEAVLogSink@absl@@$00@__Cr@std@@@__Cr@std@@YAPEAPEAVLogSink@absl@@PEAPEAV23@0@Z
    ??$__rewrap_iter@PEAUPrefixCrc@CrcCordState@crc_internal@absl@@PEAU1234@U?$__unwrap_iter_impl@PEAUPrefixCrc@CrcCordState@crc_internal@absl@@$00@__Cr@std@@@__Cr@std@@YAPEAUPrefixCrc@CrcCordState@crc_internal@absl@@PEAU2345@0@Z
    ??$__rewrap_iter@PEAUTransition@cctz@time_internal@absl@@PEAU1234@U?$__unwrap_iter_impl@PEAUTransition@cctz@time_internal@absl@@$00@__Cr@std@@@__Cr@std@@YAPEAUTransition@cctz@time_internal@absl@@PEAU2345@0@Z
    ??$__rewrap_iter@PEAUTransitionType@cctz@time_internal@absl@@PEAU1234@U?$__unwrap_iter_impl@PEAUTransitionType@cctz@time_internal@absl@@$00@__Cr@std@@@__Cr@std@@YAPEAUTransitionType@cctz@time_internal@absl@@PEAU2345@0@Z
    ??$__rewrap_iter@PEBUPrefixCrc@CrcCordState@crc_internal@absl@@PEBU1234@U?$__unwrap_iter_impl@PEBUPrefixCrc@CrcCordState@crc_internal@absl@@$00@__Cr@std@@@__Cr@std@@YAPEBUPrefixCrc@CrcCordState@crc_internal@absl@@PEBU2345@0@Z
    ??$__rewrap_iter@V?$__deque_iterator@UPrefixCrc@CrcCordState@crc_internal@absl@@PEAU1234@AEAU1234@PEAPEAU1234@_J$0A@@__Cr@std@@V123@U?$__unwrap_iter_impl@V?$__deque_iterator@UPrefixCrc@CrcCordState@crc_internal@absl@@PEAU1234@AEAU1234@PEAPEAU1234@_J$0A@@__Cr@std@@$0A@@23@@__Cr@std@@YA?AV?$__deque_iterator@UPrefixCrc@CrcCordState@crc_internal@absl@@PEAU1234@AEAU1234@PEAPEAU1234@_J$0A@@01@V201@0@Z
    ??$__rewrap_iter@V?$__deque_iterator@UPrefixCrc@CrcCordState@crc_internal@absl@@PEBU1234@AEBU1234@PEBQEBU1234@_J$0A@@__Cr@std@@V123@U?$__unwrap_iter_impl@V?$__deque_iterator@UPrefixCrc@CrcCordState@crc_internal@absl@@PEBU1234@AEBU1234@PEBQEBU1234@_J$0A@@__Cr@std@@$0A@@23@@__Cr@std@@YA?AV?$__deque_iterator@UPrefixCrc@CrcCordState@crc_internal@absl@@PEBU1234@AEBU1234@PEBQEBU1234@_J$0A@@01@V201@0@Z
    ??$__rewrap_iter@V?$__wrap_iter@PEAPEAVLogSink@absl@@@__Cr@std@@PEAPEAVLogSink@absl@@U?$__unwrap_iter_impl@V?$__wrap_iter@PEAPEAVLogSink@absl@@@__Cr@std@@$00@23@@__Cr@std@@YA?AV?$__wrap_iter@PEAPEAVLogSink@absl@@@01@V201@PEAPEAVLogSink@absl@@@Z
    ??$__rewrap_range@PEAPEAPEBVImpl@time_zone@cctz@time_internal@absl@@PEAPEAPEBV12345@PEAPEAPEBV12345@@__Cr@std@@YAPEAPEAPEBVImpl@time_zone@cctz@time_internal@absl@@PEAPEAPEBV23456@0@Z
    ??$__rewrap_range@PEAPEAUPrefixCrc@CrcCordState@crc_internal@absl@@PEAPEAU1234@PEAPEAU1234@@__Cr@std@@YAPEAPEAUPrefixCrc@CrcCordState@crc_internal@absl@@PEAPEAU2345@0@Z
    ??$__rewrap_range@PEAPEAVLogSink@absl@@PEAPEAV12@PEAPEAV12@@__Cr@std@@YAPEAPEAVLogSink@absl@@PEAPEAV23@0@Z
    ??$__rewrap_range@PEAUTransition@cctz@time_internal@absl@@PEAU1234@PEAU1234@@__Cr@std@@YAPEAUTransition@cctz@time_internal@absl@@PEAU2345@0@Z
    ??$__rewrap_range@PEAUTransitionType@cctz@time_internal@absl@@PEAU1234@PEAU1234@@__Cr@std@@YAPEAUTransitionType@cctz@time_internal@absl@@PEAU2345@0@Z
    ??$__rewrap_range@PEBUPrefixCrc@CrcCordState@crc_internal@absl@@PEBU1234@PEBU1234@@__Cr@std@@YAPEBUPrefixCrc@CrcCordState@crc_internal@absl@@PEBU2345@0@Z
    ??$__rewrap_range@V?$__deque_iterator@UPrefixCrc@CrcCordState@crc_internal@absl@@PEBU1234@AEBU1234@PEBQEBU1234@_J$0A@@__Cr@std@@V123@V123@@__Cr@std@@YA?AV?$__deque_iterator@UPrefixCrc@CrcCordState@crc_internal@absl@@PEBU1234@AEBU1234@PEBQEBU1234@_J$0A@@01@V201@0@Z
    ??$__std_visit_exhaustive_visitor_check@UBufferSizeVisitor@?1??BufferSizeForStructuredProtoField@log_internal@absl@@YA_KUStructuredProtoField@34@@Z@AEAV?$Span@$$CBD@4@@__variant@__visitation@__variant_detail@__Cr@std@@CAXXZ
    ??$__std_visit_exhaustive_visitor_check@UBufferSizeVisitor@?1??BufferSizeForStructuredProtoField@log_internal@absl@@YA_KUStructuredProtoField@34@@Z@AEAV?$variant@IHM@__Cr@std@@@__variant@__visitation@__variant_detail@__Cr@std@@CAXXZ
    ??$__std_visit_exhaustive_visitor_check@UBufferSizeVisitor@?1??BufferSizeForStructuredProtoField@log_internal@absl@@YA_KUStructuredProtoField@34@@Z@AEAV?$variant@_K_JIH_N@__Cr@std@@@__variant@__visitation@__variant_detail@__Cr@std@@CAXXZ
    ??$__std_visit_exhaustive_visitor_check@UBufferSizeVisitor@?1??BufferSizeForStructuredProtoField@log_internal@absl@@YA_KUStructuredProtoField@34@@Z@AEAV?$variant@_K_JN@__Cr@std@@@__variant@__visitation@__variant_detail@__Cr@std@@CAXXZ
    ??$__swap_allocator@V?$allocator@UUnrecognizedFlag@absl@@@__Cr@std@@@__Cr@std@@YAXAEAV?$allocator@UUnrecognizedFlag@absl@@@01@0@Z
    ??$__swap_allocator@V?$allocator@UUnrecognizedFlag@absl@@@__Cr@std@@@__Cr@std@@YAXAEAV?$allocator@UUnrecognizedFlag@absl@@@01@0U?$integral_constant@_N$0A@@01@@Z
    ??$__swap_bitmap_pos@U_ClassicAlgPolicy@__Cr@std@@PEAPEAVCommandLineFlag@absl@@@__Cr@std@@YAXPEAPEAVCommandLineFlag@absl@@0AEA_K1@Z
    ??$__swap_bitmap_pos@U_ClassicAlgPolicy@__Cr@std@@PEAPEBVCommandLineFlag@absl@@@__Cr@std@@YAXPEAPEBVCommandLineFlag@absl@@0AEA_K1@Z
    ??$__swap_bitmap_pos_within@U_ClassicAlgPolicy@__Cr@std@@PEAPEAVCommandLineFlag@absl@@@__Cr@std@@YAXAEAPEAPEAVCommandLineFlag@absl@@0AEA_K1@Z
    ??$__swap_bitmap_pos_within@U_ClassicAlgPolicy@__Cr@std@@PEAPEBVCommandLineFlag@absl@@@__Cr@std@@YAXAEAPEAPEBVCommandLineFlag@absl@@0AEA_K1@Z
    ??$__throw_if_valueless@AEAV?$variant@V?$variant@_K_JIH_N@__Cr@std@@V?$variant@_K_JN@23@V?$Span@$$CBD@absl@@V?$variant@IHM@23@@__Cr@std@@@__Cr@std@@YAXAEAV?$variant@V?$variant@_K_JIH_N@__Cr@std@@V?$variant@_K_JN@23@V?$Span@$$CBD@absl@@V?$variant@IHM@23@@01@@Z
    ??$__to_address@$$CBUPrefixCrc@CrcCordState@crc_internal@absl@@@__Cr@std@@YAPEBUPrefixCrc@CrcCordState@crc_internal@absl@@PEBU2345@@Z
    ??$__to_address@PEAPEBVImpl@time_zone@cctz@time_internal@absl@@@__Cr@std@@YAPEAPEAPEBVImpl@time_zone@cctz@time_internal@absl@@PEAPEAPEBV23456@@Z
    ??$__to_address@PEAU?$__hash_node_base@PEAU?$__hash_node@PEBUCordRep@cord_internal@absl@@PEAX@__Cr@std@@@__Cr@std@@@__Cr@std@@YAPEAPEAU?$__hash_node_base@PEAU?$__hash_node@PEBUCordRep@cord_internal@absl@@PEAX@__Cr@std@@@01@PEAPEAU201@@Z
    ??$__to_address@PEAU?$__hash_node_base@PEAU?$__hash_node@U?$__hash_value_type@V?$basic_string@DU?$char_traits@D@__Cr@std@@V?$allocator@D@23@@__Cr@std@@PEBVImpl@time_zone@cctz@time_internal@absl@@@__Cr@std@@PEAX@__Cr@std@@@__Cr@std@@@__Cr@std@@YAPEAPEAU?$__hash_node_base@PEAU?$__hash_node@U?$__hash_value_type@V?$basic_string@DU?$char_traits@D@__Cr@std@@V?$allocator@D@23@@__Cr@std@@PEBVImpl@time_zone@cctz@time_internal@absl@@@__Cr@std@@PEAX@__Cr@std@@@01@PEAPEAU201@@Z
    ??$__to_address@PEAUPrefixCrc@CrcCordState@crc_internal@absl@@@__Cr@std@@YAPEAPEAUPrefixCrc@CrcCordState@crc_internal@absl@@PEAPEAU2345@@Z
    ??$__to_address@PEAVCommandLineFlag@absl@@@__Cr@std@@YAPEAPEAVCommandLineFlag@absl@@PEAPEAV23@@Z
    ??$__to_address@PEAVCordzHandle@cord_internal@absl@@@__Cr@std@@YAPEAPEAVCordzHandle@cord_internal@absl@@PEAPEAV234@@Z
    ??$__to_address@PEAVLogSink@absl@@@__Cr@std@@YAPEAPEAVLogSink@absl@@PEAPEAV23@@Z
    ??$__to_address@PEBVCommandLineFlag@absl@@@__Cr@std@@YAPEAPEBVCommandLineFlag@absl@@PEAPEBV23@@Z
    ??$__to_address@PEBVCordzHandle@cord_internal@absl@@@__Cr@std@@YAPEAPEBVCordzHandle@cord_internal@absl@@PEAPEBV234@@Z
    ??$__to_address@UConversionItem@ParsedFormatBase@str_format_internal@absl@@@__Cr@std@@YAPEAUConversionItem@ParsedFormatBase@str_format_internal@absl@@PEAU2345@@Z
    ??$__to_address@UPrefixCrc@CrcCordState@crc_internal@absl@@@__Cr@std@@YAPEAUPrefixCrc@CrcCordState@crc_internal@absl@@PEAU2345@@Z
    ??$__to_address@UTransition@cctz@time_internal@absl@@@__Cr@std@@YAPEAUTransition@cctz@time_internal@absl@@PEAU2345@@Z
    ??$__to_address@UTransitionType@cctz@time_internal@absl@@@__Cr@std@@YAPEAUTransitionType@cctz@time_internal@absl@@PEAU2345@@Z
    ??$__to_address@UUnrecognizedFlag@absl@@@__Cr@std@@YAPEAUUnrecognizedFlag@absl@@PEAU23@@Z
    ??$__to_address@UViableSubstitution@strings_internal@absl@@@__Cr@std@@YAPEAUViableSubstitution@strings_internal@absl@@PEAU234@@Z
    ??$__to_address@Uraw_view@?1???R?$ConvertToContainer@V?$vector@V?$basic_string_view@DU?$char_traits@D@__Cr@std@@@__Cr@std@@V?$allocator@V?$basic_string_view@DU?$char_traits@D@__Cr@std@@@__Cr@std@@@23@@__Cr@std@@V?$basic_string_view@DU?$char_traits@D@__Cr@std@@@23@$0A@@?$Splitter@VByChar@absl@@UAllowEmpty@2@V?$basic_string_view@DU?$char_traits@D@__Cr@std@@@__Cr@std@@@strings_internal@absl@@QEBA?AV?$vector@V?$basic_string_view@DU?$char_traits@D@__Cr@std@@@__Cr@std@@V?$allocator@V?$basic_string_view@DU?$char_traits@D@__Cr@std@@@__Cr@std@@@23@@__Cr@std@@AEBV345@@Z@@__Cr@std@@YAPEAUraw_view@?1???R?$ConvertToContainer@V?$vector@V?$basic_string_view@DU?$char_traits@D@__Cr@std@@@__Cr@std@@V?$allocator@V?$basic_string_view@DU?$char_traits@D@__Cr@std@@@__Cr@std@@@23@@__Cr@std@@V?$basic_string_view@DU?$char_traits@D@__Cr@std@@@23@$0A@@?$Splitter@VByChar@absl@@UAllowEmpty@2@V?$basic_string_view@DU?$char_traits@D@__Cr@std@@@__Cr@std@@@strings_internal@absl@@QEBA?AV?$vector@V?$basic_string_view@DU?$char_traits@D@__Cr@std@@@__Cr@std@@V?$allocator@V?$basic_string_view@DU?$char_traits@D@__Cr@std@@@__Cr@std@@@23@@01@AEBV456@@Z@PEAU2?1???R3456@QEBA?AV701@0@Z@@Z
    ??$__to_address@V?$__wrap_iter@PEAPEAVCommandLineFlag@absl@@@__Cr@std@@$0A@@__Cr@std@@YAPEAPEAVCommandLineFlag@absl@@AEBV?$__wrap_iter@PEAPEAVCommandLineFlag@absl@@@01@@Z
    ??$__to_address@V?$__wrap_iter@PEAPEAVLogSink@absl@@@__Cr@std@@$0A@@__Cr@std@@YAPEAPEAVLogSink@absl@@AEBV?$__wrap_iter@PEAPEAVLogSink@absl@@@01@@Z
    ??$__to_address@V?$__wrap_iter@PEAPEBVCommandLineFlag@absl@@@__Cr@std@@$0A@@__Cr@std@@YAPEAPEBVCommandLineFlag@absl@@AEBV?$__wrap_iter@PEAPEBVCommandLineFlag@absl@@@01@@Z
    ??$__to_address@V?$__wrap_iter@PEAUraw_view@?1???R?$ConvertToContainer@V?$vector@V?$basic_string_view@DU?$char_traits@D@__Cr@std@@@__Cr@std@@V?$allocator@V?$basic_string_view@DU?$char_traits@D@__Cr@std@@@__Cr@std@@@23@@__Cr@std@@V?$basic_string_view@DU?$char_traits@D@__Cr@std@@@23@$0A@@?$Splitter@VByChar@absl@@UAllowEmpty@2@V?$basic_string_view@DU?$char_traits@D@__Cr@std@@@__Cr@std@@@strings_internal@absl@@QEBA?AV?$vector@V?$basic_string_view@DU?$char_traits@D@__Cr@std@@@__Cr@std@@V?$allocator@V?$basic_string_view@DU?$char_traits@D@__Cr@std@@@__Cr@std@@@23@@__Cr@std@@AEBV345@@Z@@__Cr@std@@$0A@@__Cr@std@@YAPEAUraw_view@?1???R?$ConvertToContainer@V?$vector@V?$basic_string_view@DU?$char_traits@D@__Cr@std@@@__Cr@std@@V?$allocator@V?$basic_string_view@DU?$char_traits@D@__Cr@std@@@__Cr@std@@@23@@__Cr@std@@V?$basic_string_view@DU?$char_traits@D@__Cr@std@@@23@$0A@@?$Splitter@VByChar@absl@@UAllowEmpty@2@V?$basic_string_view@DU?$char_traits@D@__Cr@std@@@__Cr@std@@@strings_internal@absl@@QEBA?AV?$vector@V?$basic_string_view@DU?$char_traits@D@__Cr@std@@@__Cr@std@@V?$allocator@V?$basic_string_view@DU?$char_traits@D@__Cr@std@@@__Cr@std@@@23@@01@AEBV456@@Z@AEBV?$__wrap_iter@PEAUraw_view@?1???R?$ConvertToContainer@V?$vector@V?$basic_string_view@DU?$char_traits@D@__Cr@std@@@__Cr@std@@V?$allocator@V?$basic_string_view@DU?$char_traits@D@__Cr@std@@@__Cr@std@@@23@@__Cr@std@@V?$basic_string_view@DU?$char_traits@D@__Cr@std@@@23@$0A@@?$Splitter@VByChar@absl@@UAllowEmpty@2@V?$basic_string_view@DU?$char_traits@D@__Cr@std@@@__Cr@std@@@strings_internal@absl@@QEBA?AV?$vector@V?$basic_string_view@DU?$char_traits@D@__Cr@std@@@__Cr@std@@V?$allocator@V?$basic_string_view@DU?$char_traits@D@__Cr@std@@@__Cr@std@@@23@@__Cr@std@@AEBV345@@Z@@01@@Z
    ??$__to_address@V?$unique_ptr@VFlagStateInterface@flags_internal@absl@@U?$default_delete@VFlagStateInterface@flags_internal@absl@@@__Cr@std@@@__Cr@std@@@__Cr@std@@YAPEAV?$unique_ptr@VFlagStateInterface@flags_internal@absl@@U?$default_delete@VFlagStateInterface@flags_internal@absl@@@__Cr@std@@@01@PEAV201@@Z
    ??$__uninitialized_allocator_copy@V?$allocator@V?$basic_string_view@DU?$char_traits@D@__Cr@std@@@__Cr@std@@@__Cr@std@@V?$__wrap_iter@PEAUraw_view@?1???R?$ConvertToContainer@V?$vector@V?$basic_string_view@DU?$char_traits@D@__Cr@std@@@__Cr@std@@V?$allocator@V?$basic_string_view@DU?$char_traits@D@__Cr@std@@@__Cr@std@@@23@@__Cr@std@@V?$basic_string_view@DU?$char_traits@D@__Cr@std@@@23@$0A@@?$Splitter@VByChar@absl@@UAllowEmpty@2@V?$basic_string_view@DU?$char_traits@D@__Cr@std@@@__Cr@std@@@strings_internal@absl@@QEBA?AV?$vector@V?$basic_string_view@DU?$char_traits@D@__Cr@std@@@__Cr@std@@V?$allocator@V?$basic_string_view@DU?$char_traits@D@__Cr@std@@@__Cr@std@@@23@@__Cr@std@@AEBV345@@Z@@23@V423@PEAV?$basic_string_view@DU?$char_traits@D@__Cr@std@@@23@@__Cr@std@@YAPEAV?$basic_string_view@DU?$char_traits@D@__Cr@std@@@01@AEAV?$allocator@V?$basic_string_view@DU?$char_traits@D@__Cr@std@@@__Cr@std@@@01@V?$__wrap_iter@PEAUraw_view@?1???R?$ConvertToContainer@V?$vector@V?$basic_string_view@DU?$char_traits@D@__Cr@std@@@__Cr@std@@V?$allocator@V?$basic_string_view@DU?$char_traits@D@__Cr@std@@@__Cr@std@@@23@@__Cr@std@@V?$basic_string_view@DU?$char_traits@D@__Cr@std@@@23@$0A@@?$Splitter@VByChar@absl@@UAllowEmpty@2@V?$basic_string_view@DU?$char_traits@D@__Cr@std@@@__Cr@std@@@strings_internal@absl@@QEBA?AV?$vector@V?$basic_string_view@DU?$char_traits@D@__Cr@std@@@__Cr@std@@V?$allocator@V?$basic_string_view@DU?$char_traits@D@__Cr@std@@@__Cr@std@@@23@@__Cr@std@@AEBV345@@Z@@01@1PEAV201@@Z
    ??$__uninitialized_allocator_copy_impl@V?$allocator@V?$basic_string_view@DU?$char_traits@D@__Cr@std@@@__Cr@std@@@__Cr@std@@PEAUraw_view@?1???R?$ConvertToContainer@V?$vector@V?$basic_string_view@DU?$char_traits@D@__Cr@std@@@__Cr@std@@V?$allocator@V?$basic_string_view@DU?$char_traits@D@__Cr@std@@@__Cr@std@@@23@@__Cr@std@@V?$basic_string_view@DU?$char_traits@D@__Cr@std@@@23@$0A@@?$Splitter@VByChar@absl@@UAllowEmpty@2@V?$basic_string_view@DU?$char_traits@D@__Cr@std@@@__Cr@std@@@strings_internal@absl@@QEBA?AV?$vector@V?$basic_string_view@DU?$char_traits@D@__Cr@std@@@__Cr@std@@V?$allocator@V?$basic_string_view@DU?$char_traits@D@__Cr@std@@@__Cr@std@@@23@@23@AEBV678@@Z@PEAU4?1???R5678@QEBA?AV923@0@Z@PEAV?$basic_string_view@DU?$char_traits@D@__Cr@std@@@23@@__Cr@std@@YAPEAV?$basic_string_view@DU?$char_traits@D@__Cr@std@@@01@AEAV?$allocator@V?$basic_string_view@DU?$char_traits@D@__Cr@std@@@__Cr@std@@@01@PEAUraw_view@?1???R?$ConvertToContainer@V?$vector@V?$basic_string_view@DU?$char_traits@D@__Cr@std@@@__Cr@std@@V?$allocator@V?$basic_string_view@DU?$char_traits@D@__Cr@std@@@__Cr@std@@@23@@__Cr@std@@V?$basic_string_view@DU?$char_traits@D@__Cr@std@@@23@$0A@@?$Splitter@VByChar@absl@@UAllowEmpty@2@V?$basic_string_view@DU?$char_traits@D@__Cr@std@@@__Cr@std@@@strings_internal@absl@@QEBA?AV?$vector@V?$basic_string_view@DU?$char_traits@D@__Cr@std@@@__Cr@std@@V?$allocator@V?$basic_string_view@DU?$char_traits@D@__Cr@std@@@__Cr@std@@@23@@01@AEBV567@@Z@2PEAV?$basic_string_view@DU?$char_traits@D@__Cr@std@@@01@@Z
    ??$__uninitialized_allocator_relocate@V?$allocator@PEAVCommandLineFlag@absl@@@__Cr@std@@PEAPEAVCommandLineFlag@absl@@@__Cr@std@@YAXAEAV?$allocator@PEAVCommandLineFlag@absl@@@01@PEAPEAVCommandLineFlag@absl@@11@Z
    ??$__uninitialized_allocator_relocate@V?$allocator@PEAVCordzHandle@cord_internal@absl@@@__Cr@std@@PEAPEAVCordzHandle@cord_internal@absl@@@__Cr@std@@YAXAEAV?$allocator@PEAVCordzHandle@cord_internal@absl@@@01@PEAPEAVCordzHandle@cord_internal@absl@@11@Z
    ??$__uninitialized_allocator_relocate@V?$allocator@PEAVLogSink@absl@@@__Cr@std@@PEAPEAVLogSink@absl@@@__Cr@std@@YAXAEAV?$allocator@PEAVLogSink@absl@@@01@PEAPEAVLogSink@absl@@11@Z
    ??$__uninitialized_allocator_relocate@V?$allocator@PEBVCommandLineFlag@absl@@@__Cr@std@@PEAPEBVCommandLineFlag@absl@@@__Cr@std@@YAXAEAV?$allocator@PEBVCommandLineFlag@absl@@@01@PEAPEBVCommandLineFlag@absl@@11@Z
    ??$__uninitialized_allocator_relocate@V?$allocator@PEBVCordzHandle@cord_internal@absl@@@__Cr@std@@PEAPEBVCordzHandle@cord_internal@absl@@@__Cr@std@@YAXAEAV?$allocator@PEBVCordzHandle@cord_internal@absl@@@01@PEAPEBVCordzHandle@cord_internal@absl@@11@Z
    ??$__uninitialized_allocator_relocate@V?$allocator@UConversionItem@ParsedFormatBase@str_format_internal@absl@@@__Cr@std@@PEAUConversionItem@ParsedFormatBase@str_format_internal@absl@@@__Cr@std@@YAXAEAV?$allocator@UConversionItem@ParsedFormatBase@str_format_internal@absl@@@01@PEAUConversionItem@ParsedFormatBase@str_format_internal@absl@@11@Z
    ??$__uninitialized_allocator_relocate@V?$allocator@UTransition@cctz@time_internal@absl@@@__Cr@std@@PEAUTransition@cctz@time_internal@absl@@@__Cr@std@@YAXAEAV?$allocator@UTransition@cctz@time_internal@absl@@@01@PEAUTransition@cctz@time_internal@absl@@11@Z
    ??$__uninitialized_allocator_relocate@V?$allocator@UTransitionType@cctz@time_internal@absl@@@__Cr@std@@PEAUTransitionType@cctz@time_internal@absl@@@__Cr@std@@YAXAEAV?$allocator@UTransitionType@cctz@time_internal@absl@@@01@PEAUTransitionType@cctz@time_internal@absl@@11@Z
    ??$__uninitialized_allocator_relocate@V?$allocator@UUnrecognizedFlag@absl@@@__Cr@std@@PEAUUnrecognizedFlag@absl@@@__Cr@std@@YAXAEAV?$allocator@UUnrecognizedFlag@absl@@@01@PEAUUnrecognizedFlag@absl@@11@Z
    ??$__uninitialized_allocator_relocate@V?$allocator@UViableSubstitution@strings_internal@absl@@@__Cr@std@@PEAUViableSubstitution@strings_internal@absl@@@__Cr@std@@YAXAEAV?$allocator@UViableSubstitution@strings_internal@absl@@@01@PEAUViableSubstitution@strings_internal@absl@@11@Z
    ??$__uninitialized_allocator_relocate@V?$allocator@V?$unique_ptr@VFlagStateInterface@flags_internal@absl@@U?$default_delete@VFlagStateInterface@flags_internal@absl@@@__Cr@std@@@__Cr@std@@@__Cr@std@@PEAV?$unique_ptr@VFlagStateInterface@flags_internal@absl@@U?$default_delete@VFlagStateInterface@flags_internal@absl@@@__Cr@std@@@23@@__Cr@std@@YAXAEAV?$allocator@V?$unique_ptr@VFlagStateInterface@flags_internal@absl@@U?$default_delete@VFlagStateInterface@flags_internal@absl@@@__Cr@std@@@__Cr@std@@@01@PEAV?$unique_ptr@VFlagStateInterface@flags_internal@absl@@U?$default_delete@VFlagStateInterface@flags_internal@absl@@@__Cr@std@@@01@11@Z
    ??$__unwrap_iter@PEAPEAPEBVImpl@time_zone@cctz@time_internal@absl@@U?$__unwrap_iter_impl@PEAPEAPEBVImpl@time_zone@cctz@time_internal@absl@@$00@__Cr@std@@$0A@@__Cr@std@@YAPEAPEAPEBVImpl@time_zone@cctz@time_internal@absl@@PEAPEAPEBV23456@@Z
    ??$__unwrap_iter@PEAPEAUPrefixCrc@CrcCordState@crc_internal@absl@@U?$__unwrap_iter_impl@PEAPEAUPrefixCrc@CrcCordState@crc_internal@absl@@$00@__Cr@std@@$0A@@__Cr@std@@YAPEAPEAUPrefixCrc@CrcCordState@crc_internal@absl@@PEAPEAU2345@@Z
    ??$__unwrap_iter@PEAPEAVLogSink@absl@@U?$__unwrap_iter_impl@PEAPEAVLogSink@absl@@$00@__Cr@std@@$0A@@__Cr@std@@YAPEAPEAVLogSink@absl@@PEAPEAV23@@Z
    ??$__unwrap_iter@PEAUPrefixCrc@CrcCordState@crc_internal@absl@@U?$__unwrap_iter_impl@PEAUPrefixCrc@CrcCordState@crc_internal@absl@@$00@__Cr@std@@$0A@@__Cr@std@@YAPEAUPrefixCrc@CrcCordState@crc_internal@absl@@PEAU2345@@Z
    ??$__unwrap_iter@PEAUTransition@cctz@time_internal@absl@@U?$__unwrap_iter_impl@PEAUTransition@cctz@time_internal@absl@@$00@__Cr@std@@$0A@@__Cr@std@@YAPEAUTransition@cctz@time_internal@absl@@PEAU2345@@Z
    ??$__unwrap_iter@PEAUTransitionType@cctz@time_internal@absl@@U?$__unwrap_iter_impl@PEAUTransitionType@cctz@time_internal@absl@@$00@__Cr@std@@$0A@@__Cr@std@@YAPEAUTransitionType@cctz@time_internal@absl@@PEAU2345@@Z
    ??$__unwrap_iter@PEBUPrefixCrc@CrcCordState@crc_internal@absl@@U?$__unwrap_iter_impl@PEBUPrefixCrc@CrcCordState@crc_internal@absl@@$00@__Cr@std@@$0A@@__Cr@std@@YAPEBUPrefixCrc@CrcCordState@crc_internal@absl@@PEBU2345@@Z
    ??$__unwrap_iter@V?$__deque_iterator@UPrefixCrc@CrcCordState@crc_internal@absl@@PEAU1234@AEAU1234@PEAPEAU1234@_J$0A@@__Cr@std@@U?$__unwrap_iter_impl@V?$__deque_iterator@UPrefixCrc@CrcCordState@crc_internal@absl@@PEAU1234@AEAU1234@PEAPEAU1234@_J$0A@@__Cr@std@@$0A@@23@$0A@@__Cr@std@@YA?AV?$__deque_iterator@UPrefixCrc@CrcCordState@crc_internal@absl@@PEAU1234@AEAU1234@PEAPEAU1234@_J$0A@@01@V201@@Z
    ??$__unwrap_iter@V?$__deque_iterator@UPrefixCrc@CrcCordState@crc_internal@absl@@PEBU1234@AEBU1234@PEBQEBU1234@_J$0A@@__Cr@std@@U?$__unwrap_iter_impl@V?$__deque_iterator@UPrefixCrc@CrcCordState@crc_internal@absl@@PEBU1234@AEBU1234@PEBQEBU1234@_J$0A@@__Cr@std@@$0A@@23@$0A@@__Cr@std@@YA?AV?$__deque_iterator@UPrefixCrc@CrcCordState@crc_internal@absl@@PEBU1234@AEBU1234@PEBQEBU1234@_J$0A@@01@V201@@Z
    ??$__unwrap_iter@V?$__wrap_iter@PEAPEAVCommandLineFlag@absl@@@__Cr@std@@U?$__unwrap_iter_impl@V?$__wrap_iter@PEAPEAVCommandLineFlag@absl@@@__Cr@std@@$00@23@$0A@@__Cr@std@@YAPEAPEAVCommandLineFlag@absl@@V?$__wrap_iter@PEAPEAVCommandLineFlag@absl@@@01@@Z
    ??$__unwrap_iter@V?$__wrap_iter@PEAPEAVLogSink@absl@@@__Cr@std@@U?$__unwrap_iter_impl@V?$__wrap_iter@PEAPEAVLogSink@absl@@@__Cr@std@@$00@23@$0A@@__Cr@std@@YAPEAPEAVLogSink@absl@@V?$__wrap_iter@PEAPEAVLogSink@absl@@@01@@Z
    ??$__unwrap_iter@V?$__wrap_iter@PEAPEBVCommandLineFlag@absl@@@__Cr@std@@U?$__unwrap_iter_impl@V?$__wrap_iter@PEAPEBVCommandLineFlag@absl@@@__Cr@std@@$00@23@$0A@@__Cr@std@@YAPEAPEBVCommandLineFlag@absl@@V?$__wrap_iter@PEAPEBVCommandLineFlag@absl@@@01@@Z
    ??$__unwrap_iter@V?$__wrap_iter@PEAUraw_view@?1???R?$ConvertToContainer@V?$vector@V?$basic_string_view@DU?$char_traits@D@__Cr@std@@@__Cr@std@@V?$allocator@V?$basic_string_view@DU?$char_traits@D@__Cr@std@@@__Cr@std@@@23@@__Cr@std@@V?$basic_string_view@DU?$char_traits@D@__Cr@std@@@23@$0A@@?$Splitter@VByChar@absl@@UAllowEmpty@2@V?$basic_string_view@DU?$char_traits@D@__Cr@std@@@__Cr@std@@@strings_internal@absl@@QEBA?AV?$vector@V?$basic_string_view@DU?$char_traits@D@__Cr@std@@@__Cr@std@@V?$allocator@V?$basic_string_view@DU?$char_traits@D@__Cr@std@@@__Cr@std@@@23@@__Cr@std@@AEBV345@@Z@@__Cr@std@@U?$__unwrap_iter_impl@V?$__wrap_iter@PEAUraw_view@?1???R?$ConvertToContainer@V?$vector@V?$basic_string_view@DU?$char_traits@D@__Cr@std@@@__Cr@std@@V?$allocator@V?$basic_string_view@DU?$char_traits@D@__Cr@std@@@__Cr@std@@@23@@__Cr@std@@V?$basic_string_view@DU?$char_traits@D@__Cr@std@@@23@$0A@@?$Splitter@VByChar@absl@@UAllowEmpty@2@V?$basic_string_view@DU?$char_traits@D@__Cr@std@@@__Cr@std@@@strings_internal@absl@@QEBA?AV?$vector@V?$basic_string_view@DU?$char_traits@D@__Cr@std@@@__Cr@std@@V?$allocator@V?$basic_string_view@DU?$char_traits@D@__Cr@std@@@__Cr@std@@@23@@__Cr@std@@AEBV345@@Z@@__Cr@std@@$00@23@$0A@@__Cr@std@@YAPEAUraw_view@?1???R?$ConvertToContainer@V?$vector@V?$basic_string_view@DU?$char_traits@D@__Cr@std@@@__Cr@std@@V?$allocator@V?$basic_string_view@DU?$char_traits@D@__Cr@std@@@__Cr@std@@@23@@__Cr@std@@V?$basic_string_view@DU?$char_traits@D@__Cr@std@@@23@$0A@@?$Splitter@VByChar@absl@@UAllowEmpty@2@V?$basic_string_view@DU?$char_traits@D@__Cr@std@@@__Cr@std@@@strings_internal@absl@@QEBA?AV?$vector@V?$basic_string_view@DU?$char_traits@D@__Cr@std@@@__Cr@std@@V?$allocator@V?$basic_string_view@DU?$char_traits@D@__Cr@std@@@__Cr@std@@@23@@01@AEBV456@@Z@V?$__wrap_iter@PEAUraw_view@?1???R?$ConvertToContainer@V?$vector@V?$basic_string_view@DU?$char_traits@D@__Cr@std@@@__Cr@std@@V?$allocator@V?$basic_string_view@DU?$char_traits@D@__Cr@std@@@__Cr@std@@@23@@__Cr@std@@V?$basic_string_view@DU?$char_traits@D@__Cr@std@@@23@$0A@@?$Splitter@VByChar@absl@@UAllowEmpty@2@V?$basic_string_view@DU?$char_traits@D@__Cr@std@@@__Cr@std@@@strings_internal@absl@@QEBA?AV?$vector@V?$basic_string_view@DU?$char_traits@D@__Cr@std@@@__Cr@std@@V?$allocator@V?$basic_string_view@DU?$char_traits@D@__Cr@std@@@__Cr@std@@@23@@__Cr@std@@AEBV345@@Z@@01@@Z
    ??$__unwrap_range@PEAPEAPEBVImpl@time_zone@cctz@time_internal@absl@@PEAPEAPEBV12345@@__Cr@std@@YA?A_PPEAPEAPEBVImpl@time_zone@cctz@time_internal@absl@@0@Z
    ??$__unwrap_range@PEAPEAUPrefixCrc@CrcCordState@crc_internal@absl@@PEAPEAU1234@@__Cr@std@@YA?A_PPEAPEAUPrefixCrc@CrcCordState@crc_internal@absl@@0@Z
    ??$__unwrap_range@PEAPEAVLogSink@absl@@PEAPEAV12@@__Cr@std@@YA?A_PPEAPEAVLogSink@absl@@0@Z
    ??$__unwrap_range@PEAUTransition@cctz@time_internal@absl@@PEAU1234@@__Cr@std@@YA?A_PPEAUTransition@cctz@time_internal@absl@@0@Z
    ??$__unwrap_range@PEAUTransitionType@cctz@time_internal@absl@@PEAU1234@@__Cr@std@@YA?A_PPEAUTransitionType@cctz@time_internal@absl@@0@Z
    ??$__unwrap_range@PEBUPrefixCrc@CrcCordState@crc_internal@absl@@PEBU1234@@__Cr@std@@YA?A_PPEBUPrefixCrc@CrcCordState@crc_internal@absl@@0@Z
    ??$__unwrap_range@V?$__deque_iterator@UPrefixCrc@CrcCordState@crc_internal@absl@@PEBU1234@AEBU1234@PEBQEBU1234@_J$0A@@__Cr@std@@V123@@__Cr@std@@YA?A_PV?$__deque_iterator@UPrefixCrc@CrcCordState@crc_internal@absl@@PEBU1234@AEBU1234@PEBQEBU1234@_J$0A@@01@0@Z
    ??$__unwrap_range@V?$__wrap_iter@PEAUraw_view@?1???R?$ConvertToContainer@V?$vector@V?$basic_string_view@DU?$char_traits@D@__Cr@std@@@__Cr@std@@V?$allocator@V?$basic_string_view@DU?$char_traits@D@__Cr@std@@@__Cr@std@@@23@@__Cr@std@@V?$basic_string_view@DU?$char_traits@D@__Cr@std@@@23@$0A@@?$Splitter@VByChar@absl@@UAllowEmpty@2@V?$basic_string_view@DU?$char_traits@D@__Cr@std@@@__Cr@std@@@strings_internal@absl@@QEBA?AV?$vector@V?$basic_string_view@DU?$char_traits@D@__Cr@std@@@__Cr@std@@V?$allocator@V?$basic_string_view@DU?$char_traits@D@__Cr@std@@@__Cr@std@@@23@@__Cr@std@@AEBV345@@Z@@__Cr@std@@V123@@__Cr@std@@YA?A_PV?$__wrap_iter@PEAUraw_view@?1???R?$ConvertToContainer@V?$vector@V?$basic_string_view@DU?$char_traits@D@__Cr@std@@@__Cr@std@@V?$allocator@V?$basic_string_view@DU?$char_traits@D@__Cr@std@@@__Cr@std@@@23@@__Cr@std@@V?$basic_string_view@DU?$char_traits@D@__Cr@std@@@23@$0A@@?$Splitter@VByChar@absl@@UAllowEmpty@2@V?$basic_string_view@DU?$char_traits@D@__Cr@std@@@__Cr@std@@@strings_internal@absl@@QEBA?AV?$vector@V?$basic_string_view@DU?$char_traits@D@__Cr@std@@@__Cr@std@@V?$allocator@V?$basic_string_view@DU?$char_traits@D@__Cr@std@@@__Cr@std@@@23@@__Cr@std@@AEBV345@@Z@@01@0@Z
    ??$__upper_bound@U_ClassicAlgPolicy@__Cr@std@@UByCivilTime@Transition@cctz@time_internal@absl@@PEBU5678@PEBU5678@U5678@U__identity@23@@__Cr@std@@YAPEBUTransition@cctz@time_internal@absl@@PEBU2345@0AEBU2345@$$QEAUByCivilTime@2345@$$QEAU__identity@01@@Z
    ??$__upper_bound@U_ClassicAlgPolicy@__Cr@std@@UByUnixTime@Transition@cctz@time_internal@absl@@PEBU5678@PEBU5678@U5678@U__identity@23@@__Cr@std@@YAPEBUTransition@cctz@time_internal@absl@@PEBU2345@0AEBU2345@$$QEAUByUnixTime@2345@$$QEAU__identity@01@@Z
    ??$__validate_iter_reference@AEAPEAPEAVCommandLineFlag@absl@@@?$_IterOps@U_ClassicAlgPolicy@__Cr@std@@@__Cr@std@@SAXXZ
    ??$__validate_iter_reference@AEAPEAPEBVCommandLineFlag@absl@@@?$_IterOps@U_ClassicAlgPolicy@__Cr@std@@@__Cr@std@@SAXXZ
    ??$__visit_alt@U?$__value_visitor@UBufferSizeVisitor@?1??BufferSizeForStructuredProtoField@log_internal@absl@@YA_KUStructuredProtoField@34@@Z@@__variant@__visitation@__variant_detail@__Cr@std@@AEAV?$__impl@V?$variant@_K_JIH_N@__Cr@std@@V?$variant@_K_JN@23@V?$Span@$$CBD@absl@@V?$variant@IHM@23@@456@@__base@__visitation@__variant_detail@__Cr@std@@SA?A_T$$QEAU?$__value_visitor@UBufferSizeVisitor@?1??BufferSizeForStructuredProtoField@log_internal@absl@@YA_KUStructuredProtoField@34@@Z@@__variant@1234@AEAV?$__impl@V?$variant@_K_JIH_N@__Cr@std@@V?$variant@_K_JN@23@V?$Span@$$CBD@absl@@V?$variant@IHM@23@@234@@Z
    ??$__visit_alt@U?$__value_visitor@UBufferSizeVisitor@?1??BufferSizeForStructuredProtoField@log_internal@absl@@YA_KUStructuredProtoField@34@@Z@@__variant@__visitation@__variant_detail@__Cr@std@@AEAV?$variant@V?$variant@_K_JIH_N@__Cr@std@@V?$variant@_K_JN@23@V?$Span@$$CBD@absl@@V?$variant@IHM@23@@56@@__variant@__visitation@__variant_detail@__Cr@std@@SA?A_T$$QEAU?$__value_visitor@UBufferSizeVisitor@?1??BufferSizeForStructuredProtoField@log_internal@absl@@YA_KUStructuredProtoField@34@@Z@@01234@AEAV?$variant@V?$variant@_K_JIH_N@__Cr@std@@V?$variant@_K_JN@23@V?$Span@$$CBD@absl@@V?$variant@IHM@23@@34@@Z
    ??$__visit_value@UBufferSizeVisitor@?1??BufferSizeForStructuredProtoField@log_internal@absl@@YA_KUStructuredProtoField@34@@Z@AEAV?$variant@V?$variant@_K_JIH_N@__Cr@std@@V?$variant@_K_JN@23@V?$Span@$$CBD@absl@@V?$variant@IHM@23@@__Cr@std@@@__variant@__visitation@__variant_detail@__Cr@std@@SA?A_T$$QEAUBufferSizeVisitor@?1??BufferSizeForStructuredProtoField@log_internal@absl@@YA_KUStructuredProtoField@78@@Z@AEAV?$variant@V?$variant@_K_JIH_N@__Cr@std@@V?$variant@_K_JN@23@V?$Span@$$CBD@absl@@V?$variant@IHM@23@@34@@Z
    ??$advance@PEBUTransition@cctz@time_internal@absl@@_J@?$_IterOps@U_ClassicAlgPolicy@__Cr@std@@@__Cr@std@@SAXAEAPEBUTransition@cctz@time_internal@absl@@_J@Z
    ??$advance@PEBUTransition@cctz@time_internal@absl@@_J_J$0A@@__Cr@std@@YAXAEAPEBUTransition@cctz@time_internal@absl@@_J@Z
    ??$advance@V?$__wrap_iter@PEAPEAVCommandLineFlag@absl@@@__Cr@std@@_J_J$0A@@__Cr@std@@YAXAEAV?$__wrap_iter@PEAPEAVCommandLineFlag@absl@@@01@_J@Z
    ??$advance@V?$__wrap_iter@PEAPEBVCommandLineFlag@absl@@@__Cr@std@@_J@?$_IterOps@U_ClassicAlgPolicy@__Cr@std@@@__Cr@std@@SAXAEAV?$__wrap_iter@PEAPEBVCommandLineFlag@absl@@@12@_J@Z
    ??$advance@V?$__wrap_iter@PEAPEBVCommandLineFlag@absl@@@__Cr@std@@_J_J$0A@@__Cr@std@@YAXAEAV?$__wrap_iter@PEAPEBVCommandLineFlag@absl@@@01@_J@Z
    ??$advance@V?$__wrap_iter@PEAUraw_view@?1???R?$ConvertToContainer@V?$vector@V?$basic_string_view@DU?$char_traits@D@__Cr@std@@@__Cr@std@@V?$allocator@V?$basic_string_view@DU?$char_traits@D@__Cr@std@@@__Cr@std@@@23@@__Cr@std@@V?$basic_string_view@DU?$char_traits@D@__Cr@std@@@23@$0A@@?$Splitter@VByChar@absl@@UAllowEmpty@2@V?$basic_string_view@DU?$char_traits@D@__Cr@std@@@__Cr@std@@@strings_internal@absl@@QEBA?AV?$vector@V?$basic_string_view@DU?$char_traits@D@__Cr@std@@@__Cr@std@@V?$allocator@V?$basic_string_view@DU?$char_traits@D@__Cr@std@@@__Cr@std@@@23@@__Cr@std@@AEBV345@@Z@@__Cr@std@@_J_J$0A@@__Cr@std@@YAXAEAV?$__wrap_iter@PEAUraw_view@?1???R?$ConvertToContainer@V?$vector@V?$basic_string_view@DU?$char_traits@D@__Cr@std@@@__Cr@std@@V?$allocator@V?$basic_string_view@DU?$char_traits@D@__Cr@std@@@__Cr@std@@@23@@__Cr@std@@V?$basic_string_view@DU?$char_traits@D@__Cr@std@@@23@$0A@@?$Splitter@VByChar@absl@@UAllowEmpty@2@V?$basic_string_view@DU?$char_traits@D@__Cr@std@@@__Cr@std@@@strings_internal@absl@@QEBA?AV?$vector@V?$basic_string_view@DU?$char_traits@D@__Cr@std@@@__Cr@std@@V?$allocator@V?$basic_string_view@DU?$char_traits@D@__Cr@std@@@__Cr@std@@@23@@__Cr@std@@AEBV345@@Z@@01@_J@Z
    ??$apply@U?$EqualElement@V?$basic_string_view@DU?$char_traits@D@__Cr@std@@@__Cr@std@@@?$raw_hash_set@U?$FlatHashMapPolicy@V?$basic_string_view@DU?$char_traits@D@__Cr@std@@@__Cr@std@@PEAVCommandLineFlag@absl@@@container_internal@absl@@UStringHash@23@UStringEq@23@V?$allocator@U?$pair@$$CBV?$basic_string_view@DU?$char_traits@D@__Cr@std@@@__Cr@std@@PEAVCommandLineFlag@absl@@@__Cr@std@@@__Cr@std@@@container_internal@absl@@AEAU?$pair@$$CBV?$basic_string_view@DU?$char_traits@D@__Cr@std@@@__Cr@std@@PEAVCommandLineFlag@absl@@@__Cr@std@@@?$FlatHashMapPolicy@V?$basic_string_view@DU?$char_traits@D@__Cr@std@@@__Cr@std@@PEAVCommandLineFlag@absl@@@container_internal@absl@@SA_N$$QEAU?$EqualElement@V?$basic_string_view@DU?$char_traits@D@__Cr@std@@@__Cr@std@@@?$raw_hash_set@U?$FlatHashMapPolicy@V?$basic_string_view@DU?$char_traits@D@__Cr@std@@@__Cr@std@@PEAVCommandLineFlag@absl@@@container_internal@absl@@UStringHash@23@UStringEq@23@V?$allocator@U?$pair@$$CBV?$basic_string_view@DU?$char_traits@D@__Cr@std@@@__Cr@std@@PEAVCommandLineFlag@absl@@@__Cr@std@@@__Cr@std@@@12@AEAU?$pair@$$CBV?$basic_string_view@DU?$char_traits@D@__Cr@std@@@__Cr@std@@PEAVCommandLineFlag@absl@@@__Cr@std@@@Z
    ??$apply@U?$EqualElement@V?$basic_string_view@DU?$char_traits@D@__Cr@std@@@__Cr@std@@@?$raw_hash_set@U?$FlatHashMapPolicy@V?$basic_string_view@DU?$char_traits@D@__Cr@std@@@__Cr@std@@PEAVCommandLineFlag@absl@@@container_internal@absl@@UStringHash@23@UStringEq@23@V?$allocator@U?$pair@$$CBV?$basic_string_view@DU?$char_traits@D@__Cr@std@@@__Cr@std@@PEAVCommandLineFlag@absl@@@__Cr@std@@@__Cr@std@@@container_internal@absl@@AEAU?$pair@$$CBV?$basic_string_view@DU?$char_traits@D@__Cr@std@@@__Cr@std@@PEAVCommandLineFlag@absl@@@__Cr@std@@U?$FlatHashMapPolicy@V?$basic_string_view@DU?$char_traits@D@__Cr@std@@@__Cr@std@@PEAVCommandLineFlag@absl@@@34@@?$hash_policy_traits@U?$FlatHashMapPolicy@V?$basic_string_view@DU?$char_traits@D@__Cr@std@@@__Cr@std@@PEAVCommandLineFlag@absl@@@container_internal@absl@@X@container_internal@absl@@SA_N$$QEAU?$EqualElement@V?$basic_string_view@DU?$char_traits@D@__Cr@std@@@__Cr@std@@@?$raw_hash_set@U?$FlatHashMapPolicy@V?$basic_string_view@DU?$char_traits@D@__Cr@std@@@__Cr@std@@PEAVCommandLineFlag@absl@@@container_internal@absl@@UStringHash@23@UStringEq@23@V?$allocator@U?$pair@$$CBV?$basic_string_view@DU?$char_traits@D@__Cr@std@@@__Cr@std@@PEAVCommandLineFlag@absl@@@__Cr@std@@@__Cr@std@@@12@AEAU?$pair@$$CBV?$basic_string_view@DU?$char_traits@D@__Cr@std@@@__Cr@std@@PEAVCommandLineFlag@absl@@@__Cr@std@@@Z
    ??$apply@UEmplaceDecomposable@?$raw_hash_set@U?$FlatHashMapPolicy@V?$basic_string_view@DU?$char_traits@D@__Cr@std@@@__Cr@std@@PEAVCommandLineFlag@absl@@@container_internal@absl@@UStringHash@23@UStringEq@23@V?$allocator@U?$pair@$$CBV?$basic_string_view@DU?$char_traits@D@__Cr@std@@@__Cr@std@@PEAVCommandLineFlag@absl@@@__Cr@std@@@__Cr@std@@@container_internal@absl@@U?$pair@$$CBV?$basic_string_view@DU?$char_traits@D@__Cr@std@@@__Cr@std@@PEAVCommandLineFlag@absl@@@__Cr@std@@@?$FlatHashMapPolicy@V?$basic_string_view@DU?$char_traits@D@__Cr@std@@@__Cr@std@@PEAVCommandLineFlag@absl@@@container_internal@absl@@SA?AU?$pair@Viterator@?$raw_hash_set@U?$FlatHashMapPolicy@V?$basic_string_view@DU?$char_traits@D@__Cr@std@@@__Cr@std@@PEAVCommandLineFlag@absl@@@container_internal@absl@@UStringHash@23@UStringEq@23@V?$allocator@U?$pair@$$CBV?$basic_string_view@DU?$char_traits@D@__Cr@std@@@__Cr@std@@PEAVCommandLineFlag@absl@@@__Cr@std@@@__Cr@std@@@container_internal@absl@@_N@__Cr@std@@$$QEAUEmplaceDecomposable@?$raw_hash_set@U?$FlatHashMapPolicy@V?$basic_string_view@DU?$char_traits@D@__Cr@std@@@__Cr@std@@PEAVCommandLineFlag@absl@@@container_internal@absl@@UStringHash@23@UStringEq@23@V?$allocator@U?$pair@$$CBV?$basic_string_view@DU?$char_traits@D@__Cr@std@@@__Cr@std@@PEAVCommandLineFlag@absl@@@__Cr@std@@@__Cr@std@@@12@$$QEAU?$pair@$$CBV?$basic_string_view@DU?$char_traits@D@__Cr@std@@@__Cr@std@@PEAVCommandLineFlag@absl@@@45@@Z
    ??$apply@UEmplaceDecomposable@?$raw_hash_set@U?$FlatHashMapPolicy@V?$basic_string_view@DU?$char_traits@D@__Cr@std@@@__Cr@std@@PEAVCommandLineFlag@absl@@@container_internal@absl@@UStringHash@23@UStringEq@23@V?$allocator@U?$pair@$$CBV?$basic_string_view@DU?$char_traits@D@__Cr@std@@@__Cr@std@@PEAVCommandLineFlag@absl@@@__Cr@std@@@__Cr@std@@@container_internal@absl@@U?$pair@$$CBV?$basic_string_view@DU?$char_traits@D@__Cr@std@@@__Cr@std@@PEAVCommandLineFlag@absl@@@__Cr@std@@U?$FlatHashMapPolicy@V?$basic_string_view@DU?$char_traits@D@__Cr@std@@@__Cr@std@@PEAVCommandLineFlag@absl@@@34@@?$hash_policy_traits@U?$FlatHashMapPolicy@V?$basic_string_view@DU?$char_traits@D@__Cr@std@@@__Cr@std@@PEAVCommandLineFlag@absl@@@container_internal@absl@@X@container_internal@absl@@SA?AU?$pair@Viterator@?$raw_hash_set@U?$FlatHashMapPolicy@V?$basic_string_view@DU?$char_traits@D@__Cr@std@@@__Cr@std@@PEAVCommandLineFlag@absl@@@container_internal@absl@@UStringHash@23@UStringEq@23@V?$allocator@U?$pair@$$CBV?$basic_string_view@DU?$char_traits@D@__Cr@std@@@__Cr@std@@PEAVCommandLineFlag@absl@@@__Cr@std@@@__Cr@std@@@container_internal@absl@@_N@__Cr@std@@$$QEAUEmplaceDecomposable@?$raw_hash_set@U?$FlatHashMapPolicy@V?$basic_string_view@DU?$char_traits@D@__Cr@std@@@__Cr@std@@PEAVCommandLineFlag@absl@@@container_internal@absl@@UStringHash@23@UStringEq@23@V?$allocator@U?$pair@$$CBV?$basic_string_view@DU?$char_traits@D@__Cr@std@@@__Cr@std@@PEAVCommandLineFlag@absl@@@__Cr@std@@@__Cr@std@@@12@$$QEAU?$pair@$$CBV?$basic_string_view@DU?$char_traits@D@__Cr@std@@@__Cr@std@@PEAVCommandLineFlag@absl@@@45@@Z
    ??$apply@UEmplaceDecomposable@?$raw_hash_set@U?$FlatHashMapPolicy@V?$basic_string_view@DU?$char_traits@D@__Cr@std@@@__Cr@std@@PEAVCommandLineFlag@absl@@@container_internal@absl@@UStringHash@23@UStringEq@23@V?$allocator@U?$pair@$$CBV?$basic_string_view@DU?$char_traits@D@__Cr@std@@@__Cr@std@@PEAVCommandLineFlag@absl@@@__Cr@std@@@__Cr@std@@@container_internal@absl@@U?$pair@V?$basic_string_view@DU?$char_traits@D@__Cr@std@@@__Cr@std@@PEAVCommandLineFlag@absl@@@__Cr@std@@@?$FlatHashMapPolicy@V?$basic_string_view@DU?$char_traits@D@__Cr@std@@@__Cr@std@@PEAVCommandLineFlag@absl@@@container_internal@absl@@SA?AU?$pair@Viterator@?$raw_hash_set@U?$FlatHashMapPolicy@V?$basic_string_view@DU?$char_traits@D@__Cr@std@@@__Cr@std@@PEAVCommandLineFlag@absl@@@container_internal@absl@@UStringHash@23@UStringEq@23@V?$allocator@U?$pair@$$CBV?$basic_string_view@DU?$char_traits@D@__Cr@std@@@__Cr@std@@PEAVCommandLineFlag@absl@@@__Cr@std@@@__Cr@std@@@container_internal@absl@@_N@__Cr@std@@$$QEAUEmplaceDecomposable@?$raw_hash_set@U?$FlatHashMapPolicy@V?$basic_string_view@DU?$char_traits@D@__Cr@std@@@__Cr@std@@PEAVCommandLineFlag@absl@@@container_internal@absl@@UStringHash@23@UStringEq@23@V?$allocator@U?$pair@$$CBV?$basic_string_view@DU?$char_traits@D@__Cr@std@@@__Cr@std@@PEAVCommandLineFlag@absl@@@__Cr@std@@@__Cr@std@@@12@$$QEAU?$pair@V?$basic_string_view@DU?$char_traits@D@__Cr@std@@@__Cr@std@@PEAVCommandLineFlag@absl@@@45@@Z
    ??$apply@UEmplaceDecomposable@?$raw_hash_set@U?$FlatHashMapPolicy@V?$basic_string_view@DU?$char_traits@D@__Cr@std@@@__Cr@std@@PEAVCommandLineFlag@absl@@@container_internal@absl@@UStringHash@23@UStringEq@23@V?$allocator@U?$pair@$$CBV?$basic_string_view@DU?$char_traits@D@__Cr@std@@@__Cr@std@@PEAVCommandLineFlag@absl@@@__Cr@std@@@__Cr@std@@@container_internal@absl@@U?$pair@V?$basic_string_view@DU?$char_traits@D@__Cr@std@@@__Cr@std@@PEAVCommandLineFlag@absl@@@__Cr@std@@U?$FlatHashMapPolicy@V?$basic_string_view@DU?$char_traits@D@__Cr@std@@@__Cr@std@@PEAVCommandLineFlag@absl@@@34@@?$hash_policy_traits@U?$FlatHashMapPolicy@V?$basic_string_view@DU?$char_traits@D@__Cr@std@@@__Cr@std@@PEAVCommandLineFlag@absl@@@container_internal@absl@@X@container_internal@absl@@SA?AU?$pair@Viterator@?$raw_hash_set@U?$FlatHashMapPolicy@V?$basic_string_view@DU?$char_traits@D@__Cr@std@@@__Cr@std@@PEAVCommandLineFlag@absl@@@container_internal@absl@@UStringHash@23@UStringEq@23@V?$allocator@U?$pair@$$CBV?$basic_string_view@DU?$char_traits@D@__Cr@std@@@__Cr@std@@PEAVCommandLineFlag@absl@@@__Cr@std@@@__Cr@std@@@container_internal@absl@@_N@__Cr@std@@$$QEAUEmplaceDecomposable@?$raw_hash_set@U?$FlatHashMapPolicy@V?$basic_string_view@DU?$char_traits@D@__Cr@std@@@__Cr@std@@PEAVCommandLineFlag@absl@@@container_internal@absl@@UStringHash@23@UStringEq@23@V?$allocator@U?$pair@$$CBV?$basic_string_view@DU?$char_traits@D@__Cr@std@@@__Cr@std@@PEAVCommandLineFlag@absl@@@__Cr@std@@@__Cr@std@@@12@$$QEAU?$pair@V?$basic_string_view@DU?$char_traits@D@__Cr@std@@@__Cr@std@@PEAVCommandLineFlag@absl@@@45@@Z
    ??$apply@UFindElement@?$raw_hash_set@U?$FlatHashMapPolicy@V?$basic_string_view@DU?$char_traits@D@__Cr@std@@@__Cr@std@@PEAVCommandLineFlag@absl@@@container_internal@absl@@UStringHash@23@UStringEq@23@V?$allocator@U?$pair@$$CBV?$basic_string_view@DU?$char_traits@D@__Cr@std@@@__Cr@std@@PEAVCommandLineFlag@absl@@@__Cr@std@@@__Cr@std@@@container_internal@absl@@AEAU?$pair@$$CBV?$basic_string_view@DU?$char_traits@D@__Cr@std@@@__Cr@std@@PEAVCommandLineFlag@absl@@@__Cr@std@@@?$FlatHashMapPolicy@V?$basic_string_view@DU?$char_traits@D@__Cr@std@@@__Cr@std@@PEAVCommandLineFlag@absl@@@container_internal@absl@@SA?AVconst_iterator@?$raw_hash_set@U?$FlatHashMapPolicy@V?$basic_string_view@DU?$char_traits@D@__Cr@std@@@__Cr@std@@PEAVCommandLineFlag@absl@@@container_internal@absl@@UStringHash@23@UStringEq@23@V?$allocator@U?$pair@$$CBV?$basic_string_view@DU?$char_traits@D@__Cr@std@@@__Cr@std@@PEAVCommandLineFlag@absl@@@__Cr@std@@@__Cr@std@@@12@$$QEAUFindElement@412@AEAU?$pair@$$CBV?$basic_string_view@DU?$char_traits@D@__Cr@std@@@__Cr@std@@PEAVCommandLineFlag@absl@@@__Cr@std@@@Z
    ??$apply@UFindElement@?$raw_hash_set@U?$FlatHashMapPolicy@V?$basic_string_view@DU?$char_traits@D@__Cr@std@@@__Cr@std@@PEAVCommandLineFlag@absl@@@container_internal@absl@@UStringHash@23@UStringEq@23@V?$allocator@U?$pair@$$CBV?$basic_string_view@DU?$char_traits@D@__Cr@std@@@__Cr@std@@PEAVCommandLineFlag@absl@@@__Cr@std@@@__Cr@std@@@container_internal@absl@@AEAU?$pair@$$CBV?$basic_string_view@DU?$char_traits@D@__Cr@std@@@__Cr@std@@PEAVCommandLineFlag@absl@@@__Cr@std@@U?$FlatHashMapPolicy@V?$basic_string_view@DU?$char_traits@D@__Cr@std@@@__Cr@std@@PEAVCommandLineFlag@absl@@@34@@?$hash_policy_traits@U?$FlatHashMapPolicy@V?$basic_string_view@DU?$char_traits@D@__Cr@std@@@__Cr@std@@PEAVCommandLineFlag@absl@@@container_internal@absl@@X@container_internal@absl@@SA?AVconst_iterator@?$raw_hash_set@U?$FlatHashMapPolicy@V?$basic_string_view@DU?$char_traits@D@__Cr@std@@@__Cr@std@@PEAVCommandLineFlag@absl@@@container_internal@absl@@UStringHash@23@UStringEq@23@V?$allocator@U?$pair@$$CBV?$basic_string_view@DU?$char_traits@D@__Cr@std@@@__Cr@std@@PEAVCommandLineFlag@absl@@@__Cr@std@@@__Cr@std@@@12@$$QEAUFindElement@412@AEAU?$pair@$$CBV?$basic_string_view@DU?$char_traits@D@__Cr@std@@@__Cr@std@@PEAVCommandLineFlag@absl@@@__Cr@std@@@Z
    ??$apply@UHashElement@?$raw_hash_set@U?$FlatHashMapPolicy@V?$basic_string_view@DU?$char_traits@D@__Cr@std@@@__Cr@std@@PEAVCommandLineFlag@absl@@@container_internal@absl@@UStringHash@23@UStringEq@23@V?$allocator@U?$pair@$$CBV?$basic_string_view@DU?$char_traits@D@__Cr@std@@@__Cr@std@@PEAVCommandLineFlag@absl@@@__Cr@std@@@__Cr@std@@@container_internal@absl@@AEAU?$pair@$$CBV?$basic_string_view@DU?$char_traits@D@__Cr@std@@@__Cr@std@@PEAVCommandLineFlag@absl@@@__Cr@std@@@?$FlatHashMapPolicy@V?$basic_string_view@DU?$char_traits@D@__Cr@std@@@__Cr@std@@PEAVCommandLineFlag@absl@@@container_internal@absl@@SA_K$$QEAUHashElement@?$raw_hash_set@U?$FlatHashMapPolicy@V?$basic_string_view@DU?$char_traits@D@__Cr@std@@@__Cr@std@@PEAVCommandLineFlag@absl@@@container_internal@absl@@UStringHash@23@UStringEq@23@V?$allocator@U?$pair@$$CBV?$basic_string_view@DU?$char_traits@D@__Cr@std@@@__Cr@std@@PEAVCommandLineFlag@absl@@@__Cr@std@@@__Cr@std@@@12@AEAU?$pair@$$CBV?$basic_string_view@DU?$char_traits@D@__Cr@std@@@__Cr@std@@PEAVCommandLineFlag@absl@@@__Cr@std@@@Z
    ??$apply@UHashElement@?$raw_hash_set@U?$FlatHashMapPolicy@V?$basic_string_view@DU?$char_traits@D@__Cr@std@@@__Cr@std@@PEAVCommandLineFlag@absl@@@container_internal@absl@@UStringHash@23@UStringEq@23@V?$allocator@U?$pair@$$CBV?$basic_string_view@DU?$char_traits@D@__Cr@std@@@__Cr@std@@PEAVCommandLineFlag@absl@@@__Cr@std@@@__Cr@std@@@container_internal@absl@@AEAU?$pair@$$CBV?$basic_string_view@DU?$char_traits@D@__Cr@std@@@__Cr@std@@PEAVCommandLineFlag@absl@@@__Cr@std@@U?$FlatHashMapPolicy@V?$basic_string_view@DU?$char_traits@D@__Cr@std@@@__Cr@std@@PEAVCommandLineFlag@absl@@@34@@?$hash_policy_traits@U?$FlatHashMapPolicy@V?$basic_string_view@DU?$char_traits@D@__Cr@std@@@__Cr@std@@PEAVCommandLineFlag@absl@@@container_internal@absl@@X@container_internal@absl@@SA_K$$QEAUHashElement@?$raw_hash_set@U?$FlatHashMapPolicy@V?$basic_string_view@DU?$char_traits@D@__Cr@std@@@__Cr@std@@PEAVCommandLineFlag@absl@@@container_internal@absl@@UStringHash@23@UStringEq@23@V?$allocator@U?$pair@$$CBV?$basic_string_view@DU?$char_traits@D@__Cr@std@@@__Cr@std@@PEAVCommandLineFlag@absl@@@__Cr@std@@@__Cr@std@@@12@AEAU?$pair@$$CBV?$basic_string_view@DU?$char_traits@D@__Cr@std@@@__Cr@std@@PEAVCommandLineFlag@absl@@@__Cr@std@@@Z
    ??$assign@V?$__deque_iterator@UPrefixCrc@CrcCordState@crc_internal@absl@@PEBU1234@AEBU1234@PEBQEBU1234@_J$0A@@__Cr@std@@$0A@@?$deque@UPrefixCrc@CrcCordState@crc_internal@absl@@V?$allocator@UPrefixCrc@CrcCordState@crc_internal@absl@@@__Cr@std@@@__Cr@std@@QEAAXV?$__deque_iterator@UPrefixCrc@CrcCordState@crc_internal@absl@@PEBU1234@AEBU1234@PEBQEBU1234@_J$0A@@12@0@Z
    ??$begin@V?$vector@PEAVCommandLineFlag@absl@@V?$allocator@PEAVCommandLineFlag@absl@@@__Cr@std@@@__Cr@std@@@__Cr@std@@YA?AV?$__wrap_iter@PEAPEAVCommandLineFlag@absl@@@01@AEAV?$vector@PEAVCommandLineFlag@absl@@V?$allocator@PEAVCommandLineFlag@absl@@@__Cr@std@@@01@@Z
    ??$begin@V?$vector@PEBVCommandLineFlag@absl@@V?$allocator@PEBVCommandLineFlag@absl@@@__Cr@std@@@__Cr@std@@@__Cr@std@@YA?AV?$__wrap_iter@PEAPEBVCommandLineFlag@absl@@@01@AEAV?$vector@PEBVCommandLineFlag@absl@@V?$allocator@PEBVCommandLineFlag@absl@@@__Cr@std@@@01@@Z
    ??$bit_cast@U?$FlagValueAndInitBit@_N@flags_internal@absl@@_J@__Cr@std@@YA?AU?$FlagValueAndInitBit@_N@flags_internal@absl@@AEB_J@Z
    ??$c_begin@V?$vector@V?$basic_string@DU?$char_traits@D@__Cr@std@@V?$allocator@D@23@@__Cr@std@@V?$allocator@V?$basic_string@DU?$char_traits@D@__Cr@std@@V?$allocator@D@23@@__Cr@std@@@23@@__Cr@std@@@container_algorithm_internal@absl@@YA?AV?$__wrap_iter@PEAV?$basic_string@DU?$char_traits@D@__Cr@std@@V?$allocator@D@23@@__Cr@std@@@__Cr@std@@AEAV?$vector@V?$basic_string@DU?$char_traits@D@__Cr@std@@V?$allocator@D@23@@__Cr@std@@V?$allocator@V?$basic_string@DU?$char_traits@D@__Cr@std@@V?$allocator@D@23@@__Cr@std@@@23@@34@@Z
    ??$c_end@V?$vector@V?$basic_string@DU?$char_traits@D@__Cr@std@@V?$allocator@D@23@@__Cr@std@@V?$allocator@V?$basic_string@DU?$char_traits@D@__Cr@std@@V?$allocator@D@23@@__Cr@std@@@23@@__Cr@std@@@container_algorithm_internal@absl@@YA?AV?$__wrap_iter@PEAV?$basic_string@DU?$char_traits@D@__Cr@std@@V?$allocator@D@23@@__Cr@std@@@__Cr@std@@AEAV?$vector@V?$basic_string@DU?$char_traits@D@__Cr@std@@V?$allocator@D@23@@__Cr@std@@V?$allocator@V?$basic_string@DU?$char_traits@D@__Cr@std@@V?$allocator@D@23@@__Cr@std@@@23@@34@@Z
    ??$call_once@A6AXXZ$$V@absl@@YAXAEAVonce_flag@0@A6AXXZ@Z
    ??$call_once@P8FlagImpl@flags_internal@absl@@EAAXXZPEAV123@@absl@@YAXAEAVonce_flag@0@$$QEAP8FlagImpl@flags_internal@0@EAAXXZ$$QEAPEAV230@@Z
    ??$combine@H$$V@?$HashStateBase@VMixingHashState@hash_internal@absl@@@hash_internal@absl@@SA?AVMixingHashState@12@V312@AEBH@Z
    ??$combine@UWeaklyMixedInteger@hash_internal@absl@@$$V@?$HashStateBase@VMixingHashState@hash_internal@absl@@@hash_internal@absl@@SA?AVMixingHashState@12@V312@AEBUWeaklyMixedInteger@12@@Z
    ??$combine@V?$basic_string_view@DU?$char_traits@D@__Cr@std@@@__Cr@std@@$$V@?$HashStateBase@VMixingHashState@hash_internal@absl@@@hash_internal@absl@@SA?AVMixingHashState@12@V312@AEBV?$basic_string_view@DU?$char_traits@D@__Cr@std@@@__Cr@std@@@Z
    ??$combine@V?$basic_string_view@DU?$char_traits@D@__Cr@std@@@__Cr@std@@H@?$HashStateBase@VMixingHashState@hash_internal@absl@@@hash_internal@absl@@SA?AVMixingHashState@12@V312@AEBV?$basic_string_view@DU?$char_traits@D@__Cr@std@@@__Cr@std@@AEBH@Z
    ??$combine@V?$tuple@AEBV?$basic_string_view@DU?$char_traits@D@__Cr@std@@@__Cr@std@@AEBH@__Cr@std@@$$V@?$HashStateBase@VMixingHashState@hash_internal@absl@@@hash_internal@absl@@SA?AVMixingHashState@12@V312@AEBV?$tuple@AEBV?$basic_string_view@DU?$char_traits@D@__Cr@std@@@__Cr@std@@AEBH@__Cr@std@@@Z
    ??$combine@V?$tuple@AEB_K@__Cr@std@@$$V@?$HashStateBase@VMixingHashState@hash_internal@absl@@@hash_internal@absl@@SA?AVMixingHashState@12@V312@AEBV?$tuple@AEB_K@__Cr@std@@@Z
    ??$combine@_K$$V@?$HashStateBase@VMixingHashState@hash_internal@absl@@@hash_internal@absl@@SA?AVMixingHashState@12@V312@AEB_K@Z
    ??$combine_contiguous@D@?$HashStateBase@VMixingHashState@hash_internal@absl@@@hash_internal@absl@@SA?AVMixingHashState@12@V312@PEBD_K@Z
    ??$construct@AEBUpiecewise_construct_t@__Cr@std@@V?$tuple@$$QEAV?$basic_string_view@DU?$char_traits@D@__Cr@std@@@__Cr@std@@@23@V?$tuple@$$QEAPEAVCommandLineFlag@absl@@@23@@?$raw_hash_set@U?$FlatHashMapPolicy@V?$basic_string_view@DU?$char_traits@D@__Cr@std@@@__Cr@std@@PEAVCommandLineFlag@absl@@@container_internal@absl@@UStringHash@23@UStringEq@23@V?$allocator@U?$pair@$$CBV?$basic_string_view@DU?$char_traits@D@__Cr@std@@@__Cr@std@@PEAVCommandLineFlag@absl@@@__Cr@std@@@__Cr@std@@@container_internal@absl@@AEAAXPEAT?$map_slot_type@V?$basic_string_view@DU?$char_traits@D@__Cr@std@@@__Cr@std@@PEAVCommandLineFlag@absl@@@12@AEBUpiecewise_construct_t@__Cr@std@@$$QEAV?$tuple@$$QEAV?$basic_string_view@DU?$char_traits@D@__Cr@std@@@__Cr@std@@@56@$$QEAV?$tuple@$$QEAPEAVCommandLineFlag@absl@@@56@@Z
    ??$construct@AEBUpiecewise_construct_t@__Cr@std@@V?$tuple@$$QEBV?$basic_string_view@DU?$char_traits@D@__Cr@std@@@__Cr@std@@@23@V?$tuple@$$QEAPEAVCommandLineFlag@absl@@@23@@?$raw_hash_set@U?$FlatHashMapPolicy@V?$basic_string_view@DU?$char_traits@D@__Cr@std@@@__Cr@std@@PEAVCommandLineFlag@absl@@@container_internal@absl@@UStringHash@23@UStringEq@23@V?$allocator@U?$pair@$$CBV?$basic_string_view@DU?$char_traits@D@__Cr@std@@@__Cr@std@@PEAVCommandLineFlag@absl@@@__Cr@std@@@__Cr@std@@@container_internal@absl@@AEAAXPEAT?$map_slot_type@V?$basic_string_view@DU?$char_traits@D@__Cr@std@@@__Cr@std@@PEAVCommandLineFlag@absl@@@12@AEBUpiecewise_construct_t@__Cr@std@@$$QEAV?$tuple@$$QEBV?$basic_string_view@DU?$char_traits@D@__Cr@std@@@__Cr@std@@@56@$$QEAV?$tuple@$$QEAPEAVCommandLineFlag@absl@@@56@@Z
    ??$construct@PEAPEBVImpl@time_zone@cctz@time_internal@absl@@AEAPEAPEBV12345@$0A@@?$allocator_traits@V?$allocator@PEAPEBVImpl@time_zone@cctz@time_internal@absl@@@__Cr@std@@@__Cr@std@@SAXAEAV?$allocator@PEAPEBVImpl@time_zone@cctz@time_internal@absl@@@12@PEAPEAPEBVImpl@time_zone@cctz@time_internal@absl@@AEAPEAPEBV45678@@Z
    ??$construct@PEAPEBVImpl@time_zone@cctz@time_internal@absl@@PEAPEBV12345@$0A@@?$allocator_traits@V?$allocator@PEAPEBVImpl@time_zone@cctz@time_internal@absl@@@__Cr@std@@@__Cr@std@@SAXAEAV?$allocator@PEAPEBVImpl@time_zone@cctz@time_internal@absl@@@12@PEAPEAPEBVImpl@time_zone@cctz@time_internal@absl@@$$QEAPEAPEBV45678@@Z
    ??$construct@PEAUCordRep@cord_internal@absl@@AEBQEAU123@$0A@@?$allocator_traits@V?$allocator@PEAUCordRep@cord_internal@absl@@@__Cr@std@@@__Cr@std@@SAXAEAV?$allocator@PEAUCordRep@cord_internal@absl@@@12@PEAPEAUCordRep@cord_internal@absl@@AEBQEAU456@@Z
    ??$construct@PEAUCordRep@cord_internal@absl@@PEAU123@$0A@@?$allocator_traits@V?$allocator@PEAUCordRep@cord_internal@absl@@@__Cr@std@@@__Cr@std@@SAXAEAV?$allocator@PEAUCordRep@cord_internal@absl@@@12@PEAPEAUCordRep@cord_internal@absl@@$$QEAPEAU456@@Z
    ??$construct@PEAUPrefixCrc@CrcCordState@crc_internal@absl@@AEAPEAU1234@$0A@@?$allocator_traits@V?$allocator@PEAUPrefixCrc@CrcCordState@crc_internal@absl@@@__Cr@std@@@__Cr@std@@SAXAEAV?$allocator@PEAUPrefixCrc@CrcCordState@crc_internal@absl@@@12@PEAPEAUPrefixCrc@CrcCordState@crc_internal@absl@@AEAPEAU4567@@Z
    ??$construct@PEAUPrefixCrc@CrcCordState@crc_internal@absl@@PEAU1234@$0A@@?$allocator_traits@V?$allocator@PEAUPrefixCrc@CrcCordState@crc_internal@absl@@@__Cr@std@@@__Cr@std@@SAXAEAV?$allocator@PEAUPrefixCrc@CrcCordState@crc_internal@absl@@@12@PEAPEAUPrefixCrc@CrcCordState@crc_internal@absl@@$$QEAPEAU4567@@Z
    ??$construct@PEAVCommandLineFlag@absl@@AEBQEAV12@$0A@@?$allocator_traits@V?$allocator@PEAVCommandLineFlag@absl@@@__Cr@std@@@__Cr@std@@SAXAEAV?$allocator@PEAVCommandLineFlag@absl@@@12@PEAPEAVCommandLineFlag@absl@@AEBQEAV45@@Z
    ??$construct@PEAVCordzHandle@cord_internal@absl@@AEBQEAV123@$0A@@?$allocator_traits@V?$allocator@PEAVCordzHandle@cord_internal@absl@@@__Cr@std@@@__Cr@std@@SAXAEAV?$allocator@PEAVCordzHandle@cord_internal@absl@@@12@PEAPEAVCordzHandle@cord_internal@absl@@AEBQEAV456@@Z
    ??$construct@PEAVLogSink@absl@@AEBQEAV12@$0A@@?$allocator_traits@V?$allocator@PEAVLogSink@absl@@@__Cr@std@@@__Cr@std@@SAXAEAV?$allocator@PEAVLogSink@absl@@@12@PEAPEAVLogSink@absl@@AEBQEAV45@@Z
    ??$construct@PEAVLogSink@absl@@PEAV12@$0A@@?$allocator_traits@V?$allocator@PEAVLogSink@absl@@@__Cr@std@@@__Cr@std@@SAXAEAV?$allocator@PEAVLogSink@absl@@@12@PEAPEAVLogSink@absl@@$$QEAPEAV45@@Z
    ??$construct@PEBUCordRep@cord_internal@absl@@AEBQEBU123@$0A@@?$allocator_traits@V?$allocator@U?$__hash_node@PEBUCordRep@cord_internal@absl@@PEAX@__Cr@std@@@__Cr@std@@@__Cr@std@@SAXAEAV?$allocator@U?$__hash_node@PEBUCordRep@cord_internal@absl@@PEAX@__Cr@std@@@12@PEAPEBUCordRep@cord_internal@absl@@AEBQEBU456@@Z
    ??$construct@PEBVCommandLineFlag@absl@@AEBQEBV12@$0A@@?$allocator_traits@V?$allocator@PEBVCommandLineFlag@absl@@@__Cr@std@@@__Cr@std@@SAXAEAV?$allocator@PEBVCommandLineFlag@absl@@@12@PEAPEBVCommandLineFlag@absl@@AEBQEBV45@@Z
    ??$construct@PEBVCommandLineFlag@absl@@PEBV12@$0A@@?$allocator_traits@V?$allocator@PEBVCommandLineFlag@absl@@@__Cr@std@@@__Cr@std@@SAXAEAV?$allocator@PEBVCommandLineFlag@absl@@@12@PEAPEBVCommandLineFlag@absl@@$$QEAPEBV45@@Z
    ??$construct@PEBVCordzHandle@cord_internal@absl@@AEBQEBV123@$0A@@?$allocator_traits@V?$allocator@PEBVCordzHandle@cord_internal@absl@@@__Cr@std@@@__Cr@std@@SAXAEAV?$allocator@PEBVCordzHandle@cord_internal@absl@@@12@PEAPEBVCordzHandle@cord_internal@absl@@AEBQEBV456@@Z
    ??$construct@PEBVImpl@time_zone@cctz@time_internal@absl@@AEBQEBV12345@$0A@@?$allocator_traits@V?$allocator@PEBVImpl@time_zone@cctz@time_internal@absl@@@__Cr@std@@@__Cr@std@@SAXAEAV?$allocator@PEBVImpl@time_zone@cctz@time_internal@absl@@@12@PEAPEBVImpl@time_zone@cctz@time_internal@absl@@AEBQEBV45678@@Z
    ??$construct@U?$pair@$$CBV?$basic_string@DU?$char_traits@D@__Cr@std@@V?$allocator@D@23@@__Cr@std@@PEBVImpl@time_zone@cctz@time_internal@absl@@@__Cr@std@@AEBUpiecewise_construct_t@23@V?$tuple@AEBV?$basic_string@DU?$char_traits@D@__Cr@std@@V?$allocator@D@23@@__Cr@std@@@23@V?$tuple@$$V@23@$0A@@?$allocator_traits@V?$allocator@U?$__hash_node@U?$__hash_value_type@V?$basic_string@DU?$char_traits@D@__Cr@std@@V?$allocator@D@23@@__Cr@std@@PEBVImpl@time_zone@cctz@time_internal@absl@@@__Cr@std@@PEAX@__Cr@std@@@__Cr@std@@@__Cr@std@@SAXAEAV?$allocator@U?$__hash_node@U?$__hash_value_type@V?$basic_string@DU?$char_traits@D@__Cr@std@@V?$allocator@D@23@@__Cr@std@@PEBVImpl@time_zone@cctz@time_internal@absl@@@__Cr@std@@PEAX@__Cr@std@@@12@PEAU?$pair@$$CBV?$basic_string@DU?$char_traits@D@__Cr@std@@V?$allocator@D@23@@__Cr@std@@PEBVImpl@time_zone@cctz@time_internal@absl@@@12@AEBUpiecewise_construct_t@12@$$QEAV?$tuple@AEBV?$basic_string@DU?$char_traits@D@__Cr@std@@V?$allocator@D@23@@__Cr@std@@@12@$$QEAV?$tuple@$$V@12@@Z
    ??$construct@U?$pair@$$CBV?$basic_string@DU?$char_traits@D@__Cr@std@@V?$allocator@D@23@@__Cr@std@@V?$map@V?$basic_string@DU?$char_traits@D@__Cr@std@@V?$allocator@D@23@@__Cr@std@@V?$vector@PEBVCommandLineFlag@absl@@V?$allocator@PEBVCommandLineFlag@absl@@@__Cr@std@@@23@U?$less@V?$basic_string@DU?$char_traits@D@__Cr@std@@V?$allocator@D@23@@__Cr@std@@@23@V?$allocator@U?$pair@$$CBV?$basic_string@DU?$char_traits@D@__Cr@std@@V?$allocator@D@23@@__Cr@std@@V?$vector@PEBVCommandLineFlag@absl@@V?$allocator@PEBVCommandLineFlag@absl@@@__Cr@std@@@23@@__Cr@std@@@23@@23@@__Cr@std@@AEBUpiecewise_construct_t@23@V?$tuple@$$QEAV?$basic_string@DU?$char_traits@D@__Cr@std@@V?$allocator@D@23@@__Cr@std@@@23@V?$tuple@$$V@23@$0A@@?$allocator_traits@V?$allocator@V?$__tree_node@U?$__value_type@V?$basic_string@DU?$char_traits@D@__Cr@std@@V?$allocator@D@23@@__Cr@std@@V?$map@V?$basic_string@DU?$char_traits@D@__Cr@std@@V?$allocator@D@23@@__Cr@std@@V?$vector@PEBVCommandLineFlag@absl@@V?$allocator@PEBVCommandLineFlag@absl@@@__Cr@std@@@23@U?$less@V?$basic_string@DU?$char_traits@D@__Cr@std@@V?$allocator@D@23@@__Cr@std@@@23@V?$allocator@U?$pair@$$CBV?$basic_string@DU?$char_traits@D@__Cr@std@@V?$allocator@D@23@@__Cr@std@@V?$vector@PEBVCommandLineFlag@absl@@V?$allocator@PEBVCommandLineFlag@absl@@@__Cr@std@@@23@@__Cr@std@@@23@@23@@__Cr@std@@PEAX@__Cr@std@@@__Cr@std@@@__Cr@std@@SAXAEAV?$allocator@V?$__tree_node@U?$__value_type@V?$basic_string@DU?$char_traits@D@__Cr@std@@V?$allocator@D@23@@__Cr@std@@V?$map@V?$basic_string@DU?$char_traits@D@__Cr@std@@V?$allocator@D@23@@__Cr@std@@V?$vector@PEBVCommandLineFlag@absl@@V?$allocator@PEBVCommandLineFlag@absl@@@__Cr@std@@@23@U?$less@V?$basic_string@DU?$char_traits@D@__Cr@std@@V?$allocator@D@23@@__Cr@std@@@23@V?$allocator@U?$pair@$$CBV?$basic_string@DU?$char_traits@D@__Cr@std@@V?$allocator@D@23@@__Cr@std@@V?$vector@PEBVCommandLineFlag@absl@@V?$allocator@PEBVCommandLineFlag@absl@@@__Cr@std@@@23@@__Cr@std@@@23@@23@@__Cr@std@@PEAX@__Cr@std@@@12@PEAU?$pair@$$CBV?$basic_string@DU?$char_traits@D@__Cr@std@@V?$allocator@D@23@@__Cr@std@@V?$map@V?$basic_string@DU?$char_traits@D@__Cr@std@@V?$allocator@D@23@@__Cr@std@@V?$vector@PEBVCommandLineFlag@absl@@V?$allocator@PEBVCommandLineFlag@absl@@@__Cr@std@@@23@U?$less@V?$basic_string@DU?$char_traits@D@__Cr@std@@V?$allocator@D@23@@__Cr@std@@@23@V?$allocator@U?$pair@$$CBV?$basic_string@DU?$char_traits@D@__Cr@std@@V?$allocator@D@23@@__Cr@std@@V?$vector@PEBVCommandLineFlag@absl@@V?$allocator@PEBVCommandLineFlag@absl@@@__Cr@std@@@23@@__Cr@std@@@23@@23@@12@AEBUpiecewise_construct_t@12@$$QEAV?$tuple@$$QEAV?$basic_string@DU?$char_traits@D@__Cr@std@@V?$allocator@D@23@@__Cr@std@@@12@$$QEAV?$tuple@$$V@12@@Z
    ??$construct@U?$pair@$$CBV?$basic_string@DU?$char_traits@D@__Cr@std@@V?$allocator@D@23@@__Cr@std@@V?$vector@PEBVCommandLineFlag@absl@@V?$allocator@PEBVCommandLineFlag@absl@@@__Cr@std@@@23@@__Cr@std@@AEBUpiecewise_construct_t@23@V?$tuple@AEBV?$basic_string@DU?$char_traits@D@__Cr@std@@V?$allocator@D@23@@__Cr@std@@@23@V?$tuple@$$V@23@$0A@@?$allocator_traits@V?$allocator@V?$__tree_node@U?$__value_type@V?$basic_string@DU?$char_traits@D@__Cr@std@@V?$allocator@D@23@@__Cr@std@@V?$vector@PEBVCommandLineFlag@absl@@V?$allocator@PEBVCommandLineFlag@absl@@@__Cr@std@@@23@@__Cr@std@@PEAX@__Cr@std@@@__Cr@std@@@__Cr@std@@SAXAEAV?$allocator@V?$__tree_node@U?$__value_type@V?$basic_string@DU?$char_traits@D@__Cr@std@@V?$allocator@D@23@@__Cr@std@@V?$vector@PEBVCommandLineFlag@absl@@V?$allocator@PEBVCommandLineFlag@absl@@@__Cr@std@@@23@@__Cr@std@@PEAX@__Cr@std@@@12@PEAU?$pair@$$CBV?$basic_string@DU?$char_traits@D@__Cr@std@@V?$allocator@D@23@@__Cr@std@@V?$vector@PEBVCommandLineFlag@absl@@V?$allocator@PEBVCommandLineFlag@absl@@@__Cr@std@@@23@@12@AEBUpiecewise_construct_t@12@$$QEAV?$tuple@AEBV?$basic_string@DU?$char_traits@D@__Cr@std@@V?$allocator@D@23@@__Cr@std@@@12@$$QEAV?$tuple@$$V@12@@Z
    ??$construct@U?$pair@V?$basic_string_view@DU?$char_traits@D@__Cr@std@@@__Cr@std@@PEAVCommandLineFlag@absl@@@__Cr@std@@AEBUpiecewise_construct_t@23@V?$tuple@$$QEAV?$basic_string_view@DU?$char_traits@D@__Cr@std@@@__Cr@std@@@23@V?$tuple@$$QEAPEAVCommandLineFlag@absl@@@23@$0A@@?$allocator_traits@V?$allocator@U?$pair@$$CBV?$basic_string_view@DU?$char_traits@D@__Cr@std@@@__Cr@std@@PEAVCommandLineFlag@absl@@@__Cr@std@@@__Cr@std@@@__Cr@std@@SAXAEAV?$allocator@U?$pair@$$CBV?$basic_string_view@DU?$char_traits@D@__Cr@std@@@__Cr@std@@PEAVCommandLineFlag@absl@@@__Cr@std@@@12@PEAU?$pair@V?$basic_string_view@DU?$char_traits@D@__Cr@std@@@__Cr@std@@PEAVCommandLineFlag@absl@@@12@AEBUpiecewise_construct_t@12@$$QEAV?$tuple@$$QEAV?$basic_string_view@DU?$char_traits@D@__Cr@std@@@__Cr@std@@@12@$$QEAV?$tuple@$$QEAPEAVCommandLineFlag@absl@@@12@@Z
    ??$construct@U?$pair@V?$basic_string_view@DU?$char_traits@D@__Cr@std@@@__Cr@std@@PEAVCommandLineFlag@absl@@@__Cr@std@@AEBUpiecewise_construct_t@23@V?$tuple@$$QEBV?$basic_string_view@DU?$char_traits@D@__Cr@std@@@__Cr@std@@@23@V?$tuple@$$QEAPEAVCommandLineFlag@absl@@@23@$0A@@?$allocator_traits@V?$allocator@U?$pair@$$CBV?$basic_string_view@DU?$char_traits@D@__Cr@std@@@__Cr@std@@PEAVCommandLineFlag@absl@@@__Cr@std@@@__Cr@std@@@__Cr@std@@SAXAEAV?$allocator@U?$pair@$$CBV?$basic_string_view@DU?$char_traits@D@__Cr@std@@@__Cr@std@@PEAVCommandLineFlag@absl@@@__Cr@std@@@12@PEAU?$pair@V?$basic_string_view@DU?$char_traits@D@__Cr@std@@@__Cr@std@@PEAVCommandLineFlag@absl@@@12@AEBUpiecewise_construct_t@12@$$QEAV?$tuple@$$QEBV?$basic_string_view@DU?$char_traits@D@__Cr@std@@@__Cr@std@@@12@$$QEAV?$tuple@$$QEAPEAVCommandLineFlag@absl@@@12@@Z
    ??$construct@UConversionItem@ParsedFormatBase@str_format_internal@absl@@U1234@$0A@@?$allocator_traits@V?$allocator@UConversionItem@ParsedFormatBase@str_format_internal@absl@@@__Cr@std@@@__Cr@std@@SAXAEAV?$allocator@UConversionItem@ParsedFormatBase@str_format_internal@absl@@@12@PEAUConversionItem@ParsedFormatBase@str_format_internal@absl@@$$QEAU4567@@Z
    ??$construct@UPayload@status_internal@absl@@AEBU123@$0A@@?$allocator_traits@V?$allocator@UPayload@status_internal@absl@@@__Cr@std@@@__Cr@std@@SAXAEAV?$allocator@UPayload@status_internal@absl@@@12@PEAUPayload@status_internal@absl@@AEBU456@@Z
    ??$construct@UPayload@status_internal@absl@@U123@$0A@@?$allocator_traits@V?$allocator@UPayload@status_internal@absl@@@__Cr@std@@@__Cr@std@@SAXAEAV?$allocator@UPayload@status_internal@absl@@@12@PEAUPayload@status_internal@absl@@$$QEAU456@@Z
    ??$construct@UPrefixCrc@CrcCordState@crc_internal@absl@@AEBU1234@$0A@@?$allocator_traits@V?$allocator@UPrefixCrc@CrcCordState@crc_internal@absl@@@__Cr@std@@@__Cr@std@@SAXAEAV?$allocator@UPrefixCrc@CrcCordState@crc_internal@absl@@@12@PEAUPrefixCrc@CrcCordState@crc_internal@absl@@AEBU4567@@Z
    ??$construct@UPrefixCrc@CrcCordState@crc_internal@absl@@HVcrc32c_t@4@$0A@@?$allocator_traits@V?$allocator@UPrefixCrc@CrcCordState@crc_internal@absl@@@__Cr@std@@@__Cr@std@@SAXAEAV?$allocator@UPrefixCrc@CrcCordState@crc_internal@absl@@@12@PEAUPrefixCrc@CrcCordState@crc_internal@absl@@$$QEAH$$QEAVcrc32c_t@7@@Z
    ??$construct@UPrefixCrc@CrcCordState@crc_internal@absl@@U1234@$0A@@?$allocator_traits@V?$allocator@UPrefixCrc@CrcCordState@crc_internal@absl@@@__Cr@std@@@__Cr@std@@SAXAEAV?$allocator@UPrefixCrc@CrcCordState@crc_internal@absl@@@12@PEAUPrefixCrc@CrcCordState@crc_internal@absl@@$$QEAU4567@@Z
    ??$construct@UTransition@cctz@time_internal@absl@@$$V$0A@@?$allocator_traits@V?$allocator@UTransition@cctz@time_internal@absl@@@__Cr@std@@@__Cr@std@@SAXAEAV?$allocator@UTransition@cctz@time_internal@absl@@@12@PEAUTransition@cctz@time_internal@absl@@@Z
    ??$construct@UTransition@cctz@time_internal@absl@@AEBU1234@$0A@@?$allocator_traits@V?$allocator@UTransition@cctz@time_internal@absl@@@__Cr@std@@@__Cr@std@@SAXAEAV?$allocator@UTransition@cctz@time_internal@absl@@@12@PEAUTransition@cctz@time_internal@absl@@AEBU4567@@Z
    ??$construct@UTransition@cctz@time_internal@absl@@U1234@$0A@@?$allocator_traits@V?$allocator@UTransition@cctz@time_internal@absl@@@__Cr@std@@@__Cr@std@@SAXAEAV?$allocator@UTransition@cctz@time_internal@absl@@@12@PEAUTransition@cctz@time_internal@absl@@$$QEAU4567@@Z
    ??$construct@UTransitionType@cctz@time_internal@absl@@$$V$0A@@?$allocator_traits@V?$allocator@UTransitionType@cctz@time_internal@absl@@@__Cr@std@@@__Cr@std@@SAXAEAV?$allocator@UTransitionType@cctz@time_internal@absl@@@12@PEAUTransitionType@cctz@time_internal@absl@@@Z
    ??$construct@UTransitionType@cctz@time_internal@absl@@U1234@$0A@@?$allocator_traits@V?$allocator@UTransitionType@cctz@time_internal@absl@@@__Cr@std@@@__Cr@std@@SAXAEAV?$allocator@UTransitionType@cctz@time_internal@absl@@@12@PEAUTransitionType@cctz@time_internal@absl@@$$QEAU4567@@Z
    ??$construct@UUnrecognizedFlag@absl@@AEBU12@$0A@@?$allocator_traits@V?$allocator@UUnrecognizedFlag@absl@@@__Cr@std@@@__Cr@std@@SAXAEAV?$allocator@UUnrecognizedFlag@absl@@@12@PEAUUnrecognizedFlag@absl@@AEBU45@@Z
    ??$construct@UUnrecognizedFlag@absl@@U12@$0A@@?$allocator_traits@V?$allocator@UUnrecognizedFlag@absl@@@__Cr@std@@@__Cr@std@@SAXAEAV?$allocator@UUnrecognizedFlag@absl@@@12@PEAUUnrecognizedFlag@absl@@$$QEAU45@@Z
    ??$construct@UUnrecognizedFlag@absl@@W4Source@12@AEAV?$basic_string_view@DU?$char_traits@D@__Cr@std@@@__Cr@std@@$0A@@?$allocator_traits@V?$allocator@UUnrecognizedFlag@absl@@@__Cr@std@@@__Cr@std@@SAXAEAV?$allocator@UUnrecognizedFlag@absl@@@12@PEAUUnrecognizedFlag@absl@@$$QEAW4Source@45@AEAV?$basic_string_view@DU?$char_traits@D@__Cr@std@@@12@@Z
    ??$construct@UViableSubstitution@strings_internal@absl@@AEAV?$basic_string_view@DU?$char_traits@D@__Cr@std@@@__Cr@std@@AEBV456@AEA_K$0A@@?$allocator_traits@V?$allocator@UViableSubstitution@strings_internal@absl@@@__Cr@std@@@__Cr@std@@SAXAEAV?$allocator@UViableSubstitution@strings_internal@absl@@@12@PEAUViableSubstitution@strings_internal@absl@@AEAV?$basic_string_view@DU?$char_traits@D@__Cr@std@@@12@AEBV712@AEA_K@Z
    ??$construct@V?$allocator@U?$pair@$$CBV?$basic_string_view@DU?$char_traits@D@__Cr@std@@@__Cr@std@@PEAVCommandLineFlag@absl@@@__Cr@std@@@__Cr@std@@AEBUpiecewise_construct_t@23@V?$tuple@$$QEAV?$basic_string_view@DU?$char_traits@D@__Cr@std@@@__Cr@std@@@23@V?$tuple@$$QEAPEAVCommandLineFlag@absl@@@23@@?$FlatHashMapPolicy@V?$basic_string_view@DU?$char_traits@D@__Cr@std@@@__Cr@std@@PEAVCommandLineFlag@absl@@@container_internal@absl@@SAXPEAV?$allocator@U?$pair@$$CBV?$basic_string_view@DU?$char_traits@D@__Cr@std@@@__Cr@std@@PEAVCommandLineFlag@absl@@@__Cr@std@@@__Cr@std@@PEAT?$map_slot_type@V?$basic_string_view@DU?$char_traits@D@__Cr@std@@@__Cr@std@@PEAVCommandLineFlag@absl@@@12@AEBUpiecewise_construct_t@45@$$QEAV?$tuple@$$QEAV?$basic_string_view@DU?$char_traits@D@__Cr@std@@@__Cr@std@@@45@$$QEAV?$tuple@$$QEAPEAVCommandLineFlag@absl@@@45@@Z
    ??$construct@V?$allocator@U?$pair@$$CBV?$basic_string_view@DU?$char_traits@D@__Cr@std@@@__Cr@std@@PEAVCommandLineFlag@absl@@@__Cr@std@@@__Cr@std@@AEBUpiecewise_construct_t@23@V?$tuple@$$QEAV?$basic_string_view@DU?$char_traits@D@__Cr@std@@@__Cr@std@@@23@V?$tuple@$$QEAPEAVCommandLineFlag@absl@@@23@@?$common_policy_traits@U?$FlatHashMapPolicy@V?$basic_string_view@DU?$char_traits@D@__Cr@std@@@__Cr@std@@PEAVCommandLineFlag@absl@@@container_internal@absl@@X@container_internal@absl@@SAXPEAV?$allocator@U?$pair@$$CBV?$basic_string_view@DU?$char_traits@D@__Cr@std@@@__Cr@std@@PEAVCommandLineFlag@absl@@@__Cr@std@@@__Cr@std@@PEAT?$map_slot_type@V?$basic_string_view@DU?$char_traits@D@__Cr@std@@@__Cr@std@@PEAVCommandLineFlag@absl@@@12@AEBUpiecewise_construct_t@45@$$QEAV?$tuple@$$QEAV?$basic_string_view@DU?$char_traits@D@__Cr@std@@@__Cr@std@@@45@$$QEAV?$tuple@$$QEAPEAVCommandLineFlag@absl@@@45@@Z
    ??$construct@V?$allocator@U?$pair@$$CBV?$basic_string_view@DU?$char_traits@D@__Cr@std@@@__Cr@std@@PEAVCommandLineFlag@absl@@@__Cr@std@@@__Cr@std@@AEBUpiecewise_construct_t@23@V?$tuple@$$QEAV?$basic_string_view@DU?$char_traits@D@__Cr@std@@@__Cr@std@@@23@V?$tuple@$$QEAPEAVCommandLineFlag@absl@@@23@@?$map_slot_policy@V?$basic_string_view@DU?$char_traits@D@__Cr@std@@@__Cr@std@@PEAVCommandLineFlag@absl@@@container_internal@absl@@SAXPEAV?$allocator@U?$pair@$$CBV?$basic_string_view@DU?$char_traits@D@__Cr@std@@@__Cr@std@@PEAVCommandLineFlag@absl@@@__Cr@std@@@__Cr@std@@PEAT?$map_slot_type@V?$basic_string_view@DU?$char_traits@D@__Cr@std@@@__Cr@std@@PEAVCommandLineFlag@absl@@@12@AEBUpiecewise_construct_t@45@$$QEAV?$tuple@$$QEAV?$basic_string_view@DU?$char_traits@D@__Cr@std@@@__Cr@std@@@45@$$QEAV?$tuple@$$QEAPEAVCommandLineFlag@absl@@@45@@Z
    ??$construct@V?$allocator@U?$pair@$$CBV?$basic_string_view@DU?$char_traits@D@__Cr@std@@@__Cr@std@@PEAVCommandLineFlag@absl@@@__Cr@std@@@__Cr@std@@AEBUpiecewise_construct_t@23@V?$tuple@$$QEBV?$basic_string_view@DU?$char_traits@D@__Cr@std@@@__Cr@std@@@23@V?$tuple@$$QEAPEAVCommandLineFlag@absl@@@23@@?$FlatHashMapPolicy@V?$basic_string_view@DU?$char_traits@D@__Cr@std@@@__Cr@std@@PEAVCommandLineFlag@absl@@@container_internal@absl@@SAXPEAV?$allocator@U?$pair@$$CBV?$basic_string_view@DU?$char_traits@D@__Cr@std@@@__Cr@std@@PEAVCommandLineFlag@absl@@@__Cr@std@@@__Cr@std@@PEAT?$map_slot_type@V?$basic_string_view@DU?$char_traits@D@__Cr@std@@@__Cr@std@@PEAVCommandLineFlag@absl@@@12@AEBUpiecewise_construct_t@45@$$QEAV?$tuple@$$QEBV?$basic_string_view@DU?$char_traits@D@__Cr@std@@@__Cr@std@@@45@$$QEAV?$tuple@$$QEAPEAVCommandLineFlag@absl@@@45@@Z
    ??$construct@V?$allocator@U?$pair@$$CBV?$basic_string_view@DU?$char_traits@D@__Cr@std@@@__Cr@std@@PEAVCommandLineFlag@absl@@@__Cr@std@@@__Cr@std@@AEBUpiecewise_construct_t@23@V?$tuple@$$QEBV?$basic_string_view@DU?$char_traits@D@__Cr@std@@@__Cr@std@@@23@V?$tuple@$$QEAPEAVCommandLineFlag@absl@@@23@@?$common_policy_traits@U?$FlatHashMapPolicy@V?$basic_string_view@DU?$char_traits@D@__Cr@std@@@__Cr@std@@PEAVCommandLineFlag@absl@@@container_internal@absl@@X@container_internal@absl@@SAXPEAV?$allocator@U?$pair@$$CBV?$basic_string_view@DU?$char_traits@D@__Cr@std@@@__Cr@std@@PEAVCommandLineFlag@absl@@@__Cr@std@@@__Cr@std@@PEAT?$map_slot_type@V?$basic_string_view@DU?$char_traits@D@__Cr@std@@@__Cr@std@@PEAVCommandLineFlag@absl@@@12@AEBUpiecewise_construct_t@45@$$QEAV?$tuple@$$QEBV?$basic_string_view@DU?$char_traits@D@__Cr@std@@@__Cr@std@@@45@$$QEAV?$tuple@$$QEAPEAVCommandLineFlag@absl@@@45@@Z
    ??$construct@V?$allocator@U?$pair@$$CBV?$basic_string_view@DU?$char_traits@D@__Cr@std@@@__Cr@std@@PEAVCommandLineFlag@absl@@@__Cr@std@@@__Cr@std@@AEBUpiecewise_construct_t@23@V?$tuple@$$QEBV?$basic_string_view@DU?$char_traits@D@__Cr@std@@@__Cr@std@@@23@V?$tuple@$$QEAPEAVCommandLineFlag@absl@@@23@@?$map_slot_policy@V?$basic_string_view@DU?$char_traits@D@__Cr@std@@@__Cr@std@@PEAVCommandLineFlag@absl@@@container_internal@absl@@SAXPEAV?$allocator@U?$pair@$$CBV?$basic_string_view@DU?$char_traits@D@__Cr@std@@@__Cr@std@@PEAVCommandLineFlag@absl@@@__Cr@std@@@__Cr@std@@PEAT?$map_slot_type@V?$basic_string_view@DU?$char_traits@D@__Cr@std@@@__Cr@std@@PEAVCommandLineFlag@absl@@@12@AEBUpiecewise_construct_t@45@$$QEAV?$tuple@$$QEBV?$basic_string_view@DU?$char_traits@D@__Cr@std@@@__Cr@std@@@45@$$QEAV?$tuple@$$QEAPEAVCommandLineFlag@absl@@@45@@Z
    ??$construct@V?$basic_string_view@DU?$char_traits@D@__Cr@std@@@__Cr@std@@AEAUraw_view@?1???R?$ConvertToContainer@V?$vector@V?$basic_string_view@DU?$char_traits@D@__Cr@std@@@__Cr@std@@V?$allocator@V?$basic_string_view@DU?$char_traits@D@__Cr@std@@@__Cr@std@@@23@@__Cr@std@@V?$basic_string_view@DU?$char_traits@D@__Cr@std@@@23@$0A@@?$Splitter@VByChar@absl@@UAllowEmpty@2@V?$basic_string_view@DU?$char_traits@D@__Cr@std@@@__Cr@std@@@strings_internal@absl@@QEBA?AV?$vector@V?$basic_string_view@DU?$char_traits@D@__Cr@std@@@__Cr@std@@V?$allocator@V?$basic_string_view@DU?$char_traits@D@__Cr@std@@@__Cr@std@@@23@@23@AEBV678@@Z@$0A@@?$allocator_traits@V?$allocator@V?$basic_string_view@DU?$char_traits@D@__Cr@std@@@__Cr@std@@@__Cr@std@@@__Cr@std@@SAXAEAV?$allocator@V?$basic_string_view@DU?$char_traits@D@__Cr@std@@@__Cr@std@@@12@PEAV?$basic_string_view@DU?$char_traits@D@__Cr@std@@@12@AEAUraw_view@?1???R?$ConvertToContainer@V?$vector@V?$basic_string_view@DU?$char_traits@D@__Cr@std@@@__Cr@std@@V?$allocator@V?$basic_string_view@DU?$char_traits@D@__Cr@std@@@__Cr@std@@@23@@__Cr@std@@V?$basic_string_view@DU?$char_traits@D@__Cr@std@@@23@$0A@@?$Splitter@VByChar@absl@@UAllowEmpty@2@V?$basic_string_view@DU?$char_traits@D@__Cr@std@@@__Cr@std@@@strings_internal@absl@@QEBA?AV?$vector@V?$basic_string_view@DU?$char_traits@D@__Cr@std@@@__Cr@std@@V?$allocator@V?$basic_string_view@DU?$char_traits@D@__Cr@std@@@__Cr@std@@@23@@12@AEBV789@@Z@@Z
    ??$construct@V?$unique_ptr@VFlagStateInterface@flags_internal@absl@@U?$default_delete@VFlagStateInterface@flags_internal@absl@@@__Cr@std@@@__Cr@std@@V123@$0A@@?$allocator_traits@V?$allocator@V?$unique_ptr@VFlagStateInterface@flags_internal@absl@@U?$default_delete@VFlagStateInterface@flags_internal@absl@@@__Cr@std@@@__Cr@std@@@__Cr@std@@@__Cr@std@@SAXAEAV?$allocator@V?$unique_ptr@VFlagStateInterface@flags_internal@absl@@U?$default_delete@VFlagStateInterface@flags_internal@absl@@@__Cr@std@@@__Cr@std@@@12@PEAV?$unique_ptr@VFlagStateInterface@flags_internal@absl@@U?$default_delete@VFlagStateInterface@flags_internal@absl@@@__Cr@std@@@12@$$QEAV412@@Z
    ??$construct@VFormatArgImpl@str_format_internal@absl@@AEBV123@$0A@@?$allocator_traits@V?$allocator@VFormatArgImpl@str_format_internal@absl@@@__Cr@std@@@__Cr@std@@SAXAEAV?$allocator@VFormatArgImpl@str_format_internal@absl@@@12@PEAVFormatArgImpl@str_format_internal@absl@@AEBV456@@Z
    ??$construct_at@PEAPEBVImpl@time_zone@cctz@time_internal@absl@@AEAPEAPEBV12345@PEAPEAPEBV12345@@__Cr@std@@YAPEAPEAPEBVImpl@time_zone@cctz@time_internal@absl@@PEAPEAPEBV23456@AEAPEAPEBV23456@@Z
    ??$construct_at@PEAPEBVImpl@time_zone@cctz@time_internal@absl@@PEAPEBV12345@PEAPEAPEBV12345@@__Cr@std@@YAPEAPEAPEBVImpl@time_zone@cctz@time_internal@absl@@PEAPEAPEBV23456@$$QEAPEAPEBV23456@@Z
    ??$construct_at@PEAUCordRep@cord_internal@absl@@AEBQEAU123@PEAPEAU123@@__Cr@std@@YAPEAPEAUCordRep@cord_internal@absl@@PEAPEAU234@AEBQEAU234@@Z
    ??$construct_at@PEAUCordRep@cord_internal@absl@@PEAU123@PEAPEAU123@@__Cr@std@@YAPEAPEAUCordRep@cord_internal@absl@@PEAPEAU234@$$QEAPEAU234@@Z
    ??$construct_at@PEAUPrefixCrc@CrcCordState@crc_internal@absl@@AEAPEAU1234@PEAPEAU1234@@__Cr@std@@YAPEAPEAUPrefixCrc@CrcCordState@crc_internal@absl@@PEAPEAU2345@AEAPEAU2345@@Z
    ??$construct_at@PEAUPrefixCrc@CrcCordState@crc_internal@absl@@PEAU1234@PEAPEAU1234@@__Cr@std@@YAPEAPEAUPrefixCrc@CrcCordState@crc_internal@absl@@PEAPEAU2345@$$QEAPEAU2345@@Z
    ??$construct_at@PEAVCommandLineFlag@absl@@AEBQEAV12@PEAPEAV12@@__Cr@std@@YAPEAPEAVCommandLineFlag@absl@@PEAPEAV23@AEBQEAV23@@Z
    ??$construct_at@PEAVCordzHandle@cord_internal@absl@@AEBQEAV123@PEAPEAV123@@__Cr@std@@YAPEAPEAVCordzHandle@cord_internal@absl@@PEAPEAV234@AEBQEAV234@@Z
    ??$construct_at@PEAVLogSink@absl@@AEBQEAV12@PEAPEAV12@@__Cr@std@@YAPEAPEAVLogSink@absl@@PEAPEAV23@AEBQEAV23@@Z
    ??$construct_at@PEAVLogSink@absl@@PEAV12@PEAPEAV12@@__Cr@std@@YAPEAPEAVLogSink@absl@@PEAPEAV23@$$QEAPEAV23@@Z
    ??$construct_at@PEBUCordRep@cord_internal@absl@@AEBQEBU123@PEAPEBU123@@__Cr@std@@YAPEAPEBUCordRep@cord_internal@absl@@PEAPEBU234@AEBQEBU234@@Z
    ??$construct_at@PEBVCommandLineFlag@absl@@AEBQEBV12@PEAPEBV12@@__Cr@std@@YAPEAPEBVCommandLineFlag@absl@@PEAPEBV23@AEBQEBV23@@Z
    ??$construct_at@PEBVCommandLineFlag@absl@@PEBV12@PEAPEBV12@@__Cr@std@@YAPEAPEBVCommandLineFlag@absl@@PEAPEBV23@$$QEAPEBV23@@Z
    ??$construct_at@PEBVCordzHandle@cord_internal@absl@@AEBQEBV123@PEAPEBV123@@__Cr@std@@YAPEAPEBVCordzHandle@cord_internal@absl@@PEAPEBV234@AEBQEBV234@@Z
    ??$construct_at@PEBVImpl@time_zone@cctz@time_internal@absl@@AEBQEBV12345@PEAPEBV12345@@__Cr@std@@YAPEAPEBVImpl@time_zone@cctz@time_internal@absl@@PEAPEBV23456@AEBQEBV23456@@Z
    ??$construct_at@U?$__hash_node@PEBUCordRep@cord_internal@absl@@PEAX@__Cr@std@@$$TAEA_KPEAU123@@__Cr@std@@YAPEAU?$__hash_node@PEBUCordRep@cord_internal@absl@@PEAX@01@PEAU201@$$QEA$$TAEA_K@Z
    ??$construct_at@U?$__hash_node@U?$__hash_value_type@V?$basic_string@DU?$char_traits@D@__Cr@std@@V?$allocator@D@23@@__Cr@std@@PEBVImpl@time_zone@cctz@time_internal@absl@@@__Cr@std@@PEAX@__Cr@std@@$$TAEA_KPEAU123@@__Cr@std@@YAPEAU?$__hash_node@U?$__hash_value_type@V?$basic_string@DU?$char_traits@D@__Cr@std@@V?$allocator@D@23@@__Cr@std@@PEBVImpl@time_zone@cctz@time_internal@absl@@@__Cr@std@@PEAX@01@PEAU201@$$QEA$$TAEA_K@Z
    ??$construct_at@U?$pair@$$CBV?$basic_string@DU?$char_traits@D@__Cr@std@@V?$allocator@D@23@@__Cr@std@@PEBVImpl@time_zone@cctz@time_internal@absl@@@__Cr@std@@AEBUpiecewise_construct_t@23@V?$tuple@AEBV?$basic_string@DU?$char_traits@D@__Cr@std@@V?$allocator@D@23@@__Cr@std@@@23@V?$tuple@$$V@23@PEAU123@@__Cr@std@@YAPEAU?$pair@$$CBV?$basic_string@DU?$char_traits@D@__Cr@std@@V?$allocator@D@23@@__Cr@std@@PEBVImpl@time_zone@cctz@time_internal@absl@@@01@PEAU201@AEBUpiecewise_construct_t@01@$$QEAV?$tuple@AEBV?$basic_string@DU?$char_traits@D@__Cr@std@@V?$allocator@D@23@@__Cr@std@@@01@$$QEAV?$tuple@$$V@01@@Z
    ??$construct_at@U?$pair@$$CBV?$basic_string@DU?$char_traits@D@__Cr@std@@V?$allocator@D@23@@__Cr@std@@V?$map@V?$basic_string@DU?$char_traits@D@__Cr@std@@V?$allocator@D@23@@__Cr@std@@V?$vector@PEBVCommandLineFlag@absl@@V?$allocator@PEBVCommandLineFlag@absl@@@__Cr@std@@@23@U?$less@V?$basic_string@DU?$char_traits@D@__Cr@std@@V?$allocator@D@23@@__Cr@std@@@23@V?$allocator@U?$pair@$$CBV?$basic_string@DU?$char_traits@D@__Cr@std@@V?$allocator@D@23@@__Cr@std@@V?$vector@PEBVCommandLineFlag@absl@@V?$allocator@PEBVCommandLineFlag@absl@@@__Cr@std@@@23@@__Cr@std@@@23@@23@@__Cr@std@@AEBUpiecewise_construct_t@23@V?$tuple@$$QEAV?$basic_string@DU?$char_traits@D@__Cr@std@@V?$allocator@D@23@@__Cr@std@@@23@V?$tuple@$$V@23@PEAU123@@__Cr@std@@YAPEAU?$pair@$$CBV?$basic_string@DU?$char_traits@D@__Cr@std@@V?$allocator@D@23@@__Cr@std@@V?$map@V?$basic_string@DU?$char_traits@D@__Cr@std@@V?$allocator@D@23@@__Cr@std@@V?$vector@PEBVCommandLineFlag@absl@@V?$allocator@PEBVCommandLineFlag@absl@@@__Cr@std@@@23@U?$less@V?$basic_string@DU?$char_traits@D@__Cr@std@@V?$allocator@D@23@@__Cr@std@@@23@V?$allocator@U?$pair@$$CBV?$basic_string@DU?$char_traits@D@__Cr@std@@V?$allocator@D@23@@__Cr@std@@V?$vector@PEBVCommandLineFlag@absl@@V?$allocator@PEBVCommandLineFlag@absl@@@__Cr@std@@@23@@__Cr@std@@@23@@23@@01@PEAU201@AEBUpiecewise_construct_t@01@$$QEAV?$tuple@$$QEAV?$basic_string@DU?$char_traits@D@__Cr@std@@V?$allocator@D@23@@__Cr@std@@@01@$$QEAV?$tuple@$$V@01@@Z
    ??$construct_at@U?$pair@$$CBV?$basic_string@DU?$char_traits@D@__Cr@std@@V?$allocator@D@23@@__Cr@std@@V?$vector@PEBVCommandLineFlag@absl@@V?$allocator@PEBVCommandLineFlag@absl@@@__Cr@std@@@23@@__Cr@std@@AEBUpiecewise_construct_t@23@V?$tuple@AEBV?$basic_string@DU?$char_traits@D@__Cr@std@@V?$allocator@D@23@@__Cr@std@@@23@V?$tuple@$$V@23@PEAU123@@__Cr@std@@YAPEAU?$pair@$$CBV?$basic_string@DU?$char_traits@D@__Cr@std@@V?$allocator@D@23@@__Cr@std@@V?$vector@PEBVCommandLineFlag@absl@@V?$allocator@PEBVCommandLineFlag@absl@@@__Cr@std@@@23@@01@PEAU201@AEBUpiecewise_construct_t@01@$$QEAV?$tuple@AEBV?$basic_string@DU?$char_traits@D@__Cr@std@@V?$allocator@D@23@@__Cr@std@@@01@$$QEAV?$tuple@$$V@01@@Z
    ??$construct_at@U?$pair@V?$basic_string_view@DU?$char_traits@D@__Cr@std@@@__Cr@std@@PEAVCommandLineFlag@absl@@@__Cr@std@@AEBUpiecewise_construct_t@23@V?$tuple@$$QEAV?$basic_string_view@DU?$char_traits@D@__Cr@std@@@__Cr@std@@@23@V?$tuple@$$QEAPEAVCommandLineFlag@absl@@@23@PEAU123@@__Cr@std@@YAPEAU?$pair@V?$basic_string_view@DU?$char_traits@D@__Cr@std@@@__Cr@std@@PEAVCommandLineFlag@absl@@@01@PEAU201@AEBUpiecewise_construct_t@01@$$QEAV?$tuple@$$QEAV?$basic_string_view@DU?$char_traits@D@__Cr@std@@@__Cr@std@@@01@$$QEAV?$tuple@$$QEAPEAVCommandLineFlag@absl@@@01@@Z
    ??$construct_at@U?$pair@V?$basic_string_view@DU?$char_traits@D@__Cr@std@@@__Cr@std@@PEAVCommandLineFlag@absl@@@__Cr@std@@AEBUpiecewise_construct_t@23@V?$tuple@$$QEBV?$basic_string_view@DU?$char_traits@D@__Cr@std@@@__Cr@std@@@23@V?$tuple@$$QEAPEAVCommandLineFlag@absl@@@23@PEAU123@@__Cr@std@@YAPEAU?$pair@V?$basic_string_view@DU?$char_traits@D@__Cr@std@@@__Cr@std@@PEAVCommandLineFlag@absl@@@01@PEAU201@AEBUpiecewise_construct_t@01@$$QEAV?$tuple@$$QEBV?$basic_string_view@DU?$char_traits@D@__Cr@std@@@__Cr@std@@@01@$$QEAV?$tuple@$$QEAPEAVCommandLineFlag@absl@@@01@@Z
    ??$construct_at@UConversionItem@ParsedFormatBase@str_format_internal@absl@@U1234@PEAU1234@@__Cr@std@@YAPEAUConversionItem@ParsedFormatBase@str_format_internal@absl@@PEAU2345@$$QEAU2345@@Z
    ??$construct_at@UPayload@status_internal@absl@@AEBU123@PEAU123@@__Cr@std@@YAPEAUPayload@status_internal@absl@@PEAU234@AEBU234@@Z
    ??$construct_at@UPayload@status_internal@absl@@U123@PEAU123@@__Cr@std@@YAPEAUPayload@status_internal@absl@@PEAU234@$$QEAU234@@Z
    ??$construct_at@UPrefixCrc@CrcCordState@crc_internal@absl@@AEBU1234@PEAU1234@@__Cr@std@@YAPEAUPrefixCrc@CrcCordState@crc_internal@absl@@PEAU2345@AEBU2345@@Z
    ??$construct_at@UPrefixCrc@CrcCordState@crc_internal@absl@@HVcrc32c_t@4@PEAU1234@@__Cr@std@@YAPEAUPrefixCrc@CrcCordState@crc_internal@absl@@PEAU2345@$$QEAH$$QEAVcrc32c_t@5@@Z
    ??$construct_at@UPrefixCrc@CrcCordState@crc_internal@absl@@U1234@PEAU1234@@__Cr@std@@YAPEAUPrefixCrc@CrcCordState@crc_internal@absl@@PEAU2345@$$QEAU2345@@Z
    ??$construct_at@UTransition@cctz@time_internal@absl@@$$VPEAU1234@@__Cr@std@@YAPEAUTransition@cctz@time_internal@absl@@PEAU2345@@Z
    ??$construct_at@UTransition@cctz@time_internal@absl@@AEBU1234@PEAU1234@@__Cr@std@@YAPEAUTransition@cctz@time_internal@absl@@PEAU2345@AEBU2345@@Z
    ??$construct_at@UTransition@cctz@time_internal@absl@@U1234@PEAU1234@@__Cr@std@@YAPEAUTransition@cctz@time_internal@absl@@PEAU2345@$$QEAU2345@@Z
    ??$construct_at@UTransitionType@cctz@time_internal@absl@@$$VPEAU1234@@__Cr@std@@YAPEAUTransitionType@cctz@time_internal@absl@@PEAU2345@@Z
    ??$construct_at@UTransitionType@cctz@time_internal@absl@@U1234@PEAU1234@@__Cr@std@@YAPEAUTransitionType@cctz@time_internal@absl@@PEAU2345@$$QEAU2345@@Z
    ??$construct_at@UUnrecognizedFlag@absl@@AEBU12@PEAU12@@__Cr@std@@YAPEAUUnrecognizedFlag@absl@@PEAU23@AEBU23@@Z
    ??$construct_at@UUnrecognizedFlag@absl@@U12@PEAU12@@__Cr@std@@YAPEAUUnrecognizedFlag@absl@@PEAU23@$$QEAU23@@Z
    ??$construct_at@UUnrecognizedFlag@absl@@W4Source@12@AEAV?$basic_string_view@DU?$char_traits@D@__Cr@std@@@__Cr@std@@PEAU12@@__Cr@std@@YAPEAUUnrecognizedFlag@absl@@PEAU23@$$QEAW4Source@23@AEAV?$basic_string_view@DU?$char_traits@D@__Cr@std@@@01@@Z
    ??$construct_at@UViableSubstitution@strings_internal@absl@@AEAV?$basic_string_view@DU?$char_traits@D@__Cr@std@@@__Cr@std@@AEBV456@AEA_KPEAU123@@__Cr@std@@YAPEAUViableSubstitution@strings_internal@absl@@PEAU234@AEAV?$basic_string_view@DU?$char_traits@D@__Cr@std@@@01@AEBV501@AEA_K@Z
    ??$construct_at@V?$basic_string_view@DU?$char_traits@D@__Cr@std@@@__Cr@std@@AEAUraw_view@?1???R?$ConvertToContainer@V?$vector@V?$basic_string_view@DU?$char_traits@D@__Cr@std@@@__Cr@std@@V?$allocator@V?$basic_string_view@DU?$char_traits@D@__Cr@std@@@__Cr@std@@@23@@__Cr@std@@V?$basic_string_view@DU?$char_traits@D@__Cr@std@@@23@$0A@@?$Splitter@VByChar@absl@@UAllowEmpty@2@V?$basic_string_view@DU?$char_traits@D@__Cr@std@@@__Cr@std@@@strings_internal@absl@@QEBA?AV?$vector@V?$basic_string_view@DU?$char_traits@D@__Cr@std@@@__Cr@std@@V?$allocator@V?$basic_string_view@DU?$char_traits@D@__Cr@std@@@__Cr@std@@@23@@23@AEBV678@@Z@PEAV123@@__Cr@std@@YAPEAV?$basic_string_view@DU?$char_traits@D@__Cr@std@@@01@PEAV201@AEAUraw_view@?1???R?$ConvertToContainer@V?$vector@V?$basic_string_view@DU?$char_traits@D@__Cr@std@@@__Cr@std@@V?$allocator@V?$basic_string_view@DU?$char_traits@D@__Cr@std@@@__Cr@std@@@23@@__Cr@std@@V?$basic_string_view@DU?$char_traits@D@__Cr@std@@@23@$0A@@?$Splitter@VByChar@absl@@UAllowEmpty@2@V?$basic_string_view@DU?$char_traits@D@__Cr@std@@@__Cr@std@@@strings_internal@absl@@QEBA?AV?$vector@V?$basic_string_view@DU?$char_traits@D@__Cr@std@@@__Cr@std@@V?$allocator@V?$basic_string_view@DU?$char_traits@D@__Cr@std@@@__Cr@std@@@23@@01@AEBV567@@Z@@Z
    ??$construct_at@V?$unique_ptr@VFlagStateInterface@flags_internal@absl@@U?$default_delete@VFlagStateInterface@flags_internal@absl@@@__Cr@std@@@__Cr@std@@V123@PEAV123@@__Cr@std@@YAPEAV?$unique_ptr@VFlagStateInterface@flags_internal@absl@@U?$default_delete@VFlagStateInterface@flags_internal@absl@@@__Cr@std@@@01@PEAV201@$$QEAV201@@Z
    ??$construct_at@VFormatArgImpl@str_format_internal@absl@@AEBV123@PEAV123@@__Cr@std@@YAPEAVFormatArgImpl@str_format_internal@absl@@PEAV234@AEBV234@@Z
    ??$copy@V?$__deque_iterator@UPrefixCrc@CrcCordState@crc_internal@absl@@PEBU1234@AEBU1234@PEBQEBU1234@_J$0A@@__Cr@std@@V?$__deque_iterator@UPrefixCrc@CrcCordState@crc_internal@absl@@PEAU1234@AEAU1234@PEAPEAU1234@_J$0A@@23@@__Cr@std@@YA?AV?$__deque_iterator@UPrefixCrc@CrcCordState@crc_internal@absl@@PEAU1234@AEAU1234@PEAPEAU1234@_J$0A@@01@V?$__deque_iterator@UPrefixCrc@CrcCordState@crc_internal@absl@@PEBU1234@AEBU1234@PEBQEBU1234@_J$0A@@01@0V201@@Z
    ??$copy_n@V?$__deque_iterator@UPrefixCrc@CrcCordState@crc_internal@absl@@PEBU1234@AEBU1234@PEBQEBU1234@_J$0A@@__Cr@std@@_JV?$__deque_iterator@UPrefixCrc@CrcCordState@crc_internal@absl@@PEAU1234@AEAU1234@PEAPEAU1234@_J$0A@@23@$0A@@__Cr@std@@YA?AV?$__deque_iterator@UPrefixCrc@CrcCordState@crc_internal@absl@@PEAU1234@AEAU1234@PEAPEAU1234@_J$0A@@01@V?$__deque_iterator@UPrefixCrc@CrcCordState@crc_internal@absl@@PEBU1234@AEBU1234@PEBQEBU1234@_J$0A@@01@_JV201@@Z
    ??$destroy@PEAPEBVImpl@time_zone@cctz@time_internal@absl@@$0A@@?$allocator_traits@V?$allocator@PEAPEBVImpl@time_zone@cctz@time_internal@absl@@@__Cr@std@@@__Cr@std@@SAXAEAV?$allocator@PEAPEBVImpl@time_zone@cctz@time_internal@absl@@@12@PEAPEAPEBVImpl@time_zone@cctz@time_internal@absl@@@Z
    ??$destroy@PEAUCordRep@cord_internal@absl@@$0A@@?$allocator_traits@V?$allocator@PEAUCordRep@cord_internal@absl@@@__Cr@std@@@__Cr@std@@SAXAEAV?$allocator@PEAUCordRep@cord_internal@absl@@@12@PEAPEAUCordRep@cord_internal@absl@@@Z
    ??$destroy@PEAUPrefixCrc@CrcCordState@crc_internal@absl@@$0A@@?$allocator_traits@V?$allocator@PEAUPrefixCrc@CrcCordState@crc_internal@absl@@@__Cr@std@@@__Cr@std@@SAXAEAV?$allocator@PEAUPrefixCrc@CrcCordState@crc_internal@absl@@@12@PEAPEAUPrefixCrc@CrcCordState@crc_internal@absl@@@Z
    ??$destroy@PEAVCommandLineFlag@absl@@$0A@@?$allocator_traits@V?$allocator@PEAVCommandLineFlag@absl@@@__Cr@std@@@__Cr@std@@SAXAEAV?$allocator@PEAVCommandLineFlag@absl@@@12@PEAPEAVCommandLineFlag@absl@@@Z
    ??$destroy@PEAVCordzHandle@cord_internal@absl@@$0A@@?$allocator_traits@V?$allocator@PEAVCordzHandle@cord_internal@absl@@@__Cr@std@@@__Cr@std@@SAXAEAV?$allocator@PEAVCordzHandle@cord_internal@absl@@@12@PEAPEAVCordzHandle@cord_internal@absl@@@Z
    ??$destroy@PEAVLogSink@absl@@$0A@@?$allocator_traits@V?$allocator@PEAVLogSink@absl@@@__Cr@std@@@__Cr@std@@SAXAEAV?$allocator@PEAVLogSink@absl@@@12@PEAPEAVLogSink@absl@@@Z
    ??$destroy@PEBUCordRep@cord_internal@absl@@$0A@@?$allocator_traits@V?$allocator@U?$__hash_node@PEBUCordRep@cord_internal@absl@@PEAX@__Cr@std@@@__Cr@std@@@__Cr@std@@SAXAEAV?$allocator@U?$__hash_node@PEBUCordRep@cord_internal@absl@@PEAX@__Cr@std@@@12@PEAPEBUCordRep@cord_internal@absl@@@Z
    ??$destroy@PEBVCommandLineFlag@absl@@$0A@@?$allocator_traits@V?$allocator@PEBVCommandLineFlag@absl@@@__Cr@std@@@__Cr@std@@SAXAEAV?$allocator@PEBVCommandLineFlag@absl@@@12@PEAPEBVCommandLineFlag@absl@@@Z
    ??$destroy@PEBVCordzHandle@cord_internal@absl@@$0A@@?$allocator_traits@V?$allocator@PEBVCordzHandle@cord_internal@absl@@@__Cr@std@@@__Cr@std@@SAXAEAV?$allocator@PEBVCordzHandle@cord_internal@absl@@@12@PEAPEBVCordzHandle@cord_internal@absl@@@Z
    ??$destroy@U?$pair@$$CBV?$basic_string@DU?$char_traits@D@__Cr@std@@V?$allocator@D@23@@__Cr@std@@PEBVImpl@time_zone@cctz@time_internal@absl@@@__Cr@std@@$0A@@?$allocator_traits@V?$allocator@U?$__hash_node@U?$__hash_value_type@V?$basic_string@DU?$char_traits@D@__Cr@std@@V?$allocator@D@23@@__Cr@std@@PEBVImpl@time_zone@cctz@time_internal@absl@@@__Cr@std@@PEAX@__Cr@std@@@__Cr@std@@@__Cr@std@@SAXAEAV?$allocator@U?$__hash_node@U?$__hash_value_type@V?$basic_string@DU?$char_traits@D@__Cr@std@@V?$allocator@D@23@@__Cr@std@@PEBVImpl@time_zone@cctz@time_internal@absl@@@__Cr@std@@PEAX@__Cr@std@@@12@PEAU?$pair@$$CBV?$basic_string@DU?$char_traits@D@__Cr@std@@V?$allocator@D@23@@__Cr@std@@PEBVImpl@time_zone@cctz@time_internal@absl@@@12@@Z
    ??$destroy@U?$pair@$$CBV?$basic_string@DU?$char_traits@D@__Cr@std@@V?$allocator@D@23@@__Cr@std@@V?$map@V?$basic_string@DU?$char_traits@D@__Cr@std@@V?$allocator@D@23@@__Cr@std@@V?$vector@PEBVCommandLineFlag@absl@@V?$allocator@PEBVCommandLineFlag@absl@@@__Cr@std@@@23@U?$less@V?$basic_string@DU?$char_traits@D@__Cr@std@@V?$allocator@D@23@@__Cr@std@@@23@V?$allocator@U?$pair@$$CBV?$basic_string@DU?$char_traits@D@__Cr@std@@V?$allocator@D@23@@__Cr@std@@V?$vector@PEBVCommandLineFlag@absl@@V?$allocator@PEBVCommandLineFlag@absl@@@__Cr@std@@@23@@__Cr@std@@@23@@23@@__Cr@std@@$0A@@?$allocator_traits@V?$allocator@V?$__tree_node@U?$__value_type@V?$basic_string@DU?$char_traits@D@__Cr@std@@V?$allocator@D@23@@__Cr@std@@V?$map@V?$basic_string@DU?$char_traits@D@__Cr@std@@V?$allocator@D@23@@__Cr@std@@V?$vector@PEBVCommandLineFlag@absl@@V?$allocator@PEBVCommandLineFlag@absl@@@__Cr@std@@@23@U?$less@V?$basic_string@DU?$char_traits@D@__Cr@std@@V?$allocator@D@23@@__Cr@std@@@23@V?$allocator@U?$pair@$$CBV?$basic_string@DU?$char_traits@D@__Cr@std@@V?$allocator@D@23@@__Cr@std@@V?$vector@PEBVCommandLineFlag@absl@@V?$allocator@PEBVCommandLineFlag@absl@@@__Cr@std@@@23@@__Cr@std@@@23@@23@@__Cr@std@@PEAX@__Cr@std@@@__Cr@std@@@__Cr@std@@SAXAEAV?$allocator@V?$__tree_node@U?$__value_type@V?$basic_string@DU?$char_traits@D@__Cr@std@@V?$allocator@D@23@@__Cr@std@@V?$map@V?$basic_string@DU?$char_traits@D@__Cr@std@@V?$allocator@D@23@@__Cr@std@@V?$vector@PEBVCommandLineFlag@absl@@V?$allocator@PEBVCommandLineFlag@absl@@@__Cr@std@@@23@U?$less@V?$basic_string@DU?$char_traits@D@__Cr@std@@V?$allocator@D@23@@__Cr@std@@@23@V?$allocator@U?$pair@$$CBV?$basic_string@DU?$char_traits@D@__Cr@std@@V?$allocator@D@23@@__Cr@std@@V?$vector@PEBVCommandLineFlag@absl@@V?$allocator@PEBVCommandLineFlag@absl@@@__Cr@std@@@23@@__Cr@std@@@23@@23@@__Cr@std@@PEAX@__Cr@std@@@12@PEAU?$pair@$$CBV?$basic_string@DU?$char_traits@D@__Cr@std@@V?$allocator@D@23@@__Cr@std@@V?$map@V?$basic_string@DU?$char_traits@D@__Cr@std@@V?$allocator@D@23@@__Cr@std@@V?$vector@PEBVCommandLineFlag@absl@@V?$allocator@PEBVCommandLineFlag@absl@@@__Cr@std@@@23@U?$less@V?$basic_string@DU?$char_traits@D@__Cr@std@@V?$allocator@D@23@@__Cr@std@@@23@V?$allocator@U?$pair@$$CBV?$basic_string@DU?$char_traits@D@__Cr@std@@V?$allocator@D@23@@__Cr@std@@V?$vector@PEBVCommandLineFlag@absl@@V?$allocator@PEBVCommandLineFlag@absl@@@__Cr@std@@@23@@__Cr@std@@@23@@23@@12@@Z
    ??$destroy@U?$pair@$$CBV?$basic_string@DU?$char_traits@D@__Cr@std@@V?$allocator@D@23@@__Cr@std@@V?$vector@PEBVCommandLineFlag@absl@@V?$allocator@PEBVCommandLineFlag@absl@@@__Cr@std@@@23@@__Cr@std@@$0A@@?$allocator_traits@V?$allocator@V?$__tree_node@U?$__value_type@V?$basic_string@DU?$char_traits@D@__Cr@std@@V?$allocator@D@23@@__Cr@std@@V?$vector@PEBVCommandLineFlag@absl@@V?$allocator@PEBVCommandLineFlag@absl@@@__Cr@std@@@23@@__Cr@std@@PEAX@__Cr@std@@@__Cr@std@@@__Cr@std@@SAXAEAV?$allocator@V?$__tree_node@U?$__value_type@V?$basic_string@DU?$char_traits@D@__Cr@std@@V?$allocator@D@23@@__Cr@std@@V?$vector@PEBVCommandLineFlag@absl@@V?$allocator@PEBVCommandLineFlag@absl@@@__Cr@std@@@23@@__Cr@std@@PEAX@__Cr@std@@@12@PEAU?$pair@$$CBV?$basic_string@DU?$char_traits@D@__Cr@std@@V?$allocator@D@23@@__Cr@std@@V?$vector@PEBVCommandLineFlag@absl@@V?$allocator@PEBVCommandLineFlag@absl@@@__Cr@std@@@23@@12@@Z
    ??$destroy@U?$pair@V?$basic_string_view@DU?$char_traits@D@__Cr@std@@@__Cr@std@@PEAVCommandLineFlag@absl@@@__Cr@std@@$0A@@?$allocator_traits@V?$allocator@U?$pair@$$CBV?$basic_string_view@DU?$char_traits@D@__Cr@std@@@__Cr@std@@PEAVCommandLineFlag@absl@@@__Cr@std@@@__Cr@std@@@__Cr@std@@SAXAEAV?$allocator@U?$pair@$$CBV?$basic_string_view@DU?$char_traits@D@__Cr@std@@@__Cr@std@@PEAVCommandLineFlag@absl@@@__Cr@std@@@12@PEAU?$pair@V?$basic_string_view@DU?$char_traits@D@__Cr@std@@@__Cr@std@@PEAVCommandLineFlag@absl@@@12@@Z
    ??$destroy@UConversionItem@ParsedFormatBase@str_format_internal@absl@@$0A@@?$allocator_traits@V?$allocator@UConversionItem@ParsedFormatBase@str_format_internal@absl@@@__Cr@std@@@__Cr@std@@SAXAEAV?$allocator@UConversionItem@ParsedFormatBase@str_format_internal@absl@@@12@PEAUConversionItem@ParsedFormatBase@str_format_internal@absl@@@Z
    ??$destroy@UPayload@status_internal@absl@@$0A@@?$allocator_traits@V?$allocator@UPayload@status_internal@absl@@@__Cr@std@@@__Cr@std@@SAXAEAV?$allocator@UPayload@status_internal@absl@@@12@PEAUPayload@status_internal@absl@@@Z
    ??$destroy@UPrefixCrc@CrcCordState@crc_internal@absl@@$0A@@?$allocator_traits@V?$allocator@UPrefixCrc@CrcCordState@crc_internal@absl@@@__Cr@std@@@__Cr@std@@SAXAEAV?$allocator@UPrefixCrc@CrcCordState@crc_internal@absl@@@12@PEAUPrefixCrc@CrcCordState@crc_internal@absl@@@Z
    ??$destroy@UTransition@cctz@time_internal@absl@@$0A@@?$allocator_traits@V?$allocator@UTransition@cctz@time_internal@absl@@@__Cr@std@@@__Cr@std@@SAXAEAV?$allocator@UTransition@cctz@time_internal@absl@@@12@PEAUTransition@cctz@time_internal@absl@@@Z
    ??$destroy@UTransitionType@cctz@time_internal@absl@@$0A@@?$allocator_traits@V?$allocator@UTransitionType@cctz@time_internal@absl@@@__Cr@std@@@__Cr@std@@SAXAEAV?$allocator@UTransitionType@cctz@time_internal@absl@@@12@PEAUTransitionType@cctz@time_internal@absl@@@Z
    ??$destroy@UUnrecognizedFlag@absl@@$0A@@?$allocator_traits@V?$allocator@UUnrecognizedFlag@absl@@@__Cr@std@@@__Cr@std@@SAXAEAV?$allocator@UUnrecognizedFlag@absl@@@12@PEAUUnrecognizedFlag@absl@@@Z
    ??$destroy@UViableSubstitution@strings_internal@absl@@$0A@@?$allocator_traits@V?$allocator@UViableSubstitution@strings_internal@absl@@@__Cr@std@@@__Cr@std@@SAXAEAV?$allocator@UViableSubstitution@strings_internal@absl@@@12@PEAUViableSubstitution@strings_internal@absl@@@Z
    ??$destroy@V?$allocator@U?$pair@$$CBV?$basic_string_view@DU?$char_traits@D@__Cr@std@@@__Cr@std@@PEAVCommandLineFlag@absl@@@__Cr@std@@@__Cr@std@@@?$FlatHashMapPolicy@V?$basic_string_view@DU?$char_traits@D@__Cr@std@@@__Cr@std@@PEAVCommandLineFlag@absl@@@container_internal@absl@@SA?A_PPEAV?$allocator@U?$pair@$$CBV?$basic_string_view@DU?$char_traits@D@__Cr@std@@@__Cr@std@@PEAVCommandLineFlag@absl@@@__Cr@std@@@__Cr@std@@PEAT?$map_slot_type@V?$basic_string_view@DU?$char_traits@D@__Cr@std@@@__Cr@std@@PEAVCommandLineFlag@absl@@@12@@Z
    ??$destroy@V?$allocator@U?$pair@$$CBV?$basic_string_view@DU?$char_traits@D@__Cr@std@@@__Cr@std@@PEAVCommandLineFlag@absl@@@__Cr@std@@@__Cr@std@@@?$common_policy_traits@U?$FlatHashMapPolicy@V?$basic_string_view@DU?$char_traits@D@__Cr@std@@@__Cr@std@@PEAVCommandLineFlag@absl@@@container_internal@absl@@X@container_internal@absl@@SA?A_PPEAV?$allocator@U?$pair@$$CBV?$basic_string_view@DU?$char_traits@D@__Cr@std@@@__Cr@std@@PEAVCommandLineFlag@absl@@@__Cr@std@@@__Cr@std@@PEAT?$map_slot_type@V?$basic_string_view@DU?$char_traits@D@__Cr@std@@@__Cr@std@@PEAVCommandLineFlag@absl@@@12@@Z
    ??$destroy@V?$allocator@U?$pair@$$CBV?$basic_string_view@DU?$char_traits@D@__Cr@std@@@__Cr@std@@PEAVCommandLineFlag@absl@@@__Cr@std@@@__Cr@std@@@?$map_slot_policy@V?$basic_string_view@DU?$char_traits@D@__Cr@std@@@__Cr@std@@PEAVCommandLineFlag@absl@@@container_internal@absl@@SA?A_PPEAV?$allocator@U?$pair@$$CBV?$basic_string_view@DU?$char_traits@D@__Cr@std@@@__Cr@std@@PEAVCommandLineFlag@absl@@@__Cr@std@@@__Cr@std@@PEAT?$map_slot_type@V?$basic_string_view@DU?$char_traits@D@__Cr@std@@@__Cr@std@@PEAVCommandLineFlag@absl@@@12@@Z
    ??$destroy@V?$unique_ptr@VFlagStateInterface@flags_internal@absl@@U?$default_delete@VFlagStateInterface@flags_internal@absl@@@__Cr@std@@@__Cr@std@@$0A@@?$allocator_traits@V?$allocator@V?$unique_ptr@VFlagStateInterface@flags_internal@absl@@U?$default_delete@VFlagStateInterface@flags_internal@absl@@@__Cr@std@@@__Cr@std@@@__Cr@std@@@__Cr@std@@SAXAEAV?$allocator@V?$unique_ptr@VFlagStateInterface@flags_internal@absl@@U?$default_delete@VFlagStateInterface@flags_internal@absl@@@__Cr@std@@@__Cr@std@@@12@PEAV?$unique_ptr@VFlagStateInterface@flags_internal@absl@@U?$default_delete@VFlagStateInterface@flags_internal@absl@@@__Cr@std@@@12@@Z
    ??$distance@PEBUPayload@status_internal@absl@@@__Cr@std@@YA_JPEBUPayload@status_internal@absl@@0@Z
    ??$distance@PEBUTransition@cctz@time_internal@absl@@@?$_IterOps@U_ClassicAlgPolicy@__Cr@std@@@__Cr@std@@SA_JPEBUTransition@cctz@time_internal@absl@@0@Z
    ??$distance@PEBUTransition@cctz@time_internal@absl@@@__Cr@std@@YA_JPEBUTransition@cctz@time_internal@absl@@0@Z
    ??$distance@PEBVFormatArgImpl@str_format_internal@absl@@@__Cr@std@@YA_JPEBVFormatArgImpl@str_format_internal@absl@@0@Z
    ??$distance@V?$__wrap_iter@PEAPEAVCommandLineFlag@absl@@@__Cr@std@@@__Cr@std@@YA_JV?$__wrap_iter@PEAPEAVCommandLineFlag@absl@@@01@0@Z
    ??$distance@V?$__wrap_iter@PEAPEBVCommandLineFlag@absl@@@__Cr@std@@@?$_IterOps@U_ClassicAlgPolicy@__Cr@std@@@__Cr@std@@SA_JV?$__wrap_iter@PEAPEBVCommandLineFlag@absl@@@12@0@Z
    ??$distance@V?$__wrap_iter@PEAPEBVCommandLineFlag@absl@@@__Cr@std@@@__Cr@std@@YA_JV?$__wrap_iter@PEAPEBVCommandLineFlag@absl@@@01@0@Z
    ??$distance@V?$__wrap_iter@PEAUraw_view@?1???R?$ConvertToContainer@V?$vector@V?$basic_string_view@DU?$char_traits@D@__Cr@std@@@__Cr@std@@V?$allocator@V?$basic_string_view@DU?$char_traits@D@__Cr@std@@@__Cr@std@@@23@@__Cr@std@@V?$basic_string_view@DU?$char_traits@D@__Cr@std@@@23@$0A@@?$Splitter@VByChar@absl@@UAllowEmpty@2@V?$basic_string_view@DU?$char_traits@D@__Cr@std@@@__Cr@std@@@strings_internal@absl@@QEBA?AV?$vector@V?$basic_string_view@DU?$char_traits@D@__Cr@std@@@__Cr@std@@V?$allocator@V?$basic_string_view@DU?$char_traits@D@__Cr@std@@@__Cr@std@@@23@@__Cr@std@@AEBV345@@Z@@__Cr@std@@@__Cr@std@@YA_JV?$__wrap_iter@PEAUraw_view@?1???R?$ConvertToContainer@V?$vector@V?$basic_string_view@DU?$char_traits@D@__Cr@std@@@__Cr@std@@V?$allocator@V?$basic_string_view@DU?$char_traits@D@__Cr@std@@@__Cr@std@@@23@@__Cr@std@@V?$basic_string_view@DU?$char_traits@D@__Cr@std@@@23@$0A@@?$Splitter@VByChar@absl@@UAllowEmpty@2@V?$basic_string_view@DU?$char_traits@D@__Cr@std@@@__Cr@std@@@strings_internal@absl@@QEBA?AV?$vector@V?$basic_string_view@DU?$char_traits@D@__Cr@std@@@__Cr@std@@V?$allocator@V?$basic_string_view@DU?$char_traits@D@__Cr@std@@@__Cr@std@@@23@@__Cr@std@@AEBV345@@Z@@01@0@Z
    ??$distance@V?$move_iterator@PEAPEAPEBVImpl@time_zone@cctz@time_internal@absl@@@__Cr@std@@@__Cr@std@@YA_JV?$move_iterator@PEAPEAPEBVImpl@time_zone@cctz@time_internal@absl@@@01@0@Z
    ??$distance@V?$move_iterator@PEAPEAUPrefixCrc@CrcCordState@crc_internal@absl@@@__Cr@std@@@__Cr@std@@YA_JV?$move_iterator@PEAPEAUPrefixCrc@CrcCordState@crc_internal@absl@@@01@0@Z
    ??$distance@V?$move_iterator@PEAUTransition@cctz@time_internal@absl@@@__Cr@std@@@__Cr@std@@YA_JV?$move_iterator@PEAUTransition@cctz@time_internal@absl@@@01@0@Z
    ??$distance@V?$move_iterator@PEAUTransitionType@cctz@time_internal@absl@@@__Cr@std@@@__Cr@std@@YA_JV?$move_iterator@PEAUTransitionType@cctz@time_internal@absl@@@01@0@Z
    ??$element@U?$FlatHashMapPolicy@V?$basic_string_view@DU?$char_traits@D@__Cr@std@@@__Cr@std@@PEAVCommandLineFlag@absl@@@container_internal@absl@@@?$common_policy_traits@U?$FlatHashMapPolicy@V?$basic_string_view@DU?$char_traits@D@__Cr@std@@@__Cr@std@@PEAVCommandLineFlag@absl@@@container_internal@absl@@X@container_internal@absl@@SAAEAU?$pair@$$CBV?$basic_string_view@DU?$char_traits@D@__Cr@std@@@__Cr@std@@PEAVCommandLineFlag@absl@@@__Cr@std@@PEAT?$map_slot_type@V?$basic_string_view@DU?$char_traits@D@__Cr@std@@@__Cr@std@@PEAVCommandLineFlag@absl@@@12@@Z
    ??$emplace@$$V@?$vector@UTransition@cctz@time_internal@absl@@V?$allocator@UTransition@cctz@time_internal@absl@@@__Cr@std@@@__Cr@std@@QEAA?AV?$__wrap_iter@PEAUTransition@cctz@time_internal@absl@@@12@V?$__wrap_iter@PEBUTransition@cctz@time_internal@absl@@@12@@Z
    ??$emplace@$$V@?$vector@UTransitionType@cctz@time_internal@absl@@V?$allocator@UTransitionType@cctz@time_internal@absl@@@__Cr@std@@@__Cr@std@@QEAA?AV?$__wrap_iter@PEAUTransitionType@cctz@time_internal@absl@@@12@V?$__wrap_iter@PEBUTransitionType@cctz@time_internal@absl@@@12@@Z
    ??$emplace@U?$pair@$$CBV?$basic_string_view@DU?$char_traits@D@__Cr@std@@@__Cr@std@@PEAVCommandLineFlag@absl@@@__Cr@std@@$0A@@?$raw_hash_set@U?$FlatHashMapPolicy@V?$basic_string_view@DU?$char_traits@D@__Cr@std@@@__Cr@std@@PEAVCommandLineFlag@absl@@@container_internal@absl@@UStringHash@23@UStringEq@23@V?$allocator@U?$pair@$$CBV?$basic_string_view@DU?$char_traits@D@__Cr@std@@@__Cr@std@@PEAVCommandLineFlag@absl@@@__Cr@std@@@__Cr@std@@@container_internal@absl@@QEAA?AU?$pair@Viterator@?$raw_hash_set@U?$FlatHashMapPolicy@V?$basic_string_view@DU?$char_traits@D@__Cr@std@@@__Cr@std@@PEAVCommandLineFlag@absl@@@container_internal@absl@@UStringHash@23@UStringEq@23@V?$allocator@U?$pair@$$CBV?$basic_string_view@DU?$char_traits@D@__Cr@std@@@__Cr@std@@PEAVCommandLineFlag@absl@@@__Cr@std@@@__Cr@std@@@container_internal@absl@@_N@__Cr@std@@$$QEAU?$pair@$$CBV?$basic_string_view@DU?$char_traits@D@__Cr@std@@@__Cr@std@@PEAVCommandLineFlag@absl@@@45@@Z
    ??$emplace@U?$pair@V?$basic_string_view@DU?$char_traits@D@__Cr@std@@@__Cr@std@@PEAVCommandLineFlag@absl@@@__Cr@std@@$0A@@?$raw_hash_set@U?$FlatHashMapPolicy@V?$basic_string_view@DU?$char_traits@D@__Cr@std@@@__Cr@std@@PEAVCommandLineFlag@absl@@@container_internal@absl@@UStringHash@23@UStringEq@23@V?$allocator@U?$pair@$$CBV?$basic_string_view@DU?$char_traits@D@__Cr@std@@@__Cr@std@@PEAVCommandLineFlag@absl@@@__Cr@std@@@__Cr@std@@@container_internal@absl@@QEAA?AU?$pair@Viterator@?$raw_hash_set@U?$FlatHashMapPolicy@V?$basic_string_view@DU?$char_traits@D@__Cr@std@@@__Cr@std@@PEAVCommandLineFlag@absl@@@container_internal@absl@@UStringHash@23@UStringEq@23@V?$allocator@U?$pair@$$CBV?$basic_string_view@DU?$char_traits@D@__Cr@std@@@__Cr@std@@PEAVCommandLineFlag@absl@@@__Cr@std@@@__Cr@std@@@container_internal@absl@@_N@__Cr@std@@$$QEAU?$pair@V?$basic_string_view@DU?$char_traits@D@__Cr@std@@@__Cr@std@@PEAVCommandLineFlag@absl@@@45@@Z
    ??$emplace_at@AEBUpiecewise_construct_t@__Cr@std@@V?$tuple@$$QEAV?$basic_string_view@DU?$char_traits@D@__Cr@std@@@__Cr@std@@@23@V?$tuple@$$QEAPEAVCommandLineFlag@absl@@@23@@?$raw_hash_set@U?$FlatHashMapPolicy@V?$basic_string_view@DU?$char_traits@D@__Cr@std@@@__Cr@std@@PEAVCommandLineFlag@absl@@@container_internal@absl@@UStringHash@23@UStringEq@23@V?$allocator@U?$pair@$$CBV?$basic_string_view@DU?$char_traits@D@__Cr@std@@@__Cr@std@@PEAVCommandLineFlag@absl@@@__Cr@std@@@__Cr@std@@@container_internal@absl@@IEAAXViterator@012@AEBUpiecewise_construct_t@__Cr@std@@$$QEAV?$tuple@$$QEAV?$basic_string_view@DU?$char_traits@D@__Cr@std@@@__Cr@std@@@56@$$QEAV?$tuple@$$QEAPEAVCommandLineFlag@absl@@@56@@Z
    ??$emplace_at@AEBUpiecewise_construct_t@__Cr@std@@V?$tuple@$$QEBV?$basic_string_view@DU?$char_traits@D@__Cr@std@@@__Cr@std@@@23@V?$tuple@$$QEAPEAVCommandLineFlag@absl@@@23@@?$raw_hash_set@U?$FlatHashMapPolicy@V?$basic_string_view@DU?$char_traits@D@__Cr@std@@@__Cr@std@@PEAVCommandLineFlag@absl@@@container_internal@absl@@UStringHash@23@UStringEq@23@V?$allocator@U?$pair@$$CBV?$basic_string_view@DU?$char_traits@D@__Cr@std@@@__Cr@std@@PEAVCommandLineFlag@absl@@@__Cr@std@@@__Cr@std@@@container_internal@absl@@IEAAXViterator@012@AEBUpiecewise_construct_t@__Cr@std@@$$QEAV?$tuple@$$QEBV?$basic_string_view@DU?$char_traits@D@__Cr@std@@@__Cr@std@@@56@$$QEAV?$tuple@$$QEAPEAVCommandLineFlag@absl@@@56@@Z
    ??$emplace_back@$$V@?$__split_buffer@UTransition@cctz@time_internal@absl@@AEAV?$allocator@UTransition@cctz@time_internal@absl@@@__Cr@std@@@__Cr@std@@QEAAXXZ
    ??$emplace_back@$$V@?$__split_buffer@UTransitionType@cctz@time_internal@absl@@AEAV?$allocator@UTransitionType@cctz@time_internal@absl@@@__Cr@std@@@__Cr@std@@QEAAXXZ
    ??$emplace_back@AEAPEAPEBVImpl@time_zone@cctz@time_internal@absl@@@?$__split_buffer@PEAPEBVImpl@time_zone@cctz@time_internal@absl@@V?$allocator@PEAPEBVImpl@time_zone@cctz@time_internal@absl@@@__Cr@std@@@__Cr@std@@QEAAXAEAPEAPEBVImpl@time_zone@cctz@time_internal@absl@@@Z
    ??$emplace_back@AEAPEAUPrefixCrc@CrcCordState@crc_internal@absl@@@?$__split_buffer@PEAUPrefixCrc@CrcCordState@crc_internal@absl@@AEAV?$allocator@PEAUPrefixCrc@CrcCordState@crc_internal@absl@@@__Cr@std@@@__Cr@std@@QEAAXAEAPEAUPrefixCrc@CrcCordState@crc_internal@absl@@@Z
    ??$emplace_back@AEAPEAUPrefixCrc@CrcCordState@crc_internal@absl@@@?$__split_buffer@PEAUPrefixCrc@CrcCordState@crc_internal@absl@@V?$allocator@PEAUPrefixCrc@CrcCordState@crc_internal@absl@@@__Cr@std@@@__Cr@std@@QEAAXAEAPEAUPrefixCrc@CrcCordState@crc_internal@absl@@@Z
    ??$emplace_back@AEAV?$basic_string_view@DU?$char_traits@D@__Cr@std@@@__Cr@std@@AEBV123@AEA_K@?$vector@UViableSubstitution@strings_internal@absl@@V?$allocator@UViableSubstitution@strings_internal@absl@@@__Cr@std@@@__Cr@std@@QEAAAEAUViableSubstitution@strings_internal@absl@@AEAV?$basic_string_view@DU?$char_traits@D@__Cr@std@@@12@AEBV612@AEA_K@Z
    ??$emplace_back@AEBQEAUCordRep@cord_internal@absl@@@?$InlinedVector@PEAUCordRep@cord_internal@absl@@$01V?$allocator@PEAUCordRep@cord_internal@absl@@@__Cr@std@@@absl@@QEAAAEAPEAUCordRep@cord_internal@1@AEBQEAU231@@Z
    ??$emplace_back@AEBQEAVCommandLineFlag@absl@@@?$vector@PEAVCommandLineFlag@absl@@V?$allocator@PEAVCommandLineFlag@absl@@@__Cr@std@@@__Cr@std@@QEAAAEAPEAVCommandLineFlag@absl@@AEBQEAV34@@Z
    ??$emplace_back@AEBQEAVCordzHandle@cord_internal@absl@@@?$vector@PEAVCordzHandle@cord_internal@absl@@V?$allocator@PEAVCordzHandle@cord_internal@absl@@@__Cr@std@@@__Cr@std@@QEAAAEAPEAVCordzHandle@cord_internal@absl@@AEBQEAV345@@Z
    ??$emplace_back@AEBQEAVLogSink@absl@@@?$InlinedVector@PEAVLogSink@absl@@$0BA@V?$allocator@PEAVLogSink@absl@@@__Cr@std@@@absl@@QEAAAEAPEAVLogSink@1@AEBQEAV21@@Z
    ??$emplace_back@AEBQEAVLogSink@absl@@@?$vector@PEAVLogSink@absl@@V?$allocator@PEAVLogSink@absl@@@__Cr@std@@@__Cr@std@@QEAAAEAPEAVLogSink@absl@@AEBQEAV34@@Z
    ??$emplace_back@AEBQEBVCommandLineFlag@absl@@@?$vector@PEBVCommandLineFlag@absl@@V?$allocator@PEBVCommandLineFlag@absl@@@__Cr@std@@@__Cr@std@@QEAAAEAPEBVCommandLineFlag@absl@@AEBQEBV34@@Z
    ??$emplace_back@AEBQEBVCordzHandle@cord_internal@absl@@@?$vector@PEBVCordzHandle@cord_internal@absl@@V?$allocator@PEBVCordzHandle@cord_internal@absl@@@__Cr@std@@@__Cr@std@@QEAAAEAPEBVCordzHandle@cord_internal@absl@@AEBQEBV345@@Z
    ??$emplace_back@AEBUTransition@cctz@time_internal@absl@@@?$vector@UTransition@cctz@time_internal@absl@@V?$allocator@UTransition@cctz@time_internal@absl@@@__Cr@std@@@__Cr@std@@QEAAAEAUTransition@cctz@time_internal@absl@@AEBU3456@@Z
    ??$emplace_back@AEBUUnrecognizedFlag@absl@@@?$vector@UUnrecognizedFlag@absl@@V?$allocator@UUnrecognizedFlag@absl@@@__Cr@std@@@__Cr@std@@QEAAAEAUUnrecognizedFlag@absl@@AEBU34@@Z
    ??$emplace_back@HVcrc32c_t@absl@@@?$deque@UPrefixCrc@CrcCordState@crc_internal@absl@@V?$allocator@UPrefixCrc@CrcCordState@crc_internal@absl@@@__Cr@std@@@__Cr@std@@QEAAAEAUPrefixCrc@CrcCordState@crc_internal@absl@@$$QEAH$$QEAVcrc32c_t@6@@Z
    ??$emplace_back@PEAPEBVImpl@time_zone@cctz@time_internal@absl@@@?$__split_buffer@PEAPEBVImpl@time_zone@cctz@time_internal@absl@@AEAV?$allocator@PEAPEBVImpl@time_zone@cctz@time_internal@absl@@@__Cr@std@@@__Cr@std@@QEAAX$$QEAPEAPEBVImpl@time_zone@cctz@time_internal@absl@@@Z
    ??$emplace_back@PEAPEBVImpl@time_zone@cctz@time_internal@absl@@@?$__split_buffer@PEAPEBVImpl@time_zone@cctz@time_internal@absl@@V?$allocator@PEAPEBVImpl@time_zone@cctz@time_internal@absl@@@__Cr@std@@@__Cr@std@@QEAAX$$QEAPEAPEBVImpl@time_zone@cctz@time_internal@absl@@@Z
    ??$emplace_back@PEAUPrefixCrc@CrcCordState@crc_internal@absl@@@?$__split_buffer@PEAUPrefixCrc@CrcCordState@crc_internal@absl@@AEAV?$allocator@PEAUPrefixCrc@CrcCordState@crc_internal@absl@@@__Cr@std@@@__Cr@std@@QEAAX$$QEAPEAUPrefixCrc@CrcCordState@crc_internal@absl@@@Z
    ??$emplace_back@PEAUPrefixCrc@CrcCordState@crc_internal@absl@@@?$__split_buffer@PEAUPrefixCrc@CrcCordState@crc_internal@absl@@V?$allocator@PEAUPrefixCrc@CrcCordState@crc_internal@absl@@@__Cr@std@@@__Cr@std@@QEAAX$$QEAPEAUPrefixCrc@CrcCordState@crc_internal@absl@@@Z
    ??$emplace_back@PEBVCommandLineFlag@absl@@@?$vector@PEBVCommandLineFlag@absl@@V?$allocator@PEBVCommandLineFlag@absl@@@__Cr@std@@@__Cr@std@@QEAAAEAPEBVCommandLineFlag@absl@@$$QEAPEBV34@@Z
    ??$emplace_back@UConversionItem@ParsedFormatBase@str_format_internal@absl@@@?$vector@UConversionItem@ParsedFormatBase@str_format_internal@absl@@V?$allocator@UConversionItem@ParsedFormatBase@str_format_internal@absl@@@__Cr@std@@@__Cr@std@@QEAAAEAUConversionItem@ParsedFormatBase@str_format_internal@absl@@$$QEAU3456@@Z
    ??$emplace_back@UPayload@status_internal@absl@@@?$InlinedVector@UPayload@status_internal@absl@@$00V?$allocator@UPayload@status_internal@absl@@@__Cr@std@@@absl@@QEAAAEAUPayload@status_internal@1@$$QEAU231@@Z
    ??$emplace_back@V?$unique_ptr@VFlagStateInterface@flags_internal@absl@@U?$default_delete@VFlagStateInterface@flags_internal@absl@@@__Cr@std@@@__Cr@std@@@?$vector@V?$unique_ptr@VFlagStateInterface@flags_internal@absl@@U?$default_delete@VFlagStateInterface@flags_internal@absl@@@__Cr@std@@@__Cr@std@@V?$allocator@V?$unique_ptr@VFlagStateInterface@flags_internal@absl@@U?$default_delete@VFlagStateInterface@flags_internal@absl@@@__Cr@std@@@__Cr@std@@@23@@__Cr@std@@QEAAAEAV?$unique_ptr@VFlagStateInterface@flags_internal@absl@@U?$default_delete@VFlagStateInterface@flags_internal@absl@@@__Cr@std@@@12@$$QEAV312@@Z
    ??$emplace_back@W4Source@UnrecognizedFlag@absl@@AEAV?$basic_string_view@DU?$char_traits@D@__Cr@std@@@__Cr@std@@@?$vector@UUnrecognizedFlag@absl@@V?$allocator@UUnrecognizedFlag@absl@@@__Cr@std@@@__Cr@std@@QEAAAEAUUnrecognizedFlag@absl@@$$QEAW4Source@34@AEAV?$basic_string_view@DU?$char_traits@D@__Cr@std@@@12@@Z
    ??$emplace_front@AEAPEAPEBVImpl@time_zone@cctz@time_internal@absl@@@?$__split_buffer@PEAPEBVImpl@time_zone@cctz@time_internal@absl@@AEAV?$allocator@PEAPEBVImpl@time_zone@cctz@time_internal@absl@@@__Cr@std@@@__Cr@std@@QEAAXAEAPEAPEBVImpl@time_zone@cctz@time_internal@absl@@@Z
    ??$emplace_front@AEAPEAUPrefixCrc@CrcCordState@crc_internal@absl@@@?$__split_buffer@PEAUPrefixCrc@CrcCordState@crc_internal@absl@@AEAV?$allocator@PEAUPrefixCrc@CrcCordState@crc_internal@absl@@@__Cr@std@@@__Cr@std@@QEAAXAEAPEAUPrefixCrc@CrcCordState@crc_internal@absl@@@Z
    ??$emplace_front@PEAPEBVImpl@time_zone@cctz@time_internal@absl@@@?$__split_buffer@PEAPEBVImpl@time_zone@cctz@time_internal@absl@@V?$allocator@PEAPEBVImpl@time_zone@cctz@time_internal@absl@@@__Cr@std@@@__Cr@std@@QEAAX$$QEAPEAPEBVImpl@time_zone@cctz@time_internal@absl@@@Z
    ??$emplace_front@PEAUPrefixCrc@CrcCordState@crc_internal@absl@@@?$__split_buffer@PEAUPrefixCrc@CrcCordState@crc_internal@absl@@V?$allocator@PEAUPrefixCrc@CrcCordState@crc_internal@absl@@@__Cr@std@@@__Cr@std@@QEAAX$$QEAPEAUPrefixCrc@CrcCordState@crc_internal@absl@@@Z
    ??$end@V?$vector@PEAVCommandLineFlag@absl@@V?$allocator@PEAVCommandLineFlag@absl@@@__Cr@std@@@__Cr@std@@@__Cr@std@@YA?AV?$__wrap_iter@PEAPEAVCommandLineFlag@absl@@@01@AEAV?$vector@PEAVCommandLineFlag@absl@@V?$allocator@PEAVCommandLineFlag@absl@@@__Cr@std@@@01@@Z
    ??$end@V?$vector@PEBVCommandLineFlag@absl@@V?$allocator@PEBVCommandLineFlag@absl@@@__Cr@std@@@__Cr@std@@@__Cr@std@@YA?AV?$__wrap_iter@PEAPEBVCommandLineFlag@absl@@@01@AEAV?$vector@PEBVCommandLineFlag@absl@@V?$allocator@PEBVCommandLineFlag@absl@@@__Cr@std@@@01@@Z
    ??$find@V?$__wrap_iter@PEAPEAVLogSink@absl@@@__Cr@std@@PEAVLogSink@absl@@@__Cr@std@@YA?AV?$__wrap_iter@PEAPEAVLogSink@absl@@@01@V201@0AEBQEAVLogSink@absl@@@Z
    ??$find@V?$basic_string@DU?$char_traits@D@__Cr@std@@V?$allocator@D@23@@__Cr@std@@@?$__hash_table@U?$__hash_value_type@V?$basic_string@DU?$char_traits@D@__Cr@std@@V?$allocator@D@23@@__Cr@std@@PEBVImpl@time_zone@cctz@time_internal@absl@@@__Cr@std@@V?$__unordered_map_hasher@V?$basic_string@DU?$char_traits@D@__Cr@std@@V?$allocator@D@23@@__Cr@std@@U?$__hash_value_type@V?$basic_string@DU?$char_traits@D@__Cr@std@@V?$allocator@D@23@@__Cr@std@@PEBVImpl@time_zone@cctz@time_internal@absl@@@23@U?$hash@V?$basic_string@DU?$char_traits@D@__Cr@std@@V?$allocator@D@23@@__Cr@std@@@23@U?$equal_to@V?$basic_string@DU?$char_traits@D@__Cr@std@@V?$allocator@D@23@@__Cr@std@@@23@$00@23@V?$__unordered_map_equal@V?$basic_string@DU?$char_traits@D@__Cr@std@@V?$allocator@D@23@@__Cr@std@@U?$__hash_value_type@V?$basic_string@DU?$char_traits@D@__Cr@std@@V?$allocator@D@23@@__Cr@std@@PEBVImpl@time_zone@cctz@time_internal@absl@@@23@U?$equal_to@V?$basic_string@DU?$char_traits@D@__Cr@std@@V?$allocator@D@23@@__Cr@std@@@23@U?$hash@V?$basic_string@DU?$char_traits@D@__Cr@std@@V?$allocator@D@23@@__Cr@std@@@23@$00@23@V?$allocator@U?$__hash_value_type@V?$basic_string@DU?$char_traits@D@__Cr@std@@V?$allocator@D@23@@__Cr@std@@PEBVImpl@time_zone@cctz@time_internal@absl@@@__Cr@std@@@23@@__Cr@std@@QEAA?AV?$__hash_iterator@PEAU?$__hash_node@U?$__hash_value_type@V?$basic_string@DU?$char_traits@D@__Cr@std@@V?$allocator@D@23@@__Cr@std@@PEBVImpl@time_zone@cctz@time_internal@absl@@@__Cr@std@@PEAX@__Cr@std@@@12@AEBV?$basic_string@DU?$char_traits@D@__Cr@std@@V?$allocator@D@23@@12@@Z
    ??$find@V?$basic_string_view@DU?$char_traits@D@__Cr@std@@@__Cr@std@@@?$raw_hash_set@U?$FlatHashMapPolicy@V?$basic_string_view@DU?$char_traits@D@__Cr@std@@@__Cr@std@@PEAVCommandLineFlag@absl@@@container_internal@absl@@UStringHash@23@UStringEq@23@V?$allocator@U?$pair@$$CBV?$basic_string_view@DU?$char_traits@D@__Cr@std@@@__Cr@std@@PEAVCommandLineFlag@absl@@@__Cr@std@@@__Cr@std@@@container_internal@absl@@QEAA?AViterator@012@AEBV?$basic_string_view@DU?$char_traits@D@__Cr@std@@@__Cr@std@@@Z
    ??$find@V?$basic_string_view@DU?$char_traits@D@__Cr@std@@@__Cr@std@@@?$raw_hash_set@U?$FlatHashMapPolicy@V?$basic_string_view@DU?$char_traits@D@__Cr@std@@@__Cr@std@@PEAVCommandLineFlag@absl@@@container_internal@absl@@UStringHash@23@UStringEq@23@V?$allocator@U?$pair@$$CBV?$basic_string_view@DU?$char_traits@D@__Cr@std@@@__Cr@std@@PEAVCommandLineFlag@absl@@@__Cr@std@@@__Cr@std@@@container_internal@absl@@QEBA?AVconst_iterator@012@AEBV?$basic_string_view@DU?$char_traits@D@__Cr@std@@@__Cr@std@@@Z
    ??$find_non_soo@V?$basic_string_view@DU?$char_traits@D@__Cr@std@@@__Cr@std@@@?$raw_hash_set@U?$FlatHashMapPolicy@V?$basic_string_view@DU?$char_traits@D@__Cr@std@@@__Cr@std@@PEAVCommandLineFlag@absl@@@container_internal@absl@@UStringHash@23@UStringEq@23@V?$allocator@U?$pair@$$CBV?$basic_string_view@DU?$char_traits@D@__Cr@std@@@__Cr@std@@PEAVCommandLineFlag@absl@@@__Cr@std@@@__Cr@std@@@container_internal@absl@@AEAA?AViterator@012@AEBV?$basic_string_view@DU?$char_traits@D@__Cr@std@@@__Cr@std@@_K@Z
    ??$find_or_prepare_insert@V?$basic_string_view@DU?$char_traits@D@__Cr@std@@@__Cr@std@@@?$raw_hash_set@U?$FlatHashMapPolicy@V?$basic_string_view@DU?$char_traits@D@__Cr@std@@@__Cr@std@@PEAVCommandLineFlag@absl@@@container_internal@absl@@UStringHash@23@UStringEq@23@V?$allocator@U?$pair@$$CBV?$basic_string_view@DU?$char_traits@D@__Cr@std@@@__Cr@std@@PEAVCommandLineFlag@absl@@@__Cr@std@@@__Cr@std@@@container_internal@absl@@IEAA?AU?$pair@Viterator@?$raw_hash_set@U?$FlatHashMapPolicy@V?$basic_string_view@DU?$char_traits@D@__Cr@std@@@__Cr@std@@PEAVCommandLineFlag@absl@@@container_internal@absl@@UStringHash@23@UStringEq@23@V?$allocator@U?$pair@$$CBV?$basic_string_view@DU?$char_traits@D@__Cr@std@@@__Cr@std@@PEAVCommandLineFlag@absl@@@__Cr@std@@@__Cr@std@@@container_internal@absl@@_N@__Cr@std@@AEBV?$basic_string_view@DU?$char_traits@D@__Cr@std@@@45@@Z
    ??$find_or_prepare_insert_non_soo@V?$basic_string_view@DU?$char_traits@D@__Cr@std@@@__Cr@std@@@?$raw_hash_set@U?$FlatHashMapPolicy@V?$basic_string_view@DU?$char_traits@D@__Cr@std@@@__Cr@std@@PEAVCommandLineFlag@absl@@@container_internal@absl@@UStringHash@23@UStringEq@23@V?$allocator@U?$pair@$$CBV?$basic_string_view@DU?$char_traits@D@__Cr@std@@@__Cr@std@@PEAVCommandLineFlag@absl@@@__Cr@std@@@__Cr@std@@@container_internal@absl@@AEAA?AU?$pair@Viterator@?$raw_hash_set@U?$FlatHashMapPolicy@V?$basic_string_view@DU?$char_traits@D@__Cr@std@@@__Cr@std@@PEAVCommandLineFlag@absl@@@container_internal@absl@@UStringHash@23@UStringEq@23@V?$allocator@U?$pair@$$CBV?$basic_string_view@DU?$char_traits@D@__Cr@std@@@__Cr@std@@PEAVCommandLineFlag@absl@@@__Cr@std@@@__Cr@std@@@container_internal@absl@@_N@__Cr@std@@AEBV?$basic_string_view@DU?$char_traits@D@__Cr@std@@@45@@Z
    ??$find_or_prepare_insert_soo@V?$basic_string_view@DU?$char_traits@D@__Cr@std@@@__Cr@std@@@?$raw_hash_set@U?$FlatHashMapPolicy@V?$basic_string_view@DU?$char_traits@D@__Cr@std@@@__Cr@std@@PEAVCommandLineFlag@absl@@@container_internal@absl@@UStringHash@23@UStringEq@23@V?$allocator@U?$pair@$$CBV?$basic_string_view@DU?$char_traits@D@__Cr@std@@@__Cr@std@@PEAVCommandLineFlag@absl@@@__Cr@std@@@__Cr@std@@@container_internal@absl@@AEAA?AU?$pair@Viterator@?$raw_hash_set@U?$FlatHashMapPolicy@V?$basic_string_view@DU?$char_traits@D@__Cr@std@@@__Cr@std@@PEAVCommandLineFlag@absl@@@container_internal@absl@@UStringHash@23@UStringEq@23@V?$allocator@U?$pair@$$CBV?$basic_string_view@DU?$char_traits@D@__Cr@std@@@__Cr@std@@PEAVCommandLineFlag@absl@@@__Cr@std@@@__Cr@std@@@container_internal@absl@@_N@__Cr@std@@AEBV?$basic_string_view@DU?$char_traits@D@__Cr@std@@@45@@Z
    ??$find_soo@V?$basic_string_view@DU?$char_traits@D@__Cr@std@@@__Cr@std@@@?$raw_hash_set@U?$FlatHashMapPolicy@V?$basic_string_view@DU?$char_traits@D@__Cr@std@@@__Cr@std@@PEAVCommandLineFlag@absl@@@container_internal@absl@@UStringHash@23@UStringEq@23@V?$allocator@U?$pair@$$CBV?$basic_string_view@DU?$char_traits@D@__Cr@std@@@__Cr@std@@PEAVCommandLineFlag@absl@@@__Cr@std@@@__Cr@std@@@container_internal@absl@@AEAA?AViterator@012@AEBV?$basic_string_view@DU?$char_traits@D@__Cr@std@@@__Cr@std@@@Z
    ??$forward_as_tuple@AEBQEAVCommandLineFlag@absl@@@__Cr@std@@YA?AV?$tuple@AEBQEAVCommandLineFlag@absl@@@01@AEBQEAVCommandLineFlag@absl@@@Z
    ??$forward_as_tuple@PEAVCommandLineFlag@absl@@@__Cr@std@@YA?AV?$tuple@$$QEAPEAVCommandLineFlag@absl@@@01@$$QEAPEAVCommandLineFlag@absl@@@Z
    ??$get@$00@?$CompressedTuple@V?$allocator@PEAUCordRep@cord_internal@absl@@@__Cr@std@@PEAPEAUCordRep@cord_internal@absl@@@container_internal@absl@@QEGAAAEAPEAPEAUCordRep@cord_internal@2@XZ
    ??$get@$00@?$CompressedTuple@V?$allocator@PEAUCordRep@cord_internal@absl@@@__Cr@std@@_K@container_internal@absl@@QEGAAAEA_KXZ
    ??$get@$00@?$CompressedTuple@V?$allocator@PEAUCordRep@cord_internal@absl@@@__Cr@std@@_K@container_internal@absl@@QEGBAAEB_KXZ
    ??$get@$00@?$CompressedTuple@V?$allocator@PEAVLogSink@absl@@@__Cr@std@@PEAPEAVLogSink@absl@@@container_internal@absl@@QEGAAAEAPEAPEAVLogSink@2@XZ
    ??$get@$00@?$CompressedTuple@V?$allocator@PEAVLogSink@absl@@@__Cr@std@@_K@container_internal@absl@@QEGAAAEA_KXZ
    ??$get@$00@?$CompressedTuple@V?$allocator@PEAVLogSink@absl@@@__Cr@std@@_K@container_internal@absl@@QEGBAAEB_KXZ
    ??$get@$00@?$CompressedTuple@V?$allocator@UPayload@status_internal@absl@@@__Cr@std@@PEAUPayload@status_internal@absl@@@container_internal@absl@@QEGAAAEAPEAUPayload@status_internal@2@XZ
    ??$get@$00@?$CompressedTuple@V?$allocator@UPayload@status_internal@absl@@@__Cr@std@@_K@container_internal@absl@@QEGAAAEA_KXZ
    ??$get@$00@?$CompressedTuple@V?$allocator@UPayload@status_internal@absl@@@__Cr@std@@_K@container_internal@absl@@QEGBAAEB_KXZ
    ??$get@$00@?$CompressedTuple@V?$allocator@VFormatArgImpl@str_format_internal@absl@@@__Cr@std@@_K@container_internal@absl@@QEGAAAEA_KXZ
    ??$get@$00@?$CompressedTuple@V?$allocator@VFormatArgImpl@str_format_internal@absl@@@__Cr@std@@_K@container_internal@absl@@QEGBAAEB_KXZ
    ??$get@$00@?$CompressedTuple@VCommonFields@container_internal@absl@@UStringHash@23@UStringEq@23@V?$allocator@D@__Cr@std@@@container_internal@absl@@QEGAAAEAUStringHash@12@XZ
    ??$get@$00@?$CompressedTuple@VCommonFields@container_internal@absl@@UStringHash@23@UStringEq@23@V?$allocator@D@__Cr@std@@@container_internal@absl@@QEGBAAEBUStringHash@12@XZ
    ??$get@$00@?$CompressedTuple@_KV?$allocator@D@__Cr@std@@@container_internal@absl@@QEGAAAEAV?$allocator@D@__Cr@std@@XZ
    ??$get@$00AEAPEAVCommandLineFlag@absl@@AEA_N@__Cr@std@@YAAEA_NAEAV?$tuple@AEAPEAVCommandLineFlag@absl@@AEA_N@01@@Z
    ??$get@$00PEAVCommandLineFlag@absl@@_N@__Cr@std@@YAAEA_NAEAV?$tuple@PEAVCommandLineFlag@absl@@_N@01@@Z
    ??$get@$01@?$CompressedTuple@VCommonFields@container_internal@absl@@UStringHash@23@UStringEq@23@V?$allocator@D@__Cr@std@@@container_internal@absl@@QEGAAAEAUStringEq@12@XZ
    ??$get@$02@?$CompressedTuple@VCommonFields@container_internal@absl@@UStringHash@23@UStringEq@23@V?$allocator@D@__Cr@std@@@container_internal@absl@@QEGAAAEAV?$allocator@D@__Cr@std@@XZ
    ??$get@$0A@$$QEAPEAVCommandLineFlag@absl@@@__Cr@std@@YAAEAPEAVCommandLineFlag@absl@@AEAV?$tuple@$$QEAPEAVCommandLineFlag@absl@@@01@@Z
    ??$get@$0A@@?$CompressedTuple@V?$allocator@PEAUCordRep@cord_internal@absl@@@__Cr@std@@PEAPEAUCordRep@cord_internal@absl@@@container_internal@absl@@QEGAAAEAV?$allocator@PEAUCordRep@cord_internal@absl@@@__Cr@std@@XZ
    ??$get@$0A@@?$CompressedTuple@V?$allocator@PEAUCordRep@cord_internal@absl@@@__Cr@std@@_K@container_internal@absl@@QEGAAAEAV?$allocator@PEAUCordRep@cord_internal@absl@@@__Cr@std@@XZ
    ??$get@$0A@@?$CompressedTuple@V?$allocator@PEAVLogSink@absl@@@__Cr@std@@PEAPEAVLogSink@absl@@@container_internal@absl@@QEGAAAEAV?$allocator@PEAVLogSink@absl@@@__Cr@std@@XZ
    ??$get@$0A@@?$CompressedTuple@V?$allocator@PEAVLogSink@absl@@@__Cr@std@@_K@container_internal@absl@@QEGAAAEAV?$allocator@PEAVLogSink@absl@@@__Cr@std@@XZ
    ??$get@$0A@@?$CompressedTuple@V?$allocator@UPayload@status_internal@absl@@@__Cr@std@@PEAUPayload@status_internal@absl@@@container_internal@absl@@QEGAAAEAV?$allocator@UPayload@status_internal@absl@@@__Cr@std@@XZ
    ??$get@$0A@@?$CompressedTuple@V?$allocator@UPayload@status_internal@absl@@@__Cr@std@@_K@container_internal@absl@@QEGAAAEAV?$allocator@UPayload@status_internal@absl@@@__Cr@std@@XZ
    ??$get@$0A@@?$CompressedTuple@V?$allocator@UPayload@status_internal@absl@@@__Cr@std@@_K@container_internal@absl@@QEGBAAEBV?$allocator@UPayload@status_internal@absl@@@__Cr@std@@XZ
    ??$get@$0A@@?$CompressedTuple@V?$allocator@VFormatArgImpl@str_format_internal@absl@@@__Cr@std@@_K@container_internal@absl@@QEGAAAEAV?$allocator@VFormatArgImpl@str_format_internal@absl@@@__Cr@std@@XZ
    ??$get@$0A@@?$CompressedTuple@VCommonFields@container_internal@absl@@UStringHash@23@UStringEq@23@V?$allocator@D@__Cr@std@@@container_internal@absl@@QEGAAAEAVCommonFields@12@XZ
    ??$get@$0A@@?$CompressedTuple@VCommonFields@container_internal@absl@@UStringHash@23@UStringEq@23@V?$allocator@D@__Cr@std@@@container_internal@absl@@QEGBAAEBVCommonFields@12@XZ
    ??$get@$0A@@?$CompressedTuple@_KV?$allocator@D@__Cr@std@@@container_internal@absl@@QEGBAAEB_KXZ
    ??$get@$0A@AEAPEAVCommandLineFlag@absl@@AEA_N@__Cr@std@@YAAEAPEAVCommandLineFlag@absl@@AEAV?$tuple@AEAPEAVCommandLineFlag@absl@@AEA_N@01@@Z
    ??$get@$0A@AEBQEAVCommandLineFlag@absl@@@__Cr@std@@YAAEBQEAVCommandLineFlag@absl@@AEAV?$tuple@AEBQEAVCommandLineFlag@absl@@@01@@Z
    ??$get@$0A@PEAVCommandLineFlag@absl@@_N@__Cr@std@@YA$$QEAPEAVCommandLineFlag@absl@@$$QEAV?$tuple@PEAVCommandLineFlag@absl@@_N@01@@Z
    ??$get@$0A@PEAVCommandLineFlag@absl@@_N@__Cr@std@@YAAEAPEAVCommandLineFlag@absl@@AEAV?$tuple@PEAVCommandLineFlag@absl@@_N@01@@Z
    ??$hash@V?$basic_string_view@DU?$char_traits@D@__Cr@std@@@__Cr@std@@$0A@@MixingHashState@hash_internal@absl@@SA_KAEBV?$basic_string_view@DU?$char_traits@D@__Cr@std@@@__Cr@std@@@Z
    ??$hash@V?$tuple@AEBV?$basic_string_view@DU?$char_traits@D@__Cr@std@@@__Cr@std@@AEBH@__Cr@std@@$0A@@MixingHashState@hash_internal@absl@@SA_KAEBV?$tuple@AEBV?$basic_string_view@DU?$char_traits@D@__Cr@std@@@__Cr@std@@AEBH@__Cr@std@@@Z
    ??$hash@V?$tuple@AEB_K@__Cr@std@@$0A@@MixingHashState@hash_internal@absl@@SA_KAEBV?$tuple@AEB_K@__Cr@std@@@Z
    ??$hash_bytes@VMixingHashState@hash_internal@absl@@H$0A@@hash_internal@absl@@YA?AVMixingHashState@01@V201@AEBH@Z
    ??$hash_bytes@VMixingHashState@hash_internal@absl@@_K$0A@@hash_internal@absl@@YA?AVMixingHashState@01@V201@AEB_K@Z
    ??$hash_range_or_bytes@VMixingHashState@hash_internal@absl@@D@hash_internal@absl@@YA?AVMixingHashState@01@V201@PEBD_K@Z
    ??$hash_tuple@VMixingHashState@hash_internal@absl@@V?$tuple@AEBV?$basic_string_view@DU?$char_traits@D@__Cr@std@@@__Cr@std@@AEBH@__Cr@std@@$0A@$00@hash_internal@absl@@YA?AVMixingHashState@01@V201@AEBV?$tuple@AEBV?$basic_string_view@DU?$char_traits@D@__Cr@std@@@__Cr@std@@AEBH@__Cr@std@@U?$integer_sequence@_K$0A@$00@45@@Z
    ??$hash_tuple@VMixingHashState@hash_internal@absl@@V?$tuple@AEB_K@__Cr@std@@$0A@@hash_internal@absl@@YA?AVMixingHashState@01@V201@AEBV?$tuple@AEB_K@__Cr@std@@U?$integer_sequence@_K$0A@@45@@Z
    ??$hash_weakly_mixed_integer@VMixingHashState@hash_internal@absl@@@hash_internal@absl@@YA?AVMixingHashState@01@V201@UWeaklyMixedInteger@01@@Z
    ??$insert@U?$pair@$$CBV?$basic_string_view@DU?$char_traits@D@__Cr@std@@@__Cr@std@@PEAVCommandLineFlag@absl@@@__Cr@std@@$0A@@?$raw_hash_set@U?$FlatHashMapPolicy@V?$basic_string_view@DU?$char_traits@D@__Cr@std@@@__Cr@std@@PEAVCommandLineFlag@absl@@@container_internal@absl@@UStringHash@23@UStringEq@23@V?$allocator@U?$pair@$$CBV?$basic_string_view@DU?$char_traits@D@__Cr@std@@@__Cr@std@@PEAVCommandLineFlag@absl@@@__Cr@std@@@__Cr@std@@@container_internal@absl@@QEAA?AU?$pair@Viterator@?$raw_hash_set@U?$FlatHashMapPolicy@V?$basic_string_view@DU?$char_traits@D@__Cr@std@@@__Cr@std@@PEAVCommandLineFlag@absl@@@container_internal@absl@@UStringHash@23@UStringEq@23@V?$allocator@U?$pair@$$CBV?$basic_string_view@DU?$char_traits@D@__Cr@std@@@__Cr@std@@PEAVCommandLineFlag@absl@@@__Cr@std@@@__Cr@std@@@container_internal@absl@@_N@__Cr@std@@$$QEAU?$pair@$$CBV?$basic_string_view@DU?$char_traits@D@__Cr@std@@@__Cr@std@@PEAVCommandLineFlag@absl@@@45@@Z
    ??$insert@V?$__wrap_iter@PEAUraw_view@?1???R?$ConvertToContainer@V?$vector@V?$basic_string_view@DU?$char_traits@D@__Cr@std@@@__Cr@std@@V?$allocator@V?$basic_string_view@DU?$char_traits@D@__Cr@std@@@__Cr@std@@@23@@__Cr@std@@V?$basic_string_view@DU?$char_traits@D@__Cr@std@@@23@$0A@@?$Splitter@VByChar@absl@@UAllowEmpty@2@V?$basic_string_view@DU?$char_traits@D@__Cr@std@@@__Cr@std@@@strings_internal@absl@@QEBA?AV?$vector@V?$basic_string_view@DU?$char_traits@D@__Cr@std@@@__Cr@std@@V?$allocator@V?$basic_string_view@DU?$char_traits@D@__Cr@std@@@__Cr@std@@@23@@__Cr@std@@AEBV345@@Z@@__Cr@std@@$0A@@?$vector@V?$basic_string_view@DU?$char_traits@D@__Cr@std@@@__Cr@std@@V?$allocator@V?$basic_string_view@DU?$char_traits@D@__Cr@std@@@__Cr@std@@@23@@__Cr@std@@QEAA?AV?$__wrap_iter@PEAV?$basic_string_view@DU?$char_traits@D@__Cr@std@@@__Cr@std@@@12@V?$__wrap_iter@PEBV?$basic_string_view@DU?$char_traits@D@__Cr@std@@@__Cr@std@@@12@V?$__wrap_iter@PEAUraw_view@?1???R?$ConvertToContainer@V?$vector@V?$basic_string_view@DU?$char_traits@D@__Cr@std@@@__Cr@std@@V?$allocator@V?$basic_string_view@DU?$char_traits@D@__Cr@std@@@__Cr@std@@@23@@__Cr@std@@V?$basic_string_view@DU?$char_traits@D@__Cr@std@@@23@$0A@@?$Splitter@VByChar@absl@@UAllowEmpty@2@V?$basic_string_view@DU?$char_traits@D@__Cr@std@@@__Cr@std@@@strings_internal@absl@@QEBA?AV?$vector@V?$basic_string_view@DU?$char_traits@D@__Cr@std@@@__Cr@std@@V?$allocator@V?$basic_string_view@DU?$char_traits@D@__Cr@std@@@__Cr@std@@@23@@__Cr@std@@AEBV345@@Z@@12@1@Z
    ??$invoke@P8FlagImpl@flags_internal@absl@@EAAXXZPEAV123@@__Cr@std@@YAX$$QEAP8FlagImpl@flags_internal@absl@@EAAXXZ$$QEAPEAV234@@Z
    ??$iter_swap@AEAPEAPEAVCommandLineFlag@absl@@AEAPEAPEAV12@@?$_IterOps@U_ClassicAlgPolicy@__Cr@std@@@__Cr@std@@SAXAEAPEAPEAVCommandLineFlag@absl@@0@Z
    ??$iter_swap@AEAPEAPEAVCommandLineFlag@absl@@PEAPEAV12@@?$_IterOps@U_ClassicAlgPolicy@__Cr@std@@@__Cr@std@@SAXAEAPEAPEAVCommandLineFlag@absl@@$$QEAPEAPEAV34@@Z
    ??$iter_swap@AEAPEAPEBVCommandLineFlag@absl@@AEAPEAPEBV12@@?$_IterOps@U_ClassicAlgPolicy@__Cr@std@@@__Cr@std@@SAXAEAPEAPEBVCommandLineFlag@absl@@0@Z
    ??$iter_swap@AEAPEAPEBVCommandLineFlag@absl@@PEAPEBV12@@?$_IterOps@U_ClassicAlgPolicy@__Cr@std@@@__Cr@std@@SAXAEAPEAPEBVCommandLineFlag@absl@@$$QEAPEAPEBV34@@Z
    ??$iter_swap@PEAPEAVCommandLineFlag@absl@@PEAPEAV12@@?$_IterOps@U_ClassicAlgPolicy@__Cr@std@@@__Cr@std@@SAX$$QEAPEAPEAVCommandLineFlag@absl@@0@Z
    ??$iter_swap@PEAPEAVCommandLineFlag@absl@@PEAPEAV12@@__Cr@std@@YAXPEAPEAVCommandLineFlag@absl@@0@Z
    ??$iter_swap@PEAPEBVCommandLineFlag@absl@@PEAPEBV12@@?$_IterOps@U_ClassicAlgPolicy@__Cr@std@@@__Cr@std@@SAX$$QEAPEAPEBVCommandLineFlag@absl@@0@Z
    ??$iter_swap@PEAPEBVCommandLineFlag@absl@@PEAPEBV12@@__Cr@std@@YAXPEAPEBVCommandLineFlag@absl@@0@Z
    ??$launder@$$CBU?$pair@$$CBV?$basic_string@DU?$char_traits@D@__Cr@std@@V?$allocator@D@23@@__Cr@std@@PEBVImpl@time_zone@cctz@time_internal@absl@@@__Cr@std@@@__Cr@std@@YAPEBU?$pair@$$CBV?$basic_string@DU?$char_traits@D@__Cr@std@@V?$allocator@D@23@@__Cr@std@@PEBVImpl@time_zone@cctz@time_internal@absl@@@01@PEBU201@@Z
    ??$launder@$$CBU?$pair@$$CBV?$basic_string@DU?$char_traits@D@__Cr@std@@V?$allocator@D@23@@__Cr@std@@V?$map@V?$basic_string@DU?$char_traits@D@__Cr@std@@V?$allocator@D@23@@__Cr@std@@V?$vector@PEBVCommandLineFlag@absl@@V?$allocator@PEBVCommandLineFlag@absl@@@__Cr@std@@@23@U?$less@V?$basic_string@DU?$char_traits@D@__Cr@std@@V?$allocator@D@23@@__Cr@std@@@23@V?$allocator@U?$pair@$$CBV?$basic_string@DU?$char_traits@D@__Cr@std@@V?$allocator@D@23@@__Cr@std@@V?$vector@PEBVCommandLineFlag@absl@@V?$allocator@PEBVCommandLineFlag@absl@@@__Cr@std@@@23@@__Cr@std@@@23@@23@@__Cr@std@@@__Cr@std@@YAPEBU?$pair@$$CBV?$basic_string@DU?$char_traits@D@__Cr@std@@V?$allocator@D@23@@__Cr@std@@V?$map@V?$basic_string@DU?$char_traits@D@__Cr@std@@V?$allocator@D@23@@__Cr@std@@V?$vector@PEBVCommandLineFlag@absl@@V?$allocator@PEBVCommandLineFlag@absl@@@__Cr@std@@@23@U?$less@V?$basic_string@DU?$char_traits@D@__Cr@std@@V?$allocator@D@23@@__Cr@std@@@23@V?$allocator@U?$pair@$$CBV?$basic_string@DU?$char_traits@D@__Cr@std@@V?$allocator@D@23@@__Cr@std@@V?$vector@PEBVCommandLineFlag@absl@@V?$allocator@PEBVCommandLineFlag@absl@@@__Cr@std@@@23@@__Cr@std@@@23@@23@@01@PEBU201@@Z
    ??$launder@$$CBU?$pair@$$CBV?$basic_string@DU?$char_traits@D@__Cr@std@@V?$allocator@D@23@@__Cr@std@@V?$vector@PEBVCommandLineFlag@absl@@V?$allocator@PEBVCommandLineFlag@absl@@@__Cr@std@@@23@@__Cr@std@@@__Cr@std@@YAPEBU?$pair@$$CBV?$basic_string@DU?$char_traits@D@__Cr@std@@V?$allocator@D@23@@__Cr@std@@V?$vector@PEBVCommandLineFlag@absl@@V?$allocator@PEBVCommandLineFlag@absl@@@__Cr@std@@@23@@01@PEBU201@@Z
    ??$launder@U?$pair@$$CBV?$basic_string@DU?$char_traits@D@__Cr@std@@V?$allocator@D@23@@__Cr@std@@PEBVImpl@time_zone@cctz@time_internal@absl@@@__Cr@std@@@__Cr@std@@YAPEAU?$pair@$$CBV?$basic_string@DU?$char_traits@D@__Cr@std@@V?$allocator@D@23@@__Cr@std@@PEBVImpl@time_zone@cctz@time_internal@absl@@@01@PEAU201@@Z
    ??$launder@U?$pair@$$CBV?$basic_string@DU?$char_traits@D@__Cr@std@@V?$allocator@D@23@@__Cr@std@@V?$map@V?$basic_string@DU?$char_traits@D@__Cr@std@@V?$allocator@D@23@@__Cr@std@@V?$vector@PEBVCommandLineFlag@absl@@V?$allocator@PEBVCommandLineFlag@absl@@@__Cr@std@@@23@U?$less@V?$basic_string@DU?$char_traits@D@__Cr@std@@V?$allocator@D@23@@__Cr@std@@@23@V?$allocator@U?$pair@$$CBV?$basic_string@DU?$char_traits@D@__Cr@std@@V?$allocator@D@23@@__Cr@std@@V?$vector@PEBVCommandLineFlag@absl@@V?$allocator@PEBVCommandLineFlag@absl@@@__Cr@std@@@23@@__Cr@std@@@23@@23@@__Cr@std@@@__Cr@std@@YAPEAU?$pair@$$CBV?$basic_string@DU?$char_traits@D@__Cr@std@@V?$allocator@D@23@@__Cr@std@@V?$map@V?$basic_string@DU?$char_traits@D@__Cr@std@@V?$allocator@D@23@@__Cr@std@@V?$vector@PEBVCommandLineFlag@absl@@V?$allocator@PEBVCommandLineFlag@absl@@@__Cr@std@@@23@U?$less@V?$basic_string@DU?$char_traits@D@__Cr@std@@V?$allocator@D@23@@__Cr@std@@@23@V?$allocator@U?$pair@$$CBV?$basic_string@DU?$char_traits@D@__Cr@std@@V?$allocator@D@23@@__Cr@std@@V?$vector@PEBVCommandLineFlag@absl@@V?$allocator@PEBVCommandLineFlag@absl@@@__Cr@std@@@23@@__Cr@std@@@23@@23@@01@PEAU201@@Z
    ??$launder@U?$pair@$$CBV?$basic_string@DU?$char_traits@D@__Cr@std@@V?$allocator@D@23@@__Cr@std@@V?$vector@PEBVCommandLineFlag@absl@@V?$allocator@PEBVCommandLineFlag@absl@@@__Cr@std@@@23@@__Cr@std@@@__Cr@std@@YAPEAU?$pair@$$CBV?$basic_string@DU?$char_traits@D@__Cr@std@@V?$allocator@D@23@@__Cr@std@@V?$vector@PEBVCommandLineFlag@absl@@V?$allocator@PEBVCommandLineFlag@absl@@@__Cr@std@@@23@@01@PEAU201@@Z
    ??$launder@U?$pair@$$CBV?$basic_string_view@DU?$char_traits@D@__Cr@std@@@__Cr@std@@PEAVCommandLineFlag@absl@@@__Cr@std@@@__Cr@std@@YAPEAU?$pair@$$CBV?$basic_string_view@DU?$char_traits@D@__Cr@std@@@__Cr@std@@PEAVCommandLineFlag@absl@@@01@PEAU201@@Z
    ??$launder@URefcountedRep@CrcCordState@crc_internal@absl@@@__Cr@std@@YAPEAURefcountedRep@CrcCordState@crc_internal@absl@@PEAU2345@@Z
    ??$launder@V?$SampleRecorder@UHashtablezInfo@container_internal@absl@@@profiling_internal@absl@@@__Cr@std@@YAPEAV?$SampleRecorder@UHashtablezInfo@container_internal@absl@@@profiling_internal@absl@@PEAV234@@Z
    ??$launder@VFlagRegistry@flags_internal@absl@@@__Cr@std@@YAPEAVFlagRegistry@flags_internal@absl@@PEAV234@@Z
    ??$launder@VMutex@absl@@@__Cr@std@@YAPEAVMutex@absl@@PEAV23@@Z
    ??$lower_bound@PEBUTransition@cctz@time_internal@absl@@U1234@UByUnixTime@1234@@__Cr@std@@YAPEBUTransition@cctz@time_internal@absl@@PEBU2345@0AEBU2345@UByUnixTime@2345@@Z
    ??$make_pair@AEAPEAPEAPEBVImpl@time_zone@cctz@time_internal@absl@@AEAPEAPEAPEBV12345@@__Cr@std@@YA?AU?$pair@PEAPEAPEBVImpl@time_zone@cctz@time_internal@absl@@PEAPEAPEBV12345@@01@AEAPEAPEAPEBVImpl@time_zone@cctz@time_internal@absl@@0@Z
    ??$make_pair@AEAPEAPEAPEBVImpl@time_zone@cctz@time_internal@absl@@PEAPEAPEBV12345@@__Cr@std@@YA?AU?$pair@PEAPEAPEBVImpl@time_zone@cctz@time_internal@absl@@PEAPEAPEBV12345@@01@AEAPEAPEAPEBVImpl@time_zone@cctz@time_internal@absl@@$$QEAPEAPEAPEBV34567@@Z
    ??$make_pair@AEAPEAPEAUPrefixCrc@CrcCordState@crc_internal@absl@@AEAPEAPEAU1234@@__Cr@std@@YA?AU?$pair@PEAPEAUPrefixCrc@CrcCordState@crc_internal@absl@@PEAPEAU1234@@01@AEAPEAPEAUPrefixCrc@CrcCordState@crc_internal@absl@@0@Z
    ??$make_pair@AEAPEAPEAUPrefixCrc@CrcCordState@crc_internal@absl@@PEAPEAU1234@@__Cr@std@@YA?AU?$pair@PEAPEAUPrefixCrc@CrcCordState@crc_internal@absl@@PEAPEAU1234@@01@AEAPEAPEAUPrefixCrc@CrcCordState@crc_internal@absl@@$$QEAPEAPEAU3456@@Z
    ??$make_pair@AEAPEAPEAVCommandLineFlag@absl@@AEA_N@__Cr@std@@YA?AU?$pair@PEAPEAVCommandLineFlag@absl@@_N@01@AEAPEAPEAVCommandLineFlag@absl@@AEA_N@Z
    ??$make_pair@AEAPEAPEAVLogSink@absl@@PEAPEAV12@@__Cr@std@@YA?AU?$pair@PEAPEAVLogSink@absl@@PEAPEAV12@@01@AEAPEAPEAVLogSink@absl@@$$QEAPEAPEAV34@@Z
    ??$make_pair@AEAPEAPEBVCommandLineFlag@absl@@AEA_N@__Cr@std@@YA?AU?$pair@PEAPEBVCommandLineFlag@absl@@_N@01@AEAPEAPEBVCommandLineFlag@absl@@AEA_N@Z
    ??$make_pair@AEAPEAUTransition@cctz@time_internal@absl@@AEAPEAU1234@@__Cr@std@@YA?AU?$pair@PEAUTransition@cctz@time_internal@absl@@PEAU1234@@01@AEAPEAUTransition@cctz@time_internal@absl@@0@Z
    ??$make_pair@AEAPEAUTransition@cctz@time_internal@absl@@PEAU1234@@__Cr@std@@YA?AU?$pair@PEAUTransition@cctz@time_internal@absl@@PEAU1234@@01@AEAPEAUTransition@cctz@time_internal@absl@@$$QEAPEAU3456@@Z
    ??$make_pair@AEAPEAUTransitionType@cctz@time_internal@absl@@AEAPEAU1234@@__Cr@std@@YA?AU?$pair@PEAUTransitionType@cctz@time_internal@absl@@PEAU1234@@01@AEAPEAUTransitionType@cctz@time_internal@absl@@0@Z
    ??$make_pair@AEAPEAUTransitionType@cctz@time_internal@absl@@PEAU1234@@__Cr@std@@YA?AU?$pair@PEAUTransitionType@cctz@time_internal@absl@@PEAU1234@@01@AEAPEAUTransitionType@cctz@time_internal@absl@@$$QEAPEAU3456@@Z
    ??$make_pair@AEAPEBUPrefixCrc@CrcCordState@crc_internal@absl@@PEAU1234@@__Cr@std@@YA?AU?$pair@PEBUPrefixCrc@CrcCordState@crc_internal@absl@@PEAU1234@@01@AEAPEBUPrefixCrc@CrcCordState@crc_internal@absl@@$$QEAPEAU3456@@Z
    ??$make_pair@AEAV?$__deque_iterator@UPrefixCrc@CrcCordState@crc_internal@absl@@PEBU1234@AEBU1234@PEBQEBU1234@_J$0A@@__Cr@std@@V?$__deque_iterator@UPrefixCrc@CrcCordState@crc_internal@absl@@PEAU1234@AEAU1234@PEAPEAU1234@_J$0A@@23@@__Cr@std@@YA?AU?$pair@V?$__deque_iterator@UPrefixCrc@CrcCordState@crc_internal@absl@@PEBU1234@AEBU1234@PEBQEBU1234@_J$0A@@__Cr@std@@V?$__deque_iterator@UPrefixCrc@CrcCordState@crc_internal@absl@@PEAU1234@AEAU1234@PEAPEAU1234@_J$0A@@23@@01@AEAV?$__deque_iterator@UPrefixCrc@CrcCordState@crc_internal@absl@@PEBU1234@AEBU1234@PEBQEBU1234@_J$0A@@01@$$QEAV?$__deque_iterator@UPrefixCrc@CrcCordState@crc_internal@absl@@PEAU1234@AEAU1234@PEAPEAU1234@_J$0A@@01@@Z
    ??$make_pair@PEAPEAPEBVImpl@time_zone@cctz@time_internal@absl@@PEAPEAPEBV12345@@__Cr@std@@YA?AU?$pair@PEAPEAPEBVImpl@time_zone@cctz@time_internal@absl@@PEAPEAPEBV12345@@01@$$QEAPEAPEAPEBVImpl@time_zone@cctz@time_internal@absl@@0@Z
    ??$make_pair@PEAPEAUPrefixCrc@CrcCordState@crc_internal@absl@@PEAPEAU1234@@__Cr@std@@YA?AU?$pair@PEAPEAUPrefixCrc@CrcCordState@crc_internal@absl@@PEAPEAU1234@@01@$$QEAPEAPEAUPrefixCrc@CrcCordState@crc_internal@absl@@0@Z
    ??$make_pair@PEAPEAVLogSink@absl@@PEAPEAV12@@__Cr@std@@YA?AU?$pair@PEAPEAVLogSink@absl@@PEAPEAV12@@01@$$QEAPEAPEAVLogSink@absl@@0@Z
    ??$make_pair@PEAUTransition@cctz@time_internal@absl@@PEAU1234@@__Cr@std@@YA?AU?$pair@PEAUTransition@cctz@time_internal@absl@@PEAU1234@@01@$$QEAPEAUTransition@cctz@time_internal@absl@@0@Z
    ??$make_pair@PEAUTransitionType@cctz@time_internal@absl@@PEAU1234@@__Cr@std@@YA?AU?$pair@PEAUTransitionType@cctz@time_internal@absl@@PEAU1234@@01@$$QEAPEAUTransitionType@cctz@time_internal@absl@@0@Z
    ??$make_pair@PEBUPrefixCrc@CrcCordState@crc_internal@absl@@PEAU1234@@__Cr@std@@YA?AU?$pair@PEBUPrefixCrc@CrcCordState@crc_internal@absl@@PEAU1234@@01@$$QEAPEBUPrefixCrc@CrcCordState@crc_internal@absl@@$$QEAPEAU3456@@Z
    ??$make_pair@PEBUPrefixCrc@CrcCordState@crc_internal@absl@@V?$__deque_iterator@UPrefixCrc@CrcCordState@crc_internal@absl@@PEAU1234@AEAU1234@PEAPEAU1234@_J$0A@@__Cr@std@@@__Cr@std@@YA?AU?$pair@PEBUPrefixCrc@CrcCordState@crc_internal@absl@@V?$__deque_iterator@UPrefixCrc@CrcCordState@crc_internal@absl@@PEAU1234@AEAU1234@PEAPEAU1234@_J$0A@@__Cr@std@@@01@$$QEAPEBUPrefixCrc@CrcCordState@crc_internal@absl@@$$QEAV?$__deque_iterator@UPrefixCrc@CrcCordState@crc_internal@absl@@PEAU1234@AEAU1234@PEAPEAU1234@_J$0A@@01@@Z
    ??$make_pair@V?$__deque_iterator@UPrefixCrc@CrcCordState@crc_internal@absl@@PEBU1234@AEBU1234@PEBQEBU1234@_J$0A@@__Cr@std@@V?$__deque_iterator@UPrefixCrc@CrcCordState@crc_internal@absl@@PEAU1234@AEAU1234@PEAPEAU1234@_J$0A@@23@@__Cr@std@@YA?AU?$pair@V?$__deque_iterator@UPrefixCrc@CrcCordState@crc_internal@absl@@PEBU1234@AEBU1234@PEBQEBU1234@_J$0A@@__Cr@std@@V?$__deque_iterator@UPrefixCrc@CrcCordState@crc_internal@absl@@PEAU1234@AEAU1234@PEAPEAU1234@_J$0A@@23@@01@$$QEAV?$__deque_iterator@UPrefixCrc@CrcCordState@crc_internal@absl@@PEBU1234@AEBU1234@PEBQEBU1234@_J$0A@@01@$$QEAV?$__deque_iterator@UPrefixCrc@CrcCordState@crc_internal@absl@@PEAU1234@AEAU1234@PEAPEAU1234@_J$0A@@01@@Z
    ??$make_tuple@AEAPEAVCommandLineFlag@absl@@AEA_N@__Cr@std@@YA?AV?$tuple@PEAVCommandLineFlag@absl@@_N@01@AEAPEAVCommandLineFlag@absl@@AEA_N@Z
    ??$make_unique@ULogMessageData@LogMessage@log_internal@absl@@AEAPEBDAEAHAEAW4LogSeverity@4@VTime@4@$0A@@__Cr@std@@YA?AV?$unique_ptr@ULogMessageData@LogMessage@log_internal@absl@@U?$default_delete@ULogMessageData@LogMessage@log_internal@absl@@@__Cr@std@@@01@AEAPEBDAEAHAEAW4LogSeverity@absl@@$$QEAVTime@4@@Z
    ??$make_unique@V?$InlinedVector@UPayload@status_internal@absl@@$00V?$allocator@UPayload@status_internal@absl@@@__Cr@std@@@absl@@$$V$0A@@__Cr@std@@YA?AV?$unique_ptr@V?$InlinedVector@UPayload@status_internal@absl@@$00V?$allocator@UPayload@status_internal@absl@@@__Cr@std@@@absl@@U?$default_delete@V?$InlinedVector@UPayload@status_internal@absl@@$00V?$allocator@UPayload@status_internal@absl@@@__Cr@std@@@absl@@@__Cr@std@@@01@XZ
    ??$make_unique@V?$InlinedVector@UPayload@status_internal@absl@@$00V?$allocator@UPayload@status_internal@absl@@@__Cr@std@@@absl@@AEAV12@$0A@@__Cr@std@@YA?AV?$unique_ptr@V?$InlinedVector@UPayload@status_internal@absl@@$00V?$allocator@UPayload@status_internal@absl@@@__Cr@std@@@absl@@U?$default_delete@V?$InlinedVector@UPayload@status_internal@absl@@$00V?$allocator@UPayload@status_internal@absl@@@__Cr@std@@@absl@@@__Cr@std@@@01@AEAV?$InlinedVector@UPayload@status_internal@absl@@$00V?$allocator@UPayload@status_internal@absl@@@__Cr@std@@@absl@@@Z
    ??$make_unique@VFallbackCrcMemcpyEngine@crc_internal@absl@@$$V$0A@@__Cr@std@@YA?AV?$unique_ptr@VFallbackCrcMemcpyEngine@crc_internal@absl@@U?$default_delete@VFallbackCrcMemcpyEngine@crc_internal@absl@@@__Cr@std@@@01@XZ
    ??$make_unique@VFlagState@flags_internal@absl@@AEAVFlagImpl@23@AEAPEAXAEA_NAEA_N_J$0A@@__Cr@std@@YA?AV?$unique_ptr@VFlagState@flags_internal@absl@@U?$default_delete@VFlagState@flags_internal@absl@@@__Cr@std@@@01@AEAVFlagImpl@flags_internal@absl@@AEAPEAXAEA_N2$$QEA_J@Z
    ??$make_unique@VFlagState@flags_internal@absl@@AEAVFlagImpl@23@PEAXAEA_NAEA_N_J$0A@@__Cr@std@@YA?AV?$unique_ptr@VFlagState@flags_internal@absl@@U?$default_delete@VFlagState@flags_internal@absl@@@__Cr@std@@@01@AEAVFlagImpl@flags_internal@absl@@$$QEAPEAXAEA_N2$$QEA_J@Z
    ??$make_unique@VFlagState@flags_internal@absl@@AEAVFlagImpl@23@_JAEA_NAEA_N_J$0A@@__Cr@std@@YA?AV?$unique_ptr@VFlagState@flags_internal@absl@@U?$default_delete@VFlagState@flags_internal@absl@@@__Cr@std@@@01@AEAVFlagImpl@flags_internal@absl@@$$QEA_JAEA_N21@Z
    ??$max@VDuration@absl@@@__Cr@std@@YAAEBVDuration@absl@@AEBV23@0@Z
    ??$max@VDuration@absl@@U?$__less@XX@__Cr@std@@@__Cr@std@@YAAEBVDuration@absl@@AEBV23@0U?$__less@XX@01@@Z
    ??$max_size@V?$allocator@PEAPEBVImpl@time_zone@cctz@time_internal@absl@@@__Cr@std@@$0A@@?$allocator_traits@V?$allocator@PEAPEBVImpl@time_zone@cctz@time_internal@absl@@@__Cr@std@@@__Cr@std@@SA_KAEBV?$allocator@PEAPEBVImpl@time_zone@cctz@time_internal@absl@@@12@@Z
    ??$max_size@V?$allocator@PEAU?$__hash_node_base@PEAU?$__hash_node@PEBUCordRep@cord_internal@absl@@PEAX@__Cr@std@@@__Cr@std@@@__Cr@std@@$0A@@?$allocator_traits@V?$allocator@PEAU?$__hash_node_base@PEAU?$__hash_node@PEBUCordRep@cord_internal@absl@@PEAX@__Cr@std@@@__Cr@std@@@__Cr@std@@@__Cr@std@@SA_KAEBV?$allocator@PEAU?$__hash_node_base@PEAU?$__hash_node@PEBUCordRep@cord_internal@absl@@PEAX@__Cr@std@@@__Cr@std@@@12@@Z
    ??$max_size@V?$allocator@PEAU?$__hash_node_base@PEAU?$__hash_node@U?$__hash_value_type@V?$basic_string@DU?$char_traits@D@__Cr@std@@V?$allocator@D@23@@__Cr@std@@PEBVImpl@time_zone@cctz@time_internal@absl@@@__Cr@std@@PEAX@__Cr@std@@@__Cr@std@@@__Cr@std@@$0A@@?$allocator_traits@V?$allocator@PEAU?$__hash_node_base@PEAU?$__hash_node@U?$__hash_value_type@V?$basic_string@DU?$char_traits@D@__Cr@std@@V?$allocator@D@23@@__Cr@std@@PEBVImpl@time_zone@cctz@time_internal@absl@@@__Cr@std@@PEAX@__Cr@std@@@__Cr@std@@@__Cr@std@@@__Cr@std@@SA_KAEBV?$allocator@PEAU?$__hash_node_base@PEAU?$__hash_node@U?$__hash_value_type@V?$basic_string@DU?$char_traits@D@__Cr@std@@V?$allocator@D@23@@__Cr@std@@PEBVImpl@time_zone@cctz@time_internal@absl@@@__Cr@std@@PEAX@__Cr@std@@@__Cr@std@@@12@@Z
    ??$max_size@V?$allocator@PEAUCordRep@cord_internal@absl@@@__Cr@std@@$0A@@?$allocator_traits@V?$allocator@PEAUCordRep@cord_internal@absl@@@__Cr@std@@@__Cr@std@@SA_KAEBV?$allocator@PEAUCordRep@cord_internal@absl@@@12@@Z
    ??$max_size@V?$allocator@PEAUPrefixCrc@CrcCordState@crc_internal@absl@@@__Cr@std@@$0A@@?$allocator_traits@V?$allocator@PEAUPrefixCrc@CrcCordState@crc_internal@absl@@@__Cr@std@@@__Cr@std@@SA_KAEBV?$allocator@PEAUPrefixCrc@CrcCordState@crc_internal@absl@@@12@@Z
    ??$max_size@V?$allocator@PEAVCommandLineFlag@absl@@@__Cr@std@@$0A@@?$allocator_traits@V?$allocator@PEAVCommandLineFlag@absl@@@__Cr@std@@@__Cr@std@@SA_KAEBV?$allocator@PEAVCommandLineFlag@absl@@@12@@Z
    ??$max_size@V?$allocator@PEAVCordzHandle@cord_internal@absl@@@__Cr@std@@$0A@@?$allocator_traits@V?$allocator@PEAVCordzHandle@cord_internal@absl@@@__Cr@std@@@__Cr@std@@SA_KAEBV?$allocator@PEAVCordzHandle@cord_internal@absl@@@12@@Z
    ??$max_size@V?$allocator@PEAVLogSink@absl@@@__Cr@std@@$0A@@?$allocator_traits@V?$allocator@PEAVLogSink@absl@@@__Cr@std@@@__Cr@std@@SA_KAEBV?$allocator@PEAVLogSink@absl@@@12@@Z
    ??$max_size@V?$allocator@PEBVCommandLineFlag@absl@@@__Cr@std@@$0A@@?$allocator_traits@V?$allocator@PEBVCommandLineFlag@absl@@@__Cr@std@@@__Cr@std@@SA_KAEBV?$allocator@PEBVCommandLineFlag@absl@@@12@@Z
    ??$max_size@V?$allocator@PEBVCordzHandle@cord_internal@absl@@@__Cr@std@@$0A@@?$allocator_traits@V?$allocator@PEBVCordzHandle@cord_internal@absl@@@__Cr@std@@@__Cr@std@@SA_KAEBV?$allocator@PEBVCordzHandle@cord_internal@absl@@@12@@Z
    ??$max_size@V?$allocator@PEBVImpl@time_zone@cctz@time_internal@absl@@@__Cr@std@@$0A@@?$allocator_traits@V?$allocator@PEBVImpl@time_zone@cctz@time_internal@absl@@@__Cr@std@@@__Cr@std@@SA_KAEBV?$allocator@PEBVImpl@time_zone@cctz@time_internal@absl@@@12@@Z
    ??$max_size@V?$allocator@U?$AlignedType@$07@container_internal@absl@@@__Cr@std@@$0A@@?$allocator_traits@V?$allocator@U?$AlignedType@$07@container_internal@absl@@@__Cr@std@@@__Cr@std@@SA_KAEBV?$allocator@U?$AlignedType@$07@container_internal@absl@@@12@@Z
    ??$max_size@V?$allocator@U?$__hash_node@PEBUCordRep@cord_internal@absl@@PEAX@__Cr@std@@@__Cr@std@@$0A@@?$allocator_traits@V?$allocator@U?$__hash_node@PEBUCordRep@cord_internal@absl@@PEAX@__Cr@std@@@__Cr@std@@@__Cr@std@@SA_KAEBV?$allocator@U?$__hash_node@PEBUCordRep@cord_internal@absl@@PEAX@__Cr@std@@@12@@Z
    ??$max_size@V?$allocator@U?$__hash_node@U?$__hash_value_type@V?$basic_string@DU?$char_traits@D@__Cr@std@@V?$allocator@D@23@@__Cr@std@@PEBVImpl@time_zone@cctz@time_internal@absl@@@__Cr@std@@PEAX@__Cr@std@@@__Cr@std@@$0A@@?$allocator_traits@V?$allocator@U?$__hash_node@U?$__hash_value_type@V?$basic_string@DU?$char_traits@D@__Cr@std@@V?$allocator@D@23@@__Cr@std@@PEBVImpl@time_zone@cctz@time_internal@absl@@@__Cr@std@@PEAX@__Cr@std@@@__Cr@std@@@__Cr@std@@SA_KAEBV?$allocator@U?$__hash_node@U?$__hash_value_type@V?$basic_string@DU?$char_traits@D@__Cr@std@@V?$allocator@D@23@@__Cr@std@@PEBVImpl@time_zone@cctz@time_internal@absl@@@__Cr@std@@PEAX@__Cr@std@@@12@@Z
    ??$max_size@V?$allocator@UAlignedSpace@?1???$FlagOps@V?$vector@V?$basic_string@DU?$char_traits@D@__Cr@std@@V?$allocator@D@23@@__Cr@std@@V?$allocator@V?$basic_string@DU?$char_traits@D@__Cr@std@@V?$allocator@D@23@@__Cr@std@@@23@@__Cr@std@@@flags_internal@absl@@YAPEAXW4FlagOp@23@PEBXPEAX2@Z@@__Cr@std@@$0A@@?$allocator_traits@V?$allocator@UAlignedSpace@?1???$FlagOps@V?$vector@V?$basic_string@DU?$char_traits@D@__Cr@std@@V?$allocator@D@23@@__Cr@std@@V?$allocator@V?$basic_string@DU?$char_traits@D@__Cr@std@@V?$allocator@D@23@@__Cr@std@@@23@@__Cr@std@@@flags_internal@absl@@YAPEAXW4FlagOp@23@PEBXPEAX2@Z@@__Cr@std@@@__Cr@std@@SA_KAEBV?$allocator@UAlignedSpace@?1???$FlagOps@V?$vector@V?$basic_string@DU?$char_traits@D@__Cr@std@@V?$allocator@D@23@@__Cr@std@@V?$allocator@V?$basic_string@DU?$char_traits@D@__Cr@std@@V?$allocator@D@23@@__Cr@std@@@23@@__Cr@std@@@flags_internal@absl@@YAPEAXW4FlagOp@23@PEBXPEAX2@Z@@12@@Z
    ??$max_size@V?$allocator@UConversionItem@ParsedFormatBase@str_format_internal@absl@@@__Cr@std@@$0A@@?$allocator_traits@V?$allocator@UConversionItem@ParsedFormatBase@str_format_internal@absl@@@__Cr@std@@@__Cr@std@@SA_KAEBV?$allocator@UConversionItem@ParsedFormatBase@str_format_internal@absl@@@12@@Z
    ??$max_size@V?$allocator@UPayload@status_internal@absl@@@__Cr@std@@$0A@@?$allocator_traits@V?$allocator@UPayload@status_internal@absl@@@__Cr@std@@@__Cr@std@@SA_KAEBV?$allocator@UPayload@status_internal@absl@@@12@@Z
    ??$max_size@V?$allocator@UPrefixCrc@CrcCordState@crc_internal@absl@@@__Cr@std@@$0A@@?$allocator_traits@V?$allocator@UPrefixCrc@CrcCordState@crc_internal@absl@@@__Cr@std@@@__Cr@std@@SA_KAEBV?$allocator@UPrefixCrc@CrcCordState@crc_internal@absl@@@12@@Z
    ??$max_size@V?$allocator@UTransition@cctz@time_internal@absl@@@__Cr@std@@$0A@@?$allocator_traits@V?$allocator@UTransition@cctz@time_internal@absl@@@__Cr@std@@@__Cr@std@@SA_KAEBV?$allocator@UTransition@cctz@time_internal@absl@@@12@@Z
    ??$max_size@V?$allocator@UTransitionType@cctz@time_internal@absl@@@__Cr@std@@$0A@@?$allocator_traits@V?$allocator@UTransitionType@cctz@time_internal@absl@@@__Cr@std@@@__Cr@std@@SA_KAEBV?$allocator@UTransitionType@cctz@time_internal@absl@@@12@@Z
    ??$max_size@V?$allocator@UUnrecognizedFlag@absl@@@__Cr@std@@$0A@@?$allocator_traits@V?$allocator@UUnrecognizedFlag@absl@@@__Cr@std@@@__Cr@std@@SA_KAEBV?$allocator@UUnrecognizedFlag@absl@@@12@@Z
    ??$max_size@V?$allocator@UViableSubstitution@strings_internal@absl@@@__Cr@std@@$0A@@?$allocator_traits@V?$allocator@UViableSubstitution@strings_internal@absl@@@__Cr@std@@@__Cr@std@@SA_KAEBV?$allocator@UViableSubstitution@strings_internal@absl@@@12@@Z
    ??$max_size@V?$allocator@V?$__tree_node@U?$__value_type@V?$basic_string@DU?$char_traits@D@__Cr@std@@V?$allocator@D@23@@__Cr@std@@V?$map@V?$basic_string@DU?$char_traits@D@__Cr@std@@V?$allocator@D@23@@__Cr@std@@V?$vector@PEBVCommandLineFlag@absl@@V?$allocator@PEBVCommandLineFlag@absl@@@__Cr@std@@@23@U?$less@V?$basic_string@DU?$char_traits@D@__Cr@std@@V?$allocator@D@23@@__Cr@std@@@23@V?$allocator@U?$pair@$$CBV?$basic_string@DU?$char_traits@D@__Cr@std@@V?$allocator@D@23@@__Cr@std@@V?$vector@PEBVCommandLineFlag@absl@@V?$allocator@PEBVCommandLineFlag@absl@@@__Cr@std@@@23@@__Cr@std@@@23@@23@@__Cr@std@@PEAX@__Cr@std@@@__Cr@std@@$0A@@?$allocator_traits@V?$allocator@V?$__tree_node@U?$__value_type@V?$basic_string@DU?$char_traits@D@__Cr@std@@V?$allocator@D@23@@__Cr@std@@V?$map@V?$basic_string@DU?$char_traits@D@__Cr@std@@V?$allocator@D@23@@__Cr@std@@V?$vector@PEBVCommandLineFlag@absl@@V?$allocator@PEBVCommandLineFlag@absl@@@__Cr@std@@@23@U?$less@V?$basic_string@DU?$char_traits@D@__Cr@std@@V?$allocator@D@23@@__Cr@std@@@23@V?$allocator@U?$pair@$$CBV?$basic_string@DU?$char_traits@D@__Cr@std@@V?$allocator@D@23@@__Cr@std@@V?$vector@PEBVCommandLineFlag@absl@@V?$allocator@PEBVCommandLineFlag@absl@@@__Cr@std@@@23@@__Cr@std@@@23@@23@@__Cr@std@@PEAX@__Cr@std@@@__Cr@std@@@__Cr@std@@SA_KAEBV?$allocator@V?$__tree_node@U?$__value_type@V?$basic_string@DU?$char_traits@D@__Cr@std@@V?$allocator@D@23@@__Cr@std@@V?$map@V?$basic_string@DU?$char_traits@D@__Cr@std@@V?$allocator@D@23@@__Cr@std@@V?$vector@PEBVCommandLineFlag@absl@@V?$allocator@PEBVCommandLineFlag@absl@@@__Cr@std@@@23@U?$less@V?$basic_string@DU?$char_traits@D@__Cr@std@@V?$allocator@D@23@@__Cr@std@@@23@V?$allocator@U?$pair@$$CBV?$basic_string@DU?$char_traits@D@__Cr@std@@V?$allocator@D@23@@__Cr@std@@V?$vector@PEBVCommandLineFlag@absl@@V?$allocator@PEBVCommandLineFlag@absl@@@__Cr@std@@@23@@__Cr@std@@@23@@23@@__Cr@std@@PEAX@__Cr@std@@@12@@Z
    ??$max_size@V?$allocator@V?$__tree_node@U?$__value_type@V?$basic_string@DU?$char_traits@D@__Cr@std@@V?$allocator@D@23@@__Cr@std@@V?$vector@PEBVCommandLineFlag@absl@@V?$allocator@PEBVCommandLineFlag@absl@@@__Cr@std@@@23@@__Cr@std@@PEAX@__Cr@std@@@__Cr@std@@$0A@@?$allocator_traits@V?$allocator@V?$__tree_node@U?$__value_type@V?$basic_string@DU?$char_traits@D@__Cr@std@@V?$allocator@D@23@@__Cr@std@@V?$vector@PEBVCommandLineFlag@absl@@V?$allocator@PEBVCommandLineFlag@absl@@@__Cr@std@@@23@@__Cr@std@@PEAX@__Cr@std@@@__Cr@std@@@__Cr@std@@SA_KAEBV?$allocator@V?$__tree_node@U?$__value_type@V?$basic_string@DU?$char_traits@D@__Cr@std@@V?$allocator@D@23@@__Cr@std@@V?$vector@PEBVCommandLineFlag@absl@@V?$allocator@PEBVCommandLineFlag@absl@@@__Cr@std@@@23@@__Cr@std@@PEAX@__Cr@std@@@12@@Z
    ??$max_size@V?$allocator@V?$unique_ptr@VFlagStateInterface@flags_internal@absl@@U?$default_delete@VFlagStateInterface@flags_internal@absl@@@__Cr@std@@@__Cr@std@@@__Cr@std@@$0A@@?$allocator_traits@V?$allocator@V?$unique_ptr@VFlagStateInterface@flags_internal@absl@@U?$default_delete@VFlagStateInterface@flags_internal@absl@@@__Cr@std@@@__Cr@std@@@__Cr@std@@@__Cr@std@@SA_KAEBV?$allocator@V?$unique_ptr@VFlagStateInterface@flags_internal@absl@@U?$default_delete@VFlagStateInterface@flags_internal@absl@@@__Cr@std@@@__Cr@std@@@12@@Z
    ??$max_size@V?$allocator@VFormatArgImpl@str_format_internal@absl@@@__Cr@std@@$0A@@?$allocator_traits@V?$allocator@VFormatArgImpl@str_format_internal@absl@@@__Cr@std@@@__Cr@std@@SA_KAEBV?$allocator@VFormatArgImpl@str_format_internal@absl@@@12@@Z
    ??$min@VDuration@absl@@@__Cr@std@@YAAEBVDuration@absl@@AEBV23@0@Z
    ??$min@VDuration@absl@@U?$__less@XX@__Cr@std@@@__Cr@std@@YAAEBVDuration@absl@@AEBV23@0U?$__less@XX@01@@Z
    ??$move@PEAPEAPEBVImpl@time_zone@cctz@time_internal@absl@@PEAPEAPEBV12345@@__Cr@std@@YAPEAPEAPEBVImpl@time_zone@cctz@time_internal@absl@@PEAPEAPEBV23456@00@Z
    ??$move@PEAPEAUPrefixCrc@CrcCordState@crc_internal@absl@@PEAPEAU1234@@__Cr@std@@YAPEAPEAUPrefixCrc@CrcCordState@crc_internal@absl@@PEAPEAU2345@00@Z
    ??$move@PEAPEAVLogSink@absl@@PEAPEAV12@@__Cr@std@@YAPEAPEAVLogSink@absl@@PEAPEAV23@00@Z
    ??$move@PEAUTransition@cctz@time_internal@absl@@PEAU1234@@__Cr@std@@YAPEAUTransition@cctz@time_internal@absl@@PEAU2345@00@Z
    ??$move@PEAUTransitionType@cctz@time_internal@absl@@PEAU1234@@__Cr@std@@YAPEAUTransitionType@cctz@time_internal@absl@@PEAU2345@00@Z
    ??$move_backward@PEAPEAPEBVImpl@time_zone@cctz@time_internal@absl@@PEAPEAPEBV12345@@__Cr@std@@YAPEAPEAPEBVImpl@time_zone@cctz@time_internal@absl@@PEAPEAPEBV23456@00@Z
    ??$move_backward@PEAPEAUPrefixCrc@CrcCordState@crc_internal@absl@@PEAPEAU1234@@__Cr@std@@YAPEAPEAUPrefixCrc@CrcCordState@crc_internal@absl@@PEAPEAU2345@00@Z
    ??$move_backward@PEAUTransition@cctz@time_internal@absl@@PEAU1234@@__Cr@std@@YAPEAUTransition@cctz@time_internal@absl@@PEAU2345@00@Z
    ??$move_backward@PEAUTransitionType@cctz@time_internal@absl@@PEAU1234@@__Cr@std@@YAPEAUTransitionType@cctz@time_internal@absl@@PEAU2345@00@Z
    ??$next@AEAPEBUTransition@cctz@time_internal@absl@@@?$_IterOps@U_ClassicAlgPolicy@__Cr@std@@@__Cr@std@@SAPEBUTransition@cctz@time_internal@absl@@AEAPEBU3456@_J@Z
    ??$next@PEAPEAVCommandLineFlag@absl@@@?$_IterOps@U_ClassicAlgPolicy@__Cr@std@@@__Cr@std@@SAPEAPEAVCommandLineFlag@absl@@PEAPEAV34@0@Z
    ??$next@PEAPEBVCommandLineFlag@absl@@@?$_IterOps@U_ClassicAlgPolicy@__Cr@std@@@__Cr@std@@SAPEAPEBVCommandLineFlag@absl@@PEAPEBV34@0@Z
    ??$next@PEBUTransition@cctz@time_internal@absl@@$0A@@__Cr@std@@YAPEBUTransition@cctz@time_internal@absl@@PEBU2345@_J@Z
    ??$next@V?$__wrap_iter@PEAUraw_view@?1???R?$ConvertToContainer@V?$vector@V?$basic_string_view@DU?$char_traits@D@__Cr@std@@@__Cr@std@@V?$allocator@V?$basic_string_view@DU?$char_traits@D@__Cr@std@@@__Cr@std@@@23@@__Cr@std@@V?$basic_string_view@DU?$char_traits@D@__Cr@std@@@23@$0A@@?$Splitter@VByChar@absl@@UAllowEmpty@2@V?$basic_string_view@DU?$char_traits@D@__Cr@std@@@__Cr@std@@@strings_internal@absl@@QEBA?AV?$vector@V?$basic_string_view@DU?$char_traits@D@__Cr@std@@@__Cr@std@@V?$allocator@V?$basic_string_view@DU?$char_traits@D@__Cr@std@@@__Cr@std@@@23@@__Cr@std@@AEBV345@@Z@@__Cr@std@@$0A@@__Cr@std@@YA?AV?$__wrap_iter@PEAUraw_view@?1???R?$ConvertToContainer@V?$vector@V?$basic_string_view@DU?$char_traits@D@__Cr@std@@@__Cr@std@@V?$allocator@V?$basic_string_view@DU?$char_traits@D@__Cr@std@@@__Cr@std@@@23@@__Cr@std@@V?$basic_string_view@DU?$char_traits@D@__Cr@std@@@23@$0A@@?$Splitter@VByChar@absl@@UAllowEmpty@2@V?$basic_string_view@DU?$char_traits@D@__Cr@std@@@__Cr@std@@@strings_internal@absl@@QEBA?AV?$vector@V?$basic_string_view@DU?$char_traits@D@__Cr@std@@@__Cr@std@@V?$allocator@V?$basic_string_view@DU?$char_traits@D@__Cr@std@@@__Cr@std@@@23@@__Cr@std@@AEBV345@@Z@@01@V201@_J@Z
    ??$reset@PEAPEAU?$__hash_node_base@PEAU?$__hash_node@PEBUCordRep@cord_internal@absl@@PEAX@__Cr@std@@@__Cr@std@@$0A@@?$unique_ptr@$$BY0A@PEAU?$__hash_node_base@PEAU?$__hash_node@PEBUCordRep@cord_internal@absl@@PEAX@__Cr@std@@@__Cr@std@@V?$__bucket_list_deallocator@V?$allocator@PEAU?$__hash_node_base@PEAU?$__hash_node@PEBUCordRep@cord_internal@absl@@PEAX@__Cr@std@@@__Cr@std@@@__Cr@std@@@23@@__Cr@std@@QEAAXPEAPEAU?$__hash_node_base@PEAU?$__hash_node@PEBUCordRep@cord_internal@absl@@PEAX@__Cr@std@@@12@@Z
    ??$reset@PEAPEAU?$__hash_node_base@PEAU?$__hash_node@U?$__hash_value_type@V?$basic_string@DU?$char_traits@D@__Cr@std@@V?$allocator@D@23@@__Cr@std@@PEBVImpl@time_zone@cctz@time_internal@absl@@@__Cr@std@@PEAX@__Cr@std@@@__Cr@std@@$0A@@?$unique_ptr@$$BY0A@PEAU?$__hash_node_base@PEAU?$__hash_node@U?$__hash_value_type@V?$basic_string@DU?$char_traits@D@__Cr@std@@V?$allocator@D@23@@__Cr@std@@PEBVImpl@time_zone@cctz@time_internal@absl@@@__Cr@std@@PEAX@__Cr@std@@@__Cr@std@@V?$__bucket_list_deallocator@V?$allocator@PEAU?$__hash_node_base@PEAU?$__hash_node@U?$__hash_value_type@V?$basic_string@DU?$char_traits@D@__Cr@std@@V?$allocator@D@23@@__Cr@std@@PEBVImpl@time_zone@cctz@time_internal@absl@@@__Cr@std@@PEAX@__Cr@std@@@__Cr@std@@@__Cr@std@@@23@@__Cr@std@@QEAAXPEAPEAU?$__hash_node_base@PEAU?$__hash_node@U?$__hash_value_type@V?$basic_string@DU?$char_traits@D@__Cr@std@@V?$allocator@D@23@@__Cr@std@@PEBVImpl@time_zone@cctz@time_internal@absl@@@__Cr@std@@PEAX@__Cr@std@@@12@@Z
    ??$safe_strtoi_base@H@numbers_internal@absl@@YA_NV?$basic_string_view@DU?$char_traits@D@__Cr@std@@@__Cr@std@@PEAHH@Z
    ??$safe_strtoi_base@I@numbers_internal@absl@@YA_NV?$basic_string_view@DU?$char_traits@D@__Cr@std@@@__Cr@std@@PEAIH@Z
    ??$safe_strtoi_base@J@numbers_internal@absl@@YA_NV?$basic_string_view@DU?$char_traits@D@__Cr@std@@@__Cr@std@@PEAJH@Z
    ??$safe_strtoi_base@K@numbers_internal@absl@@YA_NV?$basic_string_view@DU?$char_traits@D@__Cr@std@@@__Cr@std@@PEAKH@Z
    ??$safe_strtoi_base@_J@numbers_internal@absl@@YA_NV?$basic_string_view@DU?$char_traits@D@__Cr@std@@@__Cr@std@@PEA_JH@Z
    ??$safe_strtoi_base@_K@numbers_internal@absl@@YA_NV?$basic_string_view@DU?$char_traits@D@__Cr@std@@@__Cr@std@@PEA_KH@Z
    ??$set_control@$00@CommonFields@container_internal@absl@@QEAAXPEAW4ctrl_t@12@@Z
    ??$set_control@$0A@@CommonFields@container_internal@absl@@QEAAXPEAW4ctrl_t@12@@Z
    ??$swap@PEAPEAPEBVImpl@time_zone@cctz@time_internal@absl@@@__Cr@std@@YAXAEAPEAPEAPEBVImpl@time_zone@cctz@time_internal@absl@@0@Z
    ??$swap@PEAPEAUPrefixCrc@CrcCordState@crc_internal@absl@@@__Cr@std@@YAXAEAPEAPEAUPrefixCrc@CrcCordState@crc_internal@absl@@0@Z
    ??$swap@PEAPEAVCommandLineFlag@absl@@@__Cr@std@@YAXAEAPEAPEAVCommandLineFlag@absl@@0@Z
    ??$swap@PEAPEAVCordzHandle@cord_internal@absl@@@__Cr@std@@YAXAEAPEAPEAVCordzHandle@cord_internal@absl@@0@Z
    ??$swap@PEAPEAVLogSink@absl@@@__Cr@std@@YAXAEAPEAPEAVLogSink@absl@@0@Z
    ??$swap@PEAPEBVCommandLineFlag@absl@@@__Cr@std@@YAXAEAPEAPEBVCommandLineFlag@absl@@0@Z
    ??$swap@PEAPEBVCordzHandle@cord_internal@absl@@@__Cr@std@@YAXAEAPEAPEBVCordzHandle@cord_internal@absl@@0@Z
    ??$swap@PEAUConversionItem@ParsedFormatBase@str_format_internal@absl@@@__Cr@std@@YAXAEAPEAUConversionItem@ParsedFormatBase@str_format_internal@absl@@0@Z
    ??$swap@PEAUTransition@cctz@time_internal@absl@@@__Cr@std@@YAXAEAPEAUTransition@cctz@time_internal@absl@@0@Z
    ??$swap@PEAUTransitionType@cctz@time_internal@absl@@@__Cr@std@@YAXAEAPEAUTransitionType@cctz@time_internal@absl@@0@Z
    ??$swap@PEAUUnrecognizedFlag@absl@@@__Cr@std@@YAXAEAPEAUUnrecognizedFlag@absl@@0@Z
    ??$swap@PEAUViableSubstitution@strings_internal@absl@@@__Cr@std@@YAXAEAPEAUViableSubstitution@strings_internal@absl@@0@Z
    ??$swap@PEAV?$unique_ptr@VFlagStateInterface@flags_internal@absl@@U?$default_delete@VFlagStateInterface@flags_internal@absl@@@__Cr@std@@@__Cr@std@@@__Cr@std@@YAXAEAPEAV?$unique_ptr@VFlagStateInterface@flags_internal@absl@@U?$default_delete@VFlagStateInterface@flags_internal@absl@@@__Cr@std@@@01@0@Z
    ??$swap@PEAVCommandLineFlag@absl@@@__Cr@std@@YAXAEAPEAVCommandLineFlag@absl@@0@Z
    ??$swap@PEBV?$InlinedVector@UPayload@status_internal@absl@@$00V?$allocator@UPayload@status_internal@absl@@@__Cr@std@@@absl@@@__Cr@std@@YAXAEAPEBV?$InlinedVector@UPayload@status_internal@absl@@$00V?$allocator@UPayload@status_internal@absl@@@__Cr@std@@@absl@@0@Z
    ??$swap@PEBVCommandLineFlag@absl@@@__Cr@std@@YAXAEAPEBVCommandLineFlag@absl@@0@Z
    ??$swap@PEBW4ctrl_t@container_internal@absl@@@__Cr@std@@YAXAEAPEBW4ctrl_t@container_internal@absl@@0@Z
    ??$swap@UUnrecognizedFlag@absl@@V?$allocator@UUnrecognizedFlag@absl@@@__Cr@std@@@__Cr@std@@YAXAEAV?$vector@UUnrecognizedFlag@absl@@V?$allocator@UUnrecognizedFlag@absl@@@__Cr@std@@@01@0@Z
    ??$swap@UViableSubstitution@strings_internal@absl@@@__Cr@std@@YAXAEAUViableSubstitution@strings_internal@absl@@0@Z
    ??$tie@PEAVCommandLineFlag@absl@@_N@__Cr@std@@YA?AV?$tuple@AEAPEAVCommandLineFlag@absl@@AEA_N@01@AEAPEAVCommandLineFlag@absl@@AEA_N@Z
    ??$transfer@V?$allocator@U?$pair@$$CBV?$basic_string_view@DU?$char_traits@D@__Cr@std@@@__Cr@std@@PEAVCommandLineFlag@absl@@@__Cr@std@@@__Cr@std@@@?$FlatHashMapPolicy@V?$basic_string_view@DU?$char_traits@D@__Cr@std@@@__Cr@std@@PEAVCommandLineFlag@absl@@@container_internal@absl@@SA?A_PPEAV?$allocator@U?$pair@$$CBV?$basic_string_view@DU?$char_traits@D@__Cr@std@@@__Cr@std@@PEAVCommandLineFlag@absl@@@__Cr@std@@@__Cr@std@@PEAT?$map_slot_type@V?$basic_string_view@DU?$char_traits@D@__Cr@std@@@__Cr@std@@PEAVCommandLineFlag@absl@@@12@1@Z
    ??$transfer@V?$allocator@U?$pair@$$CBV?$basic_string_view@DU?$char_traits@D@__Cr@std@@@__Cr@std@@PEAVCommandLineFlag@absl@@@__Cr@std@@@__Cr@std@@@?$common_policy_traits@U?$FlatHashMapPolicy@V?$basic_string_view@DU?$char_traits@D@__Cr@std@@@__Cr@std@@PEAVCommandLineFlag@absl@@@container_internal@absl@@X@container_internal@absl@@SAXPEAV?$allocator@U?$pair@$$CBV?$basic_string_view@DU?$char_traits@D@__Cr@std@@@__Cr@std@@PEAVCommandLineFlag@absl@@@__Cr@std@@@__Cr@std@@PEAT?$map_slot_type@V?$basic_string_view@DU?$char_traits@D@__Cr@std@@@__Cr@std@@PEAVCommandLineFlag@absl@@@12@1@Z
    ??$transfer@V?$allocator@U?$pair@$$CBV?$basic_string_view@DU?$char_traits@D@__Cr@std@@@__Cr@std@@PEAVCommandLineFlag@absl@@@__Cr@std@@@__Cr@std@@@?$map_slot_policy@V?$basic_string_view@DU?$char_traits@D@__Cr@std@@@__Cr@std@@PEAVCommandLineFlag@absl@@@container_internal@absl@@SA?A_PPEAV?$allocator@U?$pair@$$CBV?$basic_string_view@DU?$char_traits@D@__Cr@std@@@__Cr@std@@PEAVCommandLineFlag@absl@@@__Cr@std@@@__Cr@std@@PEAT?$map_slot_type@V?$basic_string_view@DU?$char_traits@D@__Cr@std@@@__Cr@std@@PEAVCommandLineFlag@absl@@@12@1@Z
    ??$transfer_impl@V?$allocator@U?$pair@$$CBV?$basic_string_view@DU?$char_traits@D@__Cr@std@@@__Cr@std@@PEAVCommandLineFlag@absl@@@__Cr@std@@@__Cr@std@@U?$FlatHashMapPolicy@V?$basic_string_view@DU?$char_traits@D@__Cr@std@@@__Cr@std@@PEAVCommandLineFlag@absl@@@container_internal@absl@@@?$common_policy_traits@U?$FlatHashMapPolicy@V?$basic_string_view@DU?$char_traits@D@__Cr@std@@@__Cr@std@@PEAVCommandLineFlag@absl@@@container_internal@absl@@X@container_internal@absl@@CA?AU?$integral_constant@_N$00@__Cr@std@@PEAV?$allocator@U?$pair@$$CBV?$basic_string_view@DU?$char_traits@D@__Cr@std@@@__Cr@std@@PEAVCommandLineFlag@absl@@@__Cr@std@@@45@PEAT?$map_slot_type@V?$basic_string_view@DU?$char_traits@D@__Cr@std@@@__Cr@std@@PEAVCommandLineFlag@absl@@@12@1URank2@012@@Z
    ??$upper_bound@PEBUTransition@cctz@time_internal@absl@@U1234@UByCivilTime@1234@@__Cr@std@@YAPEBUTransition@cctz@time_internal@absl@@PEBU2345@0AEBU2345@UByCivilTime@2345@@Z
    ??$upper_bound@PEBUTransition@cctz@time_internal@absl@@U1234@UByUnixTime@1234@@__Cr@std@@YAPEBUTransition@cctz@time_internal@absl@@PEBU2345@0AEBU2345@UByUnixTime@2345@@Z
    ??$visit@UBufferSizeVisitor@?1??BufferSizeForStructuredProtoField@log_internal@absl@@YA_KUStructuredProtoField@34@@Z@AEAV?$variant@V?$variant@_K_JIH_N@__Cr@std@@V?$variant@_K_JN@23@V?$Span@$$CBD@absl@@V?$variant@IHM@23@@__Cr@std@@X@__Cr@std@@YA?A_T$$QEAUBufferSizeVisitor@?1??BufferSizeForStructuredProtoField@log_internal@absl@@YA_KUStructuredProtoField@45@@Z@AEAV?$variant@V?$variant@_K_JIH_N@__Cr@std@@V?$variant@_K_JN@23@V?$Span@$$CBD@absl@@V?$variant@IHM@23@@01@@Z
    ??0?$AllocationTransaction@V?$allocator@PEAUCordRep@cord_internal@absl@@@__Cr@std@@@inlined_vector_internal@absl@@QEAA@AEAV?$allocator@PEAUCordRep@cord_internal@absl@@@__Cr@std@@@Z
    ??0?$AllocationTransaction@V?$allocator@PEAVLogSink@absl@@@__Cr@std@@@inlined_vector_internal@absl@@QEAA@AEAV?$allocator@PEAVLogSink@absl@@@__Cr@std@@@Z
    ??0?$AllocationTransaction@V?$allocator@UPayload@status_internal@absl@@@__Cr@std@@@inlined_vector_internal@absl@@QEAA@AEAV?$allocator@UPayload@status_internal@absl@@@__Cr@std@@@Z
    ??0?$BigUnsigned@$03@strings_internal@absl@@QEAA@V?$basic_string_view@DU?$char_traits@D@__Cr@std@@@__Cr@std@@@Z
    ??0?$BigUnsigned@$03@strings_internal@absl@@QEAA@XZ
    ??0?$BigUnsigned@$03@strings_internal@absl@@QEAA@_K@Z
    ??0?$BigUnsigned@$0FE@@strings_internal@absl@@QEAA@V?$basic_string_view@DU?$char_traits@D@__Cr@std@@@__Cr@std@@@Z
    ??0?$BigUnsigned@$0FE@@strings_internal@absl@@QEAA@XZ
    ??0?$BigUnsigned@$0FE@@strings_internal@absl@@QEAA@_K@Z
    ??0?$BitMask@_K$07$02$00@container_internal@absl@@QEAA@_K@Z
    ??0?$BitMask@_K$07$02$0A@@container_internal@absl@@QEAA@_K@Z
    ??0?$BoundedUtf8LengthSequence@$0BAA@@debugging_internal@absl@@QEAA@XZ
    ??0?$FixedArray@D$0?0V?$allocator@D@__Cr@std@@@absl@@QEAA@_KAEBV?$allocator@D@__Cr@std@@@Z
    ??0?$FlagRegistrar@V?$vector@V?$basic_string@DU?$char_traits@D@__Cr@std@@V?$allocator@D@23@@__Cr@std@@V?$allocator@V?$basic_string@DU?$char_traits@D@__Cr@std@@V?$allocator@D@23@@__Cr@std@@@23@@__Cr@std@@$00@flags_internal@absl@@QEAA@AEAV?$Flag@V?$vector@V?$basic_string@DU?$char_traits@D@__Cr@std@@V?$allocator@D@23@@__Cr@std@@V?$allocator@V?$basic_string@DU?$char_traits@D@__Cr@std@@V?$allocator@D@23@@__Cr@std@@@23@@__Cr@std@@@12@PEBD@Z
    ??0?$FormatSpecTemplate@$0BPPPL@$0JPPPL@$0JPPPL@$0JPPPL@$0JPPPL@$0JPPPL@$0JPPPL@$0JPPPL@$0IAAAE@$0JPPPL@$0EAAAE@$0IAAAE@@str_format_internal@absl@@QEAA@PEBD@Z
    ??0?$FormatSpecTemplate@$0BPPPL@$0JPPPL@$0JPPPL@$0JPPPL@@str_format_internal@absl@@QEAA@PEBD@Z
    ??0?$FormatSpecTemplate@$0JPPPL@$0JPOAA@@str_format_internal@absl@@QEAA@PEBD@Z
    ??0?$FormatSpecTemplate@$0JPPPL@@str_format_internal@absl@@QEAA@PEBD@Z
    ??0?$InlinedVector@PEAUCordRep@cord_internal@absl@@$01V?$allocator@PEAUCordRep@cord_internal@absl@@@__Cr@std@@@absl@@QEAA@XZ
    ??0?$InlinedVector@PEAVLogSink@absl@@$0BA@V?$allocator@PEAVLogSink@absl@@@__Cr@std@@@absl@@QEAA@XZ
    ??0?$InlinedVector@UPayload@status_internal@absl@@$00V?$allocator@UPayload@status_internal@absl@@@__Cr@std@@@absl@@QEAA@AEBV01@@Z
    ??0?$InlinedVector@UPayload@status_internal@absl@@$00V?$allocator@UPayload@status_internal@absl@@@__Cr@std@@@absl@@QEAA@AEBV01@AEBV?$allocator@UPayload@status_internal@absl@@@__Cr@std@@@Z
    ??0?$InlinedVector@UPayload@status_internal@absl@@$00V?$allocator@UPayload@status_internal@absl@@@__Cr@std@@@absl@@QEAA@XZ
    ??0?$IteratorValueAdapter@V?$allocator@PEAUCordRep@cord_internal@absl@@@__Cr@std@@V?$move_iterator@PEAPEAUCordRep@cord_internal@absl@@@23@@inlined_vector_internal@absl@@QEAA@AEBV?$move_iterator@PEAPEAUCordRep@cord_internal@absl@@@__Cr@std@@@Z
    ??0?$IteratorValueAdapter@V?$allocator@PEAVLogSink@absl@@@__Cr@std@@V?$move_iterator@PEAPEAVLogSink@absl@@@23@@inlined_vector_internal@absl@@QEAA@AEBV?$move_iterator@PEAPEAVLogSink@absl@@@__Cr@std@@@Z
    ??0?$IteratorValueAdapter@V?$allocator@UPayload@status_internal@absl@@@__Cr@std@@PEBUPayload@status_internal@absl@@@inlined_vector_internal@absl@@QEAA@AEBQEBUPayload@status_internal@2@@Z
    ??0?$IteratorValueAdapter@V?$allocator@UPayload@status_internal@absl@@@__Cr@std@@V?$move_iterator@PEAUPayload@status_internal@absl@@@23@@inlined_vector_internal@absl@@QEAA@AEBV?$move_iterator@PEAUPayload@status_internal@absl@@@__Cr@std@@@Z
    ??0?$IteratorValueAdapter@V?$allocator@VFormatArgImpl@str_format_internal@absl@@@__Cr@std@@PEBVFormatArgImpl@str_format_internal@absl@@@inlined_vector_internal@absl@@QEAA@AEBQEBVFormatArgImpl@str_format_internal@2@@Z
    ??0?$NonIterableBitMask@_K$07$02@container_internal@absl@@QEAA@_K@Z
    ??0?$ProbedItemImpl@I$0CA@@container_internal@absl@@QEAA@E_K0@Z
    ??0?$ProbedItemImpl@_K$0EA@@container_internal@absl@@QEAA@E_K0@Z
    ??0?$ProbedItemImpl@_K$0HK@@container_internal@absl@@QEAA@E_K0@Z
    ??0?$Sample@UHashtablezInfo@container_internal@absl@@@profiling_internal@absl@@QEAA@XZ
    ??0?$SampleRecorder@UHashtablezInfo@container_internal@absl@@@profiling_internal@absl@@QEAA@XZ
    ??0?$Span@$$CBD@absl@@QEAA@PEBD_K@Z
    ??0?$Span@$$CBD@absl@@QEAA@XZ
    ??0?$Span@$$CBI@absl@@QEAA@PEBI_K@Z
    ??0?$Span@$$CBVFormatArgImpl@str_format_internal@absl@@@absl@@QEAA@PEBVFormatArgImpl@str_format_internal@1@_K@Z
    ??0?$Span@D@absl@@QEAA@PEAD_K@Z
    ??0?$Span@D@absl@@QEAA@XZ
    ??0?$Span@I@absl@@QEAA@PEAI_K@Z
    ??0?$Span@PEAVLogSink@absl@@@absl@@QEAA@PEAPEAVLogSink@1@_K@Z
    ??0?$Span@QEAUCordRep@cord_internal@absl@@@absl@@QEAA@PEBQEAUCordRep@cord_internal@1@_K@Z
    ??0?$Span@QEAX@absl@@QEAA@PEBQEAX_K@Z
    ??0?$SplitIterator@V?$Splitter@VByAnyChar@absl@@UAllowEmpty@2@V?$basic_string_view@DU?$char_traits@D@__Cr@std@@@__Cr@std@@@strings_internal@absl@@@strings_internal@absl@@QEAA@W4State@012@PEBV?$Splitter@VByAnyChar@absl@@UAllowEmpty@2@V?$basic_string_view@DU?$char_traits@D@__Cr@std@@@__Cr@std@@@12@@Z
    ??0?$SplitIterator@V?$Splitter@VByAnyChar@absl@@USkipEmpty@2@V?$basic_string_view@DU?$char_traits@D@__Cr@std@@@__Cr@std@@@strings_internal@absl@@@strings_internal@absl@@QEAA@W4State@012@PEBV?$Splitter@VByAnyChar@absl@@USkipEmpty@2@V?$basic_string_view@DU?$char_traits@D@__Cr@std@@@__Cr@std@@@12@@Z
    ??0?$SplitIterator@V?$Splitter@VByChar@absl@@UAllowEmpty@2@V?$basic_string_view@DU?$char_traits@D@__Cr@std@@@__Cr@std@@@strings_internal@absl@@@strings_internal@absl@@QEAA@W4State@012@PEBV?$Splitter@VByChar@absl@@UAllowEmpty@2@V?$basic_string_view@DU?$char_traits@D@__Cr@std@@@__Cr@std@@@12@@Z
    ??0?$Splitter@VByAnyChar@absl@@UAllowEmpty@2@V?$basic_string_view@DU?$char_traits@D@__Cr@std@@@__Cr@std@@@strings_internal@absl@@QEAA@V?$basic_string_view@DU?$char_traits@D@__Cr@std@@@__Cr@std@@VByAnyChar@2@UAllowEmpty@2@@Z
    ??0?$Splitter@VByAnyChar@absl@@USkipEmpty@2@V?$basic_string_view@DU?$char_traits@D@__Cr@std@@@__Cr@std@@@strings_internal@absl@@QEAA@V?$basic_string_view@DU?$char_traits@D@__Cr@std@@@__Cr@std@@VByAnyChar@2@USkipEmpty@2@@Z
    ??0?$Splitter@VByChar@absl@@UAllowEmpty@2@V?$basic_string_view@DU?$char_traits@D@__Cr@std@@@__Cr@std@@@strings_internal@absl@@QEAA@V?$basic_string_view@DU?$char_traits@D@__Cr@std@@@__Cr@std@@VByChar@2@UAllowEmpty@2@@Z
    ??0?$Storage@PEAUCordRep@cord_internal@absl@@$01V?$allocator@PEAUCordRep@cord_internal@absl@@@__Cr@std@@@inlined_vector_internal@absl@@QEAA@XZ
    ??0?$Storage@PEAVLogSink@absl@@$0BA@V?$allocator@PEAVLogSink@absl@@@__Cr@std@@@inlined_vector_internal@absl@@QEAA@XZ
    ??0?$Storage@UPayload@status_internal@absl@@$00V?$allocator@UPayload@status_internal@absl@@@__Cr@std@@@inlined_vector_internal@absl@@QEAA@AEBV?$allocator@UPayload@status_internal@absl@@@__Cr@std@@@Z
    ??0?$Storage@UPayload@status_internal@absl@@$00V?$allocator@UPayload@status_internal@absl@@@__Cr@std@@@inlined_vector_internal@absl@@QEAA@XZ
    ??0?$Storage@VFormatArgImpl@str_format_internal@absl@@$03V?$allocator@VFormatArgImpl@str_format_internal@absl@@@__Cr@std@@@inlined_vector_internal@absl@@QEAA@AEBV?$allocator@VFormatArgImpl@str_format_internal@absl@@@__Cr@std@@@Z
    ??0?$_AllocatorDestroyRangeReverse@V?$allocator@UUnrecognizedFlag@absl@@@__Cr@std@@PEAUUnrecognizedFlag@absl@@@__Cr@std@@QEAA@AEAV?$allocator@UUnrecognizedFlag@absl@@@12@AEAPEAUUnrecognizedFlag@absl@@1@Z
    ??0?$_CopySegment@V?$__deque_iterator@UPrefixCrc@CrcCordState@crc_internal@absl@@PEBU1234@AEBU1234@PEBQEBU1234@_J$0A@@__Cr@std@@V?$__deque_iterator@UPrefixCrc@CrcCordState@crc_internal@absl@@PEAU1234@AEAU1234@PEAPEAU1234@_J$0A@@23@@__copy_impl@__Cr@std@@QEAA@AEAV?$__deque_iterator@UPrefixCrc@CrcCordState@crc_internal@absl@@PEAU1234@AEAU1234@PEAPEAU1234@_J$0A@@23@@Z
    ??0?$__allocator_destructor@V?$allocator@PEBVImpl@time_zone@cctz@time_internal@absl@@@__Cr@std@@@__Cr@std@@QEAA@AEAV?$allocator@PEBVImpl@time_zone@cctz@time_internal@absl@@@12@_K@Z
    ??0?$__allocator_destructor@V?$allocator@UPrefixCrc@CrcCordState@crc_internal@absl@@@__Cr@std@@@__Cr@std@@QEAA@AEAV?$allocator@UPrefixCrc@CrcCordState@crc_internal@absl@@@12@_K@Z
    ??0?$__atomic_base@P6AXAEBUHashtablezInfo@container_internal@absl@@@Z$0A@@__Cr@std@@QEAA@P6AXAEBUHashtablezInfo@container_internal@absl@@@Z@Z
    ??0?$__atomic_base@PEAUHashtablezInfo@container_internal@absl@@$0A@@__Cr@std@@QEAA@PEAUHashtablezInfo@container_internal@absl@@@Z
    ??0?$__atomic_base@PEAVCordzHandle@cord_internal@absl@@$0A@@__Cr@std@@QEAA@PEAVCordzHandle@cord_internal@absl@@@Z
    ??0?$__atomic_base@PEAVCordzInfo@cord_internal@absl@@$0A@@__Cr@std@@QEAA@PEAVCordzInfo@cord_internal@absl@@@Z
    ??0?$__bucket_list_deallocator@V?$allocator@PEAU?$__hash_node_base@PEAU?$__hash_node@PEBUCordRep@cord_internal@absl@@PEAX@__Cr@std@@@__Cr@std@@@__Cr@std@@@__Cr@std@@QEAA@XZ
    ??0?$__bucket_list_deallocator@V?$allocator@PEAU?$__hash_node_base@PEAU?$__hash_node@U?$__hash_value_type@V?$basic_string@DU?$char_traits@D@__Cr@std@@V?$allocator@D@23@@__Cr@std@@PEBVImpl@time_zone@cctz@time_internal@absl@@@__Cr@std@@PEAX@__Cr@std@@@__Cr@std@@@__Cr@std@@@__Cr@std@@QEAA@XZ
    ??0?$__cxx_atomic_base_impl@P6AXAEBUHashtablezInfo@container_internal@absl@@@Z@__Cr@std@@QEAA@P6AXAEBUHashtablezInfo@container_internal@absl@@@Z@Z
    ??0?$__cxx_atomic_base_impl@PEAUHashtablezInfo@container_internal@absl@@@__Cr@std@@QEAA@PEAUHashtablezInfo@container_internal@absl@@@Z
    ??0?$__cxx_atomic_base_impl@PEAVCordzHandle@cord_internal@absl@@@__Cr@std@@QEAA@PEAVCordzHandle@cord_internal@absl@@@Z
    ??0?$__cxx_atomic_base_impl@PEAVCordzInfo@cord_internal@absl@@@__Cr@std@@QEAA@PEAVCordzInfo@cord_internal@absl@@@Z
    ??0?$__cxx_atomic_impl@P6AXAEBUHashtablezInfo@container_internal@absl@@@ZU?$__cxx_atomic_base_impl@P6AXAEBUHashtablezInfo@container_internal@absl@@@Z@__Cr@std@@@__Cr@std@@QEAA@P6AXAEBUHashtablezInfo@container_internal@absl@@@Z@Z
    ??0?$__cxx_atomic_impl@PEAUHashtablezInfo@container_internal@absl@@U?$__cxx_atomic_base_impl@PEAUHashtablezInfo@container_internal@absl@@@__Cr@std@@@__Cr@std@@QEAA@PEAUHashtablezInfo@container_internal@absl@@@Z
    ??0?$__cxx_atomic_impl@PEAVCordzHandle@cord_internal@absl@@U?$__cxx_atomic_base_impl@PEAVCordzHandle@cord_internal@absl@@@__Cr@std@@@__Cr@std@@QEAA@PEAVCordzHandle@cord_internal@absl@@@Z
    ??0?$__cxx_atomic_impl@PEAVCordzInfo@cord_internal@absl@@U?$__cxx_atomic_base_impl@PEAVCordzInfo@cord_internal@absl@@@__Cr@std@@@__Cr@std@@QEAA@PEAVCordzInfo@cord_internal@absl@@@Z
    ??0?$__default_alloc_func@V<lambda_1>@?0??SaveFromRegistry@FlagSaverImpl@flags_internal@absl@@QEAAXXZ@$$A6AXAEAVCommandLineFlag@5@@Z@__function@__Cr@std@@QEAA@$$QEAV<lambda_1>@?0??SaveFromRegistry@FlagSaverImpl@flags_internal@absl@@QEAAXXZ@@Z
    ??0?$__deque_iterator@PEBVImpl@time_zone@cctz@time_internal@absl@@PEAPEBV12345@AEAPEBV12345@PEAPEAPEBV12345@_J$0A@@__Cr@std@@AEAA@PEAPEAPEBVImpl@time_zone@cctz@time_internal@absl@@PEAPEBV34567@@Z
    ??0?$__deque_iterator@UPrefixCrc@CrcCordState@crc_internal@absl@@PEAU1234@AEAU1234@PEAPEAU1234@_J$0A@@__Cr@std@@AEAA@PEAPEAUPrefixCrc@CrcCordState@crc_internal@absl@@PEAU3456@@Z
    ??0?$__deque_iterator@UPrefixCrc@CrcCordState@crc_internal@absl@@PEBU1234@AEBU1234@PEBQEBU1234@_J$0A@@__Cr@std@@AEAA@PEBQEBUPrefixCrc@CrcCordState@crc_internal@absl@@PEBU3456@@Z
    ??0?$__exception_guard_noexceptions@V?$_AllocatorDestroyRangeReverse@V?$allocator@UUnrecognizedFlag@absl@@@__Cr@std@@PEAUUnrecognizedFlag@absl@@@__Cr@std@@@__Cr@std@@QEAA@V?$_AllocatorDestroyRangeReverse@V?$allocator@UUnrecognizedFlag@absl@@@__Cr@std@@PEAUUnrecognizedFlag@absl@@@12@@Z
    ??0?$__hash_const_iterator@PEAU?$__hash_node@PEBUCordRep@cord_internal@absl@@PEAX@__Cr@std@@@__Cr@std@@QEAA@AEBV?$__hash_iterator@PEAU?$__hash_node@PEBUCordRep@cord_internal@absl@@PEAX@__Cr@std@@@12@@Z
    ??0?$__hash_const_iterator@PEAU?$__hash_node@U?$__hash_value_type@V?$basic_string@DU?$char_traits@D@__Cr@std@@V?$allocator@D@23@@__Cr@std@@PEBVImpl@time_zone@cctz@time_internal@absl@@@__Cr@std@@PEAX@__Cr@std@@@__Cr@std@@QEAA@AEBV?$__hash_iterator@PEAU?$__hash_node@U?$__hash_value_type@V?$basic_string@DU?$char_traits@D@__Cr@std@@V?$allocator@D@23@@__Cr@std@@PEBVImpl@time_zone@cctz@time_internal@absl@@@__Cr@std@@PEAX@__Cr@std@@@12@@Z
    ??0?$__hash_iterator@PEAU?$__hash_node@PEBUCordRep@cord_internal@absl@@PEAX@__Cr@std@@@__Cr@std@@AEAA@PEAU?$__hash_node_base@PEAU?$__hash_node@PEBUCordRep@cord_internal@absl@@PEAX@__Cr@std@@@12@@Z
    ??0?$__hash_iterator@PEAU?$__hash_node@U?$__hash_value_type@V?$basic_string@DU?$char_traits@D@__Cr@std@@V?$allocator@D@23@@__Cr@std@@PEBVImpl@time_zone@cctz@time_internal@absl@@@__Cr@std@@PEAX@__Cr@std@@@__Cr@std@@AEAA@PEAU?$__hash_node_base@PEAU?$__hash_node@U?$__hash_value_type@V?$basic_string@DU?$char_traits@D@__Cr@std@@V?$allocator@D@23@@__Cr@std@@PEBVImpl@time_zone@cctz@time_internal@absl@@@__Cr@std@@PEAX@__Cr@std@@@12@@Z
    ??0?$__hash_map_const_iterator@V?$__hash_const_iterator@PEAU?$__hash_node@U?$__hash_value_type@V?$basic_string@DU?$char_traits@D@__Cr@std@@V?$allocator@D@23@@__Cr@std@@PEBVImpl@time_zone@cctz@time_internal@absl@@@__Cr@std@@PEAX@__Cr@std@@@__Cr@std@@@__Cr@std@@QEAA@V?$__hash_map_iterator@V?$__hash_iterator@PEAU?$__hash_node@U?$__hash_value_type@V?$basic_string@DU?$char_traits@D@__Cr@std@@V?$allocator@D@23@@__Cr@std@@PEBVImpl@time_zone@cctz@time_internal@absl@@@__Cr@std@@PEAX@__Cr@std@@@__Cr@std@@@12@@Z
    ??0?$__hash_map_iterator@V?$__hash_iterator@PEAU?$__hash_node@U?$__hash_value_type@V?$basic_string@DU?$char_traits@D@__Cr@std@@V?$allocator@D@23@@__Cr@std@@PEBVImpl@time_zone@cctz@time_internal@absl@@@__Cr@std@@PEAX@__Cr@std@@@__Cr@std@@@__Cr@std@@QEAA@V?$__hash_iterator@PEAU?$__hash_node@U?$__hash_value_type@V?$basic_string@DU?$char_traits@D@__Cr@std@@V?$allocator@D@23@@__Cr@std@@PEBVImpl@time_zone@cctz@time_internal@absl@@@__Cr@std@@PEAX@__Cr@std@@@12@@Z
    ??0?$__hash_node@PEBUCordRep@cord_internal@absl@@PEAX@__Cr@std@@QEAA@PEAU?$__hash_node_base@PEAU?$__hash_node@PEBUCordRep@cord_internal@absl@@PEAX@__Cr@std@@@12@_K@Z
    ??0?$__hash_node@U?$__hash_value_type@V?$basic_string@DU?$char_traits@D@__Cr@std@@V?$allocator@D@23@@__Cr@std@@PEBVImpl@time_zone@cctz@time_internal@absl@@@__Cr@std@@PEAX@__Cr@std@@QEAA@PEAU?$__hash_node_base@PEAU?$__hash_node@U?$__hash_value_type@V?$basic_string@DU?$char_traits@D@__Cr@std@@V?$allocator@D@23@@__Cr@std@@PEBVImpl@time_zone@cctz@time_internal@absl@@@__Cr@std@@PEAX@__Cr@std@@@12@_K@Z
    ??0?$__hash_node_base@PEAU?$__hash_node@PEBUCordRep@cord_internal@absl@@PEAX@__Cr@std@@@__Cr@std@@QEAA@PEAU012@@Z
    ??0?$__hash_node_base@PEAU?$__hash_node@PEBUCordRep@cord_internal@absl@@PEAX@__Cr@std@@@__Cr@std@@QEAA@XZ
    ??0?$__hash_node_base@PEAU?$__hash_node@U?$__hash_value_type@V?$basic_string@DU?$char_traits@D@__Cr@std@@V?$allocator@D@23@@__Cr@std@@PEBVImpl@time_zone@cctz@time_internal@absl@@@__Cr@std@@PEAX@__Cr@std@@@__Cr@std@@QEAA@PEAU012@@Z
    ??0?$__hash_node_base@PEAU?$__hash_node@U?$__hash_value_type@V?$basic_string@DU?$char_traits@D@__Cr@std@@V?$allocator@D@23@@__Cr@std@@PEBVImpl@time_zone@cctz@time_internal@absl@@@__Cr@std@@PEAX@__Cr@std@@@__Cr@std@@QEAA@XZ
    ??0?$__hash_node_destructor@V?$allocator@U?$__hash_node@PEBUCordRep@cord_internal@absl@@PEAX@__Cr@std@@@__Cr@std@@@__Cr@std@@QEAA@AEAV?$allocator@U?$__hash_node@PEBUCordRep@cord_internal@absl@@PEAX@__Cr@std@@@12@_N@Z
    ??0?$__hash_node_destructor@V?$allocator@U?$__hash_node@U?$__hash_value_type@V?$basic_string@DU?$char_traits@D@__Cr@std@@V?$allocator@D@23@@__Cr@std@@PEBVImpl@time_zone@cctz@time_internal@absl@@@__Cr@std@@PEAX@__Cr@std@@@__Cr@std@@@__Cr@std@@QEAA@AEAV?$allocator@U?$__hash_node@U?$__hash_value_type@V?$basic_string@DU?$char_traits@D@__Cr@std@@V?$allocator@D@23@@__Cr@std@@PEBVImpl@time_zone@cctz@time_internal@absl@@@__Cr@std@@PEAX@__Cr@std@@@12@_N@Z
    ??0?$__hash_table@PEBUCordRep@cord_internal@absl@@U?$hash@PEBUCordRep@cord_internal@absl@@@__Cr@std@@U?$equal_to@PEBUCordRep@cord_internal@absl@@@56@V?$allocator@PEBUCordRep@cord_internal@absl@@@56@@__Cr@std@@QEAA@XZ
    ??0?$__hash_table@U?$__hash_value_type@V?$basic_string@DU?$char_traits@D@__Cr@std@@V?$allocator@D@23@@__Cr@std@@PEBVImpl@time_zone@cctz@time_internal@absl@@@__Cr@std@@V?$__unordered_map_hasher@V?$basic_string@DU?$char_traits@D@__Cr@std@@V?$allocator@D@23@@__Cr@std@@U?$__hash_value_type@V?$basic_string@DU?$char_traits@D@__Cr@std@@V?$allocator@D@23@@__Cr@std@@PEBVImpl@time_zone@cctz@time_internal@absl@@@23@U?$hash@V?$basic_string@DU?$char_traits@D@__Cr@std@@V?$allocator@D@23@@__Cr@std@@@23@U?$equal_to@V?$basic_string@DU?$char_traits@D@__Cr@std@@V?$allocator@D@23@@__Cr@std@@@23@$00@23@V?$__unordered_map_equal@V?$basic_string@DU?$char_traits@D@__Cr@std@@V?$allocator@D@23@@__Cr@std@@U?$__hash_value_type@V?$basic_string@DU?$char_traits@D@__Cr@std@@V?$allocator@D@23@@__Cr@std@@PEBVImpl@time_zone@cctz@time_internal@absl@@@23@U?$equal_to@V?$basic_string@DU?$char_traits@D@__Cr@std@@V?$allocator@D@23@@__Cr@std@@@23@U?$hash@V?$basic_string@DU?$char_traits@D@__Cr@std@@V?$allocator@D@23@@__Cr@std@@@23@$00@23@V?$allocator@U?$__hash_value_type@V?$basic_string@DU?$char_traits@D@__Cr@std@@V?$allocator@D@23@@__Cr@std@@PEBVImpl@time_zone@cctz@time_internal@absl@@@__Cr@std@@@23@@__Cr@std@@QEAA@XZ
    ??0?$__map_iterator@V?$__tree_iterator@U?$__value_type@V?$basic_string@DU?$char_traits@D@__Cr@std@@V?$allocator@D@23@@__Cr@std@@V?$map@V?$basic_string@DU?$char_traits@D@__Cr@std@@V?$allocator@D@23@@__Cr@std@@V?$vector@PEBVCommandLineFlag@absl@@V?$allocator@PEBVCommandLineFlag@absl@@@__Cr@std@@@23@U?$less@V?$basic_string@DU?$char_traits@D@__Cr@std@@V?$allocator@D@23@@__Cr@std@@@23@V?$allocator@U?$pair@$$CBV?$basic_string@DU?$char_traits@D@__Cr@std@@V?$allocator@D@23@@__Cr@std@@V?$vector@PEBVCommandLineFlag@absl@@V?$allocator@PEBVCommandLineFlag@absl@@@__Cr@std@@@23@@__Cr@std@@@23@@23@@__Cr@std@@PEAV?$__tree_node@U?$__value_type@V?$basic_string@DU?$char_traits@D@__Cr@std@@V?$allocator@D@23@@__Cr@std@@V?$map@V?$basic_string@DU?$char_traits@D@__Cr@std@@V?$allocator@D@23@@__Cr@std@@V?$vector@PEBVCommandLineFlag@absl@@V?$allocator@PEBVCommandLineFlag@absl@@@__Cr@std@@@23@U?$less@V?$basic_string@DU?$char_traits@D@__Cr@std@@V?$allocator@D@23@@__Cr@std@@@23@V?$allocator@U?$pair@$$CBV?$basic_string@DU?$char_traits@D@__Cr@std@@V?$allocator@D@23@@__Cr@std@@V?$vector@PEBVCommandLineFlag@absl@@V?$allocator@PEBVCommandLineFlag@absl@@@__Cr@std@@@23@@__Cr@std@@@23@@23@@__Cr@std@@PEAX@23@_J@__Cr@std@@@__Cr@std@@QEAA@V?$__tree_iterator@U?$__value_type@V?$basic_string@DU?$char_traits@D@__Cr@std@@V?$allocator@D@23@@__Cr@std@@V?$map@V?$basic_string@DU?$char_traits@D@__Cr@std@@V?$allocator@D@23@@__Cr@std@@V?$vector@PEBVCommandLineFlag@absl@@V?$allocator@PEBVCommandLineFlag@absl@@@__Cr@std@@@23@U?$less@V?$basic_string@DU?$char_traits@D@__Cr@std@@V?$allocator@D@23@@__Cr@std@@@23@V?$allocator@U?$pair@$$CBV?$basic_string@DU?$char_traits@D@__Cr@std@@V?$allocator@D@23@@__Cr@std@@V?$vector@PEBVCommandLineFlag@absl@@V?$allocator@PEBVCommandLineFlag@absl@@@__Cr@std@@@23@@__Cr@std@@@23@@23@@__Cr@std@@PEAV?$__tree_node@U?$__value_type@V?$basic_string@DU?$char_traits@D@__Cr@std@@V?$allocator@D@23@@__Cr@std@@V?$map@V?$basic_string@DU?$char_traits@D@__Cr@std@@V?$allocator@D@23@@__Cr@std@@V?$vector@PEBVCommandLineFlag@absl@@V?$allocator@PEBVCommandLineFlag@absl@@@__Cr@std@@@23@U?$less@V?$basic_string@DU?$char_traits@D@__Cr@std@@V?$allocator@D@23@@__Cr@std@@@23@V?$allocator@U?$pair@$$CBV?$basic_string@DU?$char_traits@D@__Cr@std@@V?$allocator@D@23@@__Cr@std@@V?$vector@PEBVCommandLineFlag@absl@@V?$allocator@PEBVCommandLineFlag@absl@@@__Cr@std@@@23@@__Cr@std@@@23@@23@@__Cr@std@@PEAX@23@_J@12@@Z
    ??0?$__map_iterator@V?$__tree_iterator@U?$__value_type@V?$basic_string@DU?$char_traits@D@__Cr@std@@V?$allocator@D@23@@__Cr@std@@V?$vector@PEBVCommandLineFlag@absl@@V?$allocator@PEBVCommandLineFlag@absl@@@__Cr@std@@@23@@__Cr@std@@PEAV?$__tree_node@U?$__value_type@V?$basic_string@DU?$char_traits@D@__Cr@std@@V?$allocator@D@23@@__Cr@std@@V?$vector@PEBVCommandLineFlag@absl@@V?$allocator@PEBVCommandLineFlag@absl@@@__Cr@std@@@23@@__Cr@std@@PEAX@23@_J@__Cr@std@@@__Cr@std@@QEAA@V?$__tree_iterator@U?$__value_type@V?$basic_string@DU?$char_traits@D@__Cr@std@@V?$allocator@D@23@@__Cr@std@@V?$vector@PEBVCommandLineFlag@absl@@V?$allocator@PEBVCommandLineFlag@absl@@@__Cr@std@@@23@@__Cr@std@@PEAV?$__tree_node@U?$__value_type@V?$basic_string@DU?$char_traits@D@__Cr@std@@V?$allocator@D@23@@__Cr@std@@V?$vector@PEBVCommandLineFlag@absl@@V?$allocator@PEBVCommandLineFlag@absl@@@__Cr@std@@@23@@__Cr@std@@PEAX@23@_J@12@@Z
    ??0?$__map_value_compare@V?$basic_string@DU?$char_traits@D@__Cr@std@@V?$allocator@D@23@@__Cr@std@@U?$__value_type@V?$basic_string@DU?$char_traits@D@__Cr@std@@V?$allocator@D@23@@__Cr@std@@V?$map@V?$basic_string@DU?$char_traits@D@__Cr@std@@V?$allocator@D@23@@__Cr@std@@V?$vector@PEBVCommandLineFlag@absl@@V?$allocator@PEBVCommandLineFlag@absl@@@__Cr@std@@@23@U?$less@V?$basic_string@DU?$char_traits@D@__Cr@std@@V?$allocator@D@23@@__Cr@std@@@23@V?$allocator@U?$pair@$$CBV?$basic_string@DU?$char_traits@D@__Cr@std@@V?$allocator@D@23@@__Cr@std@@V?$vector@PEBVCommandLineFlag@absl@@V?$allocator@PEBVCommandLineFlag@absl@@@__Cr@std@@@23@@__Cr@std@@@23@@23@@23@U?$less@V?$basic_string@DU?$char_traits@D@__Cr@std@@V?$allocator@D@23@@__Cr@std@@@23@$00@__Cr@std@@QEAA@U?$less@V?$basic_string@DU?$char_traits@D@__Cr@std@@V?$allocator@D@23@@__Cr@std@@@12@@Z
    ??0?$__map_value_compare@V?$basic_string@DU?$char_traits@D@__Cr@std@@V?$allocator@D@23@@__Cr@std@@U?$__value_type@V?$basic_string@DU?$char_traits@D@__Cr@std@@V?$allocator@D@23@@__Cr@std@@V?$vector@PEBVCommandLineFlag@absl@@V?$allocator@PEBVCommandLineFlag@absl@@@__Cr@std@@@23@@23@U?$less@V?$basic_string@DU?$char_traits@D@__Cr@std@@V?$allocator@D@23@@__Cr@std@@@23@$00@__Cr@std@@QEAA@U?$less@V?$basic_string@DU?$char_traits@D@__Cr@std@@V?$allocator@D@23@@__Cr@std@@@12@@Z
    ??0?$__non_trivial_if@$00V?$allocator@PEAPEBVImpl@time_zone@cctz@time_internal@absl@@@__Cr@std@@@__Cr@std@@QEAA@XZ
    ??0?$__non_trivial_if@$00V?$allocator@PEAU?$__hash_node_base@PEAU?$__hash_node@PEBUCordRep@cord_internal@absl@@PEAX@__Cr@std@@@__Cr@std@@@__Cr@std@@@__Cr@std@@QEAA@XZ
    ??0?$__non_trivial_if@$00V?$allocator@PEAU?$__hash_node_base@PEAU?$__hash_node@U?$__hash_value_type@V?$basic_string@DU?$char_traits@D@__Cr@std@@V?$allocator@D@23@@__Cr@std@@PEBVImpl@time_zone@cctz@time_internal@absl@@@__Cr@std@@PEAX@__Cr@std@@@__Cr@std@@@__Cr@std@@@__Cr@std@@QEAA@XZ
    ??0?$__non_trivial_if@$00V?$allocator@PEAUCordRep@cord_internal@absl@@@__Cr@std@@@__Cr@std@@QEAA@XZ
    ??0?$__non_trivial_if@$00V?$allocator@PEAUPrefixCrc@CrcCordState@crc_internal@absl@@@__Cr@std@@@__Cr@std@@QEAA@XZ
    ??0?$__non_trivial_if@$00V?$allocator@PEAVCommandLineFlag@absl@@@__Cr@std@@@__Cr@std@@QEAA@XZ
    ??0?$__non_trivial_if@$00V?$allocator@PEAVCordzHandle@cord_internal@absl@@@__Cr@std@@@__Cr@std@@QEAA@XZ
    ??0?$__non_trivial_if@$00V?$allocator@PEAVLogSink@absl@@@__Cr@std@@@__Cr@std@@QEAA@XZ
    ??0?$__non_trivial_if@$00V?$allocator@PEBVCommandLineFlag@absl@@@__Cr@std@@@__Cr@std@@QEAA@XZ
    ??0?$__non_trivial_if@$00V?$allocator@PEBVCordzHandle@cord_internal@absl@@@__Cr@std@@@__Cr@std@@QEAA@XZ
    ??0?$__non_trivial_if@$00V?$allocator@PEBVImpl@time_zone@cctz@time_internal@absl@@@__Cr@std@@@__Cr@std@@QEAA@XZ
    ??0?$__non_trivial_if@$00V?$allocator@U?$AlignedType@$07@container_internal@absl@@@__Cr@std@@@__Cr@std@@QEAA@XZ
    ??0?$__non_trivial_if@$00V?$allocator@U?$__hash_node@PEBUCordRep@cord_internal@absl@@PEAX@__Cr@std@@@__Cr@std@@@__Cr@std@@QEAA@XZ
    ??0?$__non_trivial_if@$00V?$allocator@U?$__hash_node@U?$__hash_value_type@V?$basic_string@DU?$char_traits@D@__Cr@std@@V?$allocator@D@23@@__Cr@std@@PEBVImpl@time_zone@cctz@time_internal@absl@@@__Cr@std@@PEAX@__Cr@std@@@__Cr@std@@@__Cr@std@@QEAA@XZ
    ??0?$__non_trivial_if@$00V?$allocator@U?$pair@$$CBV?$basic_string_view@DU?$char_traits@D@__Cr@std@@@__Cr@std@@PEAVCommandLineFlag@absl@@@__Cr@std@@@__Cr@std@@@__Cr@std@@QEAA@XZ
    ??0?$__non_trivial_if@$00V?$allocator@UAlignedSpace@?1???$FlagOps@V?$vector@V?$basic_string@DU?$char_traits@D@__Cr@std@@V?$allocator@D@23@@__Cr@std@@V?$allocator@V?$basic_string@DU?$char_traits@D@__Cr@std@@V?$allocator@D@23@@__Cr@std@@@23@@__Cr@std@@@flags_internal@absl@@YAPEAXW4FlagOp@23@PEBXPEAX2@Z@@__Cr@std@@@__Cr@std@@QEAA@XZ
    ??0?$__non_trivial_if@$00V?$allocator@UConversionItem@ParsedFormatBase@str_format_internal@absl@@@__Cr@std@@@__Cr@std@@QEAA@XZ
    ??0?$__non_trivial_if@$00V?$allocator@UPayload@status_internal@absl@@@__Cr@std@@@__Cr@std@@QEAA@XZ
    ??0?$__non_trivial_if@$00V?$allocator@UPrefixCrc@CrcCordState@crc_internal@absl@@@__Cr@std@@@__Cr@std@@QEAA@XZ
    ??0?$__non_trivial_if@$00V?$allocator@UTransition@cctz@time_internal@absl@@@__Cr@std@@@__Cr@std@@QEAA@XZ
    ??0?$__non_trivial_if@$00V?$allocator@UTransitionType@cctz@time_internal@absl@@@__Cr@std@@@__Cr@std@@QEAA@XZ
    ??0?$__non_trivial_if@$00V?$allocator@UUnrecognizedFlag@absl@@@__Cr@std@@@__Cr@std@@QEAA@XZ
    ??0?$__non_trivial_if@$00V?$allocator@UViableSubstitution@strings_internal@absl@@@__Cr@std@@@__Cr@std@@QEAA@XZ
    ??0?$__non_trivial_if@$00V?$allocator@V?$__tree_node@U?$__value_type@V?$basic_string@DU?$char_traits@D@__Cr@std@@V?$allocator@D@23@@__Cr@std@@V?$map@V?$basic_string@DU?$char_traits@D@__Cr@std@@V?$allocator@D@23@@__Cr@std@@V?$vector@PEBVCommandLineFlag@absl@@V?$allocator@PEBVCommandLineFlag@absl@@@__Cr@std@@@23@U?$less@V?$basic_string@DU?$char_traits@D@__Cr@std@@V?$allocator@D@23@@__Cr@std@@@23@V?$allocator@U?$pair@$$CBV?$basic_string@DU?$char_traits@D@__Cr@std@@V?$allocator@D@23@@__Cr@std@@V?$vector@PEBVCommandLineFlag@absl@@V?$allocator@PEBVCommandLineFlag@absl@@@__Cr@std@@@23@@__Cr@std@@@23@@23@@__Cr@std@@PEAX@__Cr@std@@@__Cr@std@@@__Cr@std@@QEAA@XZ
    ??0?$__non_trivial_if@$00V?$allocator@V?$__tree_node@U?$__value_type@V?$basic_string@DU?$char_traits@D@__Cr@std@@V?$allocator@D@23@@__Cr@std@@V?$vector@PEBVCommandLineFlag@absl@@V?$allocator@PEBVCommandLineFlag@absl@@@__Cr@std@@@23@@__Cr@std@@PEAX@__Cr@std@@@__Cr@std@@@__Cr@std@@QEAA@XZ
    ??0?$__non_trivial_if@$00V?$allocator@V?$unique_ptr@VCRCImpl@crc_internal@absl@@U?$default_delete@VCRCImpl@crc_internal@absl@@@__Cr@std@@@__Cr@std@@@__Cr@std@@@__Cr@std@@QEAA@XZ
    ??0?$__non_trivial_if@$00V?$allocator@V?$unique_ptr@VFlagStateInterface@flags_internal@absl@@U?$default_delete@VFlagStateInterface@flags_internal@absl@@@__Cr@std@@@__Cr@std@@@__Cr@std@@@__Cr@std@@QEAA@XZ
    ??0?$__non_trivial_if@$00V?$allocator@VFormatArgImpl@str_format_internal@absl@@@__Cr@std@@@__Cr@std@@QEAA@XZ
    ??0?$__optional_copy_assign_base@VCord@absl@@$0A@@__Cr@std@@QEAA@XZ
    ??0?$__optional_copy_base@VCord@absl@@$0A@@__Cr@std@@QEAA@XZ
    ??0?$__optional_destruct_base@VCord@absl@@$0A@@__Cr@std@@QEAA@XZ
    ??0?$__optional_move_assign_base@VCord@absl@@$0A@@__Cr@std@@QEAA@XZ
    ??0?$__optional_move_base@VCord@absl@@$0A@@__Cr@std@@QEAA@XZ
    ??0?$__optional_storage_base@VCord@absl@@$0A@@__Cr@std@@QEAA@XZ
    ??0?$__policy_invoker@$$A6A?AV?$unique_ptr@VZoneInfoSource@cctz@time_internal@absl@@U?$default_delete@VZoneInfoSource@cctz@time_internal@absl@@@__Cr@std@@@__Cr@std@@AEBV?$basic_string@DU?$char_traits@D@__Cr@std@@V?$allocator@D@23@@23@@Z@__function@__Cr@std@@AEAA@P6A?AV?$unique_ptr@VZoneInfoSource@cctz@time_internal@absl@@U?$default_delete@VZoneInfoSource@cctz@time_internal@absl@@@__Cr@std@@@23@PEBT__policy_storage@123@AEBV?$basic_string@DU?$char_traits@D@__Cr@std@@V?$allocator@D@23@@23@@Z@Z
    ??0?$__policy_invoker@$$A6A?AV?$unique_ptr@VZoneInfoSource@cctz@time_internal@absl@@U?$default_delete@VZoneInfoSource@cctz@time_internal@absl@@@__Cr@std@@@__Cr@std@@AEBV?$basic_string@DU?$char_traits@D@__Cr@std@@V?$allocator@D@23@@23@@Z@__function@__Cr@std@@QEAA@XZ
    ??0?$__policy_invoker@$$A6AXAEAVCommandLineFlag@absl@@@Z@__function@__Cr@std@@AEAA@P6AXPEBT__policy_storage@123@AEAVCommandLineFlag@absl@@@Z@Z
    ??0?$__policy_invoker@$$A6AXAEAVCommandLineFlag@absl@@@Z@__function@__Cr@std@@QEAA@XZ
    ??0?$__policy_invoker@$$A6A_NAEBVCommandLineFlag@absl@@@Z@__function@__Cr@std@@AEAA@P6A_NPEBT__policy_storage@123@AEBVCommandLineFlag@absl@@@Z@Z
    ??0?$__policy_invoker@$$A6A_NAEBVCommandLineFlag@absl@@@Z@__function@__Cr@std@@QEAA@XZ
    ??0?$__split_buffer@PEAPEBVImpl@time_zone@cctz@time_internal@absl@@AEAV?$allocator@PEAPEBVImpl@time_zone@cctz@time_internal@absl@@@__Cr@std@@@__Cr@std@@QEAA@_K0AEAV?$allocator@PEAPEBVImpl@time_zone@cctz@time_internal@absl@@@12@@Z
    ??0?$__split_buffer@PEAPEBVImpl@time_zone@cctz@time_internal@absl@@V?$allocator@PEAPEBVImpl@time_zone@cctz@time_internal@absl@@@__Cr@std@@@__Cr@std@@QEAA@XZ
    ??0?$__split_buffer@PEAUPrefixCrc@CrcCordState@crc_internal@absl@@AEAV?$allocator@PEAUPrefixCrc@CrcCordState@crc_internal@absl@@@__Cr@std@@@__Cr@std@@QEAA@_K0AEAV?$allocator@PEAUPrefixCrc@CrcCordState@crc_internal@absl@@@12@@Z
    ??0?$__split_buffer@PEAUPrefixCrc@CrcCordState@crc_internal@absl@@V?$allocator@PEAUPrefixCrc@CrcCordState@crc_internal@absl@@@__Cr@std@@@__Cr@std@@QEAA@XZ
    ??0?$__split_buffer@PEAVCommandLineFlag@absl@@AEAV?$allocator@PEAVCommandLineFlag@absl@@@__Cr@std@@@__Cr@std@@QEAA@_K0AEAV?$allocator@PEAVCommandLineFlag@absl@@@12@@Z
    ??0?$__split_buffer@PEAVCordzHandle@cord_internal@absl@@AEAV?$allocator@PEAVCordzHandle@cord_internal@absl@@@__Cr@std@@@__Cr@std@@QEAA@_K0AEAV?$allocator@PEAVCordzHandle@cord_internal@absl@@@12@@Z
    ??0?$__split_buffer@PEAVLogSink@absl@@AEAV?$allocator@PEAVLogSink@absl@@@__Cr@std@@@__Cr@std@@QEAA@_K0AEAV?$allocator@PEAVLogSink@absl@@@12@@Z
    ??0?$__split_buffer@PEBVCommandLineFlag@absl@@AEAV?$allocator@PEBVCommandLineFlag@absl@@@__Cr@std@@@__Cr@std@@QEAA@_K0AEAV?$allocator@PEBVCommandLineFlag@absl@@@12@@Z
    ??0?$__split_buffer@PEBVCordzHandle@cord_internal@absl@@AEAV?$allocator@PEBVCordzHandle@cord_internal@absl@@@__Cr@std@@@__Cr@std@@QEAA@_K0AEAV?$allocator@PEBVCordzHandle@cord_internal@absl@@@12@@Z
    ??0?$__split_buffer@UConversionItem@ParsedFormatBase@str_format_internal@absl@@AEAV?$allocator@UConversionItem@ParsedFormatBase@str_format_internal@absl@@@__Cr@std@@@__Cr@std@@QEAA@_K0AEAV?$allocator@UConversionItem@ParsedFormatBase@str_format_internal@absl@@@12@@Z
    ??0?$__split_buffer@UTransition@cctz@time_internal@absl@@AEAV?$allocator@UTransition@cctz@time_internal@absl@@@__Cr@std@@@__Cr@std@@QEAA@_K0AEAV?$allocator@UTransition@cctz@time_internal@absl@@@12@@Z
    ??0?$__split_buffer@UTransitionType@cctz@time_internal@absl@@AEAV?$allocator@UTransitionType@cctz@time_internal@absl@@@__Cr@std@@@__Cr@std@@QEAA@_K0AEAV?$allocator@UTransitionType@cctz@time_internal@absl@@@12@@Z
    ??0?$__split_buffer@UUnrecognizedFlag@absl@@AEAV?$allocator@UUnrecognizedFlag@absl@@@__Cr@std@@@__Cr@std@@QEAA@_K0AEAV?$allocator@UUnrecognizedFlag@absl@@@12@@Z
    ??0?$__split_buffer@UViableSubstitution@strings_internal@absl@@AEAV?$allocator@UViableSubstitution@strings_internal@absl@@@__Cr@std@@@__Cr@std@@QEAA@_K0AEAV?$allocator@UViableSubstitution@strings_internal@absl@@@12@@Z
    ??0?$__split_buffer@V?$unique_ptr@VFlagStateInterface@flags_internal@absl@@U?$default_delete@VFlagStateInterface@flags_internal@absl@@@__Cr@std@@@__Cr@std@@AEAV?$allocator@V?$unique_ptr@VFlagStateInterface@flags_internal@absl@@U?$default_delete@VFlagStateInterface@flags_internal@absl@@@__Cr@std@@@__Cr@std@@@23@@__Cr@std@@QEAA@_K0AEAV?$allocator@V?$unique_ptr@VFlagStateInterface@flags_internal@absl@@U?$default_delete@VFlagStateInterface@flags_internal@absl@@@__Cr@std@@@__Cr@std@@@12@@Z
    ??0?$__tree@U?$__value_type@V?$basic_string@DU?$char_traits@D@__Cr@std@@V?$allocator@D@23@@__Cr@std@@V?$map@V?$basic_string@DU?$char_traits@D@__Cr@std@@V?$allocator@D@23@@__Cr@std@@V?$vector@PEBVCommandLineFlag@absl@@V?$allocator@PEBVCommandLineFlag@absl@@@__Cr@std@@@23@U?$less@V?$basic_string@DU?$char_traits@D@__Cr@std@@V?$allocator@D@23@@__Cr@std@@@23@V?$allocator@U?$pair@$$CBV?$basic_string@DU?$char_traits@D@__Cr@std@@V?$allocator@D@23@@__Cr@std@@V?$vector@PEBVCommandLineFlag@absl@@V?$allocator@PEBVCommandLineFlag@absl@@@__Cr@std@@@23@@__Cr@std@@@23@@23@@__Cr@std@@V?$__map_value_compare@V?$basic_string@DU?$char_traits@D@__Cr@std@@V?$allocator@D@23@@__Cr@std@@U?$__value_type@V?$basic_string@DU?$char_traits@D@__Cr@std@@V?$allocator@D@23@@__Cr@std@@V?$map@V?$basic_string@DU?$char_traits@D@__Cr@std@@V?$allocator@D@23@@__Cr@std@@V?$vector@PEBVCommandLineFlag@absl@@V?$allocator@PEBVCommandLineFlag@absl@@@__Cr@std@@@23@U?$less@V?$basic_string@DU?$char_traits@D@__Cr@std@@V?$allocator@D@23@@__Cr@std@@@23@V?$allocator@U?$pair@$$CBV?$basic_string@DU?$char_traits@D@__Cr@std@@V?$allocator@D@23@@__Cr@std@@V?$vector@PEBVCommandLineFlag@absl@@V?$allocator@PEBVCommandLineFlag@absl@@@__Cr@std@@@23@@__Cr@std@@@23@@23@@23@U?$less@V?$basic_string@DU?$char_traits@D@__Cr@std@@V?$allocator@D@23@@__Cr@std@@@23@$00@23@V?$allocator@U?$__value_type@V?$basic_string@DU?$char_traits@D@__Cr@std@@V?$allocator@D@23@@__Cr@std@@V?$map@V?$basic_string@DU?$char_traits@D@__Cr@std@@V?$allocator@D@23@@__Cr@std@@V?$vector@PEBVCommandLineFlag@absl@@V?$allocator@PEBVCommandLineFlag@absl@@@__Cr@std@@@23@U?$less@V?$basic_string@DU?$char_traits@D@__Cr@std@@V?$allocator@D@23@@__Cr@std@@@23@V?$allocator@U?$pair@$$CBV?$basic_string@DU?$char_traits@D@__Cr@std@@V?$allocator@D@23@@__Cr@std@@V?$vector@PEBVCommandLineFlag@absl@@V?$allocator@PEBVCommandLineFlag@absl@@@__Cr@std@@@23@@__Cr@std@@@23@@23@@__Cr@std@@@23@@__Cr@std@@QEAA@AEBV?$__map_value_compare@V?$basic_string@DU?$char_traits@D@__Cr@std@@V?$allocator@D@23@@__Cr@std@@U?$__value_type@V?$basic_string@DU?$char_traits@D@__Cr@std@@V?$allocator@D@23@@__Cr@std@@V?$map@V?$basic_string@DU?$char_traits@D@__Cr@std@@V?$allocator@D@23@@__Cr@std@@V?$vector@PEBVCommandLineFlag@absl@@V?$allocator@PEBVCommandLineFlag@absl@@@__Cr@std@@@23@U?$less@V?$basic_string@DU?$char_traits@D@__Cr@std@@V?$allocator@D@23@@__Cr@std@@@23@V?$allocator@U?$pair@$$CBV?$basic_string@DU?$char_traits@D@__Cr@std@@V?$allocator@D@23@@__Cr@std@@V?$vector@PEBVCommandLineFlag@absl@@V?$allocator@PEBVCommandLineFlag@absl@@@__Cr@std@@@23@@__Cr@std@@@23@@23@@23@U?$less@V?$basic_string@DU?$char_traits@D@__Cr@std@@V?$allocator@D@23@@__Cr@std@@@23@$00@12@@Z
    ??0?$__tree@U?$__value_type@V?$basic_string@DU?$char_traits@D@__Cr@std@@V?$allocator@D@23@@__Cr@std@@V?$vector@PEBVCommandLineFlag@absl@@V?$allocator@PEBVCommandLineFlag@absl@@@__Cr@std@@@23@@__Cr@std@@V?$__map_value_compare@V?$basic_string@DU?$char_traits@D@__Cr@std@@V?$allocator@D@23@@__Cr@std@@U?$__value_type@V?$basic_string@DU?$char_traits@D@__Cr@std@@V?$allocator@D@23@@__Cr@std@@V?$vector@PEBVCommandLineFlag@absl@@V?$allocator@PEBVCommandLineFlag@absl@@@__Cr@std@@@23@@23@U?$less@V?$basic_string@DU?$char_traits@D@__Cr@std@@V?$allocator@D@23@@__Cr@std@@@23@$00@23@V?$allocator@U?$__value_type@V?$basic_string@DU?$char_traits@D@__Cr@std@@V?$allocator@D@23@@__Cr@std@@V?$vector@PEBVCommandLineFlag@absl@@V?$allocator@PEBVCommandLineFlag@absl@@@__Cr@std@@@23@@__Cr@std@@@23@@__Cr@std@@QEAA@AEBV?$__map_value_compare@V?$basic_string@DU?$char_traits@D@__Cr@std@@V?$allocator@D@23@@__Cr@std@@U?$__value_type@V?$basic_string@DU?$char_traits@D@__Cr@std@@V?$allocator@D@23@@__Cr@std@@V?$vector@PEBVCommandLineFlag@absl@@V?$allocator@PEBVCommandLineFlag@absl@@@__Cr@std@@@23@@23@U?$less@V?$basic_string@DU?$char_traits@D@__Cr@std@@V?$allocator@D@23@@__Cr@std@@@23@$00@12@@Z
    ??0?$__tree_iterator@U?$__value_type@V?$basic_string@DU?$char_traits@D@__Cr@std@@V?$allocator@D@23@@__Cr@std@@V?$map@V?$basic_string@DU?$char_traits@D@__Cr@std@@V?$allocator@D@23@@__Cr@std@@V?$vector@PEBVCommandLineFlag@absl@@V?$allocator@PEBVCommandLineFlag@absl@@@__Cr@std@@@23@U?$less@V?$basic_string@DU?$char_traits@D@__Cr@std@@V?$allocator@D@23@@__Cr@std@@@23@V?$allocator@U?$pair@$$CBV?$basic_string@DU?$char_traits@D@__Cr@std@@V?$allocator@D@23@@__Cr@std@@V?$vector@PEBVCommandLineFlag@absl@@V?$allocator@PEBVCommandLineFlag@absl@@@__Cr@std@@@23@@__Cr@std@@@23@@23@@__Cr@std@@PEAV?$__tree_node@U?$__value_type@V?$basic_string@DU?$char_traits@D@__Cr@std@@V?$allocator@D@23@@__Cr@std@@V?$map@V?$basic_string@DU?$char_traits@D@__Cr@std@@V?$allocator@D@23@@__Cr@std@@V?$vector@PEBVCommandLineFlag@absl@@V?$allocator@PEBVCommandLineFlag@absl@@@__Cr@std@@@23@U?$less@V?$basic_string@DU?$char_traits@D@__Cr@std@@V?$allocator@D@23@@__Cr@std@@@23@V?$allocator@U?$pair@$$CBV?$basic_string@DU?$char_traits@D@__Cr@std@@V?$allocator@D@23@@__Cr@std@@V?$vector@PEBVCommandLineFlag@absl@@V?$allocator@PEBVCommandLineFlag@absl@@@__Cr@std@@@23@@__Cr@std@@@23@@23@@__Cr@std@@PEAX@23@_J@__Cr@std@@AEAA@PEAV?$__tree_end_node@PEAV?$__tree_node_base@PEAX@__Cr@std@@@12@@Z
    ??0?$__tree_iterator@U?$__value_type@V?$basic_string@DU?$char_traits@D@__Cr@std@@V?$allocator@D@23@@__Cr@std@@V?$map@V?$basic_string@DU?$char_traits@D@__Cr@std@@V?$allocator@D@23@@__Cr@std@@V?$vector@PEBVCommandLineFlag@absl@@V?$allocator@PEBVCommandLineFlag@absl@@@__Cr@std@@@23@U?$less@V?$basic_string@DU?$char_traits@D@__Cr@std@@V?$allocator@D@23@@__Cr@std@@@23@V?$allocator@U?$pair@$$CBV?$basic_string@DU?$char_traits@D@__Cr@std@@V?$allocator@D@23@@__Cr@std@@V?$vector@PEBVCommandLineFlag@absl@@V?$allocator@PEBVCommandLineFlag@absl@@@__Cr@std@@@23@@__Cr@std@@@23@@23@@__Cr@std@@PEAV?$__tree_node@U?$__value_type@V?$basic_string@DU?$char_traits@D@__Cr@std@@V?$allocator@D@23@@__Cr@std@@V?$map@V?$basic_string@DU?$char_traits@D@__Cr@std@@V?$allocator@D@23@@__Cr@std@@V?$vector@PEBVCommandLineFlag@absl@@V?$allocator@PEBVCommandLineFlag@absl@@@__Cr@std@@@23@U?$less@V?$basic_string@DU?$char_traits@D@__Cr@std@@V?$allocator@D@23@@__Cr@std@@@23@V?$allocator@U?$pair@$$CBV?$basic_string@DU?$char_traits@D@__Cr@std@@V?$allocator@D@23@@__Cr@std@@V?$vector@PEBVCommandLineFlag@absl@@V?$allocator@PEBVCommandLineFlag@absl@@@__Cr@std@@@23@@__Cr@std@@@23@@23@@__Cr@std@@PEAX@23@_J@__Cr@std@@AEAA@PEAV?$__tree_node@U?$__value_type@V?$basic_string@DU?$char_traits@D@__Cr@std@@V?$allocator@D@23@@__Cr@std@@V?$map@V?$basic_string@DU?$char_traits@D@__Cr@std@@V?$allocator@D@23@@__Cr@std@@V?$vector@PEBVCommandLineFlag@absl@@V?$allocator@PEBVCommandLineFlag@absl@@@__Cr@std@@@23@U?$less@V?$basic_string@DU?$char_traits@D@__Cr@std@@V?$allocator@D@23@@__Cr@std@@@23@V?$allocator@U?$pair@$$CBV?$basic_string@DU?$char_traits@D@__Cr@std@@V?$allocator@D@23@@__Cr@std@@V?$vector@PEBVCommandLineFlag@absl@@V?$allocator@PEBVCommandLineFlag@absl@@@__Cr@std@@@23@@__Cr@std@@@23@@23@@__Cr@std@@PEAX@12@@Z
    ??0?$__tree_iterator@U?$__value_type@V?$basic_string@DU?$char_traits@D@__Cr@std@@V?$allocator@D@23@@__Cr@std@@V?$vector@PEBVCommandLineFlag@absl@@V?$allocator@PEBVCommandLineFlag@absl@@@__Cr@std@@@23@@__Cr@std@@PEAV?$__tree_node@U?$__value_type@V?$basic_string@DU?$char_traits@D@__Cr@std@@V?$allocator@D@23@@__Cr@std@@V?$vector@PEBVCommandLineFlag@absl@@V?$allocator@PEBVCommandLineFlag@absl@@@__Cr@std@@@23@@__Cr@std@@PEAX@23@_J@__Cr@std@@AEAA@PEAV?$__tree_end_node@PEAV?$__tree_node_base@PEAX@__Cr@std@@@12@@Z
    ??0?$__tree_iterator@U?$__value_type@V?$basic_string@DU?$char_traits@D@__Cr@std@@V?$allocator@D@23@@__Cr@std@@V?$vector@PEBVCommandLineFlag@absl@@V?$allocator@PEBVCommandLineFlag@absl@@@__Cr@std@@@23@@__Cr@std@@PEAV?$__tree_node@U?$__value_type@V?$basic_string@DU?$char_traits@D@__Cr@std@@V?$allocator@D@23@@__Cr@std@@V?$vector@PEBVCommandLineFlag@absl@@V?$allocator@PEBVCommandLineFlag@absl@@@__Cr@std@@@23@@__Cr@std@@PEAX@23@_J@__Cr@std@@AEAA@PEAV?$__tree_node@U?$__value_type@V?$basic_string@DU?$char_traits@D@__Cr@std@@V?$allocator@D@23@@__Cr@std@@V?$vector@PEBVCommandLineFlag@absl@@V?$allocator@PEBVCommandLineFlag@absl@@@__Cr@std@@@23@@__Cr@std@@PEAX@12@@Z
    ??0?$__tree_node_destructor@V?$allocator@V?$__tree_node@U?$__value_type@V?$basic_string@DU?$char_traits@D@__Cr@std@@V?$allocator@D@23@@__Cr@std@@V?$map@V?$basic_string@DU?$char_traits@D@__Cr@std@@V?$allocator@D@23@@__Cr@std@@V?$vector@PEBVCommandLineFlag@absl@@V?$allocator@PEBVCommandLineFlag@absl@@@__Cr@std@@@23@U?$less@V?$basic_string@DU?$char_traits@D@__Cr@std@@V?$allocator@D@23@@__Cr@std@@@23@V?$allocator@U?$pair@$$CBV?$basic_string@DU?$char_traits@D@__Cr@std@@V?$allocator@D@23@@__Cr@std@@V?$vector@PEBVCommandLineFlag@absl@@V?$allocator@PEBVCommandLineFlag@absl@@@__Cr@std@@@23@@__Cr@std@@@23@@23@@__Cr@std@@PEAX@__Cr@std@@@__Cr@std@@@__Cr@std@@QEAA@AEAV?$allocator@V?$__tree_node@U?$__value_type@V?$basic_string@DU?$char_traits@D@__Cr@std@@V?$allocator@D@23@@__Cr@std@@V?$map@V?$basic_string@DU?$char_traits@D@__Cr@std@@V?$allocator@D@23@@__Cr@std@@V?$vector@PEBVCommandLineFlag@absl@@V?$allocator@PEBVCommandLineFlag@absl@@@__Cr@std@@@23@U?$less@V?$basic_string@DU?$char_traits@D@__Cr@std@@V?$allocator@D@23@@__Cr@std@@@23@V?$allocator@U?$pair@$$CBV?$basic_string@DU?$char_traits@D@__Cr@std@@V?$allocator@D@23@@__Cr@std@@V?$vector@PEBVCommandLineFlag@absl@@V?$allocator@PEBVCommandLineFlag@absl@@@__Cr@std@@@23@@__Cr@std@@@23@@23@@__Cr@std@@PEAX@__Cr@std@@@12@_N@Z
    ??0?$__tree_node_destructor@V?$allocator@V?$__tree_node@U?$__value_type@V?$basic_string@DU?$char_traits@D@__Cr@std@@V?$allocator@D@23@@__Cr@std@@V?$vector@PEBVCommandLineFlag@absl@@V?$allocator@PEBVCommandLineFlag@absl@@@__Cr@std@@@23@@__Cr@std@@PEAX@__Cr@std@@@__Cr@std@@@__Cr@std@@QEAA@AEAV?$allocator@V?$__tree_node@U?$__value_type@V?$basic_string@DU?$char_traits@D@__Cr@std@@V?$allocator@D@23@@__Cr@std@@V?$vector@PEBVCommandLineFlag@absl@@V?$allocator@PEBVCommandLineFlag@absl@@@__Cr@std@@@23@@__Cr@std@@PEAX@__Cr@std@@@12@_N@Z
